	.arch armv8-a
	.file	"Chapter15_4.cpp"
	.text
.Ltext0:
	.section	.rodata._ZN10AlignedMem8AllocateEmm.str1.8,"aMS",@progbits,1
	.align	3
.LC0:
	.string	"Memory allocation error: AllocateAlignedMem()"
	.section	.text._ZN10AlignedMem8AllocateEmm,"axG",@progbits,_ZN10AlignedMem8AllocateEmm,comdat
	.align	2
	.p2align 4,,11
	.weak	_ZN10AlignedMem8AllocateEmm
	.type	_ZN10AlignedMem8AllocateEmm, %function
_ZN10AlignedMem8AllocateEmm:
.LVL0:
.LFB3642:
	.file 1 "../../Include/AlignedMem.h"
	.loc 1 9 18 view -0
	.cfi_startproc
	.cfi_personality 0x9b,DW.ref.__gxx_personality_v0
	.cfi_lsda 0x1b,.LLSDA3642
	.loc 1 11 9 view .LVU1
	.loc 1 9 18 is_stmt 0 view .LVU2
	mov	x2, x0
.LVL1:
	.loc 1 9 18 view .LVU3
	stp	x29, x30, [sp, -32]!
	.cfi_def_cfa_offset 32
	.cfi_offset 29, -32
	.cfi_offset 30, -24
	mov	x0, x1
.LVL2:
.LBB325:
.LBI325:
	.file 2 "../../Include/OS.h"
	.loc 2 53 18 is_stmt 1 view .LVU4
.LBB326:
	.loc 2 55 9 view .LVU5
	.loc 2 59 9 view .LVU6
.LBE326:
.LBE325:
	.loc 1 9 18 is_stmt 0 view .LVU7
	mov	x29, sp
.LBB329:
.LBB327:
	.loc 2 59 26 view .LVU8
	mov	x1, x2
.LVL3:
	.loc 2 59 26 view .LVU9
.LBE327:
.LBE329:
	.loc 1 9 18 view .LVU10
.LBB330:
.LBB328:
	.loc 2 59 26 view .LVU11
	bl	aligned_alloc
.LVL4:
	.loc 2 63 9 is_stmt 1 view .LVU12
	.loc 2 63 9 is_stmt 0 view .LVU13
.LBE328:
.LBE330:
	.loc 1 13 9 is_stmt 1 view .LVU14
	cbz	x0, .L7
	.loc 1 17 5 is_stmt 0 view .LVU15
	ldp	x29, x30, [sp], 32
	.cfi_remember_state
	.cfi_restore 30
	.cfi_restore 29
	.cfi_def_cfa_offset 0
	ret
.L7:
	.cfi_restore_state
	.loc 1 14 13 is_stmt 1 view .LVU16
	.loc 1 14 85 is_stmt 0 view .LVU17
	mov	x0, 16
.LVL5:
	.loc 1 14 85 view .LVU18
	str	x19, [sp, 16]
	.cfi_offset 19, -16
	.loc 1 14 85 view .LVU19
	bl	__cxa_allocate_exception
.LVL6:
	mov	x19, x0
	.loc 1 14 13 view .LVU20
	adrp	x1, .LC0
	add	x1, x1, :lo12:.LC0
.LEHB0:
	bl	_ZNSt13runtime_errorC1EPKc
.LVL7:
.LEHE0:
	.loc 1 14 85 discriminator 2 view .LVU21
	adrp	x2, :got:_ZNSt13runtime_errorD1Ev
	adrp	x1, :got:_ZTISt13runtime_error
	mov	x0, x19
	ldr	x2, [x2, #:got_lo12:_ZNSt13runtime_errorD1Ev]
	ldr	x1, [x1, #:got_lo12:_ZTISt13runtime_error]
.LEHB1:
	bl	__cxa_throw
.LVL8:
.L4:
	.loc 1 14 85 view .LVU22
	mov	x1, x0
	mov	x0, x19
	mov	x19, x1
	bl	__cxa_free_exception
.LVL9:
	mov	x0, x19
	bl	_Unwind_Resume
.LVL10:
.LEHE1:
	.cfi_endproc
.LFE3642:
	.global	__gxx_personality_v0
	.section	.gcc_except_table._ZN10AlignedMem8AllocateEmm,"aG",@progbits,_ZN10AlignedMem8AllocateEmm,comdat
.LLSDA3642:
	.byte	0xff
	.byte	0xff
	.byte	0x1
	.uleb128 .LLSDACSE3642-.LLSDACSB3642
.LLSDACSB3642:
	.uleb128 .LEHB0-.LFB3642
	.uleb128 .LEHE0-.LEHB0
	.uleb128 .L4-.LFB3642
	.uleb128 0
	.uleb128 .LEHB1-.LFB3642
	.uleb128 .LEHE1-.LEHB1
	.uleb128 0
	.uleb128 0
.LLSDACSE3642:
	.section	.text._ZN10AlignedMem8AllocateEmm,"axG",@progbits,_ZN10AlignedMem8AllocateEmm,comdat
	.size	_ZN10AlignedMem8AllocateEmm, .-_ZN10AlignedMem8AllocateEmm
	.section	.text._ZNSt23mersenne_twister_engineImLm32ELm624ELm397ELm31ELm2567483615ELm11ELm4294967295ELm7ELm2636928640ELm15ELm4022730752ELm18ELm1812433253EE11_M_gen_randEv,"axG",@progbits,_ZNSt23mersenne_twister_engineImLm32ELm624ELm397ELm31ELm2567483615ELm11ELm4294967295ELm7ELm2636928640ELm15ELm4022730752ELm18ELm1812433253EE11_M_gen_randEv,comdat
	.align	2
	.p2align 4,,11
	.weak	_ZNSt23mersenne_twister_engineImLm32ELm624ELm397ELm31ELm2567483615ELm11ELm4294967295ELm7ELm2636928640ELm15ELm4022730752ELm18ELm1812433253EE11_M_gen_randEv
	.type	_ZNSt23mersenne_twister_engineImLm32ELm624ELm397ELm31ELm2567483615ELm11ELm4294967295ELm7ELm2636928640ELm15ELm4022730752ELm18ELm1812433253EE11_M_gen_randEv, %function
_ZNSt23mersenne_twister_engineImLm32ELm624ELm397ELm31ELm2567483615ELm11ELm4294967295ELm7ELm2636928640ELm15ELm4022730752ELm18ELm1812433253EE11_M_gen_randEv:
.LVL11:
.LFB4240:
	.file 3 "/usr/include/c++/10/bits/random.tcc"
	.loc 3 394 5 is_stmt 1 view -0
	.cfi_startproc
.LBB331:
	.loc 3 401 32 view .LVU24
.LBB332:
	.loc 3 404 24 is_stmt 0 view .LVU25
	adrp	x2, .LC2
	.loc 3 403 32 view .LVU26
	adrp	x1, .LC1
	add	x6, x0, 1816
	.loc 3 404 24 view .LVU27
	ldr	q5, [x2, #:lo12:.LC2]
	.loc 3 406 18 view .LVU28
	adrp	x2, .LC3
	.loc 3 403 32 view .LVU29
	ldr	q6, [x1, #:lo12:.LC1]
	add	x1, x0, 8
	.loc 3 406 18 view .LVU30
	ldr	q4, [x2, #:lo12:.LC3]
	.loc 3 406 10 view .LVU31
	adrp	x2, .LC4
	ldr	q3, [x2, #:lo12:.LC4]
.LVL12:
	.p2align 3,,7
.L9:
	.loc 3 406 10 view .LVU32
.LBE332:
	.loc 3 401 32 view .LVU33
	add	x1, x1, 16
.LBB333:
	.loc 3 403 26 view .LVU34
	ldr	q0, [x1, -24]
	.loc 3 404 14 view .LVU35
	ldr	q2, [x1, -16]
	.loc 3 403 32 view .LVU36
	and	v0.16b, v0.16b, v6.16b
	.loc 3 405 21 view .LVU37
	ldr	q1, [x1, 3152]
	.loc 3 404 24 view .LVU38
	and	v2.16b, v2.16b, v5.16b
	.loc 3 403 14 view .LVU39
	orr	v0.16b, v0.16b, v2.16b
	.loc 3 405 40 view .LVU40
	ushr	v2.2d, v0.2d, 1
	.loc 3 406 18 view .LVU41
	and	v0.16b, v0.16b, v4.16b
	.loc 3 405 33 view .LVU42
	eor	v1.16b, v1.16b, v2.16b
	.loc 3 405 14 view .LVU43
	cmeq	v0.2d, v0.2d, #0
	.loc 3 406 10 view .LVU44
	eor	v2.16b, v1.16b, v3.16b
	.loc 3 405 14 view .LVU45
	bsl	v0.16b, v1.16b, v2.16b
	str	q0, [x1, -24]
.LBE333:
	.loc 3 401 7 is_stmt 1 view .LVU46
	.loc 3 401 32 view .LVU47
	cmp	x6, x1
	bne	.L9
.LVL13:
.LBB334:
	.loc 3 403 32 is_stmt 0 view .LVU48
	ldr	x2, [x0, 1808]
	.loc 3 406 10 view .LVU49
	mov	x4, 45279
	.loc 3 404 24 view .LVU50
	ldr	x5, [x0, 1816]
	.loc 3 406 10 view .LVU51
	movk	x4, 0x9908, lsl 16
	.loc 3 405 33 view .LVU52
	ldr	x1, [x0, 4984]
	add	x7, x0, 1824
	.loc 3 403 14 view .LVU53
	bfi	x2, x5, 0, 31
.LVL14:
	.loc 3 403 14 view .LVU54
.LBE334:
.LBE331:
.LBB339:
.LBB340:
	.loc 3 411 32 view .LVU55
	adrp	x5, .LC1
.LBE340:
.LBE339:
.LBB345:
.LBB335:
	.loc 3 405 14 view .LVU56
	mov	x3, 0
	.loc 3 405 33 view .LVU57
	eor	x1, x1, x2, lsr 1
	.loc 3 406 10 view .LVU58
	tst	x2, 1
.LBE335:
.LBE345:
.LBB346:
.LBB341:
	.loc 3 414 18 view .LVU59
	adrp	x2, .LC3
.LVL15:
	.loc 3 411 32 view .LVU60
	ldr	q6, [x5, #:lo12:.LC1]
	.loc 3 412 24 view .LVU61
	adrp	x5, .LC2
	.loc 3 414 18 view .LVU62
	ldr	q4, [x2, #:lo12:.LC3]
.LBE341:
.LBE346:
.LBB347:
.LBB336:
	.loc 3 406 10 view .LVU63
	eor	x2, x1, x4
.LBE336:
.LBE347:
.LBB348:
.LBB342:
	.loc 3 414 10 view .LVU64
	adrp	x4, .LC4
.LBE342:
.LBE348:
.LBB349:
.LBB337:
	.loc 3 406 10 view .LVU65
	csel	x1, x2, x1, ne
.LBE337:
.LBE349:
.LBB350:
.LBB343:
	.loc 3 412 24 view .LVU66
	ldr	q5, [x5, #:lo12:.LC2]
.LBE343:
.LBE350:
.LBB351:
.LBB338:
	.loc 3 405 14 view .LVU67
	str	x1, [x0, 1808]
.LVL16:
	.loc 3 405 14 view .LVU68
.LBE338:
	.loc 3 401 7 is_stmt 1 view .LVU69
	.loc 3 401 32 view .LVU70
.LBE351:
.LBB352:
.LBB344:
	.loc 3 414 10 is_stmt 0 view .LVU71
	ldr	q3, [x4, #:lo12:.LC4]
.L11:
	.loc 3 411 26 view .LVU72
	ldr	q0, [x6, x3]
	.loc 3 412 14 view .LVU73
	ldr	q2, [x7, x3]
	.loc 3 411 32 view .LVU74
	and	v0.16b, v0.16b, v6.16b
	.loc 3 413 21 view .LVU75
	ldr	q1, [x0, x3]
	.loc 3 412 24 view .LVU76
	and	v2.16b, v2.16b, v5.16b
	.loc 3 411 14 view .LVU77
	orr	v0.16b, v0.16b, v2.16b
	.loc 3 413 48 view .LVU78
	ushr	v2.2d, v0.2d, 1
	.loc 3 414 18 view .LVU79
	and	v0.16b, v0.16b, v4.16b
	.loc 3 413 41 view .LVU80
	eor	v1.16b, v1.16b, v2.16b
	.loc 3 413 14 view .LVU81
	cmeq	v0.2d, v0.2d, #0
	.loc 3 414 10 view .LVU82
	eor	v2.16b, v1.16b, v3.16b
	.loc 3 413 14 view .LVU83
	bsl	v0.16b, v1.16b, v2.16b
	str	q0, [x6, x3]
.LBE344:
	.loc 3 409 7 is_stmt 1 view .LVU84
	.loc 3 409 42 view .LVU85
	add	x3, x3, 16
	cmp	x3, 3168
	bne	.L11
.LBE352:
	.loc 3 418 21 is_stmt 0 view .LVU86
	ldr	x4, [x0]
	.loc 3 420 10 view .LVU87
	mov	x3, 45279
	.loc 3 417 39 view .LVU88
	ldr	x2, [x0, 4984]
	.loc 3 420 10 view .LVU89
	movk	x3, 0x9908, lsl 16
	.loc 3 419 38 view .LVU90
	ldr	x1, [x0, 3168]
	.loc 3 421 12 view .LVU91
	str	xzr, [x0, 4992]
	.loc 3 417 17 view .LVU92
	bfi	x2, x4, 0, 31
.LVL17:
	.loc 3 419 38 view .LVU93
	eor	x1, x1, x2, lsr 1
	.loc 3 420 10 view .LVU94
	tst	x2, 1
	eor	x2, x1, x3
.LVL18:
	.loc 3 420 10 view .LVU95
	csel	x1, x2, x1, ne
	.loc 3 419 21 view .LVU96
	str	x1, [x0, 4984]
.LVL19:
	.loc 3 422 5 view .LVU97
	ret
	.cfi_endproc
.LFE4240:
	.size	_ZNSt23mersenne_twister_engineImLm32ELm624ELm397ELm31ELm2567483615ELm11ELm4294967295ELm7ELm2636928640ELm15ELm4022730752ELm18ELm1812433253EE11_M_gen_randEv, .-_ZNSt23mersenne_twister_engineImLm32ELm624ELm397ELm31ELm2567483615ELm11ELm4294967295ELm7ELm2636928640ELm15ELm4022730752ELm18ELm1812433253EE11_M_gen_randEv
	.section	.rodata.str1.8,"aMS",@progbits,1
	.align	3
.LC5:
	.string	"sum_x: "
	.align	3
.LC6:
	.string	"sum_y: "
	.align	3
.LC7:
	.string	"sum_xx: "
	.align	3
.LC8:
	.string	"sum_yy: "
	.align	3
.LC9:
	.string	"sum_xy: "
	.align	3
.LC10:
	.string	"rho: "
	.section	.text.startup,"ax",@progbits
	.align	2
	.p2align 4,,11
	.global	main
	.type	main, %function
main:
.LFB3650:
	.file 4 "Chapter15_4.cpp"
	.loc 4 14 1 is_stmt 1 view -0
	.cfi_startproc
	.cfi_personality 0x9b,DW.ref.__gxx_personality_v0
	.cfi_lsda 0x1b,.LLSDA3650
	.loc 4 16 2 view .LVU99
.LVL20:
.LBB516:
.LBI516:
	.loc 1 49 5 view .LVU100
	.loc 1 49 5 is_stmt 0 view .LVU101
.LBE516:
	.loc 4 14 1 view .LVU102
	mov	x12, 5168
	sub	sp, sp, x12
	.cfi_def_cfa_offset 5168
.LBB520:
.LBB517:
	.loc 1 52 42 view .LVU103
	mov	x1, 16
	mov	x0, 480
.LBE517:
.LBE520:
	.loc 4 14 1 view .LVU104
	stp	x29, x30, [sp]
	.cfi_offset 29, -5168
	.cfi_offset 30, -5160
	mov	x29, sp
	stp	x19, x20, [sp, 16]
	stp	x21, x22, [sp, 32]
	stp	x23, x24, [sp, 48]
	stp	d8, d9, [sp, 64]
	stp	d10, d11, [sp, 80]
	stp	d12, d13, [sp, 96]
	stp	d14, d15, [sp, 112]
	.cfi_offset 19, -5152
	.cfi_offset 20, -5144
	.cfi_offset 21, -5136
	.cfi_offset 22, -5128
	.cfi_offset 23, -5120
	.cfi_offset 24, -5112
	.cfi_offset 72, -5104
	.cfi_offset 73, -5096
	.cfi_offset 74, -5088
	.cfi_offset 75, -5080
	.cfi_offset 76, -5072
	.cfi_offset 77, -5064
	.cfi_offset 78, -5056
	.cfi_offset 79, -5048
.LEHB2:
.LBB521:
.LBB518:
	.loc 1 52 42 view .LVU105
	bl	_ZN10AlignedMem8AllocateEmm
.LVL21:
.LEHE2:
.LBE518:
.LBE521:
.LBB522:
.LBB523:
	mov	x1, 16
.LBE523:
.LBE522:
.LBB526:
.LBB519:
	mov	x20, x0
.LVL22:
	.loc 1 52 42 view .LVU106
.LBE519:
.LBE526:
	.loc 4 17 2 is_stmt 1 view .LVU107
.LBB527:
.LBI522:
	.loc 1 49 5 view .LVU108
.LBB524:
	.loc 1 52 42 is_stmt 0 view .LVU109
	mov	x0, 480
.LVL23:
.LEHB3:
	.loc 1 52 42 view .LVU110
	bl	_ZN10AlignedMem8AllocateEmm
.LVL24:
.LEHE3:
	add	x22, sp, 168
.LBE524:
.LBE527:
.LBB528:
.LBB529:
.LBB530:
.LBB531:
	.loc 3 327 15 view .LVU111
	mov	x4, 44
.LBE531:
.LBE530:
.LBE529:
.LBE528:
.LBB548:
.LBB525:
	.loc 1 52 42 view .LVU112
	mov	x21, x0
.LVL25:
	.loc 1 52 42 view .LVU113
.LBE525:
.LBE548:
	.loc 4 18 2 is_stmt 1 view .LVU114
	.loc 4 19 2 view .LVU115
	.loc 4 20 5 view .LVU116
.LBB549:
.LBI549:
	.file 5 "/usr/include/c++/10/bits/random.h"
	.loc 5 1790 7 view .LVU117
.LBB550:
.LBI550:
	.loc 5 1748 2 view .LVU118
	.loc 5 1748 2 is_stmt 0 view .LVU119
.LBE550:
.LBE549:
	.loc 4 21 5 is_stmt 1 view .LVU120
.LBB551:
.LBI551:
	.loc 5 2014 7 view .LVU121
.LBB552:
.LBB553:
.LBI553:
	.loc 5 1978 2 view .LVU122
	.loc 5 1978 2 is_stmt 0 view .LVU123
.LBE553:
.LBE552:
.LBE551:
	.loc 4 22 2 is_stmt 1 view .LVU124
.LBB555:
.LBI528:
	.loc 5 521 7 view .LVU125
.LBB546:
.LBB544:
.LBI530:
	.loc 3 323 5 view .LVU126
.LBB542:
.LBB532:
.LBB533:
	.loc 3 334 8 is_stmt 0 view .LVU127
	mov	x3, 35173
	add	x1, x22, 8
.LBE533:
.LBE532:
	.loc 3 327 15 view .LVU128
	mov	x0, x4
.LVL26:
.LBB540:
	.loc 3 330 19 view .LVU129
	mov	x2, 1
.LBB537:
	.loc 3 334 8 view .LVU130
	movk	x3, 0x6c07, lsl 16
.LBE537:
.LBE540:
	.loc 3 327 15 view .LVU131
	str	x4, [sp, 168]
.LVL27:
.LBB541:
	.loc 3 330 32 is_stmt 1 view .LVU132
	.p2align 3,,7
.L19:
.LBB538:
	.loc 3 333 8 is_stmt 0 view .LVU133
	eor	x0, x0, x0, lsr 30
.LVL28:
.LBB534:
.LBI534:
	.loc 5 148 7 is_stmt 1 view .LVU134
.LBB535:
.LBI535:
	.loc 5 137 2 view .LVU135
.LBB536:
	.loc 5 141 12 is_stmt 0 view .LVU136
	madd	w0, w0, w3, w2
.LVL29:
	.loc 5 141 12 view .LVU137
.LBE536:
.LBE535:
.LBE534:
.LBE538:
	.loc 3 330 7 view .LVU138
	add	x2, x2, 1
.LVL30:
.LBB539:
	.loc 3 336 14 view .LVU139
	str	x0, [x1], 8
.LBE539:
	.loc 3 330 7 is_stmt 1 view .LVU140
.LVL31:
	.loc 3 330 32 view .LVU141
	cmp	x2, 624
	bne	.L19
.LBE541:
.LBE542:
.LBE544:
.LBE546:
.LBE555:
.LBB556:
.LBB557:
.LBB558:
.LBB559:
.LBB560:
.LBB561:
.LBB562:
.LBB563:
.LBB564:
	mov	w1, 65534
.LBE564:
.LBE563:
.LBE562:
.LBB585:
.LBB586:
.LBB587:
	mov	w0, 65532
.LBE587:
.LBE586:
.LBE585:
.LBE561:
.LBE560:
.LBE559:
.LBE558:
.LBE557:
.LBB634:
.LBB635:
.LBB636:
.LBB637:
.LBB638:
.LBB639:
.LBB640:
.LBB641:
.LBB642:
	.loc 3 461 27 is_stmt 0 view .LVU142
	mov	x23, 22144
.LBE642:
.LBE641:
.LBE640:
.LBE639:
.LBE638:
.LBE637:
.LBE636:
.LBE635:
.LBE634:
.LBE556:
.LBB686:
.LBB547:
.LBB545:
.LBB543:
	.loc 3 339 12 view .LVU143
	str	x2, [sp, 5160]
.LVL32:
	.loc 3 339 12 view .LVU144
.LBE543:
.LBE545:
.LBE547:
.LBE686:
	.loc 4 23 2 is_stmt 1 view .LVU145
.LBB687:
	.loc 4 23 18 view .LVU146
.LBB675:
.LBB631:
.LBB628:
.LBB624:
.LBB621:
.LBB608:
.LBB580:
.LBB575:
	movk	w1, 0x3f7f, lsl 16
.LBE575:
.LBE580:
.LBE608:
.LBB609:
.LBB603:
.LBB598:
	movk	w0, 0x3f7f, lsl 16
.LBE598:
.LBE603:
.LBE609:
.LBB610:
.LBB581:
.LBB576:
	fmov	s9, w1
.LBE576:
.LBE581:
.LBE610:
.LBB611:
.LBB604:
.LBB599:
	fmov	s10, w0
.LBE599:
.LBE604:
.LBE611:
.LBE621:
.LBE624:
.LBE628:
.LBE631:
.LBE675:
.LBE687:
.LBB688:
.LBB554:
	.loc 5 2016 61 is_stmt 0 view .LVU147
	mov	w24, 0
.LVL33:
	.loc 5 2016 61 view .LVU148
.LBE554:
.LBE688:
.LBB689:
	.loc 4 23 13 view .LVU149
	mov	x19, 0
.LVL34:
.LBB676:
.LBB672:
.LBB669:
.LBB666:
.LBB663:
.LBB660:
.LBB655:
	.loc 3 3295 34 is_stmt 1 view .LVU150
.LBB649:
.LBI641:
	.loc 3 450 5 view .LVU151
.LBB643:
	.loc 3 461 27 is_stmt 0 view .LVU152
	movk	x23, 0x9d2c, lsl 16
	.loc 3 455 7 view .LVU153
	cmp	x2, 623
	bhi	.L51
	.p2align 3,,7
.L20:
	.loc 3 459 19 view .LVU154
	ldr	x0, [x22, x2, lsl 3]
.LVL35:
	.loc 3 459 19 view .LVU155
.LBE643:
.LBE649:
.LBE655:
	.loc 3 3300 13 view .LVU156
	mov	w1, 796917760
	fmov	s1, w1
.LBB656:
.LBB650:
.LBB644:
	.loc 3 462 27 view .LVU157
	mov	x3, 4022730752
.LBE644:
.LBE650:
	.loc 3 3297 10 view .LVU158
	movi	v8.2s, #0
.LBE656:
	.loc 3 3301 7 view .LVU159
	fmov	s2, 1.0e+0
.LBB657:
.LBB651:
.LBB645:
	.loc 3 460 27 view .LVU160
	ubfx	x1, x0, 11, 32
	.loc 3 459 29 view .LVU161
	add	x2, x2, 1
	.loc 3 460 11 view .LVU162
	eor	x0, x0, x1
.LVL36:
	.loc 3 459 29 view .LVU163
	str	x2, [sp, 5160]
	.loc 3 461 27 view .LVU164
	and	x1, x23, x0, lsl 7
	.loc 3 461 11 view .LVU165
	eor	x0, x0, x1
.LVL37:
	.loc 3 462 27 view .LVU166
	and	x1, x3, x0, lsl 15
	.loc 3 462 11 view .LVU167
	eor	x0, x0, x1
.LVL38:
	.loc 3 462 11 view .LVU168
.LBE645:
.LBE651:
	.loc 3 3295 7 is_stmt 1 view .LVU169
	.loc 3 3295 34 view .LVU170
.LBB652:
.LBB646:
	.loc 3 463 11 is_stmt 0 view .LVU171
	eor	x0, x0, x0, lsr 18
.LVL39:
	.loc 3 463 11 view .LVU172
.LBE646:
.LBE652:
	.loc 3 3297 13 view .LVU173
	ucvtf	s0, x0
.LBE657:
	mov	w0, 1112014848
.LBB658:
	.loc 3 3297 10 view .LVU174
	fadd	s0, s0, s8
.LVL40:
	.loc 3 3297 10 view .LVU175
.LBE658:
	.loc 3 3300 13 view .LVU176
	fmul	s0, s0, s1
.LVL41:
	.loc 3 3301 7 view .LVU177
	fcmpe	s0, s2
	bge	.L36
.LBE660:
.LBE663:
.LBE666:
	.loc 5 1859 53 view .LVU178
	fmov	s1, w0
	fmadd	s8, s0, s1, s8
.LBE669:
.LBE672:
.LBE676:
.LBB677:
.LBB678:
	.file 6 "/usr/include/c++/10/cmath"
	.loc 6 1757 28 view .LVU179
	frinta	s8, s8
.L21:
.LVL42:
	.loc 6 1757 28 view .LVU180
.LBE678:
.LBI677:
	.loc 6 1756 3 is_stmt 1 view .LVU181
.LBB679:
	.loc 6 1757 5 view .LVU182
	.loc 6 1757 5 is_stmt 0 view .LVU183
.LBE679:
.LBE677:
	.loc 4 24 8 view .LVU184
	str	s8, [x20, x19, lsl 2]
	.loc 4 25 3 is_stmt 1 view .LVU185
.LVL43:
.LBB680:
.LBI557:
	.loc 5 2079 2 view .LVU186
.LBB632:
.LBI558:
	.loc 3 1769 7 view .LVU187
.LBB629:
.LBB625:
.LBI625:
	.loc 5 162 2 view .LVU188
	.loc 5 162 2 is_stmt 0 view .LVU189
.LBE625:
.LBB626:
	.loc 3 1777 2 view .LVU190
	cbnz	w24, .L37
.LBB622:
.LBB612:
.LBB582:
.LBB577:
	.loc 3 3300 13 view .LVU191
	mov	w0, 796917760
	.loc 3 3301 7 view .LVU192
	fmov	s14, 1.0e+0
	.loc 3 3300 13 view .LVU193
	fmov	s15, w0
.LVL44:
	.p2align 3,,7
.L46:
	.loc 3 3300 13 view .LVU194
.LBE577:
.LBE582:
.LBI562:
	.loc 5 179 2 is_stmt 1 view .LVU195
.LBB583:
.LBI563:
	.loc 3 3279 5 view .LVU196
.LBB578:
.LBB565:
	.loc 3 3295 34 view .LVU197
.LBB566:
.LBI566:
	.loc 3 450 5 view .LVU198
.LBB567:
	.loc 3 455 7 is_stmt 0 view .LVU199
	cmp	x2, 623
	bhi	.L52
.L23:
	.loc 3 459 19 view .LVU200
	ldr	x1, [x22, x2, lsl 3]
.LVL45:
	.loc 3 462 27 view .LVU201
	mov	x3, 4022730752
.LBE567:
.LBE566:
	.loc 3 3297 10 view .LVU202
	movi	v1.2s, #0
.LBB571:
.LBB568:
	.loc 3 459 29 view .LVU203
	add	x2, x2, 1
	str	x2, [sp, 5160]
	.loc 3 460 27 view .LVU204
	ubfx	x0, x1, 11, 32
	.loc 3 460 11 view .LVU205
	eor	x1, x1, x0
.LVL46:
	.loc 3 461 27 view .LVU206
	and	x0, x23, x1, lsl 7
	.loc 3 461 11 view .LVU207
	eor	x1, x1, x0
.LVL47:
	.loc 3 462 27 view .LVU208
	and	x3, x3, x1, lsl 15
	.loc 3 462 11 view .LVU209
	eor	x1, x1, x3
.LVL48:
	.loc 3 462 11 view .LVU210
.LBE568:
.LBE571:
	.loc 3 3295 7 is_stmt 1 view .LVU211
	.loc 3 3295 34 view .LVU212
.LBB572:
.LBB569:
	.loc 3 463 11 is_stmt 0 view .LVU213
	eor	x1, x1, x1, lsr 18
.LVL49:
	.loc 3 463 11 view .LVU214
.LBE569:
.LBE572:
	.loc 3 3297 13 view .LVU215
	ucvtf	s0, x1
	.loc 3 3297 10 view .LVU216
	fadd	s0, s0, s1
.LVL50:
	.loc 3 3297 10 view .LVU217
.LBE565:
	.loc 3 3300 13 view .LVU218
	fmul	s0, s0, s15
.LVL51:
	.loc 3 3301 7 view .LVU219
	fcmpe	s0, s14
	bge	.L38
	fmov	s1, 2.0e+0
	fmov	s11, -1.0e+0
	fmadd	s11, s0, s1, s11
.L24:
.LVL52:
	.loc 3 3301 7 view .LVU220
.LBE578:
.LBE583:
.LBE612:
.LBB613:
.LBI585:
	.loc 5 179 2 is_stmt 1 view .LVU221
.LBB605:
.LBI586:
	.loc 3 3279 5 view .LVU222
.LBB600:
.LBB588:
	.loc 3 3295 34 view .LVU223
.LBB589:
.LBI589:
	.loc 3 450 5 view .LVU224
.LBB590:
	.loc 3 455 7 is_stmt 0 view .LVU225
	cmp	x2, 623
	bhi	.L53
.L25:
	.loc 3 459 19 view .LVU226
	ldr	x1, [x22, x2, lsl 3]
.LVL53:
	.loc 3 462 27 view .LVU227
	mov	x3, 4022730752
.LBE590:
.LBE589:
	.loc 3 3297 10 view .LVU228
	movi	v1.2s, #0
.LBB594:
.LBB591:
	.loc 3 459 29 view .LVU229
	add	x2, x2, 1
	str	x2, [sp, 5160]
	.loc 3 460 27 view .LVU230
	ubfx	x0, x1, 11, 32
	.loc 3 460 11 view .LVU231
	eor	x1, x1, x0
.LVL54:
	.loc 3 461 27 view .LVU232
	and	x0, x23, x1, lsl 7
	.loc 3 461 11 view .LVU233
	eor	x1, x1, x0
.LVL55:
	.loc 3 462 27 view .LVU234
	and	x3, x3, x1, lsl 15
	.loc 3 462 11 view .LVU235
	eor	x1, x1, x3
.LVL56:
	.loc 3 462 11 view .LVU236
.LBE591:
.LBE594:
	.loc 3 3295 7 is_stmt 1 view .LVU237
	.loc 3 3295 34 view .LVU238
.LBB595:
.LBB592:
	.loc 3 463 11 is_stmt 0 view .LVU239
	eor	x1, x1, x1, lsr 18
.LVL57:
	.loc 3 463 11 view .LVU240
.LBE592:
.LBE595:
	.loc 3 3297 13 view .LVU241
	ucvtf	s0, x1
	.loc 3 3297 10 view .LVU242
	fadd	s0, s0, s1
.LVL58:
	.loc 3 3297 10 view .LVU243
.LBE588:
	.loc 3 3300 13 view .LVU244
	fmul	s0, s0, s15
.LVL59:
	.loc 3 3301 7 view .LVU245
	fcmpe	s0, s14
	bge	.L39
	fmov	s1, 2.0e+0
	fmov	s12, -1.0e+0
	fmadd	s12, s0, s1, s12
.LBE600:
.LBE605:
.LBE613:
	.loc 3 1789 26 view .LVU246
	fmul	s13, s12, s12
.L26:
.LVL60:
	.loc 3 1789 8 view .LVU247
	fmadd	s13, s11, s11, s13
.LVL61:
	.loc 3 1791 24 is_stmt 1 view .LVU248
	fcmpe	s13, s14
	bgt	.L46
	fcmp	s13, #0.0
	beq	.L46
.LVL62:
.LBB614:
.LBI614:
	.loc 6 338 3 view .LVU249
.LBB615:
	.loc 6 339 5 view .LVU250
	.loc 6 339 26 is_stmt 0 view .LVU251
	fmov	s0, s13
	bl	logf
.LVL63:
	.loc 6 339 26 view .LVU252
.LBE615:
.LBE614:
	.loc 3 1793 46 view .LVU253
	fmov	s1, -2.0e+0
	fmul	s0, s0, s1
	.loc 3 1793 42 view .LVU254
	fdiv	s0, s0, s13
.LVL64:
.LBB616:
.LBI616:
	.loc 6 463 3 is_stmt 1 view .LVU255
.LBB617:
	.loc 6 464 5 view .LVU256
	fcmp	s0, #0.0
	bpl	.L42
	.loc 6 464 27 is_stmt 0 view .LVU257
	bl	sqrtf
.LVL65:
	.loc 6 464 27 view .LVU258
	b	.L30
.LVL66:
	.p2align 2,,3
.L42:
	.loc 6 464 27 view .LVU259
	fsqrt	s0, s0
.LVL67:
.L30:
	.loc 6 464 27 view .LVU260
.LBE617:
.LBE616:
	.loc 3 1794 21 view .LVU261
	fmul	s11, s0, s11
.LVL68:
	.loc 3 1796 12 view .LVU262
	fmul	s12, s0, s12
.LVL69:
	.loc 3 1795 25 view .LVU263
	mov	w24, 1
.LVL70:
.L22:
	.loc 3 1795 25 view .LVU264
.LBE622:
.LBE626:
	.loc 3 1799 8 view .LVU265
	fmov	s1, 7.0e+0
	fmov	s0, 2.5e+1
	fmadd	s0, s12, s1, s0
.LVL71:
	.loc 3 1799 8 view .LVU266
.LBE629:
.LBE632:
.LBE680:
.LBB681:
.LBI681:
	.loc 6 1756 3 is_stmt 1 view .LVU267
.LBB682:
	.loc 6 1757 5 view .LVU268
	.loc 6 1757 28 is_stmt 0 view .LVU269
	frinta	s0, s0
.LVL72:
	.loc 6 1757 28 view .LVU270
.LBE682:
.LBE681:
	.loc 4 25 15 view .LVU271
	fadd	s8, s0, s8
	.loc 4 25 8 view .LVU272
	str	s8, [x21, x19, lsl 2]
	.loc 4 23 2 is_stmt 1 view .LVU273
	add	x19, x19, 1
.LVL73:
	.loc 4 23 18 view .LVU274
	cmp	x19, 120
	beq	.L31
.LBB683:
.LBB673:
.LBB670:
.LBB667:
.LBB664:
.LBB661:
.LBB659:
.LBB653:
.LBB647:
	.loc 3 455 11 is_stmt 0 view .LVU275
	ldr	x2, [sp, 5160]
.LVL74:
	.loc 3 455 11 view .LVU276
.LBE647:
.LBE653:
	.loc 3 3295 34 is_stmt 1 view .LVU277
.LBB654:
	.loc 3 450 5 view .LVU278
.LBB648:
	.loc 3 455 7 is_stmt 0 view .LVU279
	cmp	x2, 623
	bls	.L20
.L51:
	.loc 3 456 13 view .LVU280
	mov	x0, x22
	bl	_ZNSt23mersenne_twister_engineImLm32ELm624ELm397ELm31ELm2567483615ELm11ELm4294967295ELm7ELm2636928640ELm15ELm4022730752ELm18ELm1812433253EE11_M_gen_randEv
.LVL75:
	.loc 3 459 30 view .LVU281
	ldr	x2, [sp, 5160]
	b	.L20
.LVL76:
	.p2align 2,,3
.L53:
	.loc 3 459 30 view .LVU282
.LBE648:
.LBE654:
.LBE659:
.LBE661:
.LBE664:
.LBE667:
.LBE670:
.LBE673:
.LBE683:
.LBB684:
.LBB633:
.LBB630:
.LBB627:
.LBB623:
.LBB618:
.LBB606:
.LBB601:
.LBB597:
.LBB596:
.LBB593:
	.loc 3 456 13 view .LVU283
	mov	x0, x22
	bl	_ZNSt23mersenne_twister_engineImLm32ELm624ELm397ELm31ELm2567483615ELm11ELm4294967295ELm7ELm2636928640ELm15ELm4022730752ELm18ELm1812433253EE11_M_gen_randEv
.LVL77:
	.loc 3 459 30 view .LVU284
	ldr	x2, [sp, 5160]
	b	.L25
.LVL78:
	.p2align 2,,3
.L52:
	.loc 3 459 30 view .LVU285
.LBE593:
.LBE596:
.LBE597:
.LBE601:
.LBE606:
.LBE618:
.LBB619:
.LBB584:
.LBB579:
.LBB574:
.LBB573:
.LBB570:
	.loc 3 456 13 view .LVU286
	mov	x0, x22
	bl	_ZNSt23mersenne_twister_engineImLm32ELm624ELm397ELm31ELm2567483615ELm11ELm4294967295ELm7ELm2636928640ELm15ELm4022730752ELm18ELm1812433253EE11_M_gen_randEv
.LVL79:
	.loc 3 459 30 view .LVU287
	ldr	x2, [sp, 5160]
	b	.L23
.LVL80:
	.p2align 2,,3
.L38:
	.loc 3 459 30 view .LVU288
.LBE570:
.LBE573:
.LBE574:
	fmov	s11, s9
	b	.L24
.LVL81:
	.p2align 2,,3
.L39:
	.loc 3 459 30 view .LVU289
.LBE579:
.LBE584:
.LBE619:
.LBB620:
.LBB607:
.LBB602:
	fmov	s13, s10
	fmov	s12, s9
	b	.L26
.LVL82:
	.p2align 2,,3
.L37:
	.loc 3 459 30 view .LVU290
.LBE602:
.LBE607:
.LBE620:
.LBE623:
	.loc 3 1780 12 view .LVU291
	fmov	s12, s11
	.loc 3 1779 25 view .LVU292
	mov	w24, 0
.LVL83:
	.loc 3 1779 25 view .LVU293
	b	.L22
.LVL84:
.L36:
	.loc 3 1779 25 view .LVU294
.LBE627:
.LBE630:
.LBE633:
.LBE684:
.LBB685:
.LBB674:
.LBB671:
.LBB668:
.LBB665:
.LBB662:
	fmov	s8, w0
	b	.L21
.LVL85:
.L31:
	.loc 3 1779 25 view .LVU295
.LBE662:
.LBE665:
.LBE668:
.LBE671:
.LBE674:
.LBE685:
.LBE689:
	.loc 4 27 2 is_stmt 1 view .LVU296
	.loc 4 28 2 view .LVU297
	.loc 4 28 24 is_stmt 0 view .LVU298
	mov	w0, 28767
	mov	x4, x19
	movk	w0, 0x3089, lsl 16
	fmov	s0, w0
	mov	x3, x21
	mov	x2, x20
	add	x1, sp, 144
	add	x0, sp, 140
.LEHB4:
	bl	corrCoeff_
.LVL86:
	.loc 4 29 2 is_stmt 1 view .LVU299
	tst	w0, 255
	beq	.L33
	.loc 4 30 3 view .LVU300
.LVL87:
.LBB690:
.LBI690:
	.file 7 "/usr/include/c++/10/ostream"
	.loc 7 127 7 view .LVU301
.LBB691:
	.loc 7 132 6 is_stmt 0 view .LVU302
	adrp	x19, :got:_ZSt4cout
.LVL88:
	.loc 7 132 6 view .LVU303
.LBE691:
.LBE690:
.LBB744:
.LBB745:
.LBB746:
	.file 8 "/usr/include/c++/10/bits/ios_base.h"
	.loc 8 731 20 view .LVU304
	mov	x6, 2
.LBE746:
.LBE745:
.LBE744:
.LBB751:
.LBB735:
.LBB692:
.LBB693:
.LBB694:
.LBB695:
.LBB696:
.LBB697:
	.loc 8 84 71 view .LVU305
	mov	w7, -261
.LBE697:
.LBE696:
.LBE695:
.LBE694:
.LBE693:
.LBE692:
.LBE735:
.LBE751:
.LBB752:
.LBB753:
	.loc 7 611 18 view .LVU306
	adrp	x1, .LC5
.LBE753:
.LBE752:
.LBB756:
.LBB736:
	.loc 7 132 6 view .LVU307
	ldr	x0, [x19, #:got_lo12:_ZSt4cout]
.LVL89:
	.loc 7 132 6 view .LVU308
.LBE736:
.LBE756:
.LBB757:
.LBB754:
	.loc 7 611 18 view .LVU309
	add	x1, x1, :lo12:.LC5
	mov	x2, 7
.LBE754:
.LBE757:
.LBB758:
.LBB737:
	.loc 7 132 6 view .LVU310
	ldr	x5, [x0]
	ldr	x3, [x5, -24]
	add	x3, x3, x0
.LVL90:
.LBB728:
.LBI692:
	.loc 8 1071 3 is_stmt 1 view .LVU311
.LBE728:
.LBE737:
.LBE758:
	.loc 8 1073 5 view .LVU312
.LBB759:
.LBB738:
.LBB729:
.LBB722:
.LBI693:
	.loc 8 693 5 view .LVU313
.LBB716:
	.loc 8 695 7 view .LVU314
	.loc 8 696 7 view .LVU315
	.loc 8 696 7 is_stmt 0 view .LVU316
.LBE716:
.LBE722:
.LBE729:
.LBE738:
.LBE759:
	.loc 8 96 5 is_stmt 1 view .LVU317
.LBB760:
.LBB739:
.LBB730:
.LBB723:
.LBB717:
.LBB704:
.LBI695:
	.loc 8 103 3 view .LVU318
.LBE704:
.LBE717:
.LBE723:
.LBE730:
.LBE739:
.LBE760:
	.loc 8 104 5 view .LVU319
.LBB761:
.LBB740:
.LBB731:
.LBB724:
.LBB718:
.LBB705:
.LBB701:
.LBI696:
	.loc 8 83 3 view .LVU320
.LBB698:
	.loc 8 84 5 view .LVU321
	.loc 8 84 5 is_stmt 0 view .LVU322
.LBE698:
.LBE701:
.LBE705:
	.loc 8 697 7 is_stmt 1 view .LVU323
	.loc 8 697 7 is_stmt 0 view .LVU324
.LBE718:
.LBE724:
.LBE731:
.LBE740:
.LBE761:
	.loc 8 84 5 is_stmt 1 view .LVU325
.LBB762:
.LBB741:
.LBB732:
.LBB725:
.LBB719:
.LBB706:
.LBI706:
	.loc 8 99 3 view .LVU326
.LBB707:
	.loc 8 100 5 view .LVU327
.LBB708:
.LBI708:
	.loc 8 87 3 view .LVU328
.LBB709:
	.loc 8 88 5 view .LVU329
	.loc 8 88 5 is_stmt 0 view .LVU330
.LBE709:
.LBE708:
.LBE707:
.LBE706:
.LBE719:
.LBE725:
.LBE732:
.LBE741:
.LBE762:
.LBB763:
.LBB749:
.LBB747:
	.loc 8 731 20 view .LVU331
	str	x6, [x3, 8]
.LBE747:
.LBE749:
.LBE763:
.LBB764:
.LBB742:
.LBB733:
.LBB726:
.LBB720:
.LBB713:
.LBB702:
.LBB699:
	.loc 8 84 71 view .LVU332
	ldr	w4, [x3, 24]
.LBE699:
.LBE702:
.LBE713:
.LBE720:
.LBE726:
.LBE733:
.LBE742:
.LBE764:
.LBB765:
.LBB766:
.LBB767:
.LBB768:
	.loc 8 731 20 view .LVU333
	ldr	x5, [x5, -24]
.LBE768:
.LBE767:
.LBE766:
.LBE765:
.LBB772:
.LBB743:
.LBB734:
.LBB727:
.LBB721:
.LBB714:
.LBB703:
.LBB700:
	.loc 8 84 71 view .LVU334
	and	w4, w4, w7
.LBE700:
.LBE703:
.LBE714:
.LBB715:
.LBB712:
.LBB711:
.LBB710:
	.loc 8 88 71 view .LVU335
	orr	w4, w4, 4
.LBE710:
.LBE711:
	.loc 8 100 16 view .LVU336
	str	w4, [x3, 24]
.LVL91:
	.loc 8 100 16 view .LVU337
.LBE712:
.LBE715:
	.loc 8 698 7 is_stmt 1 view .LVU338
	.loc 8 698 7 is_stmt 0 view .LVU339
.LBE721:
.LBE727:
.LBE734:
.LBE743:
.LBE772:
	.loc 8 1074 5 is_stmt 1 view .LVU340
	.file 9 "/usr/include/c++/10/iomanip"
	.loc 9 196 5 view .LVU341
.LBB773:
.LBI744:
	.loc 9 208 5 view .LVU342
.LBB750:
.LBI745:
	.loc 8 728 5 view .LVU343
.LBB748:
	.loc 8 730 7 view .LVU344
	.loc 8 731 7 view .LVU345
	.loc 8 732 7 view .LVU346
	.loc 8 732 7 is_stmt 0 view .LVU347
.LBE748:
.LBE750:
.LBE773:
	.loc 4 31 3 is_stmt 1 view .LVU348
	.loc 9 196 5 view .LVU349
.LBB774:
.LBI765:
	.loc 9 208 5 view .LVU350
.LBB771:
.LBB770:
.LBI767:
	.loc 8 728 5 view .LVU351
.LBB769:
	.loc 8 730 7 view .LVU352
	.loc 8 731 7 view .LVU353
	.loc 8 731 20 is_stmt 0 view .LVU354
	add	x5, x5, x0
	str	x6, [x5, 8]
.LVL92:
	.loc 8 732 7 is_stmt 1 view .LVU355
	.loc 8 732 7 is_stmt 0 view .LVU356
.LBE769:
.LBE770:
.LBE771:
.LBE774:
	.loc 4 32 9 is_stmt 1 view .LVU357
.LBB775:
.LBI752:
	.loc 7 606 5 view .LVU358
	.loc 7 606 5 is_stmt 0 view .LVU359
.LBE775:
	.file 10 "/usr/include/c++/10/bits/char_traits.h"
	.loc 10 364 2 is_stmt 1 view .LVU360
.LBB776:
.LBB755:
	.loc 7 611 18 is_stmt 0 view .LVU361
	bl	_ZSt16__ostream_insertIcSt11char_traitsIcEERSt13basic_ostreamIT_T0_ES6_PKS3_l
.LVL93:
	.loc 7 611 18 view .LVU362
.LBE755:
.LBE776:
	.loc 9 226 5 is_stmt 1 view .LVU363
.LBB777:
.LBI777:
	.loc 9 238 5 view .LVU364
.LBB778:
.LBB779:
.LBI779:
	.loc 8 751 5 view .LVU365
.LBB780:
	.loc 8 753 7 view .LVU366
	.loc 8 754 7 view .LVU367
.LBE780:
.LBE779:
	.loc 9 240 17 is_stmt 0 view .LVU368
	ldr	x0, [x19, #:got_lo12:_ZSt4cout]
.LBE778:
.LBE777:
	.loc 4 32 36 view .LVU369
	adrp	x22, .LANCHOR0
.LBB787:
.LBB788:
	.loc 7 228 18 view .LVU370
	ldr	s0, [sp, 144]
.LBE788:
.LBE787:
.LBB791:
.LBB785:
	.loc 9 240 17 view .LVU371
	ldrsw	x2, [x22, #:lo12:.LANCHOR0]
.LVL94:
	.loc 9 240 17 view .LVU372
	ldr	x1, [x0]
.LBE785:
.LBE791:
.LBB792:
.LBB789:
	.loc 7 228 18 view .LVU373
	fcvt	d0, s0
.LBE789:
.LBE792:
.LBB793:
.LBB786:
.LBB783:
.LBB781:
	.loc 8 754 16 view .LVU374
	ldr	x1, [x1, -24]
	add	x1, x1, x0
.LBE781:
.LBE783:
	.loc 9 240 17 view .LVU375
	str	x2, [x1, 16]
.LVL95:
.LBB784:
.LBB782:
	.loc 8 755 7 is_stmt 1 view .LVU376
	.loc 8 755 7 is_stmt 0 view .LVU377
.LBE782:
.LBE784:
.LBE786:
.LBE793:
.LBB794:
.LBI787:
	.loc 7 224 7 is_stmt 1 view .LVU378
.LBB790:
	.loc 7 228 18 is_stmt 0 view .LVU379
	bl	_ZNSo9_M_insertIdEERSoT_
.LVL96:
	.loc 7 228 18 view .LVU380
	mov	w3, 10
.LBE790:
.LBE794:
.LBB795:
.LBB796:
	.loc 7 518 30 view .LVU381
	add	x1, sp, 134
	mov	x2, 1
	strb	w3, [sp, 134]
.LVL97:
	.loc 7 518 30 view .LVU382
.LBE796:
.LBI795:
	.loc 7 517 5 is_stmt 1 view .LVU383
.LBB797:
	.loc 7 518 30 is_stmt 0 view .LVU384
	bl	_ZSt16__ostream_insertIcSt11char_traitsIcEERSt13basic_ostreamIT_T0_ES6_PKS3_l
.LVL98:
	.loc 7 518 30 view .LVU385
.LBE797:
.LBE795:
	.loc 4 33 9 is_stmt 1 discriminator 3 view .LVU386
.LBB798:
.LBI798:
	.loc 7 606 5 discriminator 3 view .LVU387
	.loc 7 606 5 is_stmt 0 discriminator 3 view .LVU388
.LBE798:
	.loc 10 364 2 is_stmt 1 discriminator 3 view .LVU389
.LBB800:
.LBB799:
	.loc 7 611 18 is_stmt 0 discriminator 3 view .LVU390
	ldr	x0, [x19, #:got_lo12:_ZSt4cout]
	adrp	x1, .LC6
	mov	x2, 7
	add	x1, x1, :lo12:.LC6
	bl	_ZSt16__ostream_insertIcSt11char_traitsIcEERSt13basic_ostreamIT_T0_ES6_PKS3_l
.LVL99:
	.loc 7 611 18 discriminator 3 view .LVU391
.LBE799:
.LBE800:
	.loc 9 226 5 is_stmt 1 view .LVU392
.LBB801:
.LBI801:
	.loc 9 238 5 view .LVU393
.LBB802:
.LBB803:
.LBI803:
	.loc 8 751 5 view .LVU394
.LBB804:
	.loc 8 753 7 view .LVU395
	.loc 8 754 7 view .LVU396
.LBE804:
.LBE803:
	.loc 9 240 17 is_stmt 0 view .LVU397
	ldr	x0, [x19, #:got_lo12:_ZSt4cout]
.LBE802:
.LBE801:
.LBB811:
.LBB812:
	.loc 7 228 18 view .LVU398
	ldr	s0, [sp, 148]
.LBE812:
.LBE811:
.LBB815:
.LBB809:
	.loc 9 240 17 view .LVU399
	ldrsw	x2, [x22, #:lo12:.LANCHOR0]
.LVL100:
	.loc 9 240 17 view .LVU400
	ldr	x1, [x0]
.LBE809:
.LBE815:
.LBB816:
.LBB813:
	.loc 7 228 18 view .LVU401
	fcvt	d0, s0
.LBE813:
.LBE816:
.LBB817:
.LBB810:
.LBB807:
.LBB805:
	.loc 8 754 16 view .LVU402
	ldr	x1, [x1, -24]
	add	x1, x1, x0
.LBE805:
.LBE807:
	.loc 9 240 17 view .LVU403
	str	x2, [x1, 16]
.LVL101:
.LBB808:
.LBB806:
	.loc 8 755 7 is_stmt 1 view .LVU404
	.loc 8 755 7 is_stmt 0 view .LVU405
.LBE806:
.LBE808:
.LBE810:
.LBE817:
.LBB818:
.LBI811:
	.loc 7 224 7 is_stmt 1 view .LVU406
.LBB814:
	.loc 7 228 18 is_stmt 0 view .LVU407
	bl	_ZNSo9_M_insertIdEERSoT_
.LVL102:
	.loc 7 228 18 view .LVU408
	mov	w3, 10
.LBE814:
.LBE818:
.LBB819:
.LBB820:
	.loc 7 518 30 view .LVU409
	add	x1, sp, 135
	mov	x2, 1
	strb	w3, [sp, 135]
.LVL103:
	.loc 7 518 30 view .LVU410
.LBE820:
.LBI819:
	.loc 7 517 5 is_stmt 1 view .LVU411
.LBB821:
	.loc 7 518 30 is_stmt 0 view .LVU412
	bl	_ZSt16__ostream_insertIcSt11char_traitsIcEERSt13basic_ostreamIT_T0_ES6_PKS3_l
.LVL104:
	.loc 7 518 30 view .LVU413
.LBE821:
.LBE819:
	.loc 4 34 9 is_stmt 1 discriminator 3 view .LVU414
.LBB822:
.LBI822:
	.loc 7 606 5 discriminator 3 view .LVU415
	.loc 7 606 5 is_stmt 0 discriminator 3 view .LVU416
.LBE822:
	.loc 10 364 2 is_stmt 1 discriminator 3 view .LVU417
.LBB824:
.LBB823:
	.loc 7 611 18 is_stmt 0 discriminator 3 view .LVU418
	ldr	x0, [x19, #:got_lo12:_ZSt4cout]
	adrp	x1, .LC7
	mov	x2, 8
	add	x1, x1, :lo12:.LC7
	bl	_ZSt16__ostream_insertIcSt11char_traitsIcEERSt13basic_ostreamIT_T0_ES6_PKS3_l
.LVL105:
	.loc 7 611 18 discriminator 3 view .LVU419
.LBE823:
.LBE824:
	.loc 9 226 5 is_stmt 1 view .LVU420
.LBB825:
.LBI825:
	.loc 9 238 5 view .LVU421
.LBB826:
.LBB827:
.LBI827:
	.loc 8 751 5 view .LVU422
.LBB828:
	.loc 8 753 7 view .LVU423
	.loc 8 754 7 view .LVU424
.LBE828:
.LBE827:
	.loc 9 240 17 is_stmt 0 view .LVU425
	ldr	x0, [x19, #:got_lo12:_ZSt4cout]
.LBE826:
.LBE825:
.LBB835:
.LBB836:
	.loc 7 228 18 view .LVU426
	ldr	s0, [sp, 152]
.LBE836:
.LBE835:
.LBB839:
.LBB833:
	.loc 9 240 17 view .LVU427
	ldrsw	x2, [x22, #:lo12:.LANCHOR0]
.LVL106:
	.loc 9 240 17 view .LVU428
	ldr	x1, [x0]
.LBE833:
.LBE839:
.LBB840:
.LBB837:
	.loc 7 228 18 view .LVU429
	fcvt	d0, s0
.LBE837:
.LBE840:
.LBB841:
.LBB834:
.LBB831:
.LBB829:
	.loc 8 754 16 view .LVU430
	ldr	x1, [x1, -24]
	add	x1, x1, x0
.LBE829:
.LBE831:
	.loc 9 240 17 view .LVU431
	str	x2, [x1, 16]
.LVL107:
.LBB832:
.LBB830:
	.loc 8 755 7 is_stmt 1 view .LVU432
	.loc 8 755 7 is_stmt 0 view .LVU433
.LBE830:
.LBE832:
.LBE834:
.LBE841:
.LBB842:
.LBI835:
	.loc 7 224 7 is_stmt 1 view .LVU434
.LBB838:
	.loc 7 228 18 is_stmt 0 view .LVU435
	bl	_ZNSo9_M_insertIdEERSoT_
.LVL108:
	.loc 7 228 18 view .LVU436
	mov	w3, 10
.LBE838:
.LBE842:
.LBB843:
.LBB844:
	.loc 7 518 30 view .LVU437
	add	x1, sp, 136
	mov	x2, 1
	strb	w3, [sp, 136]
.LVL109:
	.loc 7 518 30 view .LVU438
.LBE844:
.LBI843:
	.loc 7 517 5 is_stmt 1 view .LVU439
.LBB845:
	.loc 7 518 30 is_stmt 0 view .LVU440
	bl	_ZSt16__ostream_insertIcSt11char_traitsIcEERSt13basic_ostreamIT_T0_ES6_PKS3_l
.LVL110:
	.loc 7 518 30 view .LVU441
.LBE845:
.LBE843:
	.loc 4 35 9 is_stmt 1 discriminator 3 view .LVU442
.LBB846:
.LBI846:
	.loc 7 606 5 discriminator 3 view .LVU443
	.loc 7 606 5 is_stmt 0 discriminator 3 view .LVU444
.LBE846:
	.loc 10 364 2 is_stmt 1 discriminator 3 view .LVU445
.LBB848:
.LBB847:
	.loc 7 611 18 is_stmt 0 discriminator 3 view .LVU446
	ldr	x0, [x19, #:got_lo12:_ZSt4cout]
	adrp	x1, .LC8
	mov	x2, 8
	add	x1, x1, :lo12:.LC8
	bl	_ZSt16__ostream_insertIcSt11char_traitsIcEERSt13basic_ostreamIT_T0_ES6_PKS3_l
.LVL111:
	.loc 7 611 18 discriminator 3 view .LVU447
.LBE847:
.LBE848:
	.loc 9 226 5 is_stmt 1 view .LVU448
.LBB849:
.LBI849:
	.loc 9 238 5 view .LVU449
.LBB850:
.LBB851:
.LBI851:
	.loc 8 751 5 view .LVU450
.LBB852:
	.loc 8 753 7 view .LVU451
	.loc 8 754 7 view .LVU452
.LBE852:
.LBE851:
	.loc 9 240 17 is_stmt 0 view .LVU453
	ldr	x0, [x19, #:got_lo12:_ZSt4cout]
.LBE850:
.LBE849:
.LBB859:
.LBB860:
	.loc 7 228 18 view .LVU454
	ldr	s0, [sp, 156]
.LBE860:
.LBE859:
.LBB863:
.LBB857:
	.loc 9 240 17 view .LVU455
	ldrsw	x2, [x22, #:lo12:.LANCHOR0]
.LVL112:
	.loc 9 240 17 view .LVU456
	ldr	x1, [x0]
.LBE857:
.LBE863:
.LBB864:
.LBB861:
	.loc 7 228 18 view .LVU457
	fcvt	d0, s0
.LBE861:
.LBE864:
.LBB865:
.LBB858:
.LBB855:
.LBB853:
	.loc 8 754 16 view .LVU458
	ldr	x1, [x1, -24]
	add	x1, x1, x0
.LBE853:
.LBE855:
	.loc 9 240 17 view .LVU459
	str	x2, [x1, 16]
.LVL113:
.LBB856:
.LBB854:
	.loc 8 755 7 is_stmt 1 view .LVU460
	.loc 8 755 7 is_stmt 0 view .LVU461
.LBE854:
.LBE856:
.LBE858:
.LBE865:
.LBB866:
.LBI859:
	.loc 7 224 7 is_stmt 1 view .LVU462
.LBB862:
	.loc 7 228 18 is_stmt 0 view .LVU463
	bl	_ZNSo9_M_insertIdEERSoT_
.LVL114:
	.loc 7 228 18 view .LVU464
	mov	w3, 10
.LBE862:
.LBE866:
.LBB867:
.LBB868:
	.loc 7 518 30 view .LVU465
	add	x1, sp, 137
	mov	x2, 1
	strb	w3, [sp, 137]
.LVL115:
	.loc 7 518 30 view .LVU466
.LBE868:
.LBI867:
	.loc 7 517 5 is_stmt 1 view .LVU467
.LBB869:
	.loc 7 518 30 is_stmt 0 view .LVU468
	bl	_ZSt16__ostream_insertIcSt11char_traitsIcEERSt13basic_ostreamIT_T0_ES6_PKS3_l
.LVL116:
	.loc 7 518 30 view .LVU469
.LBE869:
.LBE867:
	.loc 4 36 9 is_stmt 1 discriminator 3 view .LVU470
.LBB870:
.LBI870:
	.loc 7 606 5 discriminator 3 view .LVU471
	.loc 7 606 5 is_stmt 0 discriminator 3 view .LVU472
.LBE870:
	.loc 10 364 2 is_stmt 1 discriminator 3 view .LVU473
.LBB872:
.LBB871:
	.loc 7 611 18 is_stmt 0 discriminator 3 view .LVU474
	ldr	x0, [x19, #:got_lo12:_ZSt4cout]
	adrp	x1, .LC9
	mov	x2, 8
	add	x1, x1, :lo12:.LC9
	bl	_ZSt16__ostream_insertIcSt11char_traitsIcEERSt13basic_ostreamIT_T0_ES6_PKS3_l
.LVL117:
	.loc 7 611 18 discriminator 3 view .LVU475
.LBE871:
.LBE872:
	.loc 9 226 5 is_stmt 1 view .LVU476
.LBB873:
.LBI873:
	.loc 9 238 5 view .LVU477
.LBB874:
.LBB875:
.LBI875:
	.loc 8 751 5 view .LVU478
.LBB876:
	.loc 8 753 7 view .LVU479
	.loc 8 754 7 view .LVU480
.LBE876:
.LBE875:
	.loc 9 240 17 is_stmt 0 view .LVU481
	ldr	x0, [x19, #:got_lo12:_ZSt4cout]
.LBE874:
.LBE873:
.LBB883:
.LBB884:
	.loc 7 228 18 view .LVU482
	ldr	s0, [sp, 160]
.LBE884:
.LBE883:
.LBB887:
.LBB881:
	.loc 9 240 17 view .LVU483
	ldrsw	x2, [x22, #:lo12:.LANCHOR0]
.LVL118:
	.loc 9 240 17 view .LVU484
	ldr	x1, [x0]
.LBE881:
.LBE887:
.LBB888:
.LBB885:
	.loc 7 228 18 view .LVU485
	fcvt	d0, s0
.LBE885:
.LBE888:
.LBB889:
.LBB882:
.LBB879:
.LBB877:
	.loc 8 754 16 view .LVU486
	ldr	x1, [x1, -24]
	add	x1, x1, x0
.LBE877:
.LBE879:
	.loc 9 240 17 view .LVU487
	str	x2, [x1, 16]
.LVL119:
.LBB880:
.LBB878:
	.loc 8 755 7 is_stmt 1 view .LVU488
	.loc 8 755 7 is_stmt 0 view .LVU489
.LBE878:
.LBE880:
.LBE882:
.LBE889:
.LBB890:
.LBI883:
	.loc 7 224 7 is_stmt 1 view .LVU490
.LBB886:
	.loc 7 228 18 is_stmt 0 view .LVU491
	bl	_ZNSo9_M_insertIdEERSoT_
.LVL120:
	.loc 7 228 18 view .LVU492
	mov	w3, 10
.LBE886:
.LBE890:
.LBB891:
.LBB892:
	.loc 7 518 30 view .LVU493
	add	x1, sp, 138
	mov	x2, 1
	strb	w3, [sp, 138]
.LVL121:
	.loc 7 518 30 view .LVU494
.LBE892:
.LBI891:
	.loc 7 517 5 is_stmt 1 view .LVU495
.LBB893:
	.loc 7 518 30 is_stmt 0 view .LVU496
	bl	_ZSt16__ostream_insertIcSt11char_traitsIcEERSt13basic_ostreamIT_T0_ES6_PKS3_l
.LVL122:
	.loc 7 518 30 view .LVU497
.LBE893:
.LBE891:
	.loc 4 37 9 is_stmt 1 discriminator 3 view .LVU498
.LBB894:
.LBI894:
	.loc 7 606 5 discriminator 3 view .LVU499
	.loc 7 606 5 is_stmt 0 discriminator 3 view .LVU500
.LBE894:
	.loc 10 364 2 is_stmt 1 discriminator 3 view .LVU501
.LBB896:
.LBB895:
	.loc 7 611 18 is_stmt 0 discriminator 3 view .LVU502
	ldr	x0, [x19, #:got_lo12:_ZSt4cout]
	adrp	x1, .LC10
	mov	x2, 5
	add	x1, x1, :lo12:.LC10
	bl	_ZSt16__ostream_insertIcSt11char_traitsIcEERSt13basic_ostreamIT_T0_ES6_PKS3_l
.LVL123:
	.loc 7 611 18 discriminator 3 view .LVU503
.LBE895:
.LBE896:
	.loc 9 226 5 is_stmt 1 view .LVU504
.LBB897:
.LBI897:
	.loc 9 238 5 view .LVU505
.LBB898:
.LBB899:
.LBI899:
	.loc 8 751 5 view .LVU506
.LBB900:
	.loc 8 753 7 view .LVU507
	.loc 8 754 7 view .LVU508
.LBE900:
.LBE899:
	.loc 9 240 17 is_stmt 0 view .LVU509
	ldr	x0, [x19, #:got_lo12:_ZSt4cout]
.LBE898:
.LBE897:
.LBB907:
.LBB908:
	.loc 7 228 18 view .LVU510
	ldr	s0, [sp, 140]
.LBE908:
.LBE907:
.LBB911:
.LBB905:
	.loc 9 240 17 view .LVU511
	ldrsw	x2, [x22, #:lo12:.LANCHOR0]
.LVL124:
	.loc 9 240 17 view .LVU512
	ldr	x1, [x0]
.LBE905:
.LBE911:
.LBB912:
.LBB909:
	.loc 7 228 18 view .LVU513
	fcvt	d0, s0
.LBE909:
.LBE912:
.LBB913:
.LBB906:
.LBB903:
.LBB901:
	.loc 8 754 16 view .LVU514
	ldr	x1, [x1, -24]
	add	x1, x1, x0
.LBE901:
.LBE903:
	.loc 9 240 17 view .LVU515
	str	x2, [x1, 16]
.LVL125:
.LBB904:
.LBB902:
	.loc 8 755 7 is_stmt 1 view .LVU516
	.loc 8 755 7 is_stmt 0 view .LVU517
.LBE902:
.LBE904:
.LBE906:
.LBE913:
.LBB914:
.LBI907:
	.loc 7 224 7 is_stmt 1 view .LVU518
.LBB910:
	.loc 7 228 18 is_stmt 0 view .LVU519
	bl	_ZNSo9_M_insertIdEERSoT_
.LVL126:
	.loc 7 228 18 view .LVU520
	mov	w3, 10
.LBE910:
.LBE914:
.LBB915:
.LBB916:
	.loc 7 518 30 view .LVU521
	add	x1, sp, 139
	mov	x2, 1
	strb	w3, [sp, 139]
.LVL127:
	.loc 7 518 30 view .LVU522
.LBE916:
.LBI915:
	.loc 7 517 5 is_stmt 1 view .LVU523
.LBB917:
	.loc 7 518 30 is_stmt 0 view .LVU524
	bl	_ZSt16__ostream_insertIcSt11char_traitsIcEERSt13basic_ostreamIT_T0_ES6_PKS3_l
.LVL128:
.LEHE4:
.L33:
	.loc 7 518 30 view .LVU525
.LBE917:
.LBE915:
	.loc 4 39 2 is_stmt 1 view .LVU526
.LBB918:
.LBI918:
	.loc 1 55 5 view .LVU527
.LBB919:
.LBI919:
	.loc 1 19 17 view .LVU528
.LBE919:
.LBE918:
	.loc 1 21 9 view .LVU529
.LBB923:
.LBB922:
.LBB920:
.LBI920:
	.loc 2 42 17 view .LVU530
.LBB921:
	.loc 2 47 13 view .LVU531
	.loc 2 47 17 is_stmt 0 view .LVU532
	mov	x0, x21
	bl	free
.LVL129:
	.loc 2 47 17 view .LVU533
.LBE921:
.LBE920:
.LBE922:
.LBE923:
.LBB924:
.LBI924:
	.loc 1 55 5 is_stmt 1 view .LVU534
.LBB925:
.LBI925:
	.loc 1 19 17 view .LVU535
.LBE925:
.LBE924:
	.loc 1 21 9 view .LVU536
.LBB929:
.LBB928:
.LBB926:
.LBI926:
	.loc 2 42 17 view .LVU537
.LBB927:
	.loc 2 47 13 view .LVU538
	.loc 2 47 17 is_stmt 0 view .LVU539
	mov	x0, x20
	bl	free
.LVL130:
	.loc 2 47 17 view .LVU540
.LBE927:
.LBE926:
.LBE928:
.LBE929:
	.loc 4 40 1 view .LVU541
	mov	w0, 0
	mov	x12, 5168
	ldp	x29, x30, [sp]
	ldp	x19, x20, [sp, 16]
.LVL131:
	.loc 4 40 1 view .LVU542
	ldp	x21, x22, [sp, 32]
.LVL132:
	.loc 4 40 1 view .LVU543
	ldp	x23, x24, [sp, 48]
.LVL133:
	.loc 4 40 1 view .LVU544
	ldp	d8, d9, [sp, 64]
	ldp	d10, d11, [sp, 80]
.LVL134:
	.loc 4 40 1 view .LVU545
	ldp	d12, d13, [sp, 96]
	ldp	d14, d15, [sp, 112]
	add	sp, sp, x12
	.cfi_remember_state
	.cfi_restore 29
	.cfi_restore 30
	.cfi_restore 23
	.cfi_restore 24
	.cfi_restore 21
	.cfi_restore 22
	.cfi_restore 19
	.cfi_restore 20
	.cfi_restore 78
	.cfi_restore 79
	.cfi_restore 76
	.cfi_restore 77
	.cfi_restore 74
	.cfi_restore 75
	.cfi_restore 72
	.cfi_restore 73
	.cfi_def_cfa_offset 0
	ret
.LVL135:
.L40:
	.cfi_restore_state
.LBB930:
.LBB931:
.LBB932:
.LBB933:
	.loc 2 47 17 view .LVU546
	mov	x19, x0
	b	.L35
.LVL136:
.L41:
	.loc 2 47 17 view .LVU547
.LBE933:
.LBE932:
.LBE931:
.LBE930:
.LBB938:
.LBB939:
.LBB940:
.LBB941:
	mov	x19, x0
	mov	x0, x21
.LVL137:
	.loc 2 47 17 view .LVU548
.LBE941:
.LBE940:
.LBE939:
.LBI938:
	.loc 1 55 5 is_stmt 1 view .LVU549
.LBB944:
.LBI939:
	.loc 1 19 17 view .LVU550
.LBE944:
.LBE938:
	.loc 1 21 9 view .LVU551
.LBB946:
.LBB945:
.LBB943:
.LBI940:
	.loc 2 42 17 view .LVU552
.LBB942:
	.loc 2 47 13 view .LVU553
	.loc 2 47 17 is_stmt 0 view .LVU554
	bl	free
.LVL138:
.L35:
	.loc 2 47 17 view .LVU555
.LBE942:
.LBE943:
.LBE945:
.LBE946:
.LBB947:
.LBI930:
	.loc 1 55 5 is_stmt 1 view .LVU556
.LBB936:
.LBI931:
	.loc 1 19 17 view .LVU557
.LBE936:
.LBE947:
	.loc 1 21 9 view .LVU558
.LBB948:
.LBB937:
.LBB935:
.LBI932:
	.loc 2 42 17 view .LVU559
.LBB934:
	.loc 2 47 13 view .LVU560
	.loc 2 47 17 is_stmt 0 view .LVU561
	mov	x0, x20
	bl	free
.LVL139:
	.loc 2 47 17 view .LVU562
	mov	x0, x19
.LEHB5:
	bl	_Unwind_Resume
.LVL140:
.LEHE5:
.LBE934:
.LBE935:
.LBE937:
.LBE948:
	.cfi_endproc
.LFE3650:
	.section	.gcc_except_table,"a",@progbits
.LLSDA3650:
	.byte	0xff
	.byte	0xff
	.byte	0x1
	.uleb128 .LLSDACSE3650-.LLSDACSB3650
.LLSDACSB3650:
	.uleb128 .LEHB2-.LFB3650
	.uleb128 .LEHE2-.LEHB2
	.uleb128 0
	.uleb128 0
	.uleb128 .LEHB3-.LFB3650
	.uleb128 .LEHE3-.LEHB3
	.uleb128 .L40-.LFB3650
	.uleb128 0
	.uleb128 .LEHB4-.LFB3650
	.uleb128 .LEHE4-.LEHB4
	.uleb128 .L41-.LFB3650
	.uleb128 0
	.uleb128 .LEHB5-.LFB3650
	.uleb128 .LEHE5-.LEHB5
	.uleb128 0
	.uleb128 0
.LLSDACSE3650:
	.section	.text.startup
	.size	main, .-main
	.align	2
	.p2align 4,,11
	.type	_GLOBAL__sub_I_w, %function
_GLOBAL__sub_I_w:
.LFB4252:
	.loc 4 40 1 is_stmt 1 view -0
	.cfi_startproc
.LVL141:
.LBB949:
.LBI949:
	.loc 4 40 1 view .LVU564
.LBE949:
	stp	x29, x30, [sp, -32]!
	.cfi_def_cfa_offset 32
	.cfi_offset 29, -32
	.cfi_offset 30, -24
	mov	x29, sp
	str	x19, [sp, 16]
	.cfi_offset 19, -16
.LBB953:
.LBB950:
	.file 11 "/usr/include/c++/10/iostream"
	.loc 11 74 25 is_stmt 0 view .LVU565
	adrp	x19, .LANCHOR1
	add	x19, x19, :lo12:.LANCHOR1
	mov	x0, x19
	bl	_ZNSt8ios_base4InitC1Ev
.LVL142:
	mov	x1, x19
	adrp	x0, :got:_ZNSt8ios_base4InitD1Ev
.LBE950:
.LBE953:
	.loc 4 40 1 view .LVU566
	ldr	x19, [sp, 16]
.LBB954:
.LBB951:
	.loc 11 74 25 view .LVU567
	adrp	x2, __dso_handle
.LBE951:
.LBE954:
	.loc 4 40 1 view .LVU568
	ldp	x29, x30, [sp], 32
	.cfi_restore 30
	.cfi_restore 29
	.cfi_restore 19
	.cfi_def_cfa_offset 0
.LBB955:
.LBB952:
	.loc 11 74 25 view .LVU569
	add	x2, x2, :lo12:__dso_handle
	ldr	x0, [x0, #:got_lo12:_ZNSt8ios_base4InitD1Ev]
	b	__cxa_atexit
.LVL143:
.LBE952:
.LBE955:
	.cfi_endproc
.LFE4252:
	.size	_GLOBAL__sub_I_w, .-_GLOBAL__sub_I_w
	.section	.init_array,"aw"
	.align	3
	.xword	_GLOBAL__sub_I_w
	.global	w
	.section	.rodata.cst16,"aM",@progbits,16
	.align	4
.LC1:
	.xword	-2147483648
	.xword	-2147483648
	.align	4
.LC2:
	.xword	2147483647
	.xword	2147483647
	.align	4
.LC3:
	.xword	1
	.xword	1
	.align	4
.LC4:
	.xword	2567483615
	.xword	2567483615
	.data
	.align	2
	.set	.LANCHOR0,. + 0
	.type	w, %object
	.size	w, 4
w:
	.word	5
	.bss
	.align	3
	.set	.LANCHOR1,. + 0
	.type	_ZStL8__ioinit, %object
	.size	_ZStL8__ioinit, 1
_ZStL8__ioinit:
	.zero	1
	.text
.Letext0:
	.file 12 "/usr/include/c++/10/bits/basic_string.h"
	.file 13 "/usr/include/c++/10/cwchar"
	.file 14 "/usr/include/c++/10/bits/exception_ptr.h"
	.file 15 "/usr/include/aarch64-linux-gnu/c++/10/bits/c++config.h"
	.file 16 "/usr/include/c++/10/bits/stl_pair.h"
	.file 17 "/usr/include/c++/10/type_traits"
	.file 18 "/usr/include/c++/10/debug/debug.h"
	.file 19 "/usr/include/c++/10/cstdint"
	.file 20 "/usr/include/c++/10/clocale"
	.file 21 "/usr/include/c++/10/bits/allocator.h"
	.file 22 "/usr/include/c++/10/cstdlib"
	.file 23 "/usr/include/c++/10/cstdio"
	.file 24 "/usr/include/c++/10/bits/alloc_traits.h"
	.file 25 "/usr/include/c++/10/initializer_list"
	.file 26 "/usr/include/c++/10/bits/stringfwd.h"
	.file 27 "/usr/include/c++/10/system_error"
	.file 28 "/usr/include/c++/10/cwctype"
	.file 29 "/usr/include/c++/10/iosfwd"
	.file 30 "/usr/include/c++/10/ctime"
	.file 31 "/usr/include/c++/10/bits/stl_iterator_base_types.h"
	.file 32 "/usr/include/c++/10/bits/uses_allocator.h"
	.file 33 "/usr/include/c++/10/tuple"
	.file 34 "/usr/include/c++/10/bits/charconv.h"
	.file 35 "/usr/include/c++/10/bits/basic_ios.h"
	.file 36 "/usr/include/c++/10/bits/postypes.h"
	.file 37 "/usr/include/c++/10/bits/ostream.tcc"
	.file 38 "/usr/include/c++/10/bits/ostream_insert.h"
	.file 39 "/usr/include/c++/10/bits/predefined_ops.h"
	.file 40 "/usr/include/c++/10/ext/new_allocator.h"
	.file 41 "/usr/include/c++/10/ext/alloc_traits.h"
	.file 42 "/usr/include/c++/10/bits/stl_iterator.h"
	.file 43 "/usr/lib/gcc/aarch64-linux-gnu/10/include/stddef.h"
	.file 44 "/usr/lib/gcc/aarch64-linux-gnu/10/include/stdarg.h"
	.file 45 "/usr/include/aarch64-linux-gnu/bits/types/wint_t.h"
	.file 46 "/usr/include/aarch64-linux-gnu/bits/types/__mbstate_t.h"
	.file 47 "/usr/include/aarch64-linux-gnu/bits/types/mbstate_t.h"
	.file 48 "/usr/include/aarch64-linux-gnu/bits/types/__FILE.h"
	.file 49 "/usr/include/aarch64-linux-gnu/bits/types/struct_FILE.h"
	.file 50 "/usr/include/aarch64-linux-gnu/bits/types/FILE.h"
	.file 51 "/usr/include/wchar.h"
	.file 52 "/usr/include/aarch64-linux-gnu/bits/types/struct_tm.h"
	.file 53 "/usr/include/aarch64-linux-gnu/bits/types.h"
	.file 54 "/usr/include/aarch64-linux-gnu/bits/stdint-intn.h"
	.file 55 "/usr/include/aarch64-linux-gnu/bits/stdint-uintn.h"
	.file 56 "/usr/include/stdint.h"
	.file 57 "/usr/include/locale.h"
	.file 58 "/usr/include/aarch64-linux-gnu/bits/types/time_t.h"
	.file 59 "/usr/include/aarch64-linux-gnu/bits/types/clock_t.h"
	.file 60 "/usr/include/aarch64-linux-gnu/c++/10/bits/atomic_word.h"
	.file 61 "/usr/include/stdlib.h"
	.file 62 "/usr/include/aarch64-linux-gnu/bits/stdlib-float.h"
	.file 63 "/usr/include/aarch64-linux-gnu/bits/stdlib-bsearch.h"
	.file 64 "/usr/include/aarch64-linux-gnu/bits/types/__fpos_t.h"
	.file 65 "/usr/include/stdio.h"
	.file 66 "/usr/include/aarch64-linux-gnu/bits/stdio.h"
	.file 67 "/usr/include/aarch64-linux-gnu/bits/wctype-wchar.h"
	.file 68 "/usr/include/wctype.h"
	.file 69 "/usr/include/time.h"
	.file 70 "/usr/include/math.h"
	.file 71 "/usr/include/malloc.h"
	.file 72 "<built-in>"
	.section	.data.rel.local.DW.ref.__gxx_personality_v0,"awG",@progbits,DW.ref.__gxx_personality_v0,comdat
	.align	3
	.type	DW.ref.__gxx_personality_v0, %object
	.size	DW.ref.__gxx_personality_v0, 8
DW.ref.__gxx_personality_v0:
	.xword	__gxx_personality_v0
	.hidden	__dso_handle
	.ident	"GCC: (Debian 10.2.1-6) 10.2.1 20210110"
	.section	.note.GNU-stack,"",@progbits
