AARCH64 GAS  obj/Chapter15_4.s 			page 1


 GNU assembler version 2.35.2 (aarch64-linux-gnu)
	 using BFD version (GNU Binutils for Debian) 2.35.2.
 options passed	: -I -I -EL -march=armv8-a+simd -mabi=lp64 -aghl=obj/Chapter15_4.lst 
 input file    	: obj/Chapter15_4.s
 output file   	: obj/Chapter15_4.o
 target        	: aarch64-unknown-linux-gnu
 time stamp    	: 2022-07-27T16:25:58.000-0400

AARCH64 GAS  obj/Chapter15_4.s 			page 2


   1              		.arch armv8-a
   2              		.file	"Chapter15_4.cpp"
   3              		.text
   4              	.Ltext0:
   5              		.section	.rodata._ZN10AlignedMem8AllocateEmm.str1.8,"aMS",@progbits,1
   6              		.align	3
   7              	.LC0:
   8 0000 4D656D6F 		.string	"Memory allocation error: AllocateAlignedMem()"
   8      72792061 
   8      6C6C6F63 
   8      6174696F 
   8      6E206572 
   9              		.section	.text._ZN10AlignedMem8AllocateEmm,"axG",@progbits,_ZN10AlignedMem8AllocateEmm,comdat
  10              		.align	2
  11              		.p2align 4,,11
  12              		.weak	_ZN10AlignedMem8AllocateEmm
  13              		.type	_ZN10AlignedMem8AllocateEmm, %function
  14              	_ZN10AlignedMem8AllocateEmm:
  15              	.LVL0:
  16              	.LFB3642:
  17              		.file 1 "../../Include/AlignedMem.h"
   1:../../Include/AlignedMem.h **** #pragma once
   2:../../Include/AlignedMem.h **** #include <cstdint>
   3:../../Include/AlignedMem.h **** #include <stdexcept>
   4:../../Include/AlignedMem.h **** #include "OS.h"
   5:../../Include/AlignedMem.h **** 
   6:../../Include/AlignedMem.h **** class AlignedMem
   7:../../Include/AlignedMem.h **** {
   8:../../Include/AlignedMem.h **** public:
   9:../../Include/AlignedMem.h ****     static void* Allocate(size_t mem_size, size_t mem_alignment)
  18              		.loc 1 9 18 view -0
  19              		.cfi_startproc
  20              		.cfi_personality 0x9b,DW.ref.__gxx_personality_v0
  21              		.cfi_lsda 0x1b,.LLSDA3642
  10:../../Include/AlignedMem.h ****     {
  11:../../Include/AlignedMem.h ****         void* p = OS::AlignedMalloc(mem_size, mem_alignment);
  22              		.loc 1 11 9 view .LVU1
   9:../../Include/AlignedMem.h ****     {
  23              		.loc 1 9 18 is_stmt 0 view .LVU2
  24 0000 E20300AA 		mov	x2, x0
  25              	.LVL1:
   9:../../Include/AlignedMem.h ****     {
  26              		.loc 1 9 18 view .LVU3
  27 0004 FD7BBEA9 		stp	x29, x30, [sp, -32]!
  28              		.cfi_def_cfa_offset 32
  29              		.cfi_offset 29, -32
  30              		.cfi_offset 30, -24
  31 0008 E00301AA 		mov	x0, x1
  32              	.LVL2:
  33              	.LBB325:
  34              	.LBI325:
  35              		.file 2 "../../Include/OS.h"
   1:../../Include/OS.h **** #pragma once
   2:../../Include/OS.h **** #include <string>
   3:../../Include/OS.h **** #include <cstdlib>
   4:../../Include/OS.h **** #include <cstdint>
   5:../../Include/OS.h **** #include <malloc.h>
AARCH64 GAS  obj/Chapter15_4.s 			page 3


   6:../../Include/OS.h **** 
   7:../../Include/OS.h **** #if defined(_MSC_VER)
   8:../../Include/OS.h **** #include <windows.h>
   9:../../Include/OS.h **** #endif
  10:../../Include/OS.h **** 
  11:../../Include/OS.h **** #if defined(__GNUG__)
  12:../../Include/OS.h **** #include <unistd.h>
  13:../../Include/OS.h **** #endif
  14:../../Include/OS.h **** 
  15:../../Include/OS.h **** class OS
  16:../../Include/OS.h **** {
  17:../../Include/OS.h **** public:
  18:../../Include/OS.h **** 
  19:../../Include/OS.h ****     static std::string GetComputerName(void)
  20:../../Include/OS.h ****     {
  21:../../Include/OS.h ****         std::string computer_name;
  22:../../Include/OS.h ****         const size_t cn_len = 256;
  23:../../Include/OS.h ****         char cn[cn_len] = { '\0' };
  24:../../Include/OS.h **** 
  25:../../Include/OS.h **** #if defined(_MSC_VER)
  26:../../Include/OS.h ****         size_t cn_len_ret;
  27:../../Include/OS.h **** 
  28:../../Include/OS.h ****         if (getenv_s(&cn_len_ret, cn, cn_len * sizeof(char), "COMPUTERNAME") == 0)
  29:../../Include/OS.h ****             computer_name = cn;
  30:../../Include/OS.h **** 
  31:../../Include/OS.h **** #elif defined(__GNUG__)
  32:../../Include/OS.h ****         if (gethostname(cn, cn_len) == 0)
  33:../../Include/OS.h ****             computer_name = cn;
  34:../../Include/OS.h **** 
  35:../../Include/OS.h **** #else
  36:../../Include/OS.h **** #error Unexpected target in OS::GetComputerName()
  37:../../Include/OS.h **** #endif
  38:../../Include/OS.h **** 
  39:../../Include/OS.h ****         return computer_name;
  40:../../Include/OS.h ****     }
  41:../../Include/OS.h **** 
  42:../../Include/OS.h ****     static void AlignedFree(void* p)
  43:../../Include/OS.h ****     {
  44:../../Include/OS.h **** #if defined(_MSC_VER)
  45:../../Include/OS.h ****             _aligned_free(p);
  46:../../Include/OS.h **** #elif defined(__GNUG__)
  47:../../Include/OS.h ****             free(p);
  48:../../Include/OS.h **** #else
  49:../../Include/OS.h **** #error Unexpected target in OS::AlignedFree()
  50:../../Include/OS.h **** #endif
  51:../../Include/OS.h ****     }
  52:../../Include/OS.h **** 
  53:../../Include/OS.h ****     static void* AlignedMalloc(size_t mem_size, size_t mem_alignment)
  36              		.loc 2 53 18 is_stmt 1 view .LVU4
  37              	.LBB326:
  54:../../Include/OS.h ****     {
  55:../../Include/OS.h ****         void* p;
  38              		.loc 2 55 9 view .LVU5
  56:../../Include/OS.h **** #if defined(_MSC_VER)
  57:../../Include/OS.h ****         p = _aligned_malloc(mem_size, mem_alignment);
  58:../../Include/OS.h **** #elif defined(__GNUG__)
  59:../../Include/OS.h ****         p = aligned_alloc(mem_alignment, mem_size);
AARCH64 GAS  obj/Chapter15_4.s 			page 4


  39              		.loc 2 59 9 view .LVU6
  40              	.LBE326:
  41              	.LBE325:
   9:../../Include/AlignedMem.h ****     {
  42              		.loc 1 9 18 is_stmt 0 view .LVU7
  43 000c FD030091 		mov	x29, sp
  44              	.LBB329:
  45              	.LBB327:
  46              		.loc 2 59 26 view .LVU8
  47 0010 E10302AA 		mov	x1, x2
  48              	.LVL3:
  49              		.loc 2 59 26 view .LVU9
  50              	.LBE327:
  51              	.LBE329:
   9:../../Include/AlignedMem.h ****     {
  52              		.loc 1 9 18 view .LVU10
  53              	.LBB330:
  54              	.LBB328:
  55              		.loc 2 59 26 view .LVU11
  56 0014 00000094 		bl	aligned_alloc
  57              	.LVL4:
  60:../../Include/OS.h **** #else
  61:../../Include/OS.h **** #error Unexpected target in OS::AlignedMalloc()
  62:../../Include/OS.h **** #endif
  63:../../Include/OS.h ****         return (p != NULL) ? p : nullptr;
  58              		.loc 2 63 9 is_stmt 1 view .LVU12
  59              		.loc 2 63 9 is_stmt 0 view .LVU13
  60              	.LBE328:
  61              	.LBE330:
  12:../../Include/AlignedMem.h **** 
  13:../../Include/AlignedMem.h ****         if (p == nullptr)
  62              		.loc 1 13 9 is_stmt 1 view .LVU14
  63 0018 600000B4 		cbz	x0, .L7
  14:../../Include/AlignedMem.h ****             throw std::runtime_error("Memory allocation error: AllocateAlignedMem()");
  15:../../Include/AlignedMem.h **** 
  16:../../Include/AlignedMem.h ****         return p;
  17:../../Include/AlignedMem.h ****     }
  64              		.loc 1 17 5 is_stmt 0 view .LVU15
  65 001c FD7BC2A8 		ldp	x29, x30, [sp], 32
  66              		.cfi_remember_state
  67              		.cfi_restore 30
  68              		.cfi_restore 29
  69              		.cfi_def_cfa_offset 0
  70 0020 C0035FD6 		ret
  71              	.L7:
  72              		.cfi_restore_state
  14:../../Include/AlignedMem.h ****             throw std::runtime_error("Memory allocation error: AllocateAlignedMem()");
  73              		.loc 1 14 13 is_stmt 1 view .LVU16
  14:../../Include/AlignedMem.h ****             throw std::runtime_error("Memory allocation error: AllocateAlignedMem()");
  74              		.loc 1 14 85 is_stmt 0 view .LVU17
  75 0024 000280D2 		mov	x0, 16
  76              	.LVL5:
  14:../../Include/AlignedMem.h ****             throw std::runtime_error("Memory allocation error: AllocateAlignedMem()");
  77              		.loc 1 14 85 view .LVU18
  78 0028 F30B00F9 		str	x19, [sp, 16]
  79              		.cfi_offset 19, -16
  14:../../Include/AlignedMem.h ****             throw std::runtime_error("Memory allocation error: AllocateAlignedMem()");
AARCH64 GAS  obj/Chapter15_4.s 			page 5


  80              		.loc 1 14 85 view .LVU19
  81 002c 00000094 		bl	__cxa_allocate_exception
  82              	.LVL6:
  83 0030 F30300AA 		mov	x19, x0
  14:../../Include/AlignedMem.h ****             throw std::runtime_error("Memory allocation error: AllocateAlignedMem()");
  84              		.loc 1 14 13 view .LVU20
  85 0034 01000090 		adrp	x1, .LC0
  86 0038 21000091 		add	x1, x1, :lo12:.LC0
  87              	.LEHB0:
  88 003c 00000094 		bl	_ZNSt13runtime_errorC1EPKc
  89              	.LVL7:
  90              	.LEHE0:
  14:../../Include/AlignedMem.h ****             throw std::runtime_error("Memory allocation error: AllocateAlignedMem()");
  91              		.loc 1 14 85 discriminator 2 view .LVU21
  92 0040 02000090 		adrp	x2, :got:_ZNSt13runtime_errorD1Ev
  93 0044 01000090 		adrp	x1, :got:_ZTISt13runtime_error
  94 0048 E00313AA 		mov	x0, x19
  95 004c 420040F9 		ldr	x2, [x2, #:got_lo12:_ZNSt13runtime_errorD1Ev]
  96 0050 210040F9 		ldr	x1, [x1, #:got_lo12:_ZTISt13runtime_error]
  97              	.LEHB1:
  98 0054 00000094 		bl	__cxa_throw
  99              	.LVL8:
 100              	.L4:
  14:../../Include/AlignedMem.h ****             throw std::runtime_error("Memory allocation error: AllocateAlignedMem()");
 101              		.loc 1 14 85 view .LVU22
 102 0058 E10300AA 		mov	x1, x0
 103 005c E00313AA 		mov	x0, x19
 104 0060 F30301AA 		mov	x19, x1
 105 0064 00000094 		bl	__cxa_free_exception
 106              	.LVL9:
 107 0068 E00313AA 		mov	x0, x19
 108 006c 00000094 		bl	_Unwind_Resume
 109              	.LVL10:
 110              	.LEHE1:
 111              		.cfi_endproc
 112              	.LFE3642:
 113              		.global	__gxx_personality_v0
 114              		.section	.gcc_except_table._ZN10AlignedMem8AllocateEmm,"aG",@progbits,_ZN10AlignedMem8AllocateEmm,
 115              	.LLSDA3642:
 116 0000 FF       		.byte	0xff
 117 0001 FF       		.byte	0xff
 118 0002 01       		.byte	0x1
 119 0003 08       		.uleb128 .LLSDACSE3642-.LLSDACSB3642
 120              	.LLSDACSB3642:
 121 0004 3C       		.uleb128 .LEHB0-.LFB3642
 122 0005 04       		.uleb128 .LEHE0-.LEHB0
 123 0006 58       		.uleb128 .L4-.LFB3642
 124 0007 00       		.uleb128 0
 125 0008 54       		.uleb128 .LEHB1-.LFB3642
 126 0009 1C       		.uleb128 .LEHE1-.LEHB1
 127 000a 00       		.uleb128 0
 128 000b 00       		.uleb128 0
 129              	.LLSDACSE3642:
 130              		.section	.text._ZN10AlignedMem8AllocateEmm,"axG",@progbits,_ZN10AlignedMem8AllocateEmm,comdat
 131              		.size	_ZN10AlignedMem8AllocateEmm, .-_ZN10AlignedMem8AllocateEmm
 132              		.section	.text._ZNSt23mersenne_twister_engineImLm32ELm624ELm397ELm31ELm2567483615ELm11ELm429496729
 133              		.align	2
AARCH64 GAS  obj/Chapter15_4.s 			page 6


 134              		.p2align 4,,11
 135              		.weak	_ZNSt23mersenne_twister_engineImLm32ELm624ELm397ELm31ELm2567483615ELm11ELm4294967295ELm7ELm2
 136              		.type	_ZNSt23mersenne_twister_engineImLm32ELm624ELm397ELm31ELm2567483615ELm11ELm4294967295ELm7ELm2
 137              	_ZNSt23mersenne_twister_engineImLm32ELm624ELm397ELm31ELm2567483615ELm11ELm4294967295ELm7ELm26369286
 138              	.LVL11:
 139              	.LFB4240:
 140              		.file 3 "/usr/include/c++/10/bits/random.tcc"
   1:/usr/include/c++/10/bits/random.tcc **** // random number generation (out of line) -*- C++ -*-
   2:/usr/include/c++/10/bits/random.tcc **** 
   3:/usr/include/c++/10/bits/random.tcc **** // Copyright (C) 2009-2020 Free Software Foundation, Inc.
   4:/usr/include/c++/10/bits/random.tcc **** //
   5:/usr/include/c++/10/bits/random.tcc **** // This file is part of the GNU ISO C++ Library.  This library is free
   6:/usr/include/c++/10/bits/random.tcc **** // software; you can redistribute it and/or modify it under the
   7:/usr/include/c++/10/bits/random.tcc **** // terms of the GNU General Public License as published by the
   8:/usr/include/c++/10/bits/random.tcc **** // Free Software Foundation; either version 3, or (at your option)
   9:/usr/include/c++/10/bits/random.tcc **** // any later version.
  10:/usr/include/c++/10/bits/random.tcc **** 
  11:/usr/include/c++/10/bits/random.tcc **** // This library is distributed in the hope that it will be useful,
  12:/usr/include/c++/10/bits/random.tcc **** // but WITHOUT ANY WARRANTY; without even the implied warranty of
  13:/usr/include/c++/10/bits/random.tcc **** // MERCHANTABILITY or FITNESS FOR A PARTICULAR PURPOSE.  See the
  14:/usr/include/c++/10/bits/random.tcc **** // GNU General Public License for more details.
  15:/usr/include/c++/10/bits/random.tcc **** 
  16:/usr/include/c++/10/bits/random.tcc **** // Under Section 7 of GPL version 3, you are granted additional
  17:/usr/include/c++/10/bits/random.tcc **** // permissions described in the GCC Runtime Library Exception, version
  18:/usr/include/c++/10/bits/random.tcc **** // 3.1, as published by the Free Software Foundation.
  19:/usr/include/c++/10/bits/random.tcc **** 
  20:/usr/include/c++/10/bits/random.tcc **** // You should have received a copy of the GNU General Public License and
  21:/usr/include/c++/10/bits/random.tcc **** // a copy of the GCC Runtime Library Exception along with this program;
  22:/usr/include/c++/10/bits/random.tcc **** // see the files COPYING3 and COPYING.RUNTIME respectively.  If not, see
  23:/usr/include/c++/10/bits/random.tcc **** // <http://www.gnu.org/licenses/>.
  24:/usr/include/c++/10/bits/random.tcc **** 
  25:/usr/include/c++/10/bits/random.tcc **** /** @file bits/random.tcc
  26:/usr/include/c++/10/bits/random.tcc ****  *  This is an internal header file, included by other library headers.
  27:/usr/include/c++/10/bits/random.tcc ****  *  Do not attempt to use it directly. @headername{random}
  28:/usr/include/c++/10/bits/random.tcc ****  */
  29:/usr/include/c++/10/bits/random.tcc **** 
  30:/usr/include/c++/10/bits/random.tcc **** #ifndef _RANDOM_TCC
  31:/usr/include/c++/10/bits/random.tcc **** #define _RANDOM_TCC 1
  32:/usr/include/c++/10/bits/random.tcc **** 
  33:/usr/include/c++/10/bits/random.tcc **** #include <numeric> // std::accumulate and std::partial_sum
  34:/usr/include/c++/10/bits/random.tcc **** 
  35:/usr/include/c++/10/bits/random.tcc **** namespace std _GLIBCXX_VISIBILITY(default)
  36:/usr/include/c++/10/bits/random.tcc **** {
  37:/usr/include/c++/10/bits/random.tcc **** _GLIBCXX_BEGIN_NAMESPACE_VERSION
  38:/usr/include/c++/10/bits/random.tcc **** 
  39:/usr/include/c++/10/bits/random.tcc ****   /*
  40:/usr/include/c++/10/bits/random.tcc ****    * (Further) implementation-space details.
  41:/usr/include/c++/10/bits/random.tcc ****    */
  42:/usr/include/c++/10/bits/random.tcc ****   namespace __detail
  43:/usr/include/c++/10/bits/random.tcc ****   {
  44:/usr/include/c++/10/bits/random.tcc ****     // General case for x = (ax + c) mod m -- use Schrage's algorithm
  45:/usr/include/c++/10/bits/random.tcc ****     // to avoid integer overflow.
  46:/usr/include/c++/10/bits/random.tcc ****     //
  47:/usr/include/c++/10/bits/random.tcc ****     // Preconditions:  a > 0, m > 0.
  48:/usr/include/c++/10/bits/random.tcc ****     //
  49:/usr/include/c++/10/bits/random.tcc ****     // Note: only works correctly for __m % __a < __m / __a.
  50:/usr/include/c++/10/bits/random.tcc ****     template<typename _Tp, _Tp __m, _Tp __a, _Tp __c>
AARCH64 GAS  obj/Chapter15_4.s 			page 7


  51:/usr/include/c++/10/bits/random.tcc ****       _Tp
  52:/usr/include/c++/10/bits/random.tcc ****       _Mod<_Tp, __m, __a, __c, false, true>::
  53:/usr/include/c++/10/bits/random.tcc ****       __calc(_Tp __x)
  54:/usr/include/c++/10/bits/random.tcc ****       {
  55:/usr/include/c++/10/bits/random.tcc **** 	if (__a == 1)
  56:/usr/include/c++/10/bits/random.tcc **** 	  __x %= __m;
  57:/usr/include/c++/10/bits/random.tcc **** 	else
  58:/usr/include/c++/10/bits/random.tcc **** 	  {
  59:/usr/include/c++/10/bits/random.tcc **** 	    static const _Tp __q = __m / __a;
  60:/usr/include/c++/10/bits/random.tcc **** 	    static const _Tp __r = __m % __a;
  61:/usr/include/c++/10/bits/random.tcc **** 
  62:/usr/include/c++/10/bits/random.tcc **** 	    _Tp __t1 = __a * (__x % __q);
  63:/usr/include/c++/10/bits/random.tcc **** 	    _Tp __t2 = __r * (__x / __q);
  64:/usr/include/c++/10/bits/random.tcc **** 	    if (__t1 >= __t2)
  65:/usr/include/c++/10/bits/random.tcc **** 	      __x = __t1 - __t2;
  66:/usr/include/c++/10/bits/random.tcc **** 	    else
  67:/usr/include/c++/10/bits/random.tcc **** 	      __x = __m - __t2 + __t1;
  68:/usr/include/c++/10/bits/random.tcc **** 	  }
  69:/usr/include/c++/10/bits/random.tcc **** 
  70:/usr/include/c++/10/bits/random.tcc **** 	if (__c != 0)
  71:/usr/include/c++/10/bits/random.tcc **** 	  {
  72:/usr/include/c++/10/bits/random.tcc **** 	    const _Tp __d = __m - __x;
  73:/usr/include/c++/10/bits/random.tcc **** 	    if (__d > __c)
  74:/usr/include/c++/10/bits/random.tcc **** 	      __x += __c;
  75:/usr/include/c++/10/bits/random.tcc **** 	    else
  76:/usr/include/c++/10/bits/random.tcc **** 	      __x = __c - __d;
  77:/usr/include/c++/10/bits/random.tcc **** 	  }
  78:/usr/include/c++/10/bits/random.tcc **** 	return __x;
  79:/usr/include/c++/10/bits/random.tcc ****       }
  80:/usr/include/c++/10/bits/random.tcc **** 
  81:/usr/include/c++/10/bits/random.tcc ****     template<typename _InputIterator, typename _OutputIterator,
  82:/usr/include/c++/10/bits/random.tcc **** 	     typename _Tp>
  83:/usr/include/c++/10/bits/random.tcc ****       _OutputIterator
  84:/usr/include/c++/10/bits/random.tcc ****       __normalize(_InputIterator __first, _InputIterator __last,
  85:/usr/include/c++/10/bits/random.tcc **** 		  _OutputIterator __result, const _Tp& __factor)
  86:/usr/include/c++/10/bits/random.tcc ****       {
  87:/usr/include/c++/10/bits/random.tcc **** 	for (; __first != __last; ++__first, ++__result)
  88:/usr/include/c++/10/bits/random.tcc **** 	  *__result = *__first / __factor;
  89:/usr/include/c++/10/bits/random.tcc **** 	return __result;
  90:/usr/include/c++/10/bits/random.tcc ****       }
  91:/usr/include/c++/10/bits/random.tcc **** 
  92:/usr/include/c++/10/bits/random.tcc ****   } // namespace __detail
  93:/usr/include/c++/10/bits/random.tcc **** 
  94:/usr/include/c++/10/bits/random.tcc ****   template<typename _UIntType, _UIntType __a, _UIntType __c, _UIntType __m>
  95:/usr/include/c++/10/bits/random.tcc ****     constexpr _UIntType
  96:/usr/include/c++/10/bits/random.tcc ****     linear_congruential_engine<_UIntType, __a, __c, __m>::multiplier;
  97:/usr/include/c++/10/bits/random.tcc **** 
  98:/usr/include/c++/10/bits/random.tcc ****   template<typename _UIntType, _UIntType __a, _UIntType __c, _UIntType __m>
  99:/usr/include/c++/10/bits/random.tcc ****     constexpr _UIntType
 100:/usr/include/c++/10/bits/random.tcc ****     linear_congruential_engine<_UIntType, __a, __c, __m>::increment;
 101:/usr/include/c++/10/bits/random.tcc **** 
 102:/usr/include/c++/10/bits/random.tcc ****   template<typename _UIntType, _UIntType __a, _UIntType __c, _UIntType __m>
 103:/usr/include/c++/10/bits/random.tcc ****     constexpr _UIntType
 104:/usr/include/c++/10/bits/random.tcc ****     linear_congruential_engine<_UIntType, __a, __c, __m>::modulus;
 105:/usr/include/c++/10/bits/random.tcc **** 
 106:/usr/include/c++/10/bits/random.tcc ****   template<typename _UIntType, _UIntType __a, _UIntType __c, _UIntType __m>
 107:/usr/include/c++/10/bits/random.tcc ****     constexpr _UIntType
AARCH64 GAS  obj/Chapter15_4.s 			page 8


 108:/usr/include/c++/10/bits/random.tcc ****     linear_congruential_engine<_UIntType, __a, __c, __m>::default_seed;
 109:/usr/include/c++/10/bits/random.tcc **** 
 110:/usr/include/c++/10/bits/random.tcc ****   /**
 111:/usr/include/c++/10/bits/random.tcc ****    * Seeds the LCR with integral value @p __s, adjusted so that the
 112:/usr/include/c++/10/bits/random.tcc ****    * ring identity is never a member of the convergence set.
 113:/usr/include/c++/10/bits/random.tcc ****    */
 114:/usr/include/c++/10/bits/random.tcc ****   template<typename _UIntType, _UIntType __a, _UIntType __c, _UIntType __m>
 115:/usr/include/c++/10/bits/random.tcc ****     void
 116:/usr/include/c++/10/bits/random.tcc ****     linear_congruential_engine<_UIntType, __a, __c, __m>::
 117:/usr/include/c++/10/bits/random.tcc ****     seed(result_type __s)
 118:/usr/include/c++/10/bits/random.tcc ****     {
 119:/usr/include/c++/10/bits/random.tcc ****       if ((__detail::__mod<_UIntType, __m>(__c) == 0)
 120:/usr/include/c++/10/bits/random.tcc **** 	  && (__detail::__mod<_UIntType, __m>(__s) == 0))
 121:/usr/include/c++/10/bits/random.tcc **** 	_M_x = 1;
 122:/usr/include/c++/10/bits/random.tcc ****       else
 123:/usr/include/c++/10/bits/random.tcc **** 	_M_x = __detail::__mod<_UIntType, __m>(__s);
 124:/usr/include/c++/10/bits/random.tcc ****     }
 125:/usr/include/c++/10/bits/random.tcc **** 
 126:/usr/include/c++/10/bits/random.tcc ****   /**
 127:/usr/include/c++/10/bits/random.tcc ****    * Seeds the LCR engine with a value generated by @p __q.
 128:/usr/include/c++/10/bits/random.tcc ****    */
 129:/usr/include/c++/10/bits/random.tcc ****   template<typename _UIntType, _UIntType __a, _UIntType __c, _UIntType __m>
 130:/usr/include/c++/10/bits/random.tcc ****     template<typename _Sseq>
 131:/usr/include/c++/10/bits/random.tcc ****       auto
 132:/usr/include/c++/10/bits/random.tcc ****       linear_congruential_engine<_UIntType, __a, __c, __m>::
 133:/usr/include/c++/10/bits/random.tcc ****       seed(_Sseq& __q)
 134:/usr/include/c++/10/bits/random.tcc ****       -> _If_seed_seq<_Sseq>
 135:/usr/include/c++/10/bits/random.tcc ****       {
 136:/usr/include/c++/10/bits/random.tcc **** 	const _UIntType __k0 = __m == 0 ? std::numeric_limits<_UIntType>::digits
 137:/usr/include/c++/10/bits/random.tcc **** 	                                : std::__lg(__m);
 138:/usr/include/c++/10/bits/random.tcc **** 	const _UIntType __k = (__k0 + 31) / 32;
 139:/usr/include/c++/10/bits/random.tcc **** 	uint_least32_t __arr[__k + 3];
 140:/usr/include/c++/10/bits/random.tcc **** 	__q.generate(__arr + 0, __arr + __k + 3);
 141:/usr/include/c++/10/bits/random.tcc **** 	_UIntType __factor = 1u;
 142:/usr/include/c++/10/bits/random.tcc **** 	_UIntType __sum = 0u;
 143:/usr/include/c++/10/bits/random.tcc **** 	for (size_t __j = 0; __j < __k; ++__j)
 144:/usr/include/c++/10/bits/random.tcc **** 	  {
 145:/usr/include/c++/10/bits/random.tcc **** 	    __sum += __arr[__j + 3] * __factor;
 146:/usr/include/c++/10/bits/random.tcc **** 	    __factor *= __detail::_Shift<_UIntType, 32>::__value;
 147:/usr/include/c++/10/bits/random.tcc **** 	  }
 148:/usr/include/c++/10/bits/random.tcc **** 	seed(__sum);
 149:/usr/include/c++/10/bits/random.tcc ****       }
 150:/usr/include/c++/10/bits/random.tcc **** 
 151:/usr/include/c++/10/bits/random.tcc ****   template<typename _UIntType, _UIntType __a, _UIntType __c, _UIntType __m,
 152:/usr/include/c++/10/bits/random.tcc **** 	   typename _CharT, typename _Traits>
 153:/usr/include/c++/10/bits/random.tcc ****     std::basic_ostream<_CharT, _Traits>&
 154:/usr/include/c++/10/bits/random.tcc ****     operator<<(std::basic_ostream<_CharT, _Traits>& __os,
 155:/usr/include/c++/10/bits/random.tcc **** 	       const linear_congruential_engine<_UIntType,
 156:/usr/include/c++/10/bits/random.tcc **** 						__a, __c, __m>& __lcr)
 157:/usr/include/c++/10/bits/random.tcc ****     {
 158:/usr/include/c++/10/bits/random.tcc ****       using __ios_base = typename basic_ostream<_CharT, _Traits>::ios_base;
 159:/usr/include/c++/10/bits/random.tcc **** 
 160:/usr/include/c++/10/bits/random.tcc ****       const typename __ios_base::fmtflags __flags = __os.flags();
 161:/usr/include/c++/10/bits/random.tcc ****       const _CharT __fill = __os.fill();
 162:/usr/include/c++/10/bits/random.tcc ****       __os.flags(__ios_base::dec | __ios_base::fixed | __ios_base::left);
 163:/usr/include/c++/10/bits/random.tcc ****       __os.fill(__os.widen(' '));
 164:/usr/include/c++/10/bits/random.tcc **** 
AARCH64 GAS  obj/Chapter15_4.s 			page 9


 165:/usr/include/c++/10/bits/random.tcc ****       __os << __lcr._M_x;
 166:/usr/include/c++/10/bits/random.tcc **** 
 167:/usr/include/c++/10/bits/random.tcc ****       __os.flags(__flags);
 168:/usr/include/c++/10/bits/random.tcc ****       __os.fill(__fill);
 169:/usr/include/c++/10/bits/random.tcc ****       return __os;
 170:/usr/include/c++/10/bits/random.tcc ****     }
 171:/usr/include/c++/10/bits/random.tcc **** 
 172:/usr/include/c++/10/bits/random.tcc ****   template<typename _UIntType, _UIntType __a, _UIntType __c, _UIntType __m,
 173:/usr/include/c++/10/bits/random.tcc **** 	   typename _CharT, typename _Traits>
 174:/usr/include/c++/10/bits/random.tcc ****     std::basic_istream<_CharT, _Traits>&
 175:/usr/include/c++/10/bits/random.tcc ****     operator>>(std::basic_istream<_CharT, _Traits>& __is,
 176:/usr/include/c++/10/bits/random.tcc **** 	       linear_congruential_engine<_UIntType, __a, __c, __m>& __lcr)
 177:/usr/include/c++/10/bits/random.tcc ****     {
 178:/usr/include/c++/10/bits/random.tcc ****       using __ios_base = typename basic_istream<_CharT, _Traits>::ios_base;
 179:/usr/include/c++/10/bits/random.tcc **** 
 180:/usr/include/c++/10/bits/random.tcc ****       const typename __ios_base::fmtflags __flags = __is.flags();
 181:/usr/include/c++/10/bits/random.tcc ****       __is.flags(__ios_base::dec);
 182:/usr/include/c++/10/bits/random.tcc **** 
 183:/usr/include/c++/10/bits/random.tcc ****       __is >> __lcr._M_x;
 184:/usr/include/c++/10/bits/random.tcc **** 
 185:/usr/include/c++/10/bits/random.tcc ****       __is.flags(__flags);
 186:/usr/include/c++/10/bits/random.tcc ****       return __is;
 187:/usr/include/c++/10/bits/random.tcc ****     }
 188:/usr/include/c++/10/bits/random.tcc **** 
 189:/usr/include/c++/10/bits/random.tcc **** 
 190:/usr/include/c++/10/bits/random.tcc ****   template<typename _UIntType,
 191:/usr/include/c++/10/bits/random.tcc **** 	   size_t __w, size_t __n, size_t __m, size_t __r,
 192:/usr/include/c++/10/bits/random.tcc **** 	   _UIntType __a, size_t __u, _UIntType __d, size_t __s,
 193:/usr/include/c++/10/bits/random.tcc **** 	   _UIntType __b, size_t __t, _UIntType __c, size_t __l,
 194:/usr/include/c++/10/bits/random.tcc **** 	   _UIntType __f>
 195:/usr/include/c++/10/bits/random.tcc ****     constexpr size_t
 196:/usr/include/c++/10/bits/random.tcc ****     mersenne_twister_engine<_UIntType, __w, __n, __m, __r, __a, __u, __d,
 197:/usr/include/c++/10/bits/random.tcc **** 			    __s, __b, __t, __c, __l, __f>::word_size;
 198:/usr/include/c++/10/bits/random.tcc **** 
 199:/usr/include/c++/10/bits/random.tcc ****   template<typename _UIntType,
 200:/usr/include/c++/10/bits/random.tcc **** 	   size_t __w, size_t __n, size_t __m, size_t __r,
 201:/usr/include/c++/10/bits/random.tcc **** 	   _UIntType __a, size_t __u, _UIntType __d, size_t __s,
 202:/usr/include/c++/10/bits/random.tcc **** 	   _UIntType __b, size_t __t, _UIntType __c, size_t __l,
 203:/usr/include/c++/10/bits/random.tcc **** 	   _UIntType __f>
 204:/usr/include/c++/10/bits/random.tcc ****     constexpr size_t
 205:/usr/include/c++/10/bits/random.tcc ****     mersenne_twister_engine<_UIntType, __w, __n, __m, __r, __a, __u, __d,
 206:/usr/include/c++/10/bits/random.tcc **** 			    __s, __b, __t, __c, __l, __f>::state_size;
 207:/usr/include/c++/10/bits/random.tcc **** 
 208:/usr/include/c++/10/bits/random.tcc ****   template<typename _UIntType,
 209:/usr/include/c++/10/bits/random.tcc **** 	   size_t __w, size_t __n, size_t __m, size_t __r,
 210:/usr/include/c++/10/bits/random.tcc **** 	   _UIntType __a, size_t __u, _UIntType __d, size_t __s,
 211:/usr/include/c++/10/bits/random.tcc **** 	   _UIntType __b, size_t __t, _UIntType __c, size_t __l,
 212:/usr/include/c++/10/bits/random.tcc **** 	   _UIntType __f>
 213:/usr/include/c++/10/bits/random.tcc ****     constexpr size_t
 214:/usr/include/c++/10/bits/random.tcc ****     mersenne_twister_engine<_UIntType, __w, __n, __m, __r, __a, __u, __d,
 215:/usr/include/c++/10/bits/random.tcc **** 			    __s, __b, __t, __c, __l, __f>::shift_size;
 216:/usr/include/c++/10/bits/random.tcc **** 
 217:/usr/include/c++/10/bits/random.tcc ****   template<typename _UIntType,
 218:/usr/include/c++/10/bits/random.tcc **** 	   size_t __w, size_t __n, size_t __m, size_t __r,
 219:/usr/include/c++/10/bits/random.tcc **** 	   _UIntType __a, size_t __u, _UIntType __d, size_t __s,
 220:/usr/include/c++/10/bits/random.tcc **** 	   _UIntType __b, size_t __t, _UIntType __c, size_t __l,
 221:/usr/include/c++/10/bits/random.tcc **** 	   _UIntType __f>
AARCH64 GAS  obj/Chapter15_4.s 			page 10


 222:/usr/include/c++/10/bits/random.tcc ****     constexpr size_t
 223:/usr/include/c++/10/bits/random.tcc ****     mersenne_twister_engine<_UIntType, __w, __n, __m, __r, __a, __u, __d,
 224:/usr/include/c++/10/bits/random.tcc **** 			    __s, __b, __t, __c, __l, __f>::mask_bits;
 225:/usr/include/c++/10/bits/random.tcc **** 
 226:/usr/include/c++/10/bits/random.tcc ****   template<typename _UIntType,
 227:/usr/include/c++/10/bits/random.tcc **** 	   size_t __w, size_t __n, size_t __m, size_t __r,
 228:/usr/include/c++/10/bits/random.tcc **** 	   _UIntType __a, size_t __u, _UIntType __d, size_t __s,
 229:/usr/include/c++/10/bits/random.tcc **** 	   _UIntType __b, size_t __t, _UIntType __c, size_t __l,
 230:/usr/include/c++/10/bits/random.tcc **** 	   _UIntType __f>
 231:/usr/include/c++/10/bits/random.tcc ****     constexpr _UIntType
 232:/usr/include/c++/10/bits/random.tcc ****     mersenne_twister_engine<_UIntType, __w, __n, __m, __r, __a, __u, __d,
 233:/usr/include/c++/10/bits/random.tcc **** 			    __s, __b, __t, __c, __l, __f>::xor_mask;
 234:/usr/include/c++/10/bits/random.tcc **** 
 235:/usr/include/c++/10/bits/random.tcc ****   template<typename _UIntType,
 236:/usr/include/c++/10/bits/random.tcc **** 	   size_t __w, size_t __n, size_t __m, size_t __r,
 237:/usr/include/c++/10/bits/random.tcc **** 	   _UIntType __a, size_t __u, _UIntType __d, size_t __s,
 238:/usr/include/c++/10/bits/random.tcc **** 	   _UIntType __b, size_t __t, _UIntType __c, size_t __l,
 239:/usr/include/c++/10/bits/random.tcc **** 	   _UIntType __f>
 240:/usr/include/c++/10/bits/random.tcc ****     constexpr size_t
 241:/usr/include/c++/10/bits/random.tcc ****     mersenne_twister_engine<_UIntType, __w, __n, __m, __r, __a, __u, __d,
 242:/usr/include/c++/10/bits/random.tcc **** 			    __s, __b, __t, __c, __l, __f>::tempering_u;
 243:/usr/include/c++/10/bits/random.tcc ****    
 244:/usr/include/c++/10/bits/random.tcc ****   template<typename _UIntType,
 245:/usr/include/c++/10/bits/random.tcc **** 	   size_t __w, size_t __n, size_t __m, size_t __r,
 246:/usr/include/c++/10/bits/random.tcc **** 	   _UIntType __a, size_t __u, _UIntType __d, size_t __s,
 247:/usr/include/c++/10/bits/random.tcc **** 	   _UIntType __b, size_t __t, _UIntType __c, size_t __l,
 248:/usr/include/c++/10/bits/random.tcc **** 	   _UIntType __f>
 249:/usr/include/c++/10/bits/random.tcc ****     constexpr _UIntType
 250:/usr/include/c++/10/bits/random.tcc ****     mersenne_twister_engine<_UIntType, __w, __n, __m, __r, __a, __u, __d,
 251:/usr/include/c++/10/bits/random.tcc **** 			    __s, __b, __t, __c, __l, __f>::tempering_d;
 252:/usr/include/c++/10/bits/random.tcc **** 
 253:/usr/include/c++/10/bits/random.tcc ****   template<typename _UIntType,
 254:/usr/include/c++/10/bits/random.tcc **** 	   size_t __w, size_t __n, size_t __m, size_t __r,
 255:/usr/include/c++/10/bits/random.tcc **** 	   _UIntType __a, size_t __u, _UIntType __d, size_t __s,
 256:/usr/include/c++/10/bits/random.tcc **** 	   _UIntType __b, size_t __t, _UIntType __c, size_t __l,
 257:/usr/include/c++/10/bits/random.tcc **** 	   _UIntType __f>
 258:/usr/include/c++/10/bits/random.tcc ****     constexpr size_t
 259:/usr/include/c++/10/bits/random.tcc ****     mersenne_twister_engine<_UIntType, __w, __n, __m, __r, __a, __u, __d,
 260:/usr/include/c++/10/bits/random.tcc **** 			    __s, __b, __t, __c, __l, __f>::tempering_s;
 261:/usr/include/c++/10/bits/random.tcc **** 
 262:/usr/include/c++/10/bits/random.tcc ****   template<typename _UIntType,
 263:/usr/include/c++/10/bits/random.tcc **** 	   size_t __w, size_t __n, size_t __m, size_t __r,
 264:/usr/include/c++/10/bits/random.tcc **** 	   _UIntType __a, size_t __u, _UIntType __d, size_t __s,
 265:/usr/include/c++/10/bits/random.tcc **** 	   _UIntType __b, size_t __t, _UIntType __c, size_t __l,
 266:/usr/include/c++/10/bits/random.tcc **** 	   _UIntType __f>
 267:/usr/include/c++/10/bits/random.tcc ****     constexpr _UIntType
 268:/usr/include/c++/10/bits/random.tcc ****     mersenne_twister_engine<_UIntType, __w, __n, __m, __r, __a, __u, __d,
 269:/usr/include/c++/10/bits/random.tcc **** 			    __s, __b, __t, __c, __l, __f>::tempering_b;
 270:/usr/include/c++/10/bits/random.tcc **** 
 271:/usr/include/c++/10/bits/random.tcc ****   template<typename _UIntType,
 272:/usr/include/c++/10/bits/random.tcc **** 	   size_t __w, size_t __n, size_t __m, size_t __r,
 273:/usr/include/c++/10/bits/random.tcc **** 	   _UIntType __a, size_t __u, _UIntType __d, size_t __s,
 274:/usr/include/c++/10/bits/random.tcc **** 	   _UIntType __b, size_t __t, _UIntType __c, size_t __l,
 275:/usr/include/c++/10/bits/random.tcc **** 	   _UIntType __f>
 276:/usr/include/c++/10/bits/random.tcc ****     constexpr size_t
 277:/usr/include/c++/10/bits/random.tcc ****     mersenne_twister_engine<_UIntType, __w, __n, __m, __r, __a, __u, __d,
 278:/usr/include/c++/10/bits/random.tcc **** 			    __s, __b, __t, __c, __l, __f>::tempering_t;
AARCH64 GAS  obj/Chapter15_4.s 			page 11


 279:/usr/include/c++/10/bits/random.tcc **** 
 280:/usr/include/c++/10/bits/random.tcc ****   template<typename _UIntType,
 281:/usr/include/c++/10/bits/random.tcc **** 	   size_t __w, size_t __n, size_t __m, size_t __r,
 282:/usr/include/c++/10/bits/random.tcc **** 	   _UIntType __a, size_t __u, _UIntType __d, size_t __s,
 283:/usr/include/c++/10/bits/random.tcc **** 	   _UIntType __b, size_t __t, _UIntType __c, size_t __l,
 284:/usr/include/c++/10/bits/random.tcc **** 	   _UIntType __f>
 285:/usr/include/c++/10/bits/random.tcc ****     constexpr _UIntType
 286:/usr/include/c++/10/bits/random.tcc ****     mersenne_twister_engine<_UIntType, __w, __n, __m, __r, __a, __u, __d,
 287:/usr/include/c++/10/bits/random.tcc **** 			    __s, __b, __t, __c, __l, __f>::tempering_c;
 288:/usr/include/c++/10/bits/random.tcc **** 
 289:/usr/include/c++/10/bits/random.tcc ****   template<typename _UIntType,
 290:/usr/include/c++/10/bits/random.tcc **** 	   size_t __w, size_t __n, size_t __m, size_t __r,
 291:/usr/include/c++/10/bits/random.tcc **** 	   _UIntType __a, size_t __u, _UIntType __d, size_t __s,
 292:/usr/include/c++/10/bits/random.tcc **** 	   _UIntType __b, size_t __t, _UIntType __c, size_t __l,
 293:/usr/include/c++/10/bits/random.tcc **** 	   _UIntType __f>
 294:/usr/include/c++/10/bits/random.tcc ****     constexpr size_t
 295:/usr/include/c++/10/bits/random.tcc ****     mersenne_twister_engine<_UIntType, __w, __n, __m, __r, __a, __u, __d,
 296:/usr/include/c++/10/bits/random.tcc **** 			    __s, __b, __t, __c, __l, __f>::tempering_l;
 297:/usr/include/c++/10/bits/random.tcc **** 
 298:/usr/include/c++/10/bits/random.tcc ****   template<typename _UIntType,
 299:/usr/include/c++/10/bits/random.tcc **** 	   size_t __w, size_t __n, size_t __m, size_t __r,
 300:/usr/include/c++/10/bits/random.tcc **** 	   _UIntType __a, size_t __u, _UIntType __d, size_t __s,
 301:/usr/include/c++/10/bits/random.tcc **** 	   _UIntType __b, size_t __t, _UIntType __c, size_t __l,
 302:/usr/include/c++/10/bits/random.tcc **** 	   _UIntType __f>
 303:/usr/include/c++/10/bits/random.tcc ****     constexpr _UIntType
 304:/usr/include/c++/10/bits/random.tcc ****     mersenne_twister_engine<_UIntType, __w, __n, __m, __r, __a, __u, __d,
 305:/usr/include/c++/10/bits/random.tcc **** 			    __s, __b, __t, __c, __l, __f>::
 306:/usr/include/c++/10/bits/random.tcc ****                                               initialization_multiplier;
 307:/usr/include/c++/10/bits/random.tcc **** 
 308:/usr/include/c++/10/bits/random.tcc ****   template<typename _UIntType,
 309:/usr/include/c++/10/bits/random.tcc **** 	   size_t __w, size_t __n, size_t __m, size_t __r,
 310:/usr/include/c++/10/bits/random.tcc **** 	   _UIntType __a, size_t __u, _UIntType __d, size_t __s,
 311:/usr/include/c++/10/bits/random.tcc **** 	   _UIntType __b, size_t __t, _UIntType __c, size_t __l,
 312:/usr/include/c++/10/bits/random.tcc **** 	   _UIntType __f>
 313:/usr/include/c++/10/bits/random.tcc ****     constexpr _UIntType
 314:/usr/include/c++/10/bits/random.tcc ****     mersenne_twister_engine<_UIntType, __w, __n, __m, __r, __a, __u, __d,
 315:/usr/include/c++/10/bits/random.tcc **** 			    __s, __b, __t, __c, __l, __f>::default_seed;
 316:/usr/include/c++/10/bits/random.tcc **** 
 317:/usr/include/c++/10/bits/random.tcc ****   template<typename _UIntType,
 318:/usr/include/c++/10/bits/random.tcc **** 	   size_t __w, size_t __n, size_t __m, size_t __r,
 319:/usr/include/c++/10/bits/random.tcc **** 	   _UIntType __a, size_t __u, _UIntType __d, size_t __s,
 320:/usr/include/c++/10/bits/random.tcc **** 	   _UIntType __b, size_t __t, _UIntType __c, size_t __l,
 321:/usr/include/c++/10/bits/random.tcc **** 	   _UIntType __f>
 322:/usr/include/c++/10/bits/random.tcc ****     void
 323:/usr/include/c++/10/bits/random.tcc ****     mersenne_twister_engine<_UIntType, __w, __n, __m, __r, __a, __u, __d,
 324:/usr/include/c++/10/bits/random.tcc **** 			    __s, __b, __t, __c, __l, __f>::
 325:/usr/include/c++/10/bits/random.tcc ****     seed(result_type __sd)
 326:/usr/include/c++/10/bits/random.tcc ****     {
 327:/usr/include/c++/10/bits/random.tcc ****       _M_x[0] = __detail::__mod<_UIntType,
 328:/usr/include/c++/10/bits/random.tcc **** 	__detail::_Shift<_UIntType, __w>::__value>(__sd);
 329:/usr/include/c++/10/bits/random.tcc **** 
 330:/usr/include/c++/10/bits/random.tcc ****       for (size_t __i = 1; __i < state_size; ++__i)
 331:/usr/include/c++/10/bits/random.tcc **** 	{
 332:/usr/include/c++/10/bits/random.tcc **** 	  _UIntType __x = _M_x[__i - 1];
 333:/usr/include/c++/10/bits/random.tcc **** 	  __x ^= __x >> (__w - 2);
 334:/usr/include/c++/10/bits/random.tcc **** 	  __x *= __f;
 335:/usr/include/c++/10/bits/random.tcc **** 	  __x += __detail::__mod<_UIntType, __n>(__i);
AARCH64 GAS  obj/Chapter15_4.s 			page 12


 336:/usr/include/c++/10/bits/random.tcc **** 	  _M_x[__i] = __detail::__mod<_UIntType,
 337:/usr/include/c++/10/bits/random.tcc **** 	    __detail::_Shift<_UIntType, __w>::__value>(__x);
 338:/usr/include/c++/10/bits/random.tcc **** 	}
 339:/usr/include/c++/10/bits/random.tcc ****       _M_p = state_size;
 340:/usr/include/c++/10/bits/random.tcc ****     }
 341:/usr/include/c++/10/bits/random.tcc **** 
 342:/usr/include/c++/10/bits/random.tcc ****   template<typename _UIntType,
 343:/usr/include/c++/10/bits/random.tcc **** 	   size_t __w, size_t __n, size_t __m, size_t __r,
 344:/usr/include/c++/10/bits/random.tcc **** 	   _UIntType __a, size_t __u, _UIntType __d, size_t __s,
 345:/usr/include/c++/10/bits/random.tcc **** 	   _UIntType __b, size_t __t, _UIntType __c, size_t __l,
 346:/usr/include/c++/10/bits/random.tcc **** 	   _UIntType __f>
 347:/usr/include/c++/10/bits/random.tcc ****     template<typename _Sseq>
 348:/usr/include/c++/10/bits/random.tcc ****       auto
 349:/usr/include/c++/10/bits/random.tcc ****       mersenne_twister_engine<_UIntType, __w, __n, __m, __r, __a, __u, __d,
 350:/usr/include/c++/10/bits/random.tcc **** 			      __s, __b, __t, __c, __l, __f>::
 351:/usr/include/c++/10/bits/random.tcc ****       seed(_Sseq& __q)
 352:/usr/include/c++/10/bits/random.tcc ****       -> _If_seed_seq<_Sseq>
 353:/usr/include/c++/10/bits/random.tcc ****       {
 354:/usr/include/c++/10/bits/random.tcc **** 	const _UIntType __upper_mask = (~_UIntType()) << __r;
 355:/usr/include/c++/10/bits/random.tcc **** 	const size_t __k = (__w + 31) / 32;
 356:/usr/include/c++/10/bits/random.tcc **** 	uint_least32_t __arr[__n * __k];
 357:/usr/include/c++/10/bits/random.tcc **** 	__q.generate(__arr + 0, __arr + __n * __k);
 358:/usr/include/c++/10/bits/random.tcc **** 
 359:/usr/include/c++/10/bits/random.tcc **** 	bool __zero = true;
 360:/usr/include/c++/10/bits/random.tcc **** 	for (size_t __i = 0; __i < state_size; ++__i)
 361:/usr/include/c++/10/bits/random.tcc **** 	  {
 362:/usr/include/c++/10/bits/random.tcc **** 	    _UIntType __factor = 1u;
 363:/usr/include/c++/10/bits/random.tcc **** 	    _UIntType __sum = 0u;
 364:/usr/include/c++/10/bits/random.tcc **** 	    for (size_t __j = 0; __j < __k; ++__j)
 365:/usr/include/c++/10/bits/random.tcc **** 	      {
 366:/usr/include/c++/10/bits/random.tcc **** 		__sum += __arr[__k * __i + __j] * __factor;
 367:/usr/include/c++/10/bits/random.tcc **** 		__factor *= __detail::_Shift<_UIntType, 32>::__value;
 368:/usr/include/c++/10/bits/random.tcc **** 	      }
 369:/usr/include/c++/10/bits/random.tcc **** 	    _M_x[__i] = __detail::__mod<_UIntType,
 370:/usr/include/c++/10/bits/random.tcc **** 	      __detail::_Shift<_UIntType, __w>::__value>(__sum);
 371:/usr/include/c++/10/bits/random.tcc **** 
 372:/usr/include/c++/10/bits/random.tcc **** 	    if (__zero)
 373:/usr/include/c++/10/bits/random.tcc **** 	      {
 374:/usr/include/c++/10/bits/random.tcc **** 		if (__i == 0)
 375:/usr/include/c++/10/bits/random.tcc **** 		  {
 376:/usr/include/c++/10/bits/random.tcc **** 		    if ((_M_x[0] & __upper_mask) != 0u)
 377:/usr/include/c++/10/bits/random.tcc **** 		      __zero = false;
 378:/usr/include/c++/10/bits/random.tcc **** 		  }
 379:/usr/include/c++/10/bits/random.tcc **** 		else if (_M_x[__i] != 0u)
 380:/usr/include/c++/10/bits/random.tcc **** 		  __zero = false;
 381:/usr/include/c++/10/bits/random.tcc **** 	      }
 382:/usr/include/c++/10/bits/random.tcc **** 	  }
 383:/usr/include/c++/10/bits/random.tcc ****         if (__zero)
 384:/usr/include/c++/10/bits/random.tcc ****           _M_x[0] = __detail::_Shift<_UIntType, __w - 1>::__value;
 385:/usr/include/c++/10/bits/random.tcc **** 	_M_p = state_size;
 386:/usr/include/c++/10/bits/random.tcc ****       }
 387:/usr/include/c++/10/bits/random.tcc **** 
 388:/usr/include/c++/10/bits/random.tcc ****   template<typename _UIntType, size_t __w,
 389:/usr/include/c++/10/bits/random.tcc **** 	   size_t __n, size_t __m, size_t __r,
 390:/usr/include/c++/10/bits/random.tcc **** 	   _UIntType __a, size_t __u, _UIntType __d, size_t __s,
 391:/usr/include/c++/10/bits/random.tcc **** 	   _UIntType __b, size_t __t, _UIntType __c, size_t __l,
 392:/usr/include/c++/10/bits/random.tcc **** 	   _UIntType __f>
AARCH64 GAS  obj/Chapter15_4.s 			page 13


 393:/usr/include/c++/10/bits/random.tcc ****     void
 394:/usr/include/c++/10/bits/random.tcc ****     mersenne_twister_engine<_UIntType, __w, __n, __m, __r, __a, __u, __d,
 141              		.loc 3 394 5 is_stmt 1 view -0
 142              		.cfi_startproc
 143              	.LBB331:
 395:/usr/include/c++/10/bits/random.tcc **** 			    __s, __b, __t, __c, __l, __f>::
 396:/usr/include/c++/10/bits/random.tcc ****     _M_gen_rand(void)
 397:/usr/include/c++/10/bits/random.tcc ****     {
 398:/usr/include/c++/10/bits/random.tcc ****       const _UIntType __upper_mask = (~_UIntType()) << __r;
 399:/usr/include/c++/10/bits/random.tcc ****       const _UIntType __lower_mask = ~__upper_mask;
 400:/usr/include/c++/10/bits/random.tcc **** 
 401:/usr/include/c++/10/bits/random.tcc ****       for (size_t __k = 0; __k < (__n - __m); ++__k)
 144              		.loc 3 401 32 view .LVU24
 145              	.LBB332:
 402:/usr/include/c++/10/bits/random.tcc ****         {
 403:/usr/include/c++/10/bits/random.tcc **** 	  _UIntType __y = ((_M_x[__k] & __upper_mask)
 404:/usr/include/c++/10/bits/random.tcc **** 			   | (_M_x[__k + 1] & __lower_mask));
 146              		.loc 3 404 24 is_stmt 0 view .LVU25
 147 0000 02000090 		adrp	x2, .LC2
 403:/usr/include/c++/10/bits/random.tcc **** 			   | (_M_x[__k + 1] & __lower_mask));
 148              		.loc 3 403 32 view .LVU26
 149 0004 01000090 		adrp	x1, .LC1
 150 0008 06601C91 		add	x6, x0, 1816
 151              		.loc 3 404 24 view .LVU27
 152 000c 4500C03D 		ldr	q5, [x2, #:lo12:.LC2]
 405:/usr/include/c++/10/bits/random.tcc **** 	  _M_x[__k] = (_M_x[__k + __m] ^ (__y >> 1)
 406:/usr/include/c++/10/bits/random.tcc **** 		       ^ ((__y & 0x01) ? __a : 0));
 153              		.loc 3 406 18 view .LVU28
 154 0010 02000090 		adrp	x2, .LC3
 403:/usr/include/c++/10/bits/random.tcc **** 			   | (_M_x[__k + 1] & __lower_mask));
 155              		.loc 3 403 32 view .LVU29
 156 0014 2600C03D 		ldr	q6, [x1, #:lo12:.LC1]
 157 0018 01200091 		add	x1, x0, 8
 158              		.loc 3 406 18 view .LVU30
 159 001c 4400C03D 		ldr	q4, [x2, #:lo12:.LC3]
 160              		.loc 3 406 10 view .LVU31
 161 0020 02000090 		adrp	x2, .LC4
 162 0024 4300C03D 		ldr	q3, [x2, #:lo12:.LC4]
 163              	.LVL12:
 164              		.p2align 3,,7
 165              	.L9:
 166              		.loc 3 406 10 view .LVU32
 167              	.LBE332:
 401:/usr/include/c++/10/bits/random.tcc ****         {
 168              		.loc 3 401 32 view .LVU33
 169 0028 21400091 		add	x1, x1, 16
 170              	.LBB333:
 403:/usr/include/c++/10/bits/random.tcc **** 			   | (_M_x[__k + 1] & __lower_mask));
 171              		.loc 3 403 26 view .LVU34
 172 002c 2080DE3C 		ldr	q0, [x1, -24]
 404:/usr/include/c++/10/bits/random.tcc **** 	  _M_x[__k] = (_M_x[__k + __m] ^ (__y >> 1)
 173              		.loc 3 404 14 view .LVU35
 174 0030 2200DF3C 		ldr	q2, [x1, -16]
 403:/usr/include/c++/10/bits/random.tcc **** 			   | (_M_x[__k + 1] & __lower_mask));
 175              		.loc 3 403 32 view .LVU36
 176 0034 001C264E 		and	v0.16b, v0.16b, v6.16b
 405:/usr/include/c++/10/bits/random.tcc **** 		       ^ ((__y & 0x01) ? __a : 0));
AARCH64 GAS  obj/Chapter15_4.s 			page 14


 177              		.loc 3 405 21 view .LVU37
 178 0038 2114C33D 		ldr	q1, [x1, 3152]
 404:/usr/include/c++/10/bits/random.tcc **** 	  _M_x[__k] = (_M_x[__k + __m] ^ (__y >> 1)
 179              		.loc 3 404 24 view .LVU38
 180 003c 421C254E 		and	v2.16b, v2.16b, v5.16b
 403:/usr/include/c++/10/bits/random.tcc **** 			   | (_M_x[__k + 1] & __lower_mask));
 181              		.loc 3 403 14 view .LVU39
 182 0040 001CA24E 		orr	v0.16b, v0.16b, v2.16b
 405:/usr/include/c++/10/bits/random.tcc **** 		       ^ ((__y & 0x01) ? __a : 0));
 183              		.loc 3 405 40 view .LVU40
 184 0044 02047F6F 		ushr	v2.2d, v0.2d, 1
 185              		.loc 3 406 18 view .LVU41
 186 0048 001C244E 		and	v0.16b, v0.16b, v4.16b
 405:/usr/include/c++/10/bits/random.tcc **** 		       ^ ((__y & 0x01) ? __a : 0));
 187              		.loc 3 405 33 view .LVU42
 188 004c 211C226E 		eor	v1.16b, v1.16b, v2.16b
 405:/usr/include/c++/10/bits/random.tcc **** 		       ^ ((__y & 0x01) ? __a : 0));
 189              		.loc 3 405 14 view .LVU43
 190 0050 0098E04E 		cmeq	v0.2d, v0.2d, #0
 191              		.loc 3 406 10 view .LVU44
 192 0054 221C236E 		eor	v2.16b, v1.16b, v3.16b
 405:/usr/include/c++/10/bits/random.tcc **** 		       ^ ((__y & 0x01) ? __a : 0));
 193              		.loc 3 405 14 view .LVU45
 194 0058 201C626E 		bsl	v0.16b, v1.16b, v2.16b
 195 005c 20809E3C 		str	q0, [x1, -24]
 196              	.LBE333:
 401:/usr/include/c++/10/bits/random.tcc ****         {
 197              		.loc 3 401 7 is_stmt 1 view .LVU46
 401:/usr/include/c++/10/bits/random.tcc ****         {
 198              		.loc 3 401 32 view .LVU47
 199 0060 DF0001EB 		cmp	x6, x1
 200 0064 21FEFF54 		bne	.L9
 201              	.LVL13:
 202              	.LBB334:
 403:/usr/include/c++/10/bits/random.tcc **** 			   | (_M_x[__k + 1] & __lower_mask));
 203              		.loc 3 403 32 is_stmt 0 view .LVU48
 204 0068 028843F9 		ldr	x2, [x0, 1808]
 205              		.loc 3 406 10 view .LVU49
 206 006c E41B96D2 		mov	x4, 45279
 404:/usr/include/c++/10/bits/random.tcc **** 	  _M_x[__k] = (_M_x[__k + __m] ^ (__y >> 1)
 207              		.loc 3 404 24 view .LVU50
 208 0070 058C43F9 		ldr	x5, [x0, 1816]
 209              		.loc 3 406 10 view .LVU51
 210 0074 0421B3F2 		movk	x4, 0x9908, lsl 16
 405:/usr/include/c++/10/bits/random.tcc **** 		       ^ ((__y & 0x01) ? __a : 0));
 211              		.loc 3 405 33 view .LVU52
 212 0078 01BC49F9 		ldr	x1, [x0, 4984]
 213 007c 07801C91 		add	x7, x0, 1824
 403:/usr/include/c++/10/bits/random.tcc **** 			   | (_M_x[__k + 1] & __lower_mask));
 214              		.loc 3 403 14 view .LVU53
 215 0080 A27840B3 		bfi	x2, x5, 0, 31
 216              	.LVL14:
 403:/usr/include/c++/10/bits/random.tcc **** 			   | (_M_x[__k + 1] & __lower_mask));
 217              		.loc 3 403 14 view .LVU54
 218              	.LBE334:
 219              	.LBE331:
 220              	.LBB339:
AARCH64 GAS  obj/Chapter15_4.s 			page 15


 221              	.LBB340:
 407:/usr/include/c++/10/bits/random.tcc ****         }
 408:/usr/include/c++/10/bits/random.tcc **** 
 409:/usr/include/c++/10/bits/random.tcc ****       for (size_t __k = (__n - __m); __k < (__n - 1); ++__k)
 410:/usr/include/c++/10/bits/random.tcc **** 	{
 411:/usr/include/c++/10/bits/random.tcc **** 	  _UIntType __y = ((_M_x[__k] & __upper_mask)
 222              		.loc 3 411 32 view .LVU55
 223 0084 05000090 		adrp	x5, .LC1
 224              	.LBE340:
 225              	.LBE339:
 226              	.LBB345:
 227              	.LBB335:
 405:/usr/include/c++/10/bits/random.tcc **** 		       ^ ((__y & 0x01) ? __a : 0));
 228              		.loc 3 405 14 view .LVU56
 229 0088 030080D2 		mov	x3, 0
 405:/usr/include/c++/10/bits/random.tcc **** 		       ^ ((__y & 0x01) ? __a : 0));
 230              		.loc 3 405 33 view .LVU57
 231 008c 210442CA 		eor	x1, x1, x2, lsr 1
 406:/usr/include/c++/10/bits/random.tcc ****         }
 232              		.loc 3 406 10 view .LVU58
 233 0090 5F0040F2 		tst	x2, 1
 234              	.LBE335:
 235              	.LBE345:
 236              	.LBB346:
 237              	.LBB341:
 412:/usr/include/c++/10/bits/random.tcc **** 			   | (_M_x[__k + 1] & __lower_mask));
 413:/usr/include/c++/10/bits/random.tcc **** 	  _M_x[__k] = (_M_x[__k + (__m - __n)] ^ (__y >> 1)
 414:/usr/include/c++/10/bits/random.tcc **** 		       ^ ((__y & 0x01) ? __a : 0));
 238              		.loc 3 414 18 view .LVU59
 239 0094 02000090 		adrp	x2, .LC3
 240              	.LVL15:
 411:/usr/include/c++/10/bits/random.tcc **** 			   | (_M_x[__k + 1] & __lower_mask));
 241              		.loc 3 411 32 view .LVU60
 242 0098 A600C03D 		ldr	q6, [x5, #:lo12:.LC1]
 412:/usr/include/c++/10/bits/random.tcc **** 			   | (_M_x[__k + 1] & __lower_mask));
 243              		.loc 3 412 24 view .LVU61
 244 009c 05000090 		adrp	x5, .LC2
 245              		.loc 3 414 18 view .LVU62
 246 00a0 4400C03D 		ldr	q4, [x2, #:lo12:.LC3]
 247              	.LBE341:
 248              	.LBE346:
 249              	.LBB347:
 250              	.LBB336:
 406:/usr/include/c++/10/bits/random.tcc ****         }
 251              		.loc 3 406 10 view .LVU63
 252 00a4 220004CA 		eor	x2, x1, x4
 253              	.LBE336:
 254              	.LBE347:
 255              	.LBB348:
 256              	.LBB342:
 257              		.loc 3 414 10 view .LVU64
 258 00a8 04000090 		adrp	x4, .LC4
 259              	.LBE342:
 260              	.LBE348:
 261              	.LBB349:
 262              	.LBB337:
 406:/usr/include/c++/10/bits/random.tcc ****         }
AARCH64 GAS  obj/Chapter15_4.s 			page 16


 263              		.loc 3 406 10 view .LVU65
 264 00ac 4110819A 		csel	x1, x2, x1, ne
 265              	.LBE337:
 266              	.LBE349:
 267              	.LBB350:
 268              	.LBB343:
 412:/usr/include/c++/10/bits/random.tcc **** 			   | (_M_x[__k + 1] & __lower_mask));
 269              		.loc 3 412 24 view .LVU66
 270 00b0 A500C03D 		ldr	q5, [x5, #:lo12:.LC2]
 271              	.LBE343:
 272              	.LBE350:
 273              	.LBB351:
 274              	.LBB338:
 405:/usr/include/c++/10/bits/random.tcc **** 		       ^ ((__y & 0x01) ? __a : 0));
 275              		.loc 3 405 14 view .LVU67
 276 00b4 018803F9 		str	x1, [x0, 1808]
 277              	.LVL16:
 405:/usr/include/c++/10/bits/random.tcc **** 		       ^ ((__y & 0x01) ? __a : 0));
 278              		.loc 3 405 14 view .LVU68
 279              	.LBE338:
 401:/usr/include/c++/10/bits/random.tcc ****         {
 280              		.loc 3 401 7 is_stmt 1 view .LVU69
 401:/usr/include/c++/10/bits/random.tcc ****         {
 281              		.loc 3 401 32 view .LVU70
 282              	.LBE351:
 283              	.LBB352:
 284              	.LBB344:
 285              		.loc 3 414 10 is_stmt 0 view .LVU71
 286 00b8 8300C03D 		ldr	q3, [x4, #:lo12:.LC4]
 287              	.L11:
 411:/usr/include/c++/10/bits/random.tcc **** 			   | (_M_x[__k + 1] & __lower_mask));
 288              		.loc 3 411 26 view .LVU72
 289 00bc C068E33C 		ldr	q0, [x6, x3]
 412:/usr/include/c++/10/bits/random.tcc **** 	  _M_x[__k] = (_M_x[__k + (__m - __n)] ^ (__y >> 1)
 290              		.loc 3 412 14 view .LVU73
 291 00c0 E268E33C 		ldr	q2, [x7, x3]
 411:/usr/include/c++/10/bits/random.tcc **** 			   | (_M_x[__k + 1] & __lower_mask));
 292              		.loc 3 411 32 view .LVU74
 293 00c4 001C264E 		and	v0.16b, v0.16b, v6.16b
 413:/usr/include/c++/10/bits/random.tcc **** 		       ^ ((__y & 0x01) ? __a : 0));
 294              		.loc 3 413 21 view .LVU75
 295 00c8 0168E33C 		ldr	q1, [x0, x3]
 412:/usr/include/c++/10/bits/random.tcc **** 	  _M_x[__k] = (_M_x[__k + (__m - __n)] ^ (__y >> 1)
 296              		.loc 3 412 24 view .LVU76
 297 00cc 421C254E 		and	v2.16b, v2.16b, v5.16b
 411:/usr/include/c++/10/bits/random.tcc **** 			   | (_M_x[__k + 1] & __lower_mask));
 298              		.loc 3 411 14 view .LVU77
 299 00d0 001CA24E 		orr	v0.16b, v0.16b, v2.16b
 413:/usr/include/c++/10/bits/random.tcc **** 		       ^ ((__y & 0x01) ? __a : 0));
 300              		.loc 3 413 48 view .LVU78
 301 00d4 02047F6F 		ushr	v2.2d, v0.2d, 1
 302              		.loc 3 414 18 view .LVU79
 303 00d8 001C244E 		and	v0.16b, v0.16b, v4.16b
 413:/usr/include/c++/10/bits/random.tcc **** 		       ^ ((__y & 0x01) ? __a : 0));
 304              		.loc 3 413 41 view .LVU80
 305 00dc 211C226E 		eor	v1.16b, v1.16b, v2.16b
 413:/usr/include/c++/10/bits/random.tcc **** 		       ^ ((__y & 0x01) ? __a : 0));
AARCH64 GAS  obj/Chapter15_4.s 			page 17


 306              		.loc 3 413 14 view .LVU81
 307 00e0 0098E04E 		cmeq	v0.2d, v0.2d, #0
 308              		.loc 3 414 10 view .LVU82
 309 00e4 221C236E 		eor	v2.16b, v1.16b, v3.16b
 413:/usr/include/c++/10/bits/random.tcc **** 		       ^ ((__y & 0x01) ? __a : 0));
 310              		.loc 3 413 14 view .LVU83
 311 00e8 201C626E 		bsl	v0.16b, v1.16b, v2.16b
 312 00ec C068A33C 		str	q0, [x6, x3]
 313              	.LBE344:
 409:/usr/include/c++/10/bits/random.tcc **** 	{
 314              		.loc 3 409 7 is_stmt 1 view .LVU84
 409:/usr/include/c++/10/bits/random.tcc **** 	{
 315              		.loc 3 409 42 view .LVU85
 316 00f0 63400091 		add	x3, x3, 16
 317 00f4 7F8031F1 		cmp	x3, 3168
 318 00f8 21FEFF54 		bne	.L11
 319              	.LBE352:
 415:/usr/include/c++/10/bits/random.tcc **** 	}
 416:/usr/include/c++/10/bits/random.tcc **** 
 417:/usr/include/c++/10/bits/random.tcc ****       _UIntType __y = ((_M_x[__n - 1] & __upper_mask)
 418:/usr/include/c++/10/bits/random.tcc **** 		       | (_M_x[0] & __lower_mask));
 320              		.loc 3 418 21 is_stmt 0 view .LVU86
 321 00fc 040040F9 		ldr	x4, [x0]
 419:/usr/include/c++/10/bits/random.tcc ****       _M_x[__n - 1] = (_M_x[__m - 1] ^ (__y >> 1)
 420:/usr/include/c++/10/bits/random.tcc **** 		       ^ ((__y & 0x01) ? __a : 0));
 322              		.loc 3 420 10 view .LVU87
 323 0100 E31B96D2 		mov	x3, 45279
 417:/usr/include/c++/10/bits/random.tcc **** 		       | (_M_x[0] & __lower_mask));
 324              		.loc 3 417 39 view .LVU88
 325 0104 02BC49F9 		ldr	x2, [x0, 4984]
 326              		.loc 3 420 10 view .LVU89
 327 0108 0321B3F2 		movk	x3, 0x9908, lsl 16
 419:/usr/include/c++/10/bits/random.tcc ****       _M_x[__n - 1] = (_M_x[__m - 1] ^ (__y >> 1)
 328              		.loc 3 419 38 view .LVU90
 329 010c 013046F9 		ldr	x1, [x0, 3168]
 421:/usr/include/c++/10/bits/random.tcc ****       _M_p = 0;
 330              		.loc 3 421 12 view .LVU91
 331 0110 1FC009F9 		str	xzr, [x0, 4992]
 417:/usr/include/c++/10/bits/random.tcc **** 		       | (_M_x[0] & __lower_mask));
 332              		.loc 3 417 17 view .LVU92
 333 0114 827840B3 		bfi	x2, x4, 0, 31
 334              	.LVL17:
 419:/usr/include/c++/10/bits/random.tcc ****       _M_x[__n - 1] = (_M_x[__m - 1] ^ (__y >> 1)
 335              		.loc 3 419 38 view .LVU93
 336 0118 210442CA 		eor	x1, x1, x2, lsr 1
 420:/usr/include/c++/10/bits/random.tcc ****       _M_p = 0;
 337              		.loc 3 420 10 view .LVU94
 338 011c 5F0040F2 		tst	x2, 1
 339 0120 220003CA 		eor	x2, x1, x3
 340              	.LVL18:
 420:/usr/include/c++/10/bits/random.tcc ****       _M_p = 0;
 341              		.loc 3 420 10 view .LVU95
 342 0124 4110819A 		csel	x1, x2, x1, ne
 419:/usr/include/c++/10/bits/random.tcc **** 		       ^ ((__y & 0x01) ? __a : 0));
 343              		.loc 3 419 21 view .LVU96
 344 0128 01BC09F9 		str	x1, [x0, 4984]
 345              	.LVL19:
AARCH64 GAS  obj/Chapter15_4.s 			page 18


 422:/usr/include/c++/10/bits/random.tcc ****     }
 346              		.loc 3 422 5 view .LVU97
 347 012c C0035FD6 		ret
 348              		.cfi_endproc
 349              	.LFE4240:
 350              		.size	_ZNSt23mersenne_twister_engineImLm32ELm624ELm397ELm31ELm2567483615ELm11ELm4294967295ELm7ELm2
 351              		.section	.rodata.str1.8,"aMS",@progbits,1
 352              		.align	3
 353              	.LC5:
 354 0000 73756D5F 		.string	"sum_x: "
 354      783A2000 
 355              		.align	3
 356              	.LC6:
 357 0008 73756D5F 		.string	"sum_y: "
 357      793A2000 
 358              		.align	3
 359              	.LC7:
 360 0010 73756D5F 		.string	"sum_xx: "
 360      78783A20 
 360      00
 361 0019 00000000 		.align	3
 361      000000
 362              	.LC8:
 363 0020 73756D5F 		.string	"sum_yy: "
 363      79793A20 
 363      00
 364 0029 00000000 		.align	3
 364      000000
 365              	.LC9:
 366 0030 73756D5F 		.string	"sum_xy: "
 366      78793A20 
 366      00
 367 0039 00000000 		.align	3
 367      000000
 368              	.LC10:
 369 0040 72686F3A 		.string	"rho: "
 369      2000
 370              		.section	.text.startup,"ax",@progbits
 371              		.align	2
 372              		.p2align 4,,11
 373              		.global	main
 374              		.type	main, %function
 375              	main:
 376              	.LFB3650:
 377              		.file 4 "Chapter15_4.cpp"
   1:Chapter15_4.cpp **** #include<iostream>
   2:Chapter15_4.cpp **** #include<iomanip>
   3:Chapter15_4.cpp **** #include<string>
   4:Chapter15_4.cpp **** #include<random>
   5:Chapter15_4.cpp **** #include "AlignedMem.h"
   6:Chapter15_4.cpp **** 
   7:Chapter15_4.cpp **** using namespace std;
   8:Chapter15_4.cpp **** 
   9:Chapter15_4.cpp **** extern "C" bool corrCoeff_(float* rho,float sum[5],
  10:Chapter15_4.cpp **** const float*x,const float* y,size_t n,float eps);
  11:Chapter15_4.cpp **** const size_t memAlign = 16;
  12:Chapter15_4.cpp **** int w = 5;
AARCH64 GAS  obj/Chapter15_4.s 			page 19


  13:Chapter15_4.cpp **** int main()
  14:Chapter15_4.cpp **** {
 378              		.loc 4 14 1 is_stmt 1 view -0
 379              		.cfi_startproc
 380              		.cfi_personality 0x9b,DW.ref.__gxx_personality_v0
 381              		.cfi_lsda 0x1b,.LLSDA3650
  15:Chapter15_4.cpp **** 	//initialize values
  16:Chapter15_4.cpp **** 	AlignedArray<float> x_aa(120,memAlign);
 382              		.loc 4 16 2 view .LVU99
 383              	.LVL20:
 384              	.LBB516:
 385              	.LBI516:
  18:../../Include/AlignedMem.h **** 
  19:../../Include/AlignedMem.h ****     static void Release(void* p)
  20:../../Include/AlignedMem.h ****     {
  21:../../Include/AlignedMem.h ****         OS::AlignedFree(p);
  22:../../Include/AlignedMem.h ****     }
  23:../../Include/AlignedMem.h **** 
  24:../../Include/AlignedMem.h ****     template <typename T> static bool IsAligned(const T* p, size_t alignment)
  25:../../Include/AlignedMem.h ****     {
  26:../../Include/AlignedMem.h ****         if (p == nullptr)
  27:../../Include/AlignedMem.h ****             return false;
  28:../../Include/AlignedMem.h **** 
  29:../../Include/AlignedMem.h ****         if (((uintptr_t)p % alignment) != 0)
  30:../../Include/AlignedMem.h ****             return false;
  31:../../Include/AlignedMem.h **** 
  32:../../Include/AlignedMem.h ****         return true;
  33:../../Include/AlignedMem.h ****     }
  34:../../Include/AlignedMem.h **** };
  35:../../Include/AlignedMem.h **** 
  36:../../Include/AlignedMem.h **** template <class T> class AlignedArray
  37:../../Include/AlignedMem.h **** {
  38:../../Include/AlignedMem.h ****     T* m_Data;
  39:../../Include/AlignedMem.h ****     size_t m_Size;
  40:../../Include/AlignedMem.h **** 
  41:../../Include/AlignedMem.h **** public:
  42:../../Include/AlignedMem.h **** 
  43:../../Include/AlignedMem.h ****     AlignedArray(void) = delete;
  44:../../Include/AlignedMem.h ****     AlignedArray(const AlignedArray& aa) = delete;
  45:../../Include/AlignedMem.h ****     AlignedArray(AlignedArray&& aa) = delete;
  46:../../Include/AlignedMem.h ****     AlignedArray& operator = (const AlignedArray& aa) = delete;
  47:../../Include/AlignedMem.h ****     AlignedArray& operator = (AlignedArray&& aa) = delete;
  48:../../Include/AlignedMem.h **** 
  49:../../Include/AlignedMem.h ****     AlignedArray(size_t size, size_t alignment)
 386              		.loc 1 49 5 view .LVU100
 387              		.loc 1 49 5 is_stmt 0 view .LVU101
 388              	.LBE516:
  14:Chapter15_4.cpp **** 	//initialize values
 389              		.loc 4 14 1 view .LVU102
 390 0000 0C8682D2 		mov	x12, 5168
 391 0004 FF632CCB 		sub	sp, sp, x12
 392              		.cfi_def_cfa_offset 5168
 393              	.LBB520:
 394              	.LBB517:
  50:../../Include/AlignedMem.h ****     {
  51:../../Include/AlignedMem.h ****         m_Size = size;
  52:../../Include/AlignedMem.h ****         m_Data = (T*)AlignedMem::Allocate(size * sizeof(T), alignment);
AARCH64 GAS  obj/Chapter15_4.s 			page 20


 395              		.loc 1 52 42 view .LVU103
 396 0008 010280D2 		mov	x1, 16
 397 000c 003C80D2 		mov	x0, 480
 398              	.LBE517:
 399              	.LBE520:
  14:Chapter15_4.cpp **** 	//initialize values
 400              		.loc 4 14 1 view .LVU104
 401 0010 FD7B00A9 		stp	x29, x30, [sp]
 402              		.cfi_offset 29, -5168
 403              		.cfi_offset 30, -5160
 404 0014 FD030091 		mov	x29, sp
 405 0018 F35301A9 		stp	x19, x20, [sp, 16]
 406 001c F55B02A9 		stp	x21, x22, [sp, 32]
 407 0020 F76303A9 		stp	x23, x24, [sp, 48]
 408 0024 E827046D 		stp	d8, d9, [sp, 64]
 409 0028 EA2F056D 		stp	d10, d11, [sp, 80]
 410 002c EC37066D 		stp	d12, d13, [sp, 96]
 411 0030 EE3F076D 		stp	d14, d15, [sp, 112]
 412              		.cfi_offset 19, -5152
 413              		.cfi_offset 20, -5144
 414              		.cfi_offset 21, -5136
 415              		.cfi_offset 22, -5128
 416              		.cfi_offset 23, -5120
 417              		.cfi_offset 24, -5112
 418              		.cfi_offset 72, -5104
 419              		.cfi_offset 73, -5096
 420              		.cfi_offset 74, -5088
 421              		.cfi_offset 75, -5080
 422              		.cfi_offset 76, -5072
 423              		.cfi_offset 77, -5064
 424              		.cfi_offset 78, -5056
 425              		.cfi_offset 79, -5048
 426              	.LEHB2:
 427              	.LBB521:
 428              	.LBB518:
 429              		.loc 1 52 42 view .LVU105
 430 0034 00000094 		bl	_ZN10AlignedMem8AllocateEmm
 431              	.LVL21:
 432              	.LEHE2:
 433              	.LBE518:
 434              	.LBE521:
 435              	.LBB522:
 436              	.LBB523:
 437 0038 010280D2 		mov	x1, 16
 438              	.LBE523:
 439              	.LBE522:
 440              	.LBB526:
 441              	.LBB519:
 442 003c F40300AA 		mov	x20, x0
 443              	.LVL22:
 444              		.loc 1 52 42 view .LVU106
 445              	.LBE519:
 446              	.LBE526:
  17:Chapter15_4.cpp **** 	AlignedArray<float> y_aa(120,memAlign);
 447              		.loc 4 17 2 is_stmt 1 view .LVU107
 448              	.LBB527:
 449              	.LBI522:
AARCH64 GAS  obj/Chapter15_4.s 			page 21


  49:../../Include/AlignedMem.h ****     {
 450              		.loc 1 49 5 view .LVU108
 451              	.LBB524:
 452              		.loc 1 52 42 is_stmt 0 view .LVU109
 453 0040 003C80D2 		mov	x0, 480
 454              	.LVL23:
 455              	.LEHB3:
 456              		.loc 1 52 42 view .LVU110
 457 0044 00000094 		bl	_ZN10AlignedMem8AllocateEmm
 458              	.LVL24:
 459              	.LEHE3:
 460 0048 F6A30291 		add	x22, sp, 168
 461              	.LBE524:
 462              	.LBE527:
 463              	.LBB528:
 464              	.LBB529:
 465              	.LBB530:
 466              	.LBB531:
 327:/usr/include/c++/10/bits/random.tcc **** 	__detail::_Shift<_UIntType, __w>::__value>(__sd);
 467              		.loc 3 327 15 view .LVU111
 468 004c 840580D2 		mov	x4, 44
 469              	.LBE531:
 470              	.LBE530:
 471              	.LBE529:
 472              	.LBE528:
 473              	.LBB548:
 474              	.LBB525:
 475              		.loc 1 52 42 view .LVU112
 476 0050 F50300AA 		mov	x21, x0
 477              	.LVL25:
 478              		.loc 1 52 42 view .LVU113
 479              	.LBE525:
 480              	.LBE548:
  18:Chapter15_4.cpp **** 	float* x = x_aa.Data();
 481              		.loc 4 18 2 is_stmt 1 view .LVU114
  19:Chapter15_4.cpp **** 	float* y = y_aa.Data();
 482              		.loc 4 19 2 view .LVU115
  20:Chapter15_4.cpp ****     uniform_real_distribution<float>u_dist{0.0,50.0};
 483              		.loc 4 20 5 view .LVU116
 484              	.LBB549:
 485              	.LBI549:
 486              		.file 5 "/usr/include/c++/10/bits/random.h"
   1:/usr/include/c++/10/bits/random.h **** // random number generation -*- C++ -*-
   2:/usr/include/c++/10/bits/random.h **** 
   3:/usr/include/c++/10/bits/random.h **** // Copyright (C) 2009-2020 Free Software Foundation, Inc.
   4:/usr/include/c++/10/bits/random.h **** //
   5:/usr/include/c++/10/bits/random.h **** // This file is part of the GNU ISO C++ Library.  This library is free
   6:/usr/include/c++/10/bits/random.h **** // software; you can redistribute it and/or modify it under the
   7:/usr/include/c++/10/bits/random.h **** // terms of the GNU General Public License as published by the
   8:/usr/include/c++/10/bits/random.h **** // Free Software Foundation; either version 3, or (at your option)
   9:/usr/include/c++/10/bits/random.h **** // any later version.
  10:/usr/include/c++/10/bits/random.h **** 
  11:/usr/include/c++/10/bits/random.h **** // This library is distributed in the hope that it will be useful,
  12:/usr/include/c++/10/bits/random.h **** // but WITHOUT ANY WARRANTY; without even the implied warranty of
  13:/usr/include/c++/10/bits/random.h **** // MERCHANTABILITY or FITNESS FOR A PARTICULAR PURPOSE.  See the
  14:/usr/include/c++/10/bits/random.h **** // GNU General Public License for more details.
  15:/usr/include/c++/10/bits/random.h **** 
AARCH64 GAS  obj/Chapter15_4.s 			page 22


  16:/usr/include/c++/10/bits/random.h **** // Under Section 7 of GPL version 3, you are granted additional
  17:/usr/include/c++/10/bits/random.h **** // permissions described in the GCC Runtime Library Exception, version
  18:/usr/include/c++/10/bits/random.h **** // 3.1, as published by the Free Software Foundation.
  19:/usr/include/c++/10/bits/random.h **** 
  20:/usr/include/c++/10/bits/random.h **** // You should have received a copy of the GNU General Public License and
  21:/usr/include/c++/10/bits/random.h **** // a copy of the GCC Runtime Library Exception along with this program;
  22:/usr/include/c++/10/bits/random.h **** // see the files COPYING3 and COPYING.RUNTIME respectively.  If not, see
  23:/usr/include/c++/10/bits/random.h **** // <http://www.gnu.org/licenses/>.
  24:/usr/include/c++/10/bits/random.h **** 
  25:/usr/include/c++/10/bits/random.h **** /**
  26:/usr/include/c++/10/bits/random.h ****  * @file bits/random.h
  27:/usr/include/c++/10/bits/random.h ****  *  This is an internal header file, included by other library headers.
  28:/usr/include/c++/10/bits/random.h ****  *  Do not attempt to use it directly. @headername{random}
  29:/usr/include/c++/10/bits/random.h ****  */
  30:/usr/include/c++/10/bits/random.h **** 
  31:/usr/include/c++/10/bits/random.h **** #ifndef _RANDOM_H
  32:/usr/include/c++/10/bits/random.h **** #define _RANDOM_H 1
  33:/usr/include/c++/10/bits/random.h **** 
  34:/usr/include/c++/10/bits/random.h **** #include <vector>
  35:/usr/include/c++/10/bits/random.h **** #include <bits/uniform_int_dist.h>
  36:/usr/include/c++/10/bits/random.h **** 
  37:/usr/include/c++/10/bits/random.h **** namespace std _GLIBCXX_VISIBILITY(default)
  38:/usr/include/c++/10/bits/random.h **** {
  39:/usr/include/c++/10/bits/random.h **** _GLIBCXX_BEGIN_NAMESPACE_VERSION
  40:/usr/include/c++/10/bits/random.h **** 
  41:/usr/include/c++/10/bits/random.h ****   // [26.4] Random number generation
  42:/usr/include/c++/10/bits/random.h **** 
  43:/usr/include/c++/10/bits/random.h ****   /**
  44:/usr/include/c++/10/bits/random.h ****    * @defgroup random Random Number Generation
  45:/usr/include/c++/10/bits/random.h ****    * @ingroup numerics
  46:/usr/include/c++/10/bits/random.h ****    *
  47:/usr/include/c++/10/bits/random.h ****    * A facility for generating random numbers on selected distributions.
  48:/usr/include/c++/10/bits/random.h ****    * @{
  49:/usr/include/c++/10/bits/random.h ****    */
  50:/usr/include/c++/10/bits/random.h **** 
  51:/usr/include/c++/10/bits/random.h ****   // std::uniform_random_bit_generator is defined in <bits/uniform_int_dist.h>
  52:/usr/include/c++/10/bits/random.h **** 
  53:/usr/include/c++/10/bits/random.h ****   /**
  54:/usr/include/c++/10/bits/random.h ****    * @brief A function template for converting the output of a (integral)
  55:/usr/include/c++/10/bits/random.h ****    * uniform random number generator to a floatng point result in the range
  56:/usr/include/c++/10/bits/random.h ****    * [0-1).
  57:/usr/include/c++/10/bits/random.h ****    */
  58:/usr/include/c++/10/bits/random.h ****   template<typename _RealType, size_t __bits,
  59:/usr/include/c++/10/bits/random.h **** 	   typename _UniformRandomNumberGenerator>
  60:/usr/include/c++/10/bits/random.h ****     _RealType
  61:/usr/include/c++/10/bits/random.h ****     generate_canonical(_UniformRandomNumberGenerator& __g);
  62:/usr/include/c++/10/bits/random.h **** 
  63:/usr/include/c++/10/bits/random.h ****   /*
  64:/usr/include/c++/10/bits/random.h ****    * Implementation-space details.
  65:/usr/include/c++/10/bits/random.h ****    */
  66:/usr/include/c++/10/bits/random.h ****   namespace __detail
  67:/usr/include/c++/10/bits/random.h ****   {
  68:/usr/include/c++/10/bits/random.h ****     template<typename _UIntType, size_t __w,
  69:/usr/include/c++/10/bits/random.h **** 	     bool = __w < static_cast<size_t>
  70:/usr/include/c++/10/bits/random.h **** 			  (std::numeric_limits<_UIntType>::digits)>
  71:/usr/include/c++/10/bits/random.h ****       struct _Shift
  72:/usr/include/c++/10/bits/random.h ****       { static const _UIntType __value = 0; };
AARCH64 GAS  obj/Chapter15_4.s 			page 23


  73:/usr/include/c++/10/bits/random.h **** 
  74:/usr/include/c++/10/bits/random.h ****     template<typename _UIntType, size_t __w>
  75:/usr/include/c++/10/bits/random.h ****       struct _Shift<_UIntType, __w, true>
  76:/usr/include/c++/10/bits/random.h ****       { static const _UIntType __value = _UIntType(1) << __w; };
  77:/usr/include/c++/10/bits/random.h **** 
  78:/usr/include/c++/10/bits/random.h ****     template<int __s,
  79:/usr/include/c++/10/bits/random.h **** 	     int __which = ((__s <= __CHAR_BIT__ * sizeof (int))
  80:/usr/include/c++/10/bits/random.h **** 			    + (__s <= __CHAR_BIT__ * sizeof (long))
  81:/usr/include/c++/10/bits/random.h **** 			    + (__s <= __CHAR_BIT__ * sizeof (long long))
  82:/usr/include/c++/10/bits/random.h **** 			    /* assume long long no bigger than __int128 */
  83:/usr/include/c++/10/bits/random.h **** 			    + (__s <= 128))>
  84:/usr/include/c++/10/bits/random.h ****       struct _Select_uint_least_t
  85:/usr/include/c++/10/bits/random.h ****       {
  86:/usr/include/c++/10/bits/random.h **** 	static_assert(__which < 0, /* needs to be dependent */
  87:/usr/include/c++/10/bits/random.h **** 		      "sorry, would be too much trouble for a slow result");
  88:/usr/include/c++/10/bits/random.h ****       };
  89:/usr/include/c++/10/bits/random.h **** 
  90:/usr/include/c++/10/bits/random.h ****     template<int __s>
  91:/usr/include/c++/10/bits/random.h ****       struct _Select_uint_least_t<__s, 4>
  92:/usr/include/c++/10/bits/random.h ****       { typedef unsigned int type; };
  93:/usr/include/c++/10/bits/random.h **** 
  94:/usr/include/c++/10/bits/random.h ****     template<int __s>
  95:/usr/include/c++/10/bits/random.h ****       struct _Select_uint_least_t<__s, 3>
  96:/usr/include/c++/10/bits/random.h ****       { typedef unsigned long type; };
  97:/usr/include/c++/10/bits/random.h **** 
  98:/usr/include/c++/10/bits/random.h ****     template<int __s>
  99:/usr/include/c++/10/bits/random.h ****       struct _Select_uint_least_t<__s, 2>
 100:/usr/include/c++/10/bits/random.h ****       { typedef unsigned long long type; };
 101:/usr/include/c++/10/bits/random.h **** 
 102:/usr/include/c++/10/bits/random.h **** #ifdef _GLIBCXX_USE_INT128
 103:/usr/include/c++/10/bits/random.h ****     template<int __s>
 104:/usr/include/c++/10/bits/random.h ****       struct _Select_uint_least_t<__s, 1>
 105:/usr/include/c++/10/bits/random.h ****       { typedef unsigned __int128 type; };
 106:/usr/include/c++/10/bits/random.h **** #endif
 107:/usr/include/c++/10/bits/random.h **** 
 108:/usr/include/c++/10/bits/random.h ****     // Assume a != 0, a < m, c < m, x < m.
 109:/usr/include/c++/10/bits/random.h ****     template<typename _Tp, _Tp __m, _Tp __a, _Tp __c,
 110:/usr/include/c++/10/bits/random.h **** 	     bool __big_enough = (!(__m & (__m - 1))
 111:/usr/include/c++/10/bits/random.h **** 				  || (_Tp(-1) - __c) / __a >= __m - 1),
 112:/usr/include/c++/10/bits/random.h ****              bool __schrage_ok = __m % __a < __m / __a>
 113:/usr/include/c++/10/bits/random.h ****       struct _Mod
 114:/usr/include/c++/10/bits/random.h ****       {
 115:/usr/include/c++/10/bits/random.h **** 	typedef typename _Select_uint_least_t<std::__lg(__a)
 116:/usr/include/c++/10/bits/random.h **** 					      + std::__lg(__m) + 2>::type _Tp2;
 117:/usr/include/c++/10/bits/random.h **** 	static _Tp
 118:/usr/include/c++/10/bits/random.h **** 	__calc(_Tp __x)
 119:/usr/include/c++/10/bits/random.h **** 	{ return static_cast<_Tp>((_Tp2(__a) * __x + __c) % __m); }
 120:/usr/include/c++/10/bits/random.h ****       };
 121:/usr/include/c++/10/bits/random.h **** 
 122:/usr/include/c++/10/bits/random.h ****     // Schrage.
 123:/usr/include/c++/10/bits/random.h ****     template<typename _Tp, _Tp __m, _Tp __a, _Tp __c>
 124:/usr/include/c++/10/bits/random.h ****       struct _Mod<_Tp, __m, __a, __c, false, true>
 125:/usr/include/c++/10/bits/random.h ****       {
 126:/usr/include/c++/10/bits/random.h **** 	static _Tp
 127:/usr/include/c++/10/bits/random.h **** 	__calc(_Tp __x);
 128:/usr/include/c++/10/bits/random.h ****       };
 129:/usr/include/c++/10/bits/random.h **** 
AARCH64 GAS  obj/Chapter15_4.s 			page 24


 130:/usr/include/c++/10/bits/random.h ****     // Special cases:
 131:/usr/include/c++/10/bits/random.h ****     // - for m == 2^n or m == 0, unsigned integer overflow is safe.
 132:/usr/include/c++/10/bits/random.h ****     // - a * (m - 1) + c fits in _Tp, there is no overflow.
 133:/usr/include/c++/10/bits/random.h ****     template<typename _Tp, _Tp __m, _Tp __a, _Tp __c, bool __s>
 134:/usr/include/c++/10/bits/random.h ****       struct _Mod<_Tp, __m, __a, __c, true, __s>
 135:/usr/include/c++/10/bits/random.h ****       {
 136:/usr/include/c++/10/bits/random.h **** 	static _Tp
 137:/usr/include/c++/10/bits/random.h **** 	__calc(_Tp __x)
 138:/usr/include/c++/10/bits/random.h **** 	{
 139:/usr/include/c++/10/bits/random.h **** 	  _Tp __res = __a * __x + __c;
 140:/usr/include/c++/10/bits/random.h **** 	  if (__m)
 141:/usr/include/c++/10/bits/random.h **** 	    __res %= __m;
 142:/usr/include/c++/10/bits/random.h **** 	  return __res;
 143:/usr/include/c++/10/bits/random.h **** 	}
 144:/usr/include/c++/10/bits/random.h ****       };
 145:/usr/include/c++/10/bits/random.h **** 
 146:/usr/include/c++/10/bits/random.h ****     template<typename _Tp, _Tp __m, _Tp __a = 1, _Tp __c = 0>
 147:/usr/include/c++/10/bits/random.h ****       inline _Tp
 148:/usr/include/c++/10/bits/random.h ****       __mod(_Tp __x)
 149:/usr/include/c++/10/bits/random.h ****       { return _Mod<_Tp, __m, __a, __c>::__calc(__x); }
 150:/usr/include/c++/10/bits/random.h **** 
 151:/usr/include/c++/10/bits/random.h ****     /*
 152:/usr/include/c++/10/bits/random.h ****      * An adaptor class for converting the output of any Generator into
 153:/usr/include/c++/10/bits/random.h ****      * the input for a specific Distribution.
 154:/usr/include/c++/10/bits/random.h ****      */
 155:/usr/include/c++/10/bits/random.h ****     template<typename _Engine, typename _DInputType>
 156:/usr/include/c++/10/bits/random.h ****       struct _Adaptor
 157:/usr/include/c++/10/bits/random.h ****       {
 158:/usr/include/c++/10/bits/random.h **** 	static_assert(std::is_floating_point<_DInputType>::value,
 159:/usr/include/c++/10/bits/random.h **** 		      "template argument must be a floating point type");
 160:/usr/include/c++/10/bits/random.h **** 
 161:/usr/include/c++/10/bits/random.h ****       public:
 162:/usr/include/c++/10/bits/random.h **** 	_Adaptor(_Engine& __g)
 163:/usr/include/c++/10/bits/random.h **** 	: _M_g(__g) { }
 164:/usr/include/c++/10/bits/random.h **** 
 165:/usr/include/c++/10/bits/random.h **** 	_DInputType
 166:/usr/include/c++/10/bits/random.h **** 	min() const
 167:/usr/include/c++/10/bits/random.h **** 	{ return _DInputType(0); }
 168:/usr/include/c++/10/bits/random.h **** 
 169:/usr/include/c++/10/bits/random.h **** 	_DInputType
 170:/usr/include/c++/10/bits/random.h **** 	max() const
 171:/usr/include/c++/10/bits/random.h **** 	{ return _DInputType(1); }
 172:/usr/include/c++/10/bits/random.h **** 
 173:/usr/include/c++/10/bits/random.h **** 	/*
 174:/usr/include/c++/10/bits/random.h **** 	 * Converts a value generated by the adapted random number generator
 175:/usr/include/c++/10/bits/random.h **** 	 * into a value in the input domain for the dependent random number
 176:/usr/include/c++/10/bits/random.h **** 	 * distribution.
 177:/usr/include/c++/10/bits/random.h **** 	 */
 178:/usr/include/c++/10/bits/random.h **** 	_DInputType
 179:/usr/include/c++/10/bits/random.h **** 	operator()()
 180:/usr/include/c++/10/bits/random.h **** 	{
 181:/usr/include/c++/10/bits/random.h **** 	  return std::generate_canonical<_DInputType,
 182:/usr/include/c++/10/bits/random.h **** 	                            std::numeric_limits<_DInputType>::digits,
 183:/usr/include/c++/10/bits/random.h **** 	                            _Engine>(_M_g);
 184:/usr/include/c++/10/bits/random.h **** 	}
 185:/usr/include/c++/10/bits/random.h **** 
 186:/usr/include/c++/10/bits/random.h ****       private:
AARCH64 GAS  obj/Chapter15_4.s 			page 25


 187:/usr/include/c++/10/bits/random.h **** 	_Engine& _M_g;
 188:/usr/include/c++/10/bits/random.h ****       };
 189:/usr/include/c++/10/bits/random.h **** 
 190:/usr/include/c++/10/bits/random.h ****     template<typename _Sseq>
 191:/usr/include/c++/10/bits/random.h ****       using __seed_seq_generate_t = decltype(
 192:/usr/include/c++/10/bits/random.h **** 	  std::declval<_Sseq&>().generate(std::declval<uint_least32_t*>(),
 193:/usr/include/c++/10/bits/random.h **** 					  std::declval<uint_least32_t*>()));
 194:/usr/include/c++/10/bits/random.h **** 
 195:/usr/include/c++/10/bits/random.h ****     // Detect whether _Sseq is a valid seed sequence for
 196:/usr/include/c++/10/bits/random.h ****     // a random number engine _Engine with result type _Res.
 197:/usr/include/c++/10/bits/random.h ****     template<typename _Sseq, typename _Engine, typename _Res,
 198:/usr/include/c++/10/bits/random.h **** 	     typename _GenerateCheck = __seed_seq_generate_t<_Sseq>>
 199:/usr/include/c++/10/bits/random.h ****       using __is_seed_seq = __and_<
 200:/usr/include/c++/10/bits/random.h ****         __not_<is_same<__remove_cvref_t<_Sseq>, _Engine>>,
 201:/usr/include/c++/10/bits/random.h **** 	is_unsigned<typename _Sseq::result_type>,
 202:/usr/include/c++/10/bits/random.h **** 	__not_<is_convertible<_Sseq, _Res>>
 203:/usr/include/c++/10/bits/random.h ****       >;
 204:/usr/include/c++/10/bits/random.h **** 
 205:/usr/include/c++/10/bits/random.h ****   } // namespace __detail
 206:/usr/include/c++/10/bits/random.h **** 
 207:/usr/include/c++/10/bits/random.h ****   /**
 208:/usr/include/c++/10/bits/random.h ****    * @addtogroup random_generators Random Number Generators
 209:/usr/include/c++/10/bits/random.h ****    * @ingroup random
 210:/usr/include/c++/10/bits/random.h ****    *
 211:/usr/include/c++/10/bits/random.h ****    * These classes define objects which provide random or pseudorandom
 212:/usr/include/c++/10/bits/random.h ****    * numbers, either from a discrete or a continuous interval.  The
 213:/usr/include/c++/10/bits/random.h ****    * random number generator supplied as a part of this library are
 214:/usr/include/c++/10/bits/random.h ****    * all uniform random number generators which provide a sequence of
 215:/usr/include/c++/10/bits/random.h ****    * random number uniformly distributed over their range.
 216:/usr/include/c++/10/bits/random.h ****    *
 217:/usr/include/c++/10/bits/random.h ****    * A number generator is a function object with an operator() that
 218:/usr/include/c++/10/bits/random.h ****    * takes zero arguments and returns a number.
 219:/usr/include/c++/10/bits/random.h ****    *
 220:/usr/include/c++/10/bits/random.h ****    * A compliant random number generator must satisfy the following
 221:/usr/include/c++/10/bits/random.h ****    * requirements.  <table border=1 cellpadding=10 cellspacing=0>
 222:/usr/include/c++/10/bits/random.h ****    * <caption align=top>Random Number Generator Requirements</caption>
 223:/usr/include/c++/10/bits/random.h ****    * <tr><td>To be documented.</td></tr> </table>
 224:/usr/include/c++/10/bits/random.h ****    *
 225:/usr/include/c++/10/bits/random.h ****    * @{
 226:/usr/include/c++/10/bits/random.h ****    */
 227:/usr/include/c++/10/bits/random.h **** 
 228:/usr/include/c++/10/bits/random.h ****   /**
 229:/usr/include/c++/10/bits/random.h ****    * @brief A model of a linear congruential random number generator.
 230:/usr/include/c++/10/bits/random.h ****    *
 231:/usr/include/c++/10/bits/random.h ****    * A random number generator that produces pseudorandom numbers via
 232:/usr/include/c++/10/bits/random.h ****    * linear function:
 233:/usr/include/c++/10/bits/random.h ****    * @f[
 234:/usr/include/c++/10/bits/random.h ****    *     x_{i+1}\leftarrow(ax_{i} + c) \bmod m 
 235:/usr/include/c++/10/bits/random.h ****    * @f]
 236:/usr/include/c++/10/bits/random.h ****    *
 237:/usr/include/c++/10/bits/random.h ****    * The template parameter @p _UIntType must be an unsigned integral type
 238:/usr/include/c++/10/bits/random.h ****    * large enough to store values up to (__m-1). If the template parameter
 239:/usr/include/c++/10/bits/random.h ****    * @p __m is 0, the modulus @p __m used is
 240:/usr/include/c++/10/bits/random.h ****    * std::numeric_limits<_UIntType>::max() plus 1. Otherwise, the template
 241:/usr/include/c++/10/bits/random.h ****    * parameters @p __a and @p __c must be less than @p __m.
 242:/usr/include/c++/10/bits/random.h ****    *
 243:/usr/include/c++/10/bits/random.h ****    * The size of the state is @f$1@f$.
AARCH64 GAS  obj/Chapter15_4.s 			page 26


 244:/usr/include/c++/10/bits/random.h ****    */
 245:/usr/include/c++/10/bits/random.h ****   template<typename _UIntType, _UIntType __a, _UIntType __c, _UIntType __m>
 246:/usr/include/c++/10/bits/random.h ****     class linear_congruential_engine
 247:/usr/include/c++/10/bits/random.h ****     {
 248:/usr/include/c++/10/bits/random.h ****       static_assert(std::is_unsigned<_UIntType>::value,
 249:/usr/include/c++/10/bits/random.h **** 		    "result_type must be an unsigned integral type");
 250:/usr/include/c++/10/bits/random.h ****       static_assert(__m == 0u || (__a < __m && __c < __m),
 251:/usr/include/c++/10/bits/random.h **** 		    "template argument substituting __m out of bounds");
 252:/usr/include/c++/10/bits/random.h **** 
 253:/usr/include/c++/10/bits/random.h ****       template<typename _Sseq>
 254:/usr/include/c++/10/bits/random.h **** 	using _If_seed_seq = typename enable_if<__detail::__is_seed_seq<
 255:/usr/include/c++/10/bits/random.h **** 	  _Sseq, linear_congruential_engine, _UIntType>::value>::type;
 256:/usr/include/c++/10/bits/random.h **** 
 257:/usr/include/c++/10/bits/random.h ****     public:
 258:/usr/include/c++/10/bits/random.h ****       /** The type of the generated random value. */
 259:/usr/include/c++/10/bits/random.h ****       typedef _UIntType result_type;
 260:/usr/include/c++/10/bits/random.h **** 
 261:/usr/include/c++/10/bits/random.h ****       /** The multiplier. */
 262:/usr/include/c++/10/bits/random.h ****       static constexpr result_type multiplier   = __a;
 263:/usr/include/c++/10/bits/random.h ****       /** An increment. */
 264:/usr/include/c++/10/bits/random.h ****       static constexpr result_type increment    = __c;
 265:/usr/include/c++/10/bits/random.h ****       /** The modulus. */
 266:/usr/include/c++/10/bits/random.h ****       static constexpr result_type modulus      = __m;
 267:/usr/include/c++/10/bits/random.h ****       static constexpr result_type default_seed = 1u;
 268:/usr/include/c++/10/bits/random.h **** 
 269:/usr/include/c++/10/bits/random.h ****       /**
 270:/usr/include/c++/10/bits/random.h ****        * @brief Constructs a %linear_congruential_engine random number
 271:/usr/include/c++/10/bits/random.h ****        *        generator engine with seed 1.
 272:/usr/include/c++/10/bits/random.h ****        */
 273:/usr/include/c++/10/bits/random.h ****       linear_congruential_engine() : linear_congruential_engine(default_seed)
 274:/usr/include/c++/10/bits/random.h ****       { }
 275:/usr/include/c++/10/bits/random.h **** 
 276:/usr/include/c++/10/bits/random.h ****       /**
 277:/usr/include/c++/10/bits/random.h ****        * @brief Constructs a %linear_congruential_engine random number
 278:/usr/include/c++/10/bits/random.h ****        *        generator engine with seed @p __s.  The default seed value
 279:/usr/include/c++/10/bits/random.h ****        *        is 1.
 280:/usr/include/c++/10/bits/random.h ****        *
 281:/usr/include/c++/10/bits/random.h ****        * @param __s The initial seed value.
 282:/usr/include/c++/10/bits/random.h ****        */
 283:/usr/include/c++/10/bits/random.h ****       explicit
 284:/usr/include/c++/10/bits/random.h ****       linear_congruential_engine(result_type __s)
 285:/usr/include/c++/10/bits/random.h ****       { seed(__s); }
 286:/usr/include/c++/10/bits/random.h **** 
 287:/usr/include/c++/10/bits/random.h ****       /**
 288:/usr/include/c++/10/bits/random.h ****        * @brief Constructs a %linear_congruential_engine random number
 289:/usr/include/c++/10/bits/random.h ****        *        generator engine seeded from the seed sequence @p __q.
 290:/usr/include/c++/10/bits/random.h ****        *
 291:/usr/include/c++/10/bits/random.h ****        * @param __q the seed sequence.
 292:/usr/include/c++/10/bits/random.h ****        */
 293:/usr/include/c++/10/bits/random.h ****       template<typename _Sseq, typename = _If_seed_seq<_Sseq>>
 294:/usr/include/c++/10/bits/random.h ****         explicit
 295:/usr/include/c++/10/bits/random.h ****         linear_congruential_engine(_Sseq& __q)
 296:/usr/include/c++/10/bits/random.h ****         { seed(__q); }
 297:/usr/include/c++/10/bits/random.h **** 
 298:/usr/include/c++/10/bits/random.h ****       /**
 299:/usr/include/c++/10/bits/random.h ****        * @brief Reseeds the %linear_congruential_engine random number generator
 300:/usr/include/c++/10/bits/random.h ****        *        engine sequence to the seed @p __s.
AARCH64 GAS  obj/Chapter15_4.s 			page 27


 301:/usr/include/c++/10/bits/random.h ****        *
 302:/usr/include/c++/10/bits/random.h ****        * @param __s The new seed.
 303:/usr/include/c++/10/bits/random.h ****        */
 304:/usr/include/c++/10/bits/random.h ****       void
 305:/usr/include/c++/10/bits/random.h ****       seed(result_type __s = default_seed);
 306:/usr/include/c++/10/bits/random.h **** 
 307:/usr/include/c++/10/bits/random.h ****       /**
 308:/usr/include/c++/10/bits/random.h ****        * @brief Reseeds the %linear_congruential_engine random number generator
 309:/usr/include/c++/10/bits/random.h ****        *        engine
 310:/usr/include/c++/10/bits/random.h ****        * sequence using values from the seed sequence @p __q.
 311:/usr/include/c++/10/bits/random.h ****        *
 312:/usr/include/c++/10/bits/random.h ****        * @param __q the seed sequence.
 313:/usr/include/c++/10/bits/random.h ****        */
 314:/usr/include/c++/10/bits/random.h ****       template<typename _Sseq>
 315:/usr/include/c++/10/bits/random.h ****         _If_seed_seq<_Sseq>
 316:/usr/include/c++/10/bits/random.h ****         seed(_Sseq& __q);
 317:/usr/include/c++/10/bits/random.h **** 
 318:/usr/include/c++/10/bits/random.h ****       /**
 319:/usr/include/c++/10/bits/random.h ****        * @brief Gets the smallest possible value in the output range.
 320:/usr/include/c++/10/bits/random.h ****        *
 321:/usr/include/c++/10/bits/random.h ****        * The minimum depends on the @p __c parameter: if it is zero, the
 322:/usr/include/c++/10/bits/random.h ****        * minimum generated must be > 0, otherwise 0 is allowed.
 323:/usr/include/c++/10/bits/random.h ****        */
 324:/usr/include/c++/10/bits/random.h ****       static constexpr result_type
 325:/usr/include/c++/10/bits/random.h ****       min()
 326:/usr/include/c++/10/bits/random.h ****       { return __c == 0u ? 1u : 0u; }
 327:/usr/include/c++/10/bits/random.h **** 
 328:/usr/include/c++/10/bits/random.h ****       /**
 329:/usr/include/c++/10/bits/random.h ****        * @brief Gets the largest possible value in the output range.
 330:/usr/include/c++/10/bits/random.h ****        */
 331:/usr/include/c++/10/bits/random.h ****       static constexpr result_type
 332:/usr/include/c++/10/bits/random.h ****       max()
 333:/usr/include/c++/10/bits/random.h ****       { return __m - 1u; }
 334:/usr/include/c++/10/bits/random.h **** 
 335:/usr/include/c++/10/bits/random.h ****       /**
 336:/usr/include/c++/10/bits/random.h ****        * @brief Discard a sequence of random numbers.
 337:/usr/include/c++/10/bits/random.h ****        */
 338:/usr/include/c++/10/bits/random.h ****       void
 339:/usr/include/c++/10/bits/random.h ****       discard(unsigned long long __z)
 340:/usr/include/c++/10/bits/random.h ****       {
 341:/usr/include/c++/10/bits/random.h **** 	for (; __z != 0ULL; --__z)
 342:/usr/include/c++/10/bits/random.h **** 	  (*this)();
 343:/usr/include/c++/10/bits/random.h ****       }
 344:/usr/include/c++/10/bits/random.h **** 
 345:/usr/include/c++/10/bits/random.h ****       /**
 346:/usr/include/c++/10/bits/random.h ****        * @brief Gets the next random number in the sequence.
 347:/usr/include/c++/10/bits/random.h ****        */
 348:/usr/include/c++/10/bits/random.h ****       result_type
 349:/usr/include/c++/10/bits/random.h ****       operator()()
 350:/usr/include/c++/10/bits/random.h ****       {
 351:/usr/include/c++/10/bits/random.h **** 	_M_x = __detail::__mod<_UIntType, __m, __a, __c>(_M_x);
 352:/usr/include/c++/10/bits/random.h **** 	return _M_x;
 353:/usr/include/c++/10/bits/random.h ****       }
 354:/usr/include/c++/10/bits/random.h **** 
 355:/usr/include/c++/10/bits/random.h ****       /**
 356:/usr/include/c++/10/bits/random.h ****        * @brief Compares two linear congruential random number generator
 357:/usr/include/c++/10/bits/random.h ****        * objects of the same type for equality.
AARCH64 GAS  obj/Chapter15_4.s 			page 28


 358:/usr/include/c++/10/bits/random.h ****        *
 359:/usr/include/c++/10/bits/random.h ****        * @param __lhs A linear congruential random number generator object.
 360:/usr/include/c++/10/bits/random.h ****        * @param __rhs Another linear congruential random number generator
 361:/usr/include/c++/10/bits/random.h ****        *              object.
 362:/usr/include/c++/10/bits/random.h ****        *
 363:/usr/include/c++/10/bits/random.h ****        * @returns true if the infinite sequences of generated values
 364:/usr/include/c++/10/bits/random.h ****        *          would be equal, false otherwise.
 365:/usr/include/c++/10/bits/random.h ****        */
 366:/usr/include/c++/10/bits/random.h ****       friend bool
 367:/usr/include/c++/10/bits/random.h ****       operator==(const linear_congruential_engine& __lhs,
 368:/usr/include/c++/10/bits/random.h **** 		 const linear_congruential_engine& __rhs)
 369:/usr/include/c++/10/bits/random.h ****       { return __lhs._M_x == __rhs._M_x; }
 370:/usr/include/c++/10/bits/random.h **** 
 371:/usr/include/c++/10/bits/random.h ****       /**
 372:/usr/include/c++/10/bits/random.h ****        * @brief Writes the textual representation of the state x(i) of x to
 373:/usr/include/c++/10/bits/random.h ****        *        @p __os.
 374:/usr/include/c++/10/bits/random.h ****        *
 375:/usr/include/c++/10/bits/random.h ****        * @param __os  The output stream.
 376:/usr/include/c++/10/bits/random.h ****        * @param __lcr A % linear_congruential_engine random number generator.
 377:/usr/include/c++/10/bits/random.h ****        * @returns __os.
 378:/usr/include/c++/10/bits/random.h ****        */
 379:/usr/include/c++/10/bits/random.h ****       template<typename _UIntType1, _UIntType1 __a1, _UIntType1 __c1,
 380:/usr/include/c++/10/bits/random.h **** 	       _UIntType1 __m1, typename _CharT, typename _Traits>
 381:/usr/include/c++/10/bits/random.h **** 	friend std::basic_ostream<_CharT, _Traits>&
 382:/usr/include/c++/10/bits/random.h **** 	operator<<(std::basic_ostream<_CharT, _Traits>& __os,
 383:/usr/include/c++/10/bits/random.h **** 		   const std::linear_congruential_engine<_UIntType1,
 384:/usr/include/c++/10/bits/random.h **** 		   __a1, __c1, __m1>& __lcr);
 385:/usr/include/c++/10/bits/random.h **** 
 386:/usr/include/c++/10/bits/random.h ****       /**
 387:/usr/include/c++/10/bits/random.h ****        * @brief Sets the state of the engine by reading its textual
 388:/usr/include/c++/10/bits/random.h ****        *        representation from @p __is.
 389:/usr/include/c++/10/bits/random.h ****        *
 390:/usr/include/c++/10/bits/random.h ****        * The textual representation must have been previously written using
 391:/usr/include/c++/10/bits/random.h ****        * an output stream whose imbued locale and whose type's template
 392:/usr/include/c++/10/bits/random.h ****        * specialization arguments _CharT and _Traits were the same as those
 393:/usr/include/c++/10/bits/random.h ****        * of @p __is.
 394:/usr/include/c++/10/bits/random.h ****        *
 395:/usr/include/c++/10/bits/random.h ****        * @param __is  The input stream.
 396:/usr/include/c++/10/bits/random.h ****        * @param __lcr A % linear_congruential_engine random number generator.
 397:/usr/include/c++/10/bits/random.h ****        * @returns __is.
 398:/usr/include/c++/10/bits/random.h ****        */
 399:/usr/include/c++/10/bits/random.h ****       template<typename _UIntType1, _UIntType1 __a1, _UIntType1 __c1,
 400:/usr/include/c++/10/bits/random.h **** 	       _UIntType1 __m1, typename _CharT, typename _Traits>
 401:/usr/include/c++/10/bits/random.h **** 	friend std::basic_istream<_CharT, _Traits>&
 402:/usr/include/c++/10/bits/random.h **** 	operator>>(std::basic_istream<_CharT, _Traits>& __is,
 403:/usr/include/c++/10/bits/random.h **** 		   std::linear_congruential_engine<_UIntType1, __a1,
 404:/usr/include/c++/10/bits/random.h **** 		   __c1, __m1>& __lcr);
 405:/usr/include/c++/10/bits/random.h **** 
 406:/usr/include/c++/10/bits/random.h ****     private:
 407:/usr/include/c++/10/bits/random.h ****       _UIntType _M_x;
 408:/usr/include/c++/10/bits/random.h ****     };
 409:/usr/include/c++/10/bits/random.h **** 
 410:/usr/include/c++/10/bits/random.h ****   /**
 411:/usr/include/c++/10/bits/random.h ****    * @brief Compares two linear congruential random number generator
 412:/usr/include/c++/10/bits/random.h ****    * objects of the same type for inequality.
 413:/usr/include/c++/10/bits/random.h ****    *
 414:/usr/include/c++/10/bits/random.h ****    * @param __lhs A linear congruential random number generator object.
AARCH64 GAS  obj/Chapter15_4.s 			page 29


 415:/usr/include/c++/10/bits/random.h ****    * @param __rhs Another linear congruential random number generator
 416:/usr/include/c++/10/bits/random.h ****    *              object.
 417:/usr/include/c++/10/bits/random.h ****    *
 418:/usr/include/c++/10/bits/random.h ****    * @returns true if the infinite sequences of generated values
 419:/usr/include/c++/10/bits/random.h ****    *          would be different, false otherwise.
 420:/usr/include/c++/10/bits/random.h ****    */
 421:/usr/include/c++/10/bits/random.h ****   template<typename _UIntType, _UIntType __a, _UIntType __c, _UIntType __m>
 422:/usr/include/c++/10/bits/random.h ****     inline bool
 423:/usr/include/c++/10/bits/random.h ****     operator!=(const std::linear_congruential_engine<_UIntType, __a,
 424:/usr/include/c++/10/bits/random.h **** 	       __c, __m>& __lhs,
 425:/usr/include/c++/10/bits/random.h **** 	       const std::linear_congruential_engine<_UIntType, __a,
 426:/usr/include/c++/10/bits/random.h **** 	       __c, __m>& __rhs)
 427:/usr/include/c++/10/bits/random.h ****     { return !(__lhs == __rhs); }
 428:/usr/include/c++/10/bits/random.h **** 
 429:/usr/include/c++/10/bits/random.h **** 
 430:/usr/include/c++/10/bits/random.h ****   /**
 431:/usr/include/c++/10/bits/random.h ****    * A generalized feedback shift register discrete random number generator.
 432:/usr/include/c++/10/bits/random.h ****    *
 433:/usr/include/c++/10/bits/random.h ****    * This algorithm avoids multiplication and division and is designed to be
 434:/usr/include/c++/10/bits/random.h ****    * friendly to a pipelined architecture.  If the parameters are chosen
 435:/usr/include/c++/10/bits/random.h ****    * correctly, this generator will produce numbers with a very long period and
 436:/usr/include/c++/10/bits/random.h ****    * fairly good apparent entropy, although still not cryptographically strong.
 437:/usr/include/c++/10/bits/random.h ****    *
 438:/usr/include/c++/10/bits/random.h ****    * The best way to use this generator is with the predefined mt19937 class.
 439:/usr/include/c++/10/bits/random.h ****    *
 440:/usr/include/c++/10/bits/random.h ****    * This algorithm was originally invented by Makoto Matsumoto and
 441:/usr/include/c++/10/bits/random.h ****    * Takuji Nishimura.
 442:/usr/include/c++/10/bits/random.h ****    *
 443:/usr/include/c++/10/bits/random.h ****    * @tparam __w  Word size, the number of bits in each element of 
 444:/usr/include/c++/10/bits/random.h ****    *              the state vector.
 445:/usr/include/c++/10/bits/random.h ****    * @tparam __n  The degree of recursion.
 446:/usr/include/c++/10/bits/random.h ****    * @tparam __m  The period parameter.
 447:/usr/include/c++/10/bits/random.h ****    * @tparam __r  The separation point bit index.
 448:/usr/include/c++/10/bits/random.h ****    * @tparam __a  The last row of the twist matrix.
 449:/usr/include/c++/10/bits/random.h ****    * @tparam __u  The first right-shift tempering matrix parameter.
 450:/usr/include/c++/10/bits/random.h ****    * @tparam __d  The first right-shift tempering matrix mask.
 451:/usr/include/c++/10/bits/random.h ****    * @tparam __s  The first left-shift tempering matrix parameter.
 452:/usr/include/c++/10/bits/random.h ****    * @tparam __b  The first left-shift tempering matrix mask.
 453:/usr/include/c++/10/bits/random.h ****    * @tparam __t  The second left-shift tempering matrix parameter.
 454:/usr/include/c++/10/bits/random.h ****    * @tparam __c  The second left-shift tempering matrix mask.
 455:/usr/include/c++/10/bits/random.h ****    * @tparam __l  The second right-shift tempering matrix parameter.
 456:/usr/include/c++/10/bits/random.h ****    * @tparam __f  Initialization multiplier.
 457:/usr/include/c++/10/bits/random.h ****    */
 458:/usr/include/c++/10/bits/random.h ****   template<typename _UIntType, size_t __w,
 459:/usr/include/c++/10/bits/random.h **** 	   size_t __n, size_t __m, size_t __r,
 460:/usr/include/c++/10/bits/random.h **** 	   _UIntType __a, size_t __u, _UIntType __d, size_t __s,
 461:/usr/include/c++/10/bits/random.h **** 	   _UIntType __b, size_t __t,
 462:/usr/include/c++/10/bits/random.h **** 	   _UIntType __c, size_t __l, _UIntType __f>
 463:/usr/include/c++/10/bits/random.h ****     class mersenne_twister_engine
 464:/usr/include/c++/10/bits/random.h ****     {
 465:/usr/include/c++/10/bits/random.h ****       static_assert(std::is_unsigned<_UIntType>::value,
 466:/usr/include/c++/10/bits/random.h **** 		    "result_type must be an unsigned integral type");
 467:/usr/include/c++/10/bits/random.h ****       static_assert(1u <= __m && __m <= __n,
 468:/usr/include/c++/10/bits/random.h **** 		    "template argument substituting __m out of bounds");
 469:/usr/include/c++/10/bits/random.h ****       static_assert(__r <= __w, "template argument substituting "
 470:/usr/include/c++/10/bits/random.h **** 		    "__r out of bound");
 471:/usr/include/c++/10/bits/random.h ****       static_assert(__u <= __w, "template argument substituting "
AARCH64 GAS  obj/Chapter15_4.s 			page 30


 472:/usr/include/c++/10/bits/random.h **** 		    "__u out of bound");
 473:/usr/include/c++/10/bits/random.h ****       static_assert(__s <= __w, "template argument substituting "
 474:/usr/include/c++/10/bits/random.h **** 		    "__s out of bound");
 475:/usr/include/c++/10/bits/random.h ****       static_assert(__t <= __w, "template argument substituting "
 476:/usr/include/c++/10/bits/random.h **** 		    "__t out of bound");
 477:/usr/include/c++/10/bits/random.h ****       static_assert(__l <= __w, "template argument substituting "
 478:/usr/include/c++/10/bits/random.h **** 		    "__l out of bound");
 479:/usr/include/c++/10/bits/random.h ****       static_assert(__w <= std::numeric_limits<_UIntType>::digits,
 480:/usr/include/c++/10/bits/random.h **** 		    "template argument substituting __w out of bound");
 481:/usr/include/c++/10/bits/random.h ****       static_assert(__a <= (__detail::_Shift<_UIntType, __w>::__value - 1),
 482:/usr/include/c++/10/bits/random.h **** 		    "template argument substituting __a out of bound");
 483:/usr/include/c++/10/bits/random.h ****       static_assert(__b <= (__detail::_Shift<_UIntType, __w>::__value - 1),
 484:/usr/include/c++/10/bits/random.h **** 		    "template argument substituting __b out of bound");
 485:/usr/include/c++/10/bits/random.h ****       static_assert(__c <= (__detail::_Shift<_UIntType, __w>::__value - 1),
 486:/usr/include/c++/10/bits/random.h **** 		    "template argument substituting __c out of bound");
 487:/usr/include/c++/10/bits/random.h ****       static_assert(__d <= (__detail::_Shift<_UIntType, __w>::__value - 1),
 488:/usr/include/c++/10/bits/random.h **** 		    "template argument substituting __d out of bound");
 489:/usr/include/c++/10/bits/random.h ****       static_assert(__f <= (__detail::_Shift<_UIntType, __w>::__value - 1),
 490:/usr/include/c++/10/bits/random.h **** 		    "template argument substituting __f out of bound");
 491:/usr/include/c++/10/bits/random.h **** 
 492:/usr/include/c++/10/bits/random.h ****       template<typename _Sseq>
 493:/usr/include/c++/10/bits/random.h **** 	using _If_seed_seq = typename enable_if<__detail::__is_seed_seq<
 494:/usr/include/c++/10/bits/random.h **** 	  _Sseq, mersenne_twister_engine, _UIntType>::value>::type;
 495:/usr/include/c++/10/bits/random.h **** 
 496:/usr/include/c++/10/bits/random.h ****     public:
 497:/usr/include/c++/10/bits/random.h ****       /** The type of the generated random value. */
 498:/usr/include/c++/10/bits/random.h ****       typedef _UIntType result_type;
 499:/usr/include/c++/10/bits/random.h **** 
 500:/usr/include/c++/10/bits/random.h ****       // parameter values
 501:/usr/include/c++/10/bits/random.h ****       static constexpr size_t      word_size                 = __w;
 502:/usr/include/c++/10/bits/random.h ****       static constexpr size_t      state_size                = __n;
 503:/usr/include/c++/10/bits/random.h ****       static constexpr size_t      shift_size                = __m;
 504:/usr/include/c++/10/bits/random.h ****       static constexpr size_t      mask_bits                 = __r;
 505:/usr/include/c++/10/bits/random.h ****       static constexpr result_type xor_mask                  = __a;
 506:/usr/include/c++/10/bits/random.h ****       static constexpr size_t      tempering_u               = __u;
 507:/usr/include/c++/10/bits/random.h ****       static constexpr result_type tempering_d               = __d;
 508:/usr/include/c++/10/bits/random.h ****       static constexpr size_t      tempering_s               = __s;
 509:/usr/include/c++/10/bits/random.h ****       static constexpr result_type tempering_b               = __b;
 510:/usr/include/c++/10/bits/random.h ****       static constexpr size_t      tempering_t               = __t;
 511:/usr/include/c++/10/bits/random.h ****       static constexpr result_type tempering_c               = __c;
 512:/usr/include/c++/10/bits/random.h ****       static constexpr size_t      tempering_l               = __l;
 513:/usr/include/c++/10/bits/random.h ****       static constexpr result_type initialization_multiplier = __f;
 514:/usr/include/c++/10/bits/random.h ****       static constexpr result_type default_seed = 5489u;
 515:/usr/include/c++/10/bits/random.h **** 
 516:/usr/include/c++/10/bits/random.h ****       // constructors and member functions
 517:/usr/include/c++/10/bits/random.h **** 
 518:/usr/include/c++/10/bits/random.h ****       mersenne_twister_engine() : mersenne_twister_engine(default_seed) { }
 519:/usr/include/c++/10/bits/random.h **** 
 520:/usr/include/c++/10/bits/random.h ****       explicit
 521:/usr/include/c++/10/bits/random.h ****       mersenne_twister_engine(result_type __sd)
 522:/usr/include/c++/10/bits/random.h ****       { seed(__sd); }
 523:/usr/include/c++/10/bits/random.h **** 
 524:/usr/include/c++/10/bits/random.h ****       /**
 525:/usr/include/c++/10/bits/random.h ****        * @brief Constructs a %mersenne_twister_engine random number generator
 526:/usr/include/c++/10/bits/random.h ****        *        engine seeded from the seed sequence @p __q.
 527:/usr/include/c++/10/bits/random.h ****        *
 528:/usr/include/c++/10/bits/random.h ****        * @param __q the seed sequence.
AARCH64 GAS  obj/Chapter15_4.s 			page 31


 529:/usr/include/c++/10/bits/random.h ****        */
 530:/usr/include/c++/10/bits/random.h ****       template<typename _Sseq, typename = _If_seed_seq<_Sseq>>
 531:/usr/include/c++/10/bits/random.h ****         explicit
 532:/usr/include/c++/10/bits/random.h ****         mersenne_twister_engine(_Sseq& __q)
 533:/usr/include/c++/10/bits/random.h ****         { seed(__q); }
 534:/usr/include/c++/10/bits/random.h **** 
 535:/usr/include/c++/10/bits/random.h ****       void
 536:/usr/include/c++/10/bits/random.h ****       seed(result_type __sd = default_seed);
 537:/usr/include/c++/10/bits/random.h **** 
 538:/usr/include/c++/10/bits/random.h ****       template<typename _Sseq>
 539:/usr/include/c++/10/bits/random.h ****         _If_seed_seq<_Sseq>
 540:/usr/include/c++/10/bits/random.h ****         seed(_Sseq& __q);
 541:/usr/include/c++/10/bits/random.h **** 
 542:/usr/include/c++/10/bits/random.h ****       /**
 543:/usr/include/c++/10/bits/random.h ****        * @brief Gets the smallest possible value in the output range.
 544:/usr/include/c++/10/bits/random.h ****        */
 545:/usr/include/c++/10/bits/random.h ****       static constexpr result_type
 546:/usr/include/c++/10/bits/random.h ****       min()
 547:/usr/include/c++/10/bits/random.h ****       { return 0; }
 548:/usr/include/c++/10/bits/random.h **** 
 549:/usr/include/c++/10/bits/random.h ****       /**
 550:/usr/include/c++/10/bits/random.h ****        * @brief Gets the largest possible value in the output range.
 551:/usr/include/c++/10/bits/random.h ****        */
 552:/usr/include/c++/10/bits/random.h ****       static constexpr result_type
 553:/usr/include/c++/10/bits/random.h ****       max()
 554:/usr/include/c++/10/bits/random.h ****       { return __detail::_Shift<_UIntType, __w>::__value - 1; }
 555:/usr/include/c++/10/bits/random.h **** 
 556:/usr/include/c++/10/bits/random.h ****       /**
 557:/usr/include/c++/10/bits/random.h ****        * @brief Discard a sequence of random numbers.
 558:/usr/include/c++/10/bits/random.h ****        */
 559:/usr/include/c++/10/bits/random.h ****       void
 560:/usr/include/c++/10/bits/random.h ****       discard(unsigned long long __z);
 561:/usr/include/c++/10/bits/random.h **** 
 562:/usr/include/c++/10/bits/random.h ****       result_type
 563:/usr/include/c++/10/bits/random.h ****       operator()();
 564:/usr/include/c++/10/bits/random.h **** 
 565:/usr/include/c++/10/bits/random.h ****       /**
 566:/usr/include/c++/10/bits/random.h ****        * @brief Compares two % mersenne_twister_engine random number generator
 567:/usr/include/c++/10/bits/random.h ****        *        objects of the same type for equality.
 568:/usr/include/c++/10/bits/random.h ****        *
 569:/usr/include/c++/10/bits/random.h ****        * @param __lhs A % mersenne_twister_engine random number generator
 570:/usr/include/c++/10/bits/random.h ****        *              object.
 571:/usr/include/c++/10/bits/random.h ****        * @param __rhs Another % mersenne_twister_engine random number
 572:/usr/include/c++/10/bits/random.h ****        *              generator object.
 573:/usr/include/c++/10/bits/random.h ****        *
 574:/usr/include/c++/10/bits/random.h ****        * @returns true if the infinite sequences of generated values
 575:/usr/include/c++/10/bits/random.h ****        *          would be equal, false otherwise.
 576:/usr/include/c++/10/bits/random.h ****        */
 577:/usr/include/c++/10/bits/random.h ****       friend bool
 578:/usr/include/c++/10/bits/random.h ****       operator==(const mersenne_twister_engine& __lhs,
 579:/usr/include/c++/10/bits/random.h **** 		 const mersenne_twister_engine& __rhs)
 580:/usr/include/c++/10/bits/random.h ****       { return (std::equal(__lhs._M_x, __lhs._M_x + state_size, __rhs._M_x)
 581:/usr/include/c++/10/bits/random.h **** 		&& __lhs._M_p == __rhs._M_p); }
 582:/usr/include/c++/10/bits/random.h **** 
 583:/usr/include/c++/10/bits/random.h ****       /**
 584:/usr/include/c++/10/bits/random.h ****        * @brief Inserts the current state of a % mersenne_twister_engine
 585:/usr/include/c++/10/bits/random.h ****        *        random number generator engine @p __x into the output stream
AARCH64 GAS  obj/Chapter15_4.s 			page 32


 586:/usr/include/c++/10/bits/random.h ****        *        @p __os.
 587:/usr/include/c++/10/bits/random.h ****        *
 588:/usr/include/c++/10/bits/random.h ****        * @param __os An output stream.
 589:/usr/include/c++/10/bits/random.h ****        * @param __x  A % mersenne_twister_engine random number generator
 590:/usr/include/c++/10/bits/random.h ****        *             engine.
 591:/usr/include/c++/10/bits/random.h ****        *
 592:/usr/include/c++/10/bits/random.h ****        * @returns The output stream with the state of @p __x inserted or in
 593:/usr/include/c++/10/bits/random.h ****        * an error state.
 594:/usr/include/c++/10/bits/random.h ****        */
 595:/usr/include/c++/10/bits/random.h ****       template<typename _UIntType1,
 596:/usr/include/c++/10/bits/random.h **** 	       size_t __w1, size_t __n1,
 597:/usr/include/c++/10/bits/random.h **** 	       size_t __m1, size_t __r1,
 598:/usr/include/c++/10/bits/random.h **** 	       _UIntType1 __a1, size_t __u1,
 599:/usr/include/c++/10/bits/random.h **** 	       _UIntType1 __d1, size_t __s1,
 600:/usr/include/c++/10/bits/random.h **** 	       _UIntType1 __b1, size_t __t1,
 601:/usr/include/c++/10/bits/random.h **** 	       _UIntType1 __c1, size_t __l1, _UIntType1 __f1,
 602:/usr/include/c++/10/bits/random.h **** 	       typename _CharT, typename _Traits>
 603:/usr/include/c++/10/bits/random.h **** 	friend std::basic_ostream<_CharT, _Traits>&
 604:/usr/include/c++/10/bits/random.h **** 	operator<<(std::basic_ostream<_CharT, _Traits>& __os,
 605:/usr/include/c++/10/bits/random.h **** 		   const std::mersenne_twister_engine<_UIntType1, __w1, __n1,
 606:/usr/include/c++/10/bits/random.h **** 		   __m1, __r1, __a1, __u1, __d1, __s1, __b1, __t1, __c1,
 607:/usr/include/c++/10/bits/random.h **** 		   __l1, __f1>& __x);
 608:/usr/include/c++/10/bits/random.h **** 
 609:/usr/include/c++/10/bits/random.h ****       /**
 610:/usr/include/c++/10/bits/random.h ****        * @brief Extracts the current state of a % mersenne_twister_engine
 611:/usr/include/c++/10/bits/random.h ****        *        random number generator engine @p __x from the input stream
 612:/usr/include/c++/10/bits/random.h ****        *        @p __is.
 613:/usr/include/c++/10/bits/random.h ****        *
 614:/usr/include/c++/10/bits/random.h ****        * @param __is An input stream.
 615:/usr/include/c++/10/bits/random.h ****        * @param __x  A % mersenne_twister_engine random number generator
 616:/usr/include/c++/10/bits/random.h ****        *             engine.
 617:/usr/include/c++/10/bits/random.h ****        *
 618:/usr/include/c++/10/bits/random.h ****        * @returns The input stream with the state of @p __x extracted or in
 619:/usr/include/c++/10/bits/random.h ****        * an error state.
 620:/usr/include/c++/10/bits/random.h ****        */
 621:/usr/include/c++/10/bits/random.h ****       template<typename _UIntType1,
 622:/usr/include/c++/10/bits/random.h **** 	       size_t __w1, size_t __n1,
 623:/usr/include/c++/10/bits/random.h **** 	       size_t __m1, size_t __r1,
 624:/usr/include/c++/10/bits/random.h **** 	       _UIntType1 __a1, size_t __u1,
 625:/usr/include/c++/10/bits/random.h **** 	       _UIntType1 __d1, size_t __s1,
 626:/usr/include/c++/10/bits/random.h **** 	       _UIntType1 __b1, size_t __t1,
 627:/usr/include/c++/10/bits/random.h **** 	       _UIntType1 __c1, size_t __l1, _UIntType1 __f1,
 628:/usr/include/c++/10/bits/random.h **** 	       typename _CharT, typename _Traits>
 629:/usr/include/c++/10/bits/random.h **** 	friend std::basic_istream<_CharT, _Traits>&
 630:/usr/include/c++/10/bits/random.h **** 	operator>>(std::basic_istream<_CharT, _Traits>& __is,
 631:/usr/include/c++/10/bits/random.h **** 		   std::mersenne_twister_engine<_UIntType1, __w1, __n1, __m1,
 632:/usr/include/c++/10/bits/random.h **** 		   __r1, __a1, __u1, __d1, __s1, __b1, __t1, __c1,
 633:/usr/include/c++/10/bits/random.h **** 		   __l1, __f1>& __x);
 634:/usr/include/c++/10/bits/random.h **** 
 635:/usr/include/c++/10/bits/random.h ****     private:
 636:/usr/include/c++/10/bits/random.h ****       void _M_gen_rand();
 637:/usr/include/c++/10/bits/random.h **** 
 638:/usr/include/c++/10/bits/random.h ****       _UIntType _M_x[state_size];
 639:/usr/include/c++/10/bits/random.h ****       size_t    _M_p;
 640:/usr/include/c++/10/bits/random.h ****     };
 641:/usr/include/c++/10/bits/random.h **** 
 642:/usr/include/c++/10/bits/random.h ****   /**
AARCH64 GAS  obj/Chapter15_4.s 			page 33


 643:/usr/include/c++/10/bits/random.h ****    * @brief Compares two % mersenne_twister_engine random number generator
 644:/usr/include/c++/10/bits/random.h ****    *        objects of the same type for inequality.
 645:/usr/include/c++/10/bits/random.h ****    *
 646:/usr/include/c++/10/bits/random.h ****    * @param __lhs A % mersenne_twister_engine random number generator
 647:/usr/include/c++/10/bits/random.h ****    *              object.
 648:/usr/include/c++/10/bits/random.h ****    * @param __rhs Another % mersenne_twister_engine random number
 649:/usr/include/c++/10/bits/random.h ****    *              generator object.
 650:/usr/include/c++/10/bits/random.h ****    *
 651:/usr/include/c++/10/bits/random.h ****    * @returns true if the infinite sequences of generated values
 652:/usr/include/c++/10/bits/random.h ****    *          would be different, false otherwise.
 653:/usr/include/c++/10/bits/random.h ****    */
 654:/usr/include/c++/10/bits/random.h ****   template<typename _UIntType, size_t __w,
 655:/usr/include/c++/10/bits/random.h **** 	   size_t __n, size_t __m, size_t __r,
 656:/usr/include/c++/10/bits/random.h **** 	   _UIntType __a, size_t __u, _UIntType __d, size_t __s,
 657:/usr/include/c++/10/bits/random.h **** 	   _UIntType __b, size_t __t,
 658:/usr/include/c++/10/bits/random.h **** 	   _UIntType __c, size_t __l, _UIntType __f>
 659:/usr/include/c++/10/bits/random.h ****     inline bool
 660:/usr/include/c++/10/bits/random.h ****     operator!=(const std::mersenne_twister_engine<_UIntType, __w, __n, __m,
 661:/usr/include/c++/10/bits/random.h **** 	       __r, __a, __u, __d, __s, __b, __t, __c, __l, __f>& __lhs,
 662:/usr/include/c++/10/bits/random.h **** 	       const std::mersenne_twister_engine<_UIntType, __w, __n, __m,
 663:/usr/include/c++/10/bits/random.h **** 	       __r, __a, __u, __d, __s, __b, __t, __c, __l, __f>& __rhs)
 664:/usr/include/c++/10/bits/random.h ****     { return !(__lhs == __rhs); }
 665:/usr/include/c++/10/bits/random.h **** 
 666:/usr/include/c++/10/bits/random.h **** 
 667:/usr/include/c++/10/bits/random.h ****   /**
 668:/usr/include/c++/10/bits/random.h ****    * @brief The Marsaglia-Zaman generator.
 669:/usr/include/c++/10/bits/random.h ****    *
 670:/usr/include/c++/10/bits/random.h ****    * This is a model of a Generalized Fibonacci discrete random number
 671:/usr/include/c++/10/bits/random.h ****    * generator, sometimes referred to as the SWC generator.
 672:/usr/include/c++/10/bits/random.h ****    *
 673:/usr/include/c++/10/bits/random.h ****    * A discrete random number generator that produces pseudorandom
 674:/usr/include/c++/10/bits/random.h ****    * numbers using:
 675:/usr/include/c++/10/bits/random.h ****    * @f[
 676:/usr/include/c++/10/bits/random.h ****    *     x_{i}\leftarrow(x_{i - s} - x_{i - r} - carry_{i-1}) \bmod m 
 677:/usr/include/c++/10/bits/random.h ****    * @f]
 678:/usr/include/c++/10/bits/random.h ****    *
 679:/usr/include/c++/10/bits/random.h ****    * The size of the state is @f$r@f$
 680:/usr/include/c++/10/bits/random.h ****    * and the maximum period of the generator is @f$(m^r - m^s - 1)@f$.
 681:/usr/include/c++/10/bits/random.h ****    */
 682:/usr/include/c++/10/bits/random.h ****   template<typename _UIntType, size_t __w, size_t __s, size_t __r>
 683:/usr/include/c++/10/bits/random.h ****     class subtract_with_carry_engine
 684:/usr/include/c++/10/bits/random.h ****     {
 685:/usr/include/c++/10/bits/random.h ****       static_assert(std::is_unsigned<_UIntType>::value,
 686:/usr/include/c++/10/bits/random.h **** 		    "result_type must be an unsigned integral type");
 687:/usr/include/c++/10/bits/random.h ****       static_assert(0u < __s && __s < __r,
 688:/usr/include/c++/10/bits/random.h **** 		    "0 < s < r");
 689:/usr/include/c++/10/bits/random.h ****       static_assert(0u < __w && __w <= std::numeric_limits<_UIntType>::digits,
 690:/usr/include/c++/10/bits/random.h **** 		    "template argument substituting __w out of bounds");
 691:/usr/include/c++/10/bits/random.h **** 
 692:/usr/include/c++/10/bits/random.h ****       template<typename _Sseq>
 693:/usr/include/c++/10/bits/random.h **** 	using _If_seed_seq = typename enable_if<__detail::__is_seed_seq<
 694:/usr/include/c++/10/bits/random.h **** 	  _Sseq, subtract_with_carry_engine, _UIntType>::value>::type;
 695:/usr/include/c++/10/bits/random.h **** 
 696:/usr/include/c++/10/bits/random.h ****     public:
 697:/usr/include/c++/10/bits/random.h ****       /** The type of the generated random value. */
 698:/usr/include/c++/10/bits/random.h ****       typedef _UIntType result_type;
 699:/usr/include/c++/10/bits/random.h **** 
AARCH64 GAS  obj/Chapter15_4.s 			page 34


 700:/usr/include/c++/10/bits/random.h ****       // parameter values
 701:/usr/include/c++/10/bits/random.h ****       static constexpr size_t      word_size    = __w;
 702:/usr/include/c++/10/bits/random.h ****       static constexpr size_t      short_lag    = __s;
 703:/usr/include/c++/10/bits/random.h ****       static constexpr size_t      long_lag     = __r;
 704:/usr/include/c++/10/bits/random.h ****       static constexpr result_type default_seed = 19780503u;
 705:/usr/include/c++/10/bits/random.h **** 
 706:/usr/include/c++/10/bits/random.h ****       subtract_with_carry_engine() : subtract_with_carry_engine(default_seed)
 707:/usr/include/c++/10/bits/random.h ****       { }
 708:/usr/include/c++/10/bits/random.h **** 
 709:/usr/include/c++/10/bits/random.h ****       /**
 710:/usr/include/c++/10/bits/random.h ****        * @brief Constructs an explicitly seeded %subtract_with_carry_engine
 711:/usr/include/c++/10/bits/random.h ****        *        random number generator.
 712:/usr/include/c++/10/bits/random.h ****        */
 713:/usr/include/c++/10/bits/random.h ****       explicit
 714:/usr/include/c++/10/bits/random.h ****       subtract_with_carry_engine(result_type __sd)
 715:/usr/include/c++/10/bits/random.h ****       { seed(__sd); }
 716:/usr/include/c++/10/bits/random.h **** 
 717:/usr/include/c++/10/bits/random.h ****       /**
 718:/usr/include/c++/10/bits/random.h ****        * @brief Constructs a %subtract_with_carry_engine random number engine
 719:/usr/include/c++/10/bits/random.h ****        *        seeded from the seed sequence @p __q.
 720:/usr/include/c++/10/bits/random.h ****        *
 721:/usr/include/c++/10/bits/random.h ****        * @param __q the seed sequence.
 722:/usr/include/c++/10/bits/random.h ****        */
 723:/usr/include/c++/10/bits/random.h ****       template<typename _Sseq, typename = _If_seed_seq<_Sseq>>
 724:/usr/include/c++/10/bits/random.h ****         explicit
 725:/usr/include/c++/10/bits/random.h ****         subtract_with_carry_engine(_Sseq& __q)
 726:/usr/include/c++/10/bits/random.h ****         { seed(__q); }
 727:/usr/include/c++/10/bits/random.h **** 
 728:/usr/include/c++/10/bits/random.h ****       /**
 729:/usr/include/c++/10/bits/random.h ****        * @brief Seeds the initial state @f$x_0@f$ of the random number
 730:/usr/include/c++/10/bits/random.h ****        *        generator.
 731:/usr/include/c++/10/bits/random.h ****        *
 732:/usr/include/c++/10/bits/random.h ****        * N1688[4.19] modifies this as follows.  If @p __value == 0,
 733:/usr/include/c++/10/bits/random.h ****        * sets value to 19780503.  In any case, with a linear
 734:/usr/include/c++/10/bits/random.h ****        * congruential generator lcg(i) having parameters @f$ m_{lcg} =
 735:/usr/include/c++/10/bits/random.h ****        * 2147483563, a_{lcg} = 40014, c_{lcg} = 0, and lcg(0) = value
 736:/usr/include/c++/10/bits/random.h ****        * @f$, sets @f$ x_{-r} \dots x_{-1} @f$ to @f$ lcg(1) \bmod m
 737:/usr/include/c++/10/bits/random.h ****        * \dots lcg(r) \bmod m @f$ respectively.  If @f$ x_{-1} = 0 @f$
 738:/usr/include/c++/10/bits/random.h ****        * set carry to 1, otherwise sets carry to 0.
 739:/usr/include/c++/10/bits/random.h ****        */
 740:/usr/include/c++/10/bits/random.h ****       void
 741:/usr/include/c++/10/bits/random.h ****       seed(result_type __sd = default_seed);
 742:/usr/include/c++/10/bits/random.h **** 
 743:/usr/include/c++/10/bits/random.h ****       /**
 744:/usr/include/c++/10/bits/random.h ****        * @brief Seeds the initial state @f$x_0@f$ of the
 745:/usr/include/c++/10/bits/random.h ****        * % subtract_with_carry_engine random number generator.
 746:/usr/include/c++/10/bits/random.h ****        */
 747:/usr/include/c++/10/bits/random.h ****       template<typename _Sseq>
 748:/usr/include/c++/10/bits/random.h **** 	_If_seed_seq<_Sseq>
 749:/usr/include/c++/10/bits/random.h ****         seed(_Sseq& __q);
 750:/usr/include/c++/10/bits/random.h **** 
 751:/usr/include/c++/10/bits/random.h ****       /**
 752:/usr/include/c++/10/bits/random.h ****        * @brief Gets the inclusive minimum value of the range of random
 753:/usr/include/c++/10/bits/random.h ****        * integers returned by this generator.
 754:/usr/include/c++/10/bits/random.h ****        */
 755:/usr/include/c++/10/bits/random.h ****       static constexpr result_type
 756:/usr/include/c++/10/bits/random.h ****       min()
AARCH64 GAS  obj/Chapter15_4.s 			page 35


 757:/usr/include/c++/10/bits/random.h ****       { return 0; }
 758:/usr/include/c++/10/bits/random.h **** 
 759:/usr/include/c++/10/bits/random.h ****       /**
 760:/usr/include/c++/10/bits/random.h ****        * @brief Gets the inclusive maximum value of the range of random
 761:/usr/include/c++/10/bits/random.h ****        * integers returned by this generator.
 762:/usr/include/c++/10/bits/random.h ****        */
 763:/usr/include/c++/10/bits/random.h ****       static constexpr result_type
 764:/usr/include/c++/10/bits/random.h ****       max()
 765:/usr/include/c++/10/bits/random.h ****       { return __detail::_Shift<_UIntType, __w>::__value - 1; }
 766:/usr/include/c++/10/bits/random.h **** 
 767:/usr/include/c++/10/bits/random.h ****       /**
 768:/usr/include/c++/10/bits/random.h ****        * @brief Discard a sequence of random numbers.
 769:/usr/include/c++/10/bits/random.h ****        */
 770:/usr/include/c++/10/bits/random.h ****       void
 771:/usr/include/c++/10/bits/random.h ****       discard(unsigned long long __z)
 772:/usr/include/c++/10/bits/random.h ****       {
 773:/usr/include/c++/10/bits/random.h **** 	for (; __z != 0ULL; --__z)
 774:/usr/include/c++/10/bits/random.h **** 	  (*this)();
 775:/usr/include/c++/10/bits/random.h ****       }
 776:/usr/include/c++/10/bits/random.h **** 
 777:/usr/include/c++/10/bits/random.h ****       /**
 778:/usr/include/c++/10/bits/random.h ****        * @brief Gets the next random number in the sequence.
 779:/usr/include/c++/10/bits/random.h ****        */
 780:/usr/include/c++/10/bits/random.h ****       result_type
 781:/usr/include/c++/10/bits/random.h ****       operator()();
 782:/usr/include/c++/10/bits/random.h **** 
 783:/usr/include/c++/10/bits/random.h ****       /**
 784:/usr/include/c++/10/bits/random.h ****        * @brief Compares two % subtract_with_carry_engine random number
 785:/usr/include/c++/10/bits/random.h ****        *        generator objects of the same type for equality.
 786:/usr/include/c++/10/bits/random.h ****        *
 787:/usr/include/c++/10/bits/random.h ****        * @param __lhs A % subtract_with_carry_engine random number generator
 788:/usr/include/c++/10/bits/random.h ****        *              object.
 789:/usr/include/c++/10/bits/random.h ****        * @param __rhs Another % subtract_with_carry_engine random number
 790:/usr/include/c++/10/bits/random.h ****        *              generator object.
 791:/usr/include/c++/10/bits/random.h ****        *
 792:/usr/include/c++/10/bits/random.h ****        * @returns true if the infinite sequences of generated values
 793:/usr/include/c++/10/bits/random.h ****        *          would be equal, false otherwise.
 794:/usr/include/c++/10/bits/random.h ****       */
 795:/usr/include/c++/10/bits/random.h ****       friend bool
 796:/usr/include/c++/10/bits/random.h ****       operator==(const subtract_with_carry_engine& __lhs,
 797:/usr/include/c++/10/bits/random.h **** 		 const subtract_with_carry_engine& __rhs)
 798:/usr/include/c++/10/bits/random.h ****       { return (std::equal(__lhs._M_x, __lhs._M_x + long_lag, __rhs._M_x)
 799:/usr/include/c++/10/bits/random.h **** 		&& __lhs._M_carry == __rhs._M_carry
 800:/usr/include/c++/10/bits/random.h **** 		&& __lhs._M_p == __rhs._M_p); }
 801:/usr/include/c++/10/bits/random.h **** 
 802:/usr/include/c++/10/bits/random.h ****       /**
 803:/usr/include/c++/10/bits/random.h ****        * @brief Inserts the current state of a % subtract_with_carry_engine
 804:/usr/include/c++/10/bits/random.h ****        *        random number generator engine @p __x into the output stream
 805:/usr/include/c++/10/bits/random.h ****        *        @p __os.
 806:/usr/include/c++/10/bits/random.h ****        *
 807:/usr/include/c++/10/bits/random.h ****        * @param __os An output stream.
 808:/usr/include/c++/10/bits/random.h ****        * @param __x  A % subtract_with_carry_engine random number generator
 809:/usr/include/c++/10/bits/random.h ****        *             engine.
 810:/usr/include/c++/10/bits/random.h ****        *
 811:/usr/include/c++/10/bits/random.h ****        * @returns The output stream with the state of @p __x inserted or in
 812:/usr/include/c++/10/bits/random.h ****        * an error state.
 813:/usr/include/c++/10/bits/random.h ****        */
AARCH64 GAS  obj/Chapter15_4.s 			page 36


 814:/usr/include/c++/10/bits/random.h ****       template<typename _UIntType1, size_t __w1, size_t __s1, size_t __r1,
 815:/usr/include/c++/10/bits/random.h **** 	       typename _CharT, typename _Traits>
 816:/usr/include/c++/10/bits/random.h **** 	friend std::basic_ostream<_CharT, _Traits>&
 817:/usr/include/c++/10/bits/random.h **** 	operator<<(std::basic_ostream<_CharT, _Traits>& __os,
 818:/usr/include/c++/10/bits/random.h **** 		   const std::subtract_with_carry_engine<_UIntType1, __w1,
 819:/usr/include/c++/10/bits/random.h **** 		   __s1, __r1>& __x);
 820:/usr/include/c++/10/bits/random.h **** 
 821:/usr/include/c++/10/bits/random.h ****       /**
 822:/usr/include/c++/10/bits/random.h ****        * @brief Extracts the current state of a % subtract_with_carry_engine
 823:/usr/include/c++/10/bits/random.h ****        *        random number generator engine @p __x from the input stream
 824:/usr/include/c++/10/bits/random.h ****        *        @p __is.
 825:/usr/include/c++/10/bits/random.h ****        *
 826:/usr/include/c++/10/bits/random.h ****        * @param __is An input stream.
 827:/usr/include/c++/10/bits/random.h ****        * @param __x  A % subtract_with_carry_engine random number generator
 828:/usr/include/c++/10/bits/random.h ****        *             engine.
 829:/usr/include/c++/10/bits/random.h ****        *
 830:/usr/include/c++/10/bits/random.h ****        * @returns The input stream with the state of @p __x extracted or in
 831:/usr/include/c++/10/bits/random.h ****        * an error state.
 832:/usr/include/c++/10/bits/random.h ****        */
 833:/usr/include/c++/10/bits/random.h ****       template<typename _UIntType1, size_t __w1, size_t __s1, size_t __r1,
 834:/usr/include/c++/10/bits/random.h **** 	       typename _CharT, typename _Traits>
 835:/usr/include/c++/10/bits/random.h **** 	friend std::basic_istream<_CharT, _Traits>&
 836:/usr/include/c++/10/bits/random.h **** 	operator>>(std::basic_istream<_CharT, _Traits>& __is,
 837:/usr/include/c++/10/bits/random.h **** 		   std::subtract_with_carry_engine<_UIntType1, __w1,
 838:/usr/include/c++/10/bits/random.h **** 		   __s1, __r1>& __x);
 839:/usr/include/c++/10/bits/random.h **** 
 840:/usr/include/c++/10/bits/random.h ****     private:
 841:/usr/include/c++/10/bits/random.h ****       /// The state of the generator.  This is a ring buffer.
 842:/usr/include/c++/10/bits/random.h ****       _UIntType  _M_x[long_lag];
 843:/usr/include/c++/10/bits/random.h ****       _UIntType  _M_carry;		///< The carry
 844:/usr/include/c++/10/bits/random.h ****       size_t     _M_p;			///< Current index of x(i - r).
 845:/usr/include/c++/10/bits/random.h ****     };
 846:/usr/include/c++/10/bits/random.h **** 
 847:/usr/include/c++/10/bits/random.h ****   /**
 848:/usr/include/c++/10/bits/random.h ****    * @brief Compares two % subtract_with_carry_engine random number
 849:/usr/include/c++/10/bits/random.h ****    *        generator objects of the same type for inequality.
 850:/usr/include/c++/10/bits/random.h ****    *
 851:/usr/include/c++/10/bits/random.h ****    * @param __lhs A % subtract_with_carry_engine random number generator
 852:/usr/include/c++/10/bits/random.h ****    *              object.
 853:/usr/include/c++/10/bits/random.h ****    * @param __rhs Another % subtract_with_carry_engine random number
 854:/usr/include/c++/10/bits/random.h ****    *              generator object.
 855:/usr/include/c++/10/bits/random.h ****    *
 856:/usr/include/c++/10/bits/random.h ****    * @returns true if the infinite sequences of generated values
 857:/usr/include/c++/10/bits/random.h ****    *          would be different, false otherwise.
 858:/usr/include/c++/10/bits/random.h ****    */
 859:/usr/include/c++/10/bits/random.h ****   template<typename _UIntType, size_t __w, size_t __s, size_t __r>
 860:/usr/include/c++/10/bits/random.h ****     inline bool
 861:/usr/include/c++/10/bits/random.h ****     operator!=(const std::subtract_with_carry_engine<_UIntType, __w,
 862:/usr/include/c++/10/bits/random.h **** 	       __s, __r>& __lhs,
 863:/usr/include/c++/10/bits/random.h **** 	       const std::subtract_with_carry_engine<_UIntType, __w,
 864:/usr/include/c++/10/bits/random.h **** 	       __s, __r>& __rhs)
 865:/usr/include/c++/10/bits/random.h ****     { return !(__lhs == __rhs); }
 866:/usr/include/c++/10/bits/random.h **** 
 867:/usr/include/c++/10/bits/random.h **** 
 868:/usr/include/c++/10/bits/random.h ****   /**
 869:/usr/include/c++/10/bits/random.h ****    * Produces random numbers from some base engine by discarding blocks of
 870:/usr/include/c++/10/bits/random.h ****    * data.
AARCH64 GAS  obj/Chapter15_4.s 			page 37


 871:/usr/include/c++/10/bits/random.h ****    *
 872:/usr/include/c++/10/bits/random.h ****    * 0 <= @p __r <= @p __p
 873:/usr/include/c++/10/bits/random.h ****    */
 874:/usr/include/c++/10/bits/random.h ****   template<typename _RandomNumberEngine, size_t __p, size_t __r>
 875:/usr/include/c++/10/bits/random.h ****     class discard_block_engine
 876:/usr/include/c++/10/bits/random.h ****     {
 877:/usr/include/c++/10/bits/random.h ****       static_assert(1 <= __r && __r <= __p,
 878:/usr/include/c++/10/bits/random.h **** 		    "template argument substituting __r out of bounds");
 879:/usr/include/c++/10/bits/random.h **** 
 880:/usr/include/c++/10/bits/random.h ****     public:
 881:/usr/include/c++/10/bits/random.h ****       /** The type of the generated random value. */
 882:/usr/include/c++/10/bits/random.h ****       typedef typename _RandomNumberEngine::result_type result_type;
 883:/usr/include/c++/10/bits/random.h **** 
 884:/usr/include/c++/10/bits/random.h ****       template<typename _Sseq>
 885:/usr/include/c++/10/bits/random.h **** 	using _If_seed_seq = typename enable_if<__detail::__is_seed_seq<
 886:/usr/include/c++/10/bits/random.h **** 	  _Sseq, discard_block_engine, result_type>::value>::type;
 887:/usr/include/c++/10/bits/random.h **** 
 888:/usr/include/c++/10/bits/random.h ****       // parameter values
 889:/usr/include/c++/10/bits/random.h ****       static constexpr size_t block_size = __p;
 890:/usr/include/c++/10/bits/random.h ****       static constexpr size_t used_block = __r;
 891:/usr/include/c++/10/bits/random.h **** 
 892:/usr/include/c++/10/bits/random.h ****       /**
 893:/usr/include/c++/10/bits/random.h ****        * @brief Constructs a default %discard_block_engine engine.
 894:/usr/include/c++/10/bits/random.h ****        *
 895:/usr/include/c++/10/bits/random.h ****        * The underlying engine is default constructed as well.
 896:/usr/include/c++/10/bits/random.h ****        */
 897:/usr/include/c++/10/bits/random.h ****       discard_block_engine()
 898:/usr/include/c++/10/bits/random.h ****       : _M_b(), _M_n(0) { }
 899:/usr/include/c++/10/bits/random.h **** 
 900:/usr/include/c++/10/bits/random.h ****       /**
 901:/usr/include/c++/10/bits/random.h ****        * @brief Copy constructs a %discard_block_engine engine.
 902:/usr/include/c++/10/bits/random.h ****        *
 903:/usr/include/c++/10/bits/random.h ****        * Copies an existing base class random number generator.
 904:/usr/include/c++/10/bits/random.h ****        * @param __rng An existing (base class) engine object.
 905:/usr/include/c++/10/bits/random.h ****        */
 906:/usr/include/c++/10/bits/random.h ****       explicit
 907:/usr/include/c++/10/bits/random.h ****       discard_block_engine(const _RandomNumberEngine& __rng)
 908:/usr/include/c++/10/bits/random.h ****       : _M_b(__rng), _M_n(0) { }
 909:/usr/include/c++/10/bits/random.h **** 
 910:/usr/include/c++/10/bits/random.h ****       /**
 911:/usr/include/c++/10/bits/random.h ****        * @brief Move constructs a %discard_block_engine engine.
 912:/usr/include/c++/10/bits/random.h ****        *
 913:/usr/include/c++/10/bits/random.h ****        * Copies an existing base class random number generator.
 914:/usr/include/c++/10/bits/random.h ****        * @param __rng An existing (base class) engine object.
 915:/usr/include/c++/10/bits/random.h ****        */
 916:/usr/include/c++/10/bits/random.h ****       explicit
 917:/usr/include/c++/10/bits/random.h ****       discard_block_engine(_RandomNumberEngine&& __rng)
 918:/usr/include/c++/10/bits/random.h ****       : _M_b(std::move(__rng)), _M_n(0) { }
 919:/usr/include/c++/10/bits/random.h **** 
 920:/usr/include/c++/10/bits/random.h ****       /**
 921:/usr/include/c++/10/bits/random.h ****        * @brief Seed constructs a %discard_block_engine engine.
 922:/usr/include/c++/10/bits/random.h ****        *
 923:/usr/include/c++/10/bits/random.h ****        * Constructs the underlying generator engine seeded with @p __s.
 924:/usr/include/c++/10/bits/random.h ****        * @param __s A seed value for the base class engine.
 925:/usr/include/c++/10/bits/random.h ****        */
 926:/usr/include/c++/10/bits/random.h ****       explicit
 927:/usr/include/c++/10/bits/random.h ****       discard_block_engine(result_type __s)
AARCH64 GAS  obj/Chapter15_4.s 			page 38


 928:/usr/include/c++/10/bits/random.h ****       : _M_b(__s), _M_n(0) { }
 929:/usr/include/c++/10/bits/random.h **** 
 930:/usr/include/c++/10/bits/random.h ****       /**
 931:/usr/include/c++/10/bits/random.h ****        * @brief Generator construct a %discard_block_engine engine.
 932:/usr/include/c++/10/bits/random.h ****        *
 933:/usr/include/c++/10/bits/random.h ****        * @param __q A seed sequence.
 934:/usr/include/c++/10/bits/random.h ****        */
 935:/usr/include/c++/10/bits/random.h ****       template<typename _Sseq, typename = _If_seed_seq<_Sseq>>
 936:/usr/include/c++/10/bits/random.h ****         explicit
 937:/usr/include/c++/10/bits/random.h ****         discard_block_engine(_Sseq& __q)
 938:/usr/include/c++/10/bits/random.h **** 	: _M_b(__q), _M_n(0)
 939:/usr/include/c++/10/bits/random.h ****         { }
 940:/usr/include/c++/10/bits/random.h **** 
 941:/usr/include/c++/10/bits/random.h ****       /**
 942:/usr/include/c++/10/bits/random.h ****        * @brief Reseeds the %discard_block_engine object with the default
 943:/usr/include/c++/10/bits/random.h ****        *        seed for the underlying base class generator engine.
 944:/usr/include/c++/10/bits/random.h ****        */
 945:/usr/include/c++/10/bits/random.h ****       void
 946:/usr/include/c++/10/bits/random.h ****       seed()
 947:/usr/include/c++/10/bits/random.h ****       {
 948:/usr/include/c++/10/bits/random.h **** 	_M_b.seed();
 949:/usr/include/c++/10/bits/random.h **** 	_M_n = 0;
 950:/usr/include/c++/10/bits/random.h ****       }
 951:/usr/include/c++/10/bits/random.h **** 
 952:/usr/include/c++/10/bits/random.h ****       /**
 953:/usr/include/c++/10/bits/random.h ****        * @brief Reseeds the %discard_block_engine object with the default
 954:/usr/include/c++/10/bits/random.h ****        *        seed for the underlying base class generator engine.
 955:/usr/include/c++/10/bits/random.h ****        */
 956:/usr/include/c++/10/bits/random.h ****       void
 957:/usr/include/c++/10/bits/random.h ****       seed(result_type __s)
 958:/usr/include/c++/10/bits/random.h ****       {
 959:/usr/include/c++/10/bits/random.h **** 	_M_b.seed(__s);
 960:/usr/include/c++/10/bits/random.h **** 	_M_n = 0;
 961:/usr/include/c++/10/bits/random.h ****       }
 962:/usr/include/c++/10/bits/random.h **** 
 963:/usr/include/c++/10/bits/random.h ****       /**
 964:/usr/include/c++/10/bits/random.h ****        * @brief Reseeds the %discard_block_engine object with the given seed
 965:/usr/include/c++/10/bits/random.h ****        *        sequence.
 966:/usr/include/c++/10/bits/random.h ****        * @param __q A seed generator function.
 967:/usr/include/c++/10/bits/random.h ****        */
 968:/usr/include/c++/10/bits/random.h ****       template<typename _Sseq>
 969:/usr/include/c++/10/bits/random.h ****         _If_seed_seq<_Sseq>
 970:/usr/include/c++/10/bits/random.h ****         seed(_Sseq& __q)
 971:/usr/include/c++/10/bits/random.h ****         {
 972:/usr/include/c++/10/bits/random.h **** 	  _M_b.seed(__q);
 973:/usr/include/c++/10/bits/random.h **** 	  _M_n = 0;
 974:/usr/include/c++/10/bits/random.h **** 	}
 975:/usr/include/c++/10/bits/random.h **** 
 976:/usr/include/c++/10/bits/random.h ****       /**
 977:/usr/include/c++/10/bits/random.h ****        * @brief Gets a const reference to the underlying generator engine
 978:/usr/include/c++/10/bits/random.h ****        *        object.
 979:/usr/include/c++/10/bits/random.h ****        */
 980:/usr/include/c++/10/bits/random.h ****       const _RandomNumberEngine&
 981:/usr/include/c++/10/bits/random.h ****       base() const noexcept
 982:/usr/include/c++/10/bits/random.h ****       { return _M_b; }
 983:/usr/include/c++/10/bits/random.h **** 
 984:/usr/include/c++/10/bits/random.h ****       /**
AARCH64 GAS  obj/Chapter15_4.s 			page 39


 985:/usr/include/c++/10/bits/random.h ****        * @brief Gets the minimum value in the generated random number range.
 986:/usr/include/c++/10/bits/random.h ****        */
 987:/usr/include/c++/10/bits/random.h ****       static constexpr result_type
 988:/usr/include/c++/10/bits/random.h ****       min()
 989:/usr/include/c++/10/bits/random.h ****       { return _RandomNumberEngine::min(); }
 990:/usr/include/c++/10/bits/random.h **** 
 991:/usr/include/c++/10/bits/random.h ****       /**
 992:/usr/include/c++/10/bits/random.h ****        * @brief Gets the maximum value in the generated random number range.
 993:/usr/include/c++/10/bits/random.h ****        */
 994:/usr/include/c++/10/bits/random.h ****       static constexpr result_type
 995:/usr/include/c++/10/bits/random.h ****       max()
 996:/usr/include/c++/10/bits/random.h ****       { return _RandomNumberEngine::max(); }
 997:/usr/include/c++/10/bits/random.h **** 
 998:/usr/include/c++/10/bits/random.h ****       /**
 999:/usr/include/c++/10/bits/random.h ****        * @brief Discard a sequence of random numbers.
1000:/usr/include/c++/10/bits/random.h ****        */
1001:/usr/include/c++/10/bits/random.h ****       void
1002:/usr/include/c++/10/bits/random.h ****       discard(unsigned long long __z)
1003:/usr/include/c++/10/bits/random.h ****       {
1004:/usr/include/c++/10/bits/random.h **** 	for (; __z != 0ULL; --__z)
1005:/usr/include/c++/10/bits/random.h **** 	  (*this)();
1006:/usr/include/c++/10/bits/random.h ****       }
1007:/usr/include/c++/10/bits/random.h **** 
1008:/usr/include/c++/10/bits/random.h ****       /**
1009:/usr/include/c++/10/bits/random.h ****        * @brief Gets the next value in the generated random number sequence.
1010:/usr/include/c++/10/bits/random.h ****        */
1011:/usr/include/c++/10/bits/random.h ****       result_type
1012:/usr/include/c++/10/bits/random.h ****       operator()();
1013:/usr/include/c++/10/bits/random.h **** 
1014:/usr/include/c++/10/bits/random.h ****       /**
1015:/usr/include/c++/10/bits/random.h ****        * @brief Compares two %discard_block_engine random number generator
1016:/usr/include/c++/10/bits/random.h ****        *        objects of the same type for equality.
1017:/usr/include/c++/10/bits/random.h ****        *
1018:/usr/include/c++/10/bits/random.h ****        * @param __lhs A %discard_block_engine random number generator object.
1019:/usr/include/c++/10/bits/random.h ****        * @param __rhs Another %discard_block_engine random number generator
1020:/usr/include/c++/10/bits/random.h ****        *              object.
1021:/usr/include/c++/10/bits/random.h ****        *
1022:/usr/include/c++/10/bits/random.h ****        * @returns true if the infinite sequences of generated values
1023:/usr/include/c++/10/bits/random.h ****        *          would be equal, false otherwise.
1024:/usr/include/c++/10/bits/random.h ****        */
1025:/usr/include/c++/10/bits/random.h ****       friend bool
1026:/usr/include/c++/10/bits/random.h ****       operator==(const discard_block_engine& __lhs,
1027:/usr/include/c++/10/bits/random.h **** 		 const discard_block_engine& __rhs)
1028:/usr/include/c++/10/bits/random.h ****       { return __lhs._M_b == __rhs._M_b && __lhs._M_n == __rhs._M_n; }
1029:/usr/include/c++/10/bits/random.h **** 
1030:/usr/include/c++/10/bits/random.h ****       /**
1031:/usr/include/c++/10/bits/random.h ****        * @brief Inserts the current state of a %discard_block_engine random
1032:/usr/include/c++/10/bits/random.h ****        *        number generator engine @p __x into the output stream
1033:/usr/include/c++/10/bits/random.h ****        *        @p __os.
1034:/usr/include/c++/10/bits/random.h ****        *
1035:/usr/include/c++/10/bits/random.h ****        * @param __os An output stream.
1036:/usr/include/c++/10/bits/random.h ****        * @param __x  A %discard_block_engine random number generator engine.
1037:/usr/include/c++/10/bits/random.h ****        *
1038:/usr/include/c++/10/bits/random.h ****        * @returns The output stream with the state of @p __x inserted or in
1039:/usr/include/c++/10/bits/random.h ****        * an error state.
1040:/usr/include/c++/10/bits/random.h ****        */
1041:/usr/include/c++/10/bits/random.h ****       template<typename _RandomNumberEngine1, size_t __p1, size_t __r1,
AARCH64 GAS  obj/Chapter15_4.s 			page 40


1042:/usr/include/c++/10/bits/random.h **** 	       typename _CharT, typename _Traits>
1043:/usr/include/c++/10/bits/random.h **** 	friend std::basic_ostream<_CharT, _Traits>&
1044:/usr/include/c++/10/bits/random.h **** 	operator<<(std::basic_ostream<_CharT, _Traits>& __os,
1045:/usr/include/c++/10/bits/random.h **** 		   const std::discard_block_engine<_RandomNumberEngine1,
1046:/usr/include/c++/10/bits/random.h **** 		   __p1, __r1>& __x);
1047:/usr/include/c++/10/bits/random.h **** 
1048:/usr/include/c++/10/bits/random.h ****       /**
1049:/usr/include/c++/10/bits/random.h ****        * @brief Extracts the current state of a % subtract_with_carry_engine
1050:/usr/include/c++/10/bits/random.h ****        *        random number generator engine @p __x from the input stream
1051:/usr/include/c++/10/bits/random.h ****        *        @p __is.
1052:/usr/include/c++/10/bits/random.h ****        *
1053:/usr/include/c++/10/bits/random.h ****        * @param __is An input stream.
1054:/usr/include/c++/10/bits/random.h ****        * @param __x  A %discard_block_engine random number generator engine.
1055:/usr/include/c++/10/bits/random.h ****        *
1056:/usr/include/c++/10/bits/random.h ****        * @returns The input stream with the state of @p __x extracted or in
1057:/usr/include/c++/10/bits/random.h ****        * an error state.
1058:/usr/include/c++/10/bits/random.h ****        */
1059:/usr/include/c++/10/bits/random.h ****       template<typename _RandomNumberEngine1, size_t __p1, size_t __r1,
1060:/usr/include/c++/10/bits/random.h **** 	       typename _CharT, typename _Traits>
1061:/usr/include/c++/10/bits/random.h **** 	friend std::basic_istream<_CharT, _Traits>&
1062:/usr/include/c++/10/bits/random.h **** 	operator>>(std::basic_istream<_CharT, _Traits>& __is,
1063:/usr/include/c++/10/bits/random.h **** 		   std::discard_block_engine<_RandomNumberEngine1,
1064:/usr/include/c++/10/bits/random.h **** 		   __p1, __r1>& __x);
1065:/usr/include/c++/10/bits/random.h **** 
1066:/usr/include/c++/10/bits/random.h ****     private:
1067:/usr/include/c++/10/bits/random.h ****       _RandomNumberEngine _M_b;
1068:/usr/include/c++/10/bits/random.h ****       size_t _M_n;
1069:/usr/include/c++/10/bits/random.h ****     };
1070:/usr/include/c++/10/bits/random.h **** 
1071:/usr/include/c++/10/bits/random.h ****   /**
1072:/usr/include/c++/10/bits/random.h ****    * @brief Compares two %discard_block_engine random number generator
1073:/usr/include/c++/10/bits/random.h ****    *        objects of the same type for inequality.
1074:/usr/include/c++/10/bits/random.h ****    *
1075:/usr/include/c++/10/bits/random.h ****    * @param __lhs A %discard_block_engine random number generator object.
1076:/usr/include/c++/10/bits/random.h ****    * @param __rhs Another %discard_block_engine random number generator
1077:/usr/include/c++/10/bits/random.h ****    *              object.
1078:/usr/include/c++/10/bits/random.h ****    *
1079:/usr/include/c++/10/bits/random.h ****    * @returns true if the infinite sequences of generated values
1080:/usr/include/c++/10/bits/random.h ****    *          would be different, false otherwise.
1081:/usr/include/c++/10/bits/random.h ****    */
1082:/usr/include/c++/10/bits/random.h ****   template<typename _RandomNumberEngine, size_t __p, size_t __r>
1083:/usr/include/c++/10/bits/random.h ****     inline bool
1084:/usr/include/c++/10/bits/random.h ****     operator!=(const std::discard_block_engine<_RandomNumberEngine, __p,
1085:/usr/include/c++/10/bits/random.h **** 	       __r>& __lhs,
1086:/usr/include/c++/10/bits/random.h **** 	       const std::discard_block_engine<_RandomNumberEngine, __p,
1087:/usr/include/c++/10/bits/random.h **** 	       __r>& __rhs)
1088:/usr/include/c++/10/bits/random.h ****     { return !(__lhs == __rhs); }
1089:/usr/include/c++/10/bits/random.h **** 
1090:/usr/include/c++/10/bits/random.h **** 
1091:/usr/include/c++/10/bits/random.h ****   /**
1092:/usr/include/c++/10/bits/random.h ****    * Produces random numbers by combining random numbers from some base
1093:/usr/include/c++/10/bits/random.h ****    * engine to produce random numbers with a specifies number of bits @p __w.
1094:/usr/include/c++/10/bits/random.h ****    */
1095:/usr/include/c++/10/bits/random.h ****   template<typename _RandomNumberEngine, size_t __w, typename _UIntType>
1096:/usr/include/c++/10/bits/random.h ****     class independent_bits_engine
1097:/usr/include/c++/10/bits/random.h ****     {
1098:/usr/include/c++/10/bits/random.h ****       static_assert(std::is_unsigned<_UIntType>::value,
AARCH64 GAS  obj/Chapter15_4.s 			page 41


1099:/usr/include/c++/10/bits/random.h **** 		    "result_type must be an unsigned integral type");
1100:/usr/include/c++/10/bits/random.h ****       static_assert(0u < __w && __w <= std::numeric_limits<_UIntType>::digits,
1101:/usr/include/c++/10/bits/random.h **** 		    "template argument substituting __w out of bounds");
1102:/usr/include/c++/10/bits/random.h **** 
1103:/usr/include/c++/10/bits/random.h ****       template<typename _Sseq>
1104:/usr/include/c++/10/bits/random.h **** 	using _If_seed_seq = typename enable_if<__detail::__is_seed_seq<
1105:/usr/include/c++/10/bits/random.h **** 	  _Sseq, independent_bits_engine, _UIntType>::value>::type;
1106:/usr/include/c++/10/bits/random.h **** 
1107:/usr/include/c++/10/bits/random.h ****     public:
1108:/usr/include/c++/10/bits/random.h ****       /** The type of the generated random value. */
1109:/usr/include/c++/10/bits/random.h ****       typedef _UIntType result_type;
1110:/usr/include/c++/10/bits/random.h **** 
1111:/usr/include/c++/10/bits/random.h ****       /**
1112:/usr/include/c++/10/bits/random.h ****        * @brief Constructs a default %independent_bits_engine engine.
1113:/usr/include/c++/10/bits/random.h ****        *
1114:/usr/include/c++/10/bits/random.h ****        * The underlying engine is default constructed as well.
1115:/usr/include/c++/10/bits/random.h ****        */
1116:/usr/include/c++/10/bits/random.h ****       independent_bits_engine()
1117:/usr/include/c++/10/bits/random.h ****       : _M_b() { }
1118:/usr/include/c++/10/bits/random.h **** 
1119:/usr/include/c++/10/bits/random.h ****       /**
1120:/usr/include/c++/10/bits/random.h ****        * @brief Copy constructs a %independent_bits_engine engine.
1121:/usr/include/c++/10/bits/random.h ****        *
1122:/usr/include/c++/10/bits/random.h ****        * Copies an existing base class random number generator.
1123:/usr/include/c++/10/bits/random.h ****        * @param __rng An existing (base class) engine object.
1124:/usr/include/c++/10/bits/random.h ****        */
1125:/usr/include/c++/10/bits/random.h ****       explicit
1126:/usr/include/c++/10/bits/random.h ****       independent_bits_engine(const _RandomNumberEngine& __rng)
1127:/usr/include/c++/10/bits/random.h ****       : _M_b(__rng) { }
1128:/usr/include/c++/10/bits/random.h **** 
1129:/usr/include/c++/10/bits/random.h ****       /**
1130:/usr/include/c++/10/bits/random.h ****        * @brief Move constructs a %independent_bits_engine engine.
1131:/usr/include/c++/10/bits/random.h ****        *
1132:/usr/include/c++/10/bits/random.h ****        * Copies an existing base class random number generator.
1133:/usr/include/c++/10/bits/random.h ****        * @param __rng An existing (base class) engine object.
1134:/usr/include/c++/10/bits/random.h ****        */
1135:/usr/include/c++/10/bits/random.h ****       explicit
1136:/usr/include/c++/10/bits/random.h ****       independent_bits_engine(_RandomNumberEngine&& __rng)
1137:/usr/include/c++/10/bits/random.h ****       : _M_b(std::move(__rng)) { }
1138:/usr/include/c++/10/bits/random.h **** 
1139:/usr/include/c++/10/bits/random.h ****       /**
1140:/usr/include/c++/10/bits/random.h ****        * @brief Seed constructs a %independent_bits_engine engine.
1141:/usr/include/c++/10/bits/random.h ****        *
1142:/usr/include/c++/10/bits/random.h ****        * Constructs the underlying generator engine seeded with @p __s.
1143:/usr/include/c++/10/bits/random.h ****        * @param __s A seed value for the base class engine.
1144:/usr/include/c++/10/bits/random.h ****        */
1145:/usr/include/c++/10/bits/random.h ****       explicit
1146:/usr/include/c++/10/bits/random.h ****       independent_bits_engine(result_type __s)
1147:/usr/include/c++/10/bits/random.h ****       : _M_b(__s) { }
1148:/usr/include/c++/10/bits/random.h **** 
1149:/usr/include/c++/10/bits/random.h ****       /**
1150:/usr/include/c++/10/bits/random.h ****        * @brief Generator construct a %independent_bits_engine engine.
1151:/usr/include/c++/10/bits/random.h ****        *
1152:/usr/include/c++/10/bits/random.h ****        * @param __q A seed sequence.
1153:/usr/include/c++/10/bits/random.h ****        */
1154:/usr/include/c++/10/bits/random.h ****       template<typename _Sseq, typename = _If_seed_seq<_Sseq>>
1155:/usr/include/c++/10/bits/random.h ****         explicit
AARCH64 GAS  obj/Chapter15_4.s 			page 42


1156:/usr/include/c++/10/bits/random.h ****         independent_bits_engine(_Sseq& __q)
1157:/usr/include/c++/10/bits/random.h ****         : _M_b(__q)
1158:/usr/include/c++/10/bits/random.h ****         { }
1159:/usr/include/c++/10/bits/random.h **** 
1160:/usr/include/c++/10/bits/random.h ****       /**
1161:/usr/include/c++/10/bits/random.h ****        * @brief Reseeds the %independent_bits_engine object with the default
1162:/usr/include/c++/10/bits/random.h ****        *        seed for the underlying base class generator engine.
1163:/usr/include/c++/10/bits/random.h ****        */
1164:/usr/include/c++/10/bits/random.h ****       void
1165:/usr/include/c++/10/bits/random.h ****       seed()
1166:/usr/include/c++/10/bits/random.h ****       { _M_b.seed(); }
1167:/usr/include/c++/10/bits/random.h **** 
1168:/usr/include/c++/10/bits/random.h ****       /**
1169:/usr/include/c++/10/bits/random.h ****        * @brief Reseeds the %independent_bits_engine object with the default
1170:/usr/include/c++/10/bits/random.h ****        *        seed for the underlying base class generator engine.
1171:/usr/include/c++/10/bits/random.h ****        */
1172:/usr/include/c++/10/bits/random.h ****       void
1173:/usr/include/c++/10/bits/random.h ****       seed(result_type __s)
1174:/usr/include/c++/10/bits/random.h ****       { _M_b.seed(__s); }
1175:/usr/include/c++/10/bits/random.h **** 
1176:/usr/include/c++/10/bits/random.h ****       /**
1177:/usr/include/c++/10/bits/random.h ****        * @brief Reseeds the %independent_bits_engine object with the given
1178:/usr/include/c++/10/bits/random.h ****        *        seed sequence.
1179:/usr/include/c++/10/bits/random.h ****        * @param __q A seed generator function.
1180:/usr/include/c++/10/bits/random.h ****        */
1181:/usr/include/c++/10/bits/random.h ****       template<typename _Sseq>
1182:/usr/include/c++/10/bits/random.h ****         _If_seed_seq<_Sseq>
1183:/usr/include/c++/10/bits/random.h ****         seed(_Sseq& __q)
1184:/usr/include/c++/10/bits/random.h ****         { _M_b.seed(__q); }
1185:/usr/include/c++/10/bits/random.h **** 
1186:/usr/include/c++/10/bits/random.h ****       /**
1187:/usr/include/c++/10/bits/random.h ****        * @brief Gets a const reference to the underlying generator engine
1188:/usr/include/c++/10/bits/random.h ****        *        object.
1189:/usr/include/c++/10/bits/random.h ****        */
1190:/usr/include/c++/10/bits/random.h ****       const _RandomNumberEngine&
1191:/usr/include/c++/10/bits/random.h ****       base() const noexcept
1192:/usr/include/c++/10/bits/random.h ****       { return _M_b; }
1193:/usr/include/c++/10/bits/random.h **** 
1194:/usr/include/c++/10/bits/random.h ****       /**
1195:/usr/include/c++/10/bits/random.h ****        * @brief Gets the minimum value in the generated random number range.
1196:/usr/include/c++/10/bits/random.h ****        */
1197:/usr/include/c++/10/bits/random.h ****       static constexpr result_type
1198:/usr/include/c++/10/bits/random.h ****       min()
1199:/usr/include/c++/10/bits/random.h ****       { return 0U; }
1200:/usr/include/c++/10/bits/random.h **** 
1201:/usr/include/c++/10/bits/random.h ****       /**
1202:/usr/include/c++/10/bits/random.h ****        * @brief Gets the maximum value in the generated random number range.
1203:/usr/include/c++/10/bits/random.h ****        */
1204:/usr/include/c++/10/bits/random.h ****       static constexpr result_type
1205:/usr/include/c++/10/bits/random.h ****       max()
1206:/usr/include/c++/10/bits/random.h ****       { return __detail::_Shift<_UIntType, __w>::__value - 1; }
1207:/usr/include/c++/10/bits/random.h **** 
1208:/usr/include/c++/10/bits/random.h ****       /**
1209:/usr/include/c++/10/bits/random.h ****        * @brief Discard a sequence of random numbers.
1210:/usr/include/c++/10/bits/random.h ****        */
1211:/usr/include/c++/10/bits/random.h ****       void
1212:/usr/include/c++/10/bits/random.h ****       discard(unsigned long long __z)
AARCH64 GAS  obj/Chapter15_4.s 			page 43


1213:/usr/include/c++/10/bits/random.h ****       {
1214:/usr/include/c++/10/bits/random.h **** 	for (; __z != 0ULL; --__z)
1215:/usr/include/c++/10/bits/random.h **** 	  (*this)();
1216:/usr/include/c++/10/bits/random.h ****       }
1217:/usr/include/c++/10/bits/random.h **** 
1218:/usr/include/c++/10/bits/random.h ****       /**
1219:/usr/include/c++/10/bits/random.h ****        * @brief Gets the next value in the generated random number sequence.
1220:/usr/include/c++/10/bits/random.h ****        */
1221:/usr/include/c++/10/bits/random.h ****       result_type
1222:/usr/include/c++/10/bits/random.h ****       operator()();
1223:/usr/include/c++/10/bits/random.h **** 
1224:/usr/include/c++/10/bits/random.h ****       /**
1225:/usr/include/c++/10/bits/random.h ****        * @brief Compares two %independent_bits_engine random number generator
1226:/usr/include/c++/10/bits/random.h ****        * objects of the same type for equality.
1227:/usr/include/c++/10/bits/random.h ****        *
1228:/usr/include/c++/10/bits/random.h ****        * @param __lhs A %independent_bits_engine random number generator
1229:/usr/include/c++/10/bits/random.h ****        *              object.
1230:/usr/include/c++/10/bits/random.h ****        * @param __rhs Another %independent_bits_engine random number generator
1231:/usr/include/c++/10/bits/random.h ****        *              object.
1232:/usr/include/c++/10/bits/random.h ****        *
1233:/usr/include/c++/10/bits/random.h ****        * @returns true if the infinite sequences of generated values
1234:/usr/include/c++/10/bits/random.h ****        *          would be equal, false otherwise.
1235:/usr/include/c++/10/bits/random.h ****        */
1236:/usr/include/c++/10/bits/random.h ****       friend bool
1237:/usr/include/c++/10/bits/random.h ****       operator==(const independent_bits_engine& __lhs,
1238:/usr/include/c++/10/bits/random.h **** 		 const independent_bits_engine& __rhs)
1239:/usr/include/c++/10/bits/random.h ****       { return __lhs._M_b == __rhs._M_b; }
1240:/usr/include/c++/10/bits/random.h **** 
1241:/usr/include/c++/10/bits/random.h ****       /**
1242:/usr/include/c++/10/bits/random.h ****        * @brief Extracts the current state of a % subtract_with_carry_engine
1243:/usr/include/c++/10/bits/random.h ****        *        random number generator engine @p __x from the input stream
1244:/usr/include/c++/10/bits/random.h ****        *        @p __is.
1245:/usr/include/c++/10/bits/random.h ****        *
1246:/usr/include/c++/10/bits/random.h ****        * @param __is An input stream.
1247:/usr/include/c++/10/bits/random.h ****        * @param __x  A %independent_bits_engine random number generator
1248:/usr/include/c++/10/bits/random.h ****        *             engine.
1249:/usr/include/c++/10/bits/random.h ****        *
1250:/usr/include/c++/10/bits/random.h ****        * @returns The input stream with the state of @p __x extracted or in
1251:/usr/include/c++/10/bits/random.h ****        *          an error state.
1252:/usr/include/c++/10/bits/random.h ****        */
1253:/usr/include/c++/10/bits/random.h ****       template<typename _CharT, typename _Traits>
1254:/usr/include/c++/10/bits/random.h **** 	friend std::basic_istream<_CharT, _Traits>&
1255:/usr/include/c++/10/bits/random.h **** 	operator>>(std::basic_istream<_CharT, _Traits>& __is,
1256:/usr/include/c++/10/bits/random.h **** 		   std::independent_bits_engine<_RandomNumberEngine,
1257:/usr/include/c++/10/bits/random.h **** 		   __w, _UIntType>& __x)
1258:/usr/include/c++/10/bits/random.h **** 	{
1259:/usr/include/c++/10/bits/random.h **** 	  __is >> __x._M_b;
1260:/usr/include/c++/10/bits/random.h **** 	  return __is;
1261:/usr/include/c++/10/bits/random.h **** 	}
1262:/usr/include/c++/10/bits/random.h **** 
1263:/usr/include/c++/10/bits/random.h ****     private:
1264:/usr/include/c++/10/bits/random.h ****       _RandomNumberEngine _M_b;
1265:/usr/include/c++/10/bits/random.h ****     };
1266:/usr/include/c++/10/bits/random.h **** 
1267:/usr/include/c++/10/bits/random.h ****   /**
1268:/usr/include/c++/10/bits/random.h ****    * @brief Compares two %independent_bits_engine random number generator
1269:/usr/include/c++/10/bits/random.h ****    * objects of the same type for inequality.
AARCH64 GAS  obj/Chapter15_4.s 			page 44


1270:/usr/include/c++/10/bits/random.h ****    *
1271:/usr/include/c++/10/bits/random.h ****    * @param __lhs A %independent_bits_engine random number generator
1272:/usr/include/c++/10/bits/random.h ****    *              object.
1273:/usr/include/c++/10/bits/random.h ****    * @param __rhs Another %independent_bits_engine random number generator
1274:/usr/include/c++/10/bits/random.h ****    *              object.
1275:/usr/include/c++/10/bits/random.h ****    *
1276:/usr/include/c++/10/bits/random.h ****    * @returns true if the infinite sequences of generated values
1277:/usr/include/c++/10/bits/random.h ****    *          would be different, false otherwise.
1278:/usr/include/c++/10/bits/random.h ****    */
1279:/usr/include/c++/10/bits/random.h ****   template<typename _RandomNumberEngine, size_t __w, typename _UIntType>
1280:/usr/include/c++/10/bits/random.h ****     inline bool
1281:/usr/include/c++/10/bits/random.h ****     operator!=(const std::independent_bits_engine<_RandomNumberEngine, __w,
1282:/usr/include/c++/10/bits/random.h **** 	       _UIntType>& __lhs,
1283:/usr/include/c++/10/bits/random.h **** 	       const std::independent_bits_engine<_RandomNumberEngine, __w,
1284:/usr/include/c++/10/bits/random.h **** 	       _UIntType>& __rhs)
1285:/usr/include/c++/10/bits/random.h ****     { return !(__lhs == __rhs); }
1286:/usr/include/c++/10/bits/random.h **** 
1287:/usr/include/c++/10/bits/random.h ****   /**
1288:/usr/include/c++/10/bits/random.h ****    * @brief Inserts the current state of a %independent_bits_engine random
1289:/usr/include/c++/10/bits/random.h ****    *        number generator engine @p __x into the output stream @p __os.
1290:/usr/include/c++/10/bits/random.h ****    *
1291:/usr/include/c++/10/bits/random.h ****    * @param __os An output stream.
1292:/usr/include/c++/10/bits/random.h ****    * @param __x  A %independent_bits_engine random number generator engine.
1293:/usr/include/c++/10/bits/random.h ****    *
1294:/usr/include/c++/10/bits/random.h ****    * @returns The output stream with the state of @p __x inserted or in
1295:/usr/include/c++/10/bits/random.h ****    *          an error state.
1296:/usr/include/c++/10/bits/random.h ****    */
1297:/usr/include/c++/10/bits/random.h ****   template<typename _RandomNumberEngine, size_t __w, typename _UIntType,
1298:/usr/include/c++/10/bits/random.h **** 	   typename _CharT, typename _Traits>
1299:/usr/include/c++/10/bits/random.h ****     std::basic_ostream<_CharT, _Traits>&
1300:/usr/include/c++/10/bits/random.h ****     operator<<(std::basic_ostream<_CharT, _Traits>& __os,
1301:/usr/include/c++/10/bits/random.h **** 	       const std::independent_bits_engine<_RandomNumberEngine,
1302:/usr/include/c++/10/bits/random.h **** 	       __w, _UIntType>& __x)
1303:/usr/include/c++/10/bits/random.h ****     {
1304:/usr/include/c++/10/bits/random.h ****       __os << __x.base();
1305:/usr/include/c++/10/bits/random.h ****       return __os;
1306:/usr/include/c++/10/bits/random.h ****     }
1307:/usr/include/c++/10/bits/random.h **** 
1308:/usr/include/c++/10/bits/random.h **** 
1309:/usr/include/c++/10/bits/random.h ****   /**
1310:/usr/include/c++/10/bits/random.h ****    * @brief Produces random numbers by combining random numbers from some
1311:/usr/include/c++/10/bits/random.h ****    * base engine to produce random numbers with a specifies number of bits
1312:/usr/include/c++/10/bits/random.h ****    * @p __k.
1313:/usr/include/c++/10/bits/random.h ****    */
1314:/usr/include/c++/10/bits/random.h ****   template<typename _RandomNumberEngine, size_t __k>
1315:/usr/include/c++/10/bits/random.h ****     class shuffle_order_engine
1316:/usr/include/c++/10/bits/random.h ****     {
1317:/usr/include/c++/10/bits/random.h ****       static_assert(1u <= __k, "template argument substituting "
1318:/usr/include/c++/10/bits/random.h **** 		    "__k out of bound");
1319:/usr/include/c++/10/bits/random.h **** 
1320:/usr/include/c++/10/bits/random.h ****     public:
1321:/usr/include/c++/10/bits/random.h ****       /** The type of the generated random value. */
1322:/usr/include/c++/10/bits/random.h ****       typedef typename _RandomNumberEngine::result_type result_type;
1323:/usr/include/c++/10/bits/random.h **** 
1324:/usr/include/c++/10/bits/random.h ****       template<typename _Sseq>
1325:/usr/include/c++/10/bits/random.h **** 	using _If_seed_seq = typename enable_if<__detail::__is_seed_seq<
1326:/usr/include/c++/10/bits/random.h **** 	  _Sseq, shuffle_order_engine, result_type>::value>::type;
AARCH64 GAS  obj/Chapter15_4.s 			page 45


1327:/usr/include/c++/10/bits/random.h **** 
1328:/usr/include/c++/10/bits/random.h ****       static constexpr size_t table_size = __k;
1329:/usr/include/c++/10/bits/random.h **** 
1330:/usr/include/c++/10/bits/random.h ****       /**
1331:/usr/include/c++/10/bits/random.h ****        * @brief Constructs a default %shuffle_order_engine engine.
1332:/usr/include/c++/10/bits/random.h ****        *
1333:/usr/include/c++/10/bits/random.h ****        * The underlying engine is default constructed as well.
1334:/usr/include/c++/10/bits/random.h ****        */
1335:/usr/include/c++/10/bits/random.h ****       shuffle_order_engine()
1336:/usr/include/c++/10/bits/random.h ****       : _M_b()
1337:/usr/include/c++/10/bits/random.h ****       { _M_initialize(); }
1338:/usr/include/c++/10/bits/random.h **** 
1339:/usr/include/c++/10/bits/random.h ****       /**
1340:/usr/include/c++/10/bits/random.h ****        * @brief Copy constructs a %shuffle_order_engine engine.
1341:/usr/include/c++/10/bits/random.h ****        *
1342:/usr/include/c++/10/bits/random.h ****        * Copies an existing base class random number generator.
1343:/usr/include/c++/10/bits/random.h ****        * @param __rng An existing (base class) engine object.
1344:/usr/include/c++/10/bits/random.h ****        */
1345:/usr/include/c++/10/bits/random.h ****       explicit
1346:/usr/include/c++/10/bits/random.h ****       shuffle_order_engine(const _RandomNumberEngine& __rng)
1347:/usr/include/c++/10/bits/random.h ****       : _M_b(__rng)
1348:/usr/include/c++/10/bits/random.h ****       { _M_initialize(); }
1349:/usr/include/c++/10/bits/random.h **** 
1350:/usr/include/c++/10/bits/random.h ****       /**
1351:/usr/include/c++/10/bits/random.h ****        * @brief Move constructs a %shuffle_order_engine engine.
1352:/usr/include/c++/10/bits/random.h ****        *
1353:/usr/include/c++/10/bits/random.h ****        * Copies an existing base class random number generator.
1354:/usr/include/c++/10/bits/random.h ****        * @param __rng An existing (base class) engine object.
1355:/usr/include/c++/10/bits/random.h ****        */
1356:/usr/include/c++/10/bits/random.h ****       explicit
1357:/usr/include/c++/10/bits/random.h ****       shuffle_order_engine(_RandomNumberEngine&& __rng)
1358:/usr/include/c++/10/bits/random.h ****       : _M_b(std::move(__rng))
1359:/usr/include/c++/10/bits/random.h ****       { _M_initialize(); }
1360:/usr/include/c++/10/bits/random.h **** 
1361:/usr/include/c++/10/bits/random.h ****       /**
1362:/usr/include/c++/10/bits/random.h ****        * @brief Seed constructs a %shuffle_order_engine engine.
1363:/usr/include/c++/10/bits/random.h ****        *
1364:/usr/include/c++/10/bits/random.h ****        * Constructs the underlying generator engine seeded with @p __s.
1365:/usr/include/c++/10/bits/random.h ****        * @param __s A seed value for the base class engine.
1366:/usr/include/c++/10/bits/random.h ****        */
1367:/usr/include/c++/10/bits/random.h ****       explicit
1368:/usr/include/c++/10/bits/random.h ****       shuffle_order_engine(result_type __s)
1369:/usr/include/c++/10/bits/random.h ****       : _M_b(__s)
1370:/usr/include/c++/10/bits/random.h ****       { _M_initialize(); }
1371:/usr/include/c++/10/bits/random.h **** 
1372:/usr/include/c++/10/bits/random.h ****       /**
1373:/usr/include/c++/10/bits/random.h ****        * @brief Generator construct a %shuffle_order_engine engine.
1374:/usr/include/c++/10/bits/random.h ****        *
1375:/usr/include/c++/10/bits/random.h ****        * @param __q A seed sequence.
1376:/usr/include/c++/10/bits/random.h ****        */
1377:/usr/include/c++/10/bits/random.h ****       template<typename _Sseq, typename = _If_seed_seq<_Sseq>>
1378:/usr/include/c++/10/bits/random.h ****         explicit
1379:/usr/include/c++/10/bits/random.h ****         shuffle_order_engine(_Sseq& __q)
1380:/usr/include/c++/10/bits/random.h ****         : _M_b(__q)
1381:/usr/include/c++/10/bits/random.h ****         { _M_initialize(); }
1382:/usr/include/c++/10/bits/random.h **** 
1383:/usr/include/c++/10/bits/random.h ****       /**
AARCH64 GAS  obj/Chapter15_4.s 			page 46


1384:/usr/include/c++/10/bits/random.h ****        * @brief Reseeds the %shuffle_order_engine object with the default seed
1385:/usr/include/c++/10/bits/random.h ****                 for the underlying base class generator engine.
1386:/usr/include/c++/10/bits/random.h ****        */
1387:/usr/include/c++/10/bits/random.h ****       void
1388:/usr/include/c++/10/bits/random.h ****       seed()
1389:/usr/include/c++/10/bits/random.h ****       {
1390:/usr/include/c++/10/bits/random.h **** 	_M_b.seed();
1391:/usr/include/c++/10/bits/random.h **** 	_M_initialize();
1392:/usr/include/c++/10/bits/random.h ****       }
1393:/usr/include/c++/10/bits/random.h **** 
1394:/usr/include/c++/10/bits/random.h ****       /**
1395:/usr/include/c++/10/bits/random.h ****        * @brief Reseeds the %shuffle_order_engine object with the default seed
1396:/usr/include/c++/10/bits/random.h ****        *        for the underlying base class generator engine.
1397:/usr/include/c++/10/bits/random.h ****        */
1398:/usr/include/c++/10/bits/random.h ****       void
1399:/usr/include/c++/10/bits/random.h ****       seed(result_type __s)
1400:/usr/include/c++/10/bits/random.h ****       {
1401:/usr/include/c++/10/bits/random.h **** 	_M_b.seed(__s);
1402:/usr/include/c++/10/bits/random.h **** 	_M_initialize();
1403:/usr/include/c++/10/bits/random.h ****       }
1404:/usr/include/c++/10/bits/random.h **** 
1405:/usr/include/c++/10/bits/random.h ****       /**
1406:/usr/include/c++/10/bits/random.h ****        * @brief Reseeds the %shuffle_order_engine object with the given seed
1407:/usr/include/c++/10/bits/random.h ****        *        sequence.
1408:/usr/include/c++/10/bits/random.h ****        * @param __q A seed generator function.
1409:/usr/include/c++/10/bits/random.h ****        */
1410:/usr/include/c++/10/bits/random.h ****       template<typename _Sseq>
1411:/usr/include/c++/10/bits/random.h ****         _If_seed_seq<_Sseq>
1412:/usr/include/c++/10/bits/random.h ****         seed(_Sseq& __q)
1413:/usr/include/c++/10/bits/random.h ****         {
1414:/usr/include/c++/10/bits/random.h **** 	  _M_b.seed(__q);
1415:/usr/include/c++/10/bits/random.h **** 	  _M_initialize();
1416:/usr/include/c++/10/bits/random.h **** 	}
1417:/usr/include/c++/10/bits/random.h **** 
1418:/usr/include/c++/10/bits/random.h ****       /**
1419:/usr/include/c++/10/bits/random.h ****        * Gets a const reference to the underlying generator engine object.
1420:/usr/include/c++/10/bits/random.h ****        */
1421:/usr/include/c++/10/bits/random.h ****       const _RandomNumberEngine&
1422:/usr/include/c++/10/bits/random.h ****       base() const noexcept
1423:/usr/include/c++/10/bits/random.h ****       { return _M_b; }
1424:/usr/include/c++/10/bits/random.h **** 
1425:/usr/include/c++/10/bits/random.h ****       /**
1426:/usr/include/c++/10/bits/random.h ****        * Gets the minimum value in the generated random number range.
1427:/usr/include/c++/10/bits/random.h ****        */
1428:/usr/include/c++/10/bits/random.h ****       static constexpr result_type
1429:/usr/include/c++/10/bits/random.h ****       min()
1430:/usr/include/c++/10/bits/random.h ****       { return _RandomNumberEngine::min(); }
1431:/usr/include/c++/10/bits/random.h **** 
1432:/usr/include/c++/10/bits/random.h ****       /**
1433:/usr/include/c++/10/bits/random.h ****        * Gets the maximum value in the generated random number range.
1434:/usr/include/c++/10/bits/random.h ****        */
1435:/usr/include/c++/10/bits/random.h ****       static constexpr result_type
1436:/usr/include/c++/10/bits/random.h ****       max()
1437:/usr/include/c++/10/bits/random.h ****       { return _RandomNumberEngine::max(); }
1438:/usr/include/c++/10/bits/random.h **** 
1439:/usr/include/c++/10/bits/random.h ****       /**
1440:/usr/include/c++/10/bits/random.h ****        * Discard a sequence of random numbers.
AARCH64 GAS  obj/Chapter15_4.s 			page 47


1441:/usr/include/c++/10/bits/random.h ****        */
1442:/usr/include/c++/10/bits/random.h ****       void
1443:/usr/include/c++/10/bits/random.h ****       discard(unsigned long long __z)
1444:/usr/include/c++/10/bits/random.h ****       {
1445:/usr/include/c++/10/bits/random.h **** 	for (; __z != 0ULL; --__z)
1446:/usr/include/c++/10/bits/random.h **** 	  (*this)();
1447:/usr/include/c++/10/bits/random.h ****       }
1448:/usr/include/c++/10/bits/random.h **** 
1449:/usr/include/c++/10/bits/random.h ****       /**
1450:/usr/include/c++/10/bits/random.h ****        * Gets the next value in the generated random number sequence.
1451:/usr/include/c++/10/bits/random.h ****        */
1452:/usr/include/c++/10/bits/random.h ****       result_type
1453:/usr/include/c++/10/bits/random.h ****       operator()();
1454:/usr/include/c++/10/bits/random.h **** 
1455:/usr/include/c++/10/bits/random.h ****       /**
1456:/usr/include/c++/10/bits/random.h ****        * Compares two %shuffle_order_engine random number generator objects
1457:/usr/include/c++/10/bits/random.h ****        * of the same type for equality.
1458:/usr/include/c++/10/bits/random.h ****        *
1459:/usr/include/c++/10/bits/random.h ****        * @param __lhs A %shuffle_order_engine random number generator object.
1460:/usr/include/c++/10/bits/random.h ****        * @param __rhs Another %shuffle_order_engine random number generator
1461:/usr/include/c++/10/bits/random.h ****        *              object.
1462:/usr/include/c++/10/bits/random.h ****        *
1463:/usr/include/c++/10/bits/random.h ****        * @returns true if the infinite sequences of generated values
1464:/usr/include/c++/10/bits/random.h ****        *          would be equal, false otherwise.
1465:/usr/include/c++/10/bits/random.h ****       */
1466:/usr/include/c++/10/bits/random.h ****       friend bool
1467:/usr/include/c++/10/bits/random.h ****       operator==(const shuffle_order_engine& __lhs,
1468:/usr/include/c++/10/bits/random.h **** 		 const shuffle_order_engine& __rhs)
1469:/usr/include/c++/10/bits/random.h ****       { return (__lhs._M_b == __rhs._M_b
1470:/usr/include/c++/10/bits/random.h **** 		&& std::equal(__lhs._M_v, __lhs._M_v + __k, __rhs._M_v)
1471:/usr/include/c++/10/bits/random.h **** 		&& __lhs._M_y == __rhs._M_y); }
1472:/usr/include/c++/10/bits/random.h **** 
1473:/usr/include/c++/10/bits/random.h ****       /**
1474:/usr/include/c++/10/bits/random.h ****        * @brief Inserts the current state of a %shuffle_order_engine random
1475:/usr/include/c++/10/bits/random.h ****        *        number generator engine @p __x into the output stream
1476:/usr/include/c++/10/bits/random.h **** 	@p __os.
1477:/usr/include/c++/10/bits/random.h ****        *
1478:/usr/include/c++/10/bits/random.h ****        * @param __os An output stream.
1479:/usr/include/c++/10/bits/random.h ****        * @param __x  A %shuffle_order_engine random number generator engine.
1480:/usr/include/c++/10/bits/random.h ****        *
1481:/usr/include/c++/10/bits/random.h ****        * @returns The output stream with the state of @p __x inserted or in
1482:/usr/include/c++/10/bits/random.h ****        * an error state.
1483:/usr/include/c++/10/bits/random.h ****        */
1484:/usr/include/c++/10/bits/random.h ****       template<typename _RandomNumberEngine1, size_t __k1,
1485:/usr/include/c++/10/bits/random.h **** 	       typename _CharT, typename _Traits>
1486:/usr/include/c++/10/bits/random.h **** 	friend std::basic_ostream<_CharT, _Traits>&
1487:/usr/include/c++/10/bits/random.h **** 	operator<<(std::basic_ostream<_CharT, _Traits>& __os,
1488:/usr/include/c++/10/bits/random.h **** 		   const std::shuffle_order_engine<_RandomNumberEngine1,
1489:/usr/include/c++/10/bits/random.h **** 		   __k1>& __x);
1490:/usr/include/c++/10/bits/random.h **** 
1491:/usr/include/c++/10/bits/random.h ****       /**
1492:/usr/include/c++/10/bits/random.h ****        * @brief Extracts the current state of a % subtract_with_carry_engine
1493:/usr/include/c++/10/bits/random.h ****        *        random number generator engine @p __x from the input stream
1494:/usr/include/c++/10/bits/random.h ****        *        @p __is.
1495:/usr/include/c++/10/bits/random.h ****        *
1496:/usr/include/c++/10/bits/random.h ****        * @param __is An input stream.
1497:/usr/include/c++/10/bits/random.h ****        * @param __x  A %shuffle_order_engine random number generator engine.
AARCH64 GAS  obj/Chapter15_4.s 			page 48


1498:/usr/include/c++/10/bits/random.h ****        *
1499:/usr/include/c++/10/bits/random.h ****        * @returns The input stream with the state of @p __x extracted or in
1500:/usr/include/c++/10/bits/random.h ****        * an error state.
1501:/usr/include/c++/10/bits/random.h ****        */
1502:/usr/include/c++/10/bits/random.h ****       template<typename _RandomNumberEngine1, size_t __k1,
1503:/usr/include/c++/10/bits/random.h **** 	       typename _CharT, typename _Traits>
1504:/usr/include/c++/10/bits/random.h **** 	friend std::basic_istream<_CharT, _Traits>&
1505:/usr/include/c++/10/bits/random.h **** 	operator>>(std::basic_istream<_CharT, _Traits>& __is,
1506:/usr/include/c++/10/bits/random.h **** 		   std::shuffle_order_engine<_RandomNumberEngine1, __k1>& __x);
1507:/usr/include/c++/10/bits/random.h **** 
1508:/usr/include/c++/10/bits/random.h ****     private:
1509:/usr/include/c++/10/bits/random.h ****       void _M_initialize()
1510:/usr/include/c++/10/bits/random.h ****       {
1511:/usr/include/c++/10/bits/random.h **** 	for (size_t __i = 0; __i < __k; ++__i)
1512:/usr/include/c++/10/bits/random.h **** 	  _M_v[__i] = _M_b();
1513:/usr/include/c++/10/bits/random.h **** 	_M_y = _M_b();
1514:/usr/include/c++/10/bits/random.h ****       }
1515:/usr/include/c++/10/bits/random.h **** 
1516:/usr/include/c++/10/bits/random.h ****       _RandomNumberEngine _M_b;
1517:/usr/include/c++/10/bits/random.h ****       result_type _M_v[__k];
1518:/usr/include/c++/10/bits/random.h ****       result_type _M_y;
1519:/usr/include/c++/10/bits/random.h ****     };
1520:/usr/include/c++/10/bits/random.h **** 
1521:/usr/include/c++/10/bits/random.h ****   /**
1522:/usr/include/c++/10/bits/random.h ****    * Compares two %shuffle_order_engine random number generator objects
1523:/usr/include/c++/10/bits/random.h ****    * of the same type for inequality.
1524:/usr/include/c++/10/bits/random.h ****    *
1525:/usr/include/c++/10/bits/random.h ****    * @param __lhs A %shuffle_order_engine random number generator object.
1526:/usr/include/c++/10/bits/random.h ****    * @param __rhs Another %shuffle_order_engine random number generator
1527:/usr/include/c++/10/bits/random.h ****    *              object.
1528:/usr/include/c++/10/bits/random.h ****    *
1529:/usr/include/c++/10/bits/random.h ****    * @returns true if the infinite sequences of generated values
1530:/usr/include/c++/10/bits/random.h ****    *          would be different, false otherwise.
1531:/usr/include/c++/10/bits/random.h ****    */
1532:/usr/include/c++/10/bits/random.h ****   template<typename _RandomNumberEngine, size_t __k>
1533:/usr/include/c++/10/bits/random.h ****     inline bool
1534:/usr/include/c++/10/bits/random.h ****     operator!=(const std::shuffle_order_engine<_RandomNumberEngine,
1535:/usr/include/c++/10/bits/random.h **** 	       __k>& __lhs,
1536:/usr/include/c++/10/bits/random.h **** 	       const std::shuffle_order_engine<_RandomNumberEngine,
1537:/usr/include/c++/10/bits/random.h **** 	       __k>& __rhs)
1538:/usr/include/c++/10/bits/random.h ****     { return !(__lhs == __rhs); }
1539:/usr/include/c++/10/bits/random.h **** 
1540:/usr/include/c++/10/bits/random.h **** 
1541:/usr/include/c++/10/bits/random.h ****   /**
1542:/usr/include/c++/10/bits/random.h ****    * The classic Minimum Standard rand0 of Lewis, Goodman, and Miller.
1543:/usr/include/c++/10/bits/random.h ****    */
1544:/usr/include/c++/10/bits/random.h ****   typedef linear_congruential_engine<uint_fast32_t, 16807UL, 0UL, 2147483647UL>
1545:/usr/include/c++/10/bits/random.h ****   minstd_rand0;
1546:/usr/include/c++/10/bits/random.h **** 
1547:/usr/include/c++/10/bits/random.h ****   /**
1548:/usr/include/c++/10/bits/random.h ****    * An alternative LCR (Lehmer Generator function).
1549:/usr/include/c++/10/bits/random.h ****    */
1550:/usr/include/c++/10/bits/random.h ****   typedef linear_congruential_engine<uint_fast32_t, 48271UL, 0UL, 2147483647UL>
1551:/usr/include/c++/10/bits/random.h ****   minstd_rand;
1552:/usr/include/c++/10/bits/random.h **** 
1553:/usr/include/c++/10/bits/random.h ****   /**
1554:/usr/include/c++/10/bits/random.h ****    * The classic Mersenne Twister.
AARCH64 GAS  obj/Chapter15_4.s 			page 49


1555:/usr/include/c++/10/bits/random.h ****    *
1556:/usr/include/c++/10/bits/random.h ****    * Reference:
1557:/usr/include/c++/10/bits/random.h ****    * M. Matsumoto and T. Nishimura, Mersenne Twister: A 623-Dimensionally
1558:/usr/include/c++/10/bits/random.h ****    * Equidistributed Uniform Pseudo-Random Number Generator, ACM Transactions
1559:/usr/include/c++/10/bits/random.h ****    * on Modeling and Computer Simulation, Vol. 8, No. 1, January 1998, pp 3-30.
1560:/usr/include/c++/10/bits/random.h ****    */
1561:/usr/include/c++/10/bits/random.h ****   typedef mersenne_twister_engine<
1562:/usr/include/c++/10/bits/random.h ****     uint_fast32_t,
1563:/usr/include/c++/10/bits/random.h ****     32, 624, 397, 31,
1564:/usr/include/c++/10/bits/random.h ****     0x9908b0dfUL, 11,
1565:/usr/include/c++/10/bits/random.h ****     0xffffffffUL, 7,
1566:/usr/include/c++/10/bits/random.h ****     0x9d2c5680UL, 15,
1567:/usr/include/c++/10/bits/random.h ****     0xefc60000UL, 18, 1812433253UL> mt19937;
1568:/usr/include/c++/10/bits/random.h **** 
1569:/usr/include/c++/10/bits/random.h ****   /**
1570:/usr/include/c++/10/bits/random.h ****    * An alternative Mersenne Twister.
1571:/usr/include/c++/10/bits/random.h ****    */
1572:/usr/include/c++/10/bits/random.h ****   typedef mersenne_twister_engine<
1573:/usr/include/c++/10/bits/random.h ****     uint_fast64_t,
1574:/usr/include/c++/10/bits/random.h ****     64, 312, 156, 31,
1575:/usr/include/c++/10/bits/random.h ****     0xb5026f5aa96619e9ULL, 29,
1576:/usr/include/c++/10/bits/random.h ****     0x5555555555555555ULL, 17,
1577:/usr/include/c++/10/bits/random.h ****     0x71d67fffeda60000ULL, 37,
1578:/usr/include/c++/10/bits/random.h ****     0xfff7eee000000000ULL, 43,
1579:/usr/include/c++/10/bits/random.h ****     6364136223846793005ULL> mt19937_64;
1580:/usr/include/c++/10/bits/random.h **** 
1581:/usr/include/c++/10/bits/random.h ****   typedef subtract_with_carry_engine<uint_fast32_t, 24, 10, 24>
1582:/usr/include/c++/10/bits/random.h ****     ranlux24_base;
1583:/usr/include/c++/10/bits/random.h **** 
1584:/usr/include/c++/10/bits/random.h ****   typedef subtract_with_carry_engine<uint_fast64_t, 48, 5, 12>
1585:/usr/include/c++/10/bits/random.h ****     ranlux48_base;
1586:/usr/include/c++/10/bits/random.h **** 
1587:/usr/include/c++/10/bits/random.h ****   typedef discard_block_engine<ranlux24_base, 223, 23> ranlux24;
1588:/usr/include/c++/10/bits/random.h **** 
1589:/usr/include/c++/10/bits/random.h ****   typedef discard_block_engine<ranlux48_base, 389, 11> ranlux48;
1590:/usr/include/c++/10/bits/random.h **** 
1591:/usr/include/c++/10/bits/random.h ****   typedef shuffle_order_engine<minstd_rand0, 256> knuth_b;
1592:/usr/include/c++/10/bits/random.h **** 
1593:/usr/include/c++/10/bits/random.h ****   typedef minstd_rand0 default_random_engine;
1594:/usr/include/c++/10/bits/random.h **** 
1595:/usr/include/c++/10/bits/random.h ****   /**
1596:/usr/include/c++/10/bits/random.h ****    * A standard interface to a platform-specific non-deterministic
1597:/usr/include/c++/10/bits/random.h ****    * random number generator (if any are available).
1598:/usr/include/c++/10/bits/random.h ****    */
1599:/usr/include/c++/10/bits/random.h ****   class random_device
1600:/usr/include/c++/10/bits/random.h ****   {
1601:/usr/include/c++/10/bits/random.h ****   public:
1602:/usr/include/c++/10/bits/random.h ****     /** The type of the generated random value. */
1603:/usr/include/c++/10/bits/random.h ****     typedef unsigned int result_type;
1604:/usr/include/c++/10/bits/random.h **** 
1605:/usr/include/c++/10/bits/random.h ****     // constructors, destructors and member functions
1606:/usr/include/c++/10/bits/random.h **** 
1607:/usr/include/c++/10/bits/random.h ****     random_device() { _M_init("default"); }
1608:/usr/include/c++/10/bits/random.h **** 
1609:/usr/include/c++/10/bits/random.h ****     explicit
1610:/usr/include/c++/10/bits/random.h ****     random_device(const std::string& __token) { _M_init(__token); }
1611:/usr/include/c++/10/bits/random.h **** 
AARCH64 GAS  obj/Chapter15_4.s 			page 50


1612:/usr/include/c++/10/bits/random.h **** #if defined _GLIBCXX_USE_DEV_RANDOM
1613:/usr/include/c++/10/bits/random.h ****     ~random_device()
1614:/usr/include/c++/10/bits/random.h ****     { _M_fini(); }
1615:/usr/include/c++/10/bits/random.h **** #endif
1616:/usr/include/c++/10/bits/random.h **** 
1617:/usr/include/c++/10/bits/random.h ****     static constexpr result_type
1618:/usr/include/c++/10/bits/random.h ****     min()
1619:/usr/include/c++/10/bits/random.h ****     { return std::numeric_limits<result_type>::min(); }
1620:/usr/include/c++/10/bits/random.h **** 
1621:/usr/include/c++/10/bits/random.h ****     static constexpr result_type
1622:/usr/include/c++/10/bits/random.h ****     max()
1623:/usr/include/c++/10/bits/random.h ****     { return std::numeric_limits<result_type>::max(); }
1624:/usr/include/c++/10/bits/random.h **** 
1625:/usr/include/c++/10/bits/random.h ****     double
1626:/usr/include/c++/10/bits/random.h ****     entropy() const noexcept
1627:/usr/include/c++/10/bits/random.h ****     {
1628:/usr/include/c++/10/bits/random.h **** #ifdef _GLIBCXX_USE_DEV_RANDOM
1629:/usr/include/c++/10/bits/random.h ****       return this->_M_getentropy();
1630:/usr/include/c++/10/bits/random.h **** #else
1631:/usr/include/c++/10/bits/random.h ****       return 0.0;
1632:/usr/include/c++/10/bits/random.h **** #endif
1633:/usr/include/c++/10/bits/random.h ****     }
1634:/usr/include/c++/10/bits/random.h **** 
1635:/usr/include/c++/10/bits/random.h ****     result_type
1636:/usr/include/c++/10/bits/random.h ****     operator()()
1637:/usr/include/c++/10/bits/random.h ****     { return this->_M_getval(); }
1638:/usr/include/c++/10/bits/random.h **** 
1639:/usr/include/c++/10/bits/random.h ****     // No copy functions.
1640:/usr/include/c++/10/bits/random.h ****     random_device(const random_device&) = delete;
1641:/usr/include/c++/10/bits/random.h ****     void operator=(const random_device&) = delete;
1642:/usr/include/c++/10/bits/random.h **** 
1643:/usr/include/c++/10/bits/random.h ****   private:
1644:/usr/include/c++/10/bits/random.h **** 
1645:/usr/include/c++/10/bits/random.h ****     void _M_init(const std::string& __token);
1646:/usr/include/c++/10/bits/random.h ****     void _M_init_pretr1(const std::string& __token);
1647:/usr/include/c++/10/bits/random.h ****     void _M_fini();
1648:/usr/include/c++/10/bits/random.h **** 
1649:/usr/include/c++/10/bits/random.h ****     result_type _M_getval();
1650:/usr/include/c++/10/bits/random.h ****     result_type _M_getval_pretr1();
1651:/usr/include/c++/10/bits/random.h ****     double _M_getentropy() const noexcept;
1652:/usr/include/c++/10/bits/random.h **** 
1653:/usr/include/c++/10/bits/random.h ****     void _M_init(const char*, size_t); // not exported from the shared library
1654:/usr/include/c++/10/bits/random.h **** 
1655:/usr/include/c++/10/bits/random.h ****     union
1656:/usr/include/c++/10/bits/random.h ****     {
1657:/usr/include/c++/10/bits/random.h ****       struct
1658:/usr/include/c++/10/bits/random.h ****       {
1659:/usr/include/c++/10/bits/random.h **** 	void*      _M_file;
1660:/usr/include/c++/10/bits/random.h **** 	result_type (*_M_func)(void*);
1661:/usr/include/c++/10/bits/random.h **** 	int _M_fd;
1662:/usr/include/c++/10/bits/random.h ****       };
1663:/usr/include/c++/10/bits/random.h ****       mt19937    _M_mt;
1664:/usr/include/c++/10/bits/random.h ****     };
1665:/usr/include/c++/10/bits/random.h ****   };
1666:/usr/include/c++/10/bits/random.h **** 
1667:/usr/include/c++/10/bits/random.h ****   /* @} */ // group random_generators
1668:/usr/include/c++/10/bits/random.h **** 
AARCH64 GAS  obj/Chapter15_4.s 			page 51


1669:/usr/include/c++/10/bits/random.h ****   /**
1670:/usr/include/c++/10/bits/random.h ****    * @addtogroup random_distributions Random Number Distributions
1671:/usr/include/c++/10/bits/random.h ****    * @ingroup random
1672:/usr/include/c++/10/bits/random.h ****    * @{
1673:/usr/include/c++/10/bits/random.h ****    */
1674:/usr/include/c++/10/bits/random.h **** 
1675:/usr/include/c++/10/bits/random.h ****   /**
1676:/usr/include/c++/10/bits/random.h ****    * @addtogroup random_distributions_uniform Uniform Distributions
1677:/usr/include/c++/10/bits/random.h ****    * @ingroup random_distributions
1678:/usr/include/c++/10/bits/random.h ****    * @{
1679:/usr/include/c++/10/bits/random.h ****    */
1680:/usr/include/c++/10/bits/random.h **** 
1681:/usr/include/c++/10/bits/random.h ****   // std::uniform_int_distribution is defined in <bits/uniform_int_dist.h>
1682:/usr/include/c++/10/bits/random.h **** 
1683:/usr/include/c++/10/bits/random.h ****   /**
1684:/usr/include/c++/10/bits/random.h ****    * @brief Return true if two uniform integer distributions have
1685:/usr/include/c++/10/bits/random.h ****    *        different parameters.
1686:/usr/include/c++/10/bits/random.h ****    */
1687:/usr/include/c++/10/bits/random.h ****   template<typename _IntType>
1688:/usr/include/c++/10/bits/random.h ****     inline bool
1689:/usr/include/c++/10/bits/random.h ****     operator!=(const std::uniform_int_distribution<_IntType>& __d1,
1690:/usr/include/c++/10/bits/random.h **** 	       const std::uniform_int_distribution<_IntType>& __d2)
1691:/usr/include/c++/10/bits/random.h ****     { return !(__d1 == __d2); }
1692:/usr/include/c++/10/bits/random.h **** 
1693:/usr/include/c++/10/bits/random.h ****   /**
1694:/usr/include/c++/10/bits/random.h ****    * @brief Inserts a %uniform_int_distribution random number
1695:/usr/include/c++/10/bits/random.h ****    *        distribution @p __x into the output stream @p os.
1696:/usr/include/c++/10/bits/random.h ****    *
1697:/usr/include/c++/10/bits/random.h ****    * @param __os An output stream.
1698:/usr/include/c++/10/bits/random.h ****    * @param __x  A %uniform_int_distribution random number distribution.
1699:/usr/include/c++/10/bits/random.h ****    *
1700:/usr/include/c++/10/bits/random.h ****    * @returns The output stream with the state of @p __x inserted or in
1701:/usr/include/c++/10/bits/random.h ****    * an error state.
1702:/usr/include/c++/10/bits/random.h ****    */
1703:/usr/include/c++/10/bits/random.h ****   template<typename _IntType, typename _CharT, typename _Traits>
1704:/usr/include/c++/10/bits/random.h ****     std::basic_ostream<_CharT, _Traits>&
1705:/usr/include/c++/10/bits/random.h ****     operator<<(std::basic_ostream<_CharT, _Traits>&,
1706:/usr/include/c++/10/bits/random.h **** 	       const std::uniform_int_distribution<_IntType>&);
1707:/usr/include/c++/10/bits/random.h **** 
1708:/usr/include/c++/10/bits/random.h ****   /**
1709:/usr/include/c++/10/bits/random.h ****    * @brief Extracts a %uniform_int_distribution random number distribution
1710:/usr/include/c++/10/bits/random.h ****    * @p __x from the input stream @p __is.
1711:/usr/include/c++/10/bits/random.h ****    *
1712:/usr/include/c++/10/bits/random.h ****    * @param __is An input stream.
1713:/usr/include/c++/10/bits/random.h ****    * @param __x  A %uniform_int_distribution random number generator engine.
1714:/usr/include/c++/10/bits/random.h ****    *
1715:/usr/include/c++/10/bits/random.h ****    * @returns The input stream with @p __x extracted or in an error state.
1716:/usr/include/c++/10/bits/random.h ****    */
1717:/usr/include/c++/10/bits/random.h ****   template<typename _IntType, typename _CharT, typename _Traits>
1718:/usr/include/c++/10/bits/random.h ****     std::basic_istream<_CharT, _Traits>&
1719:/usr/include/c++/10/bits/random.h ****     operator>>(std::basic_istream<_CharT, _Traits>&,
1720:/usr/include/c++/10/bits/random.h **** 	       std::uniform_int_distribution<_IntType>&);
1721:/usr/include/c++/10/bits/random.h **** 
1722:/usr/include/c++/10/bits/random.h **** 
1723:/usr/include/c++/10/bits/random.h ****   /**
1724:/usr/include/c++/10/bits/random.h ****    * @brief Uniform continuous distribution for random numbers.
1725:/usr/include/c++/10/bits/random.h ****    *
AARCH64 GAS  obj/Chapter15_4.s 			page 52


1726:/usr/include/c++/10/bits/random.h ****    * A continuous random distribution on the range [min, max) with equal
1727:/usr/include/c++/10/bits/random.h ****    * probability throughout the range.  The URNG should be real-valued and
1728:/usr/include/c++/10/bits/random.h ****    * deliver number in the range [0, 1).
1729:/usr/include/c++/10/bits/random.h ****    */
1730:/usr/include/c++/10/bits/random.h ****   template<typename _RealType = double>
1731:/usr/include/c++/10/bits/random.h ****     class uniform_real_distribution
1732:/usr/include/c++/10/bits/random.h ****     {
1733:/usr/include/c++/10/bits/random.h ****       static_assert(std::is_floating_point<_RealType>::value,
1734:/usr/include/c++/10/bits/random.h **** 		    "result_type must be a floating point type");
1735:/usr/include/c++/10/bits/random.h **** 
1736:/usr/include/c++/10/bits/random.h ****     public:
1737:/usr/include/c++/10/bits/random.h ****       /** The type of the range of the distribution. */
1738:/usr/include/c++/10/bits/random.h ****       typedef _RealType result_type;
1739:/usr/include/c++/10/bits/random.h **** 
1740:/usr/include/c++/10/bits/random.h ****       /** Parameter type. */
1741:/usr/include/c++/10/bits/random.h ****       struct param_type
1742:/usr/include/c++/10/bits/random.h ****       {
1743:/usr/include/c++/10/bits/random.h **** 	typedef uniform_real_distribution<_RealType> distribution_type;
1744:/usr/include/c++/10/bits/random.h **** 
1745:/usr/include/c++/10/bits/random.h **** 	param_type() : param_type(0) { }
1746:/usr/include/c++/10/bits/random.h **** 
1747:/usr/include/c++/10/bits/random.h **** 	explicit
1748:/usr/include/c++/10/bits/random.h **** 	param_type(_RealType __a, _RealType __b = _RealType(1))
1749:/usr/include/c++/10/bits/random.h **** 	: _M_a(__a), _M_b(__b)
1750:/usr/include/c++/10/bits/random.h **** 	{
1751:/usr/include/c++/10/bits/random.h **** 	  __glibcxx_assert(_M_a <= _M_b);
1752:/usr/include/c++/10/bits/random.h **** 	}
1753:/usr/include/c++/10/bits/random.h **** 
1754:/usr/include/c++/10/bits/random.h **** 	result_type
1755:/usr/include/c++/10/bits/random.h **** 	a() const
1756:/usr/include/c++/10/bits/random.h **** 	{ return _M_a; }
1757:/usr/include/c++/10/bits/random.h **** 
1758:/usr/include/c++/10/bits/random.h **** 	result_type
1759:/usr/include/c++/10/bits/random.h **** 	b() const
1760:/usr/include/c++/10/bits/random.h **** 	{ return _M_b; }
1761:/usr/include/c++/10/bits/random.h **** 
1762:/usr/include/c++/10/bits/random.h **** 	friend bool
1763:/usr/include/c++/10/bits/random.h **** 	operator==(const param_type& __p1, const param_type& __p2)
1764:/usr/include/c++/10/bits/random.h **** 	{ return __p1._M_a == __p2._M_a && __p1._M_b == __p2._M_b; }
1765:/usr/include/c++/10/bits/random.h **** 
1766:/usr/include/c++/10/bits/random.h **** 	friend bool
1767:/usr/include/c++/10/bits/random.h **** 	operator!=(const param_type& __p1, const param_type& __p2)
1768:/usr/include/c++/10/bits/random.h **** 	{ return !(__p1 == __p2); }
1769:/usr/include/c++/10/bits/random.h **** 
1770:/usr/include/c++/10/bits/random.h ****       private:
1771:/usr/include/c++/10/bits/random.h **** 	_RealType _M_a;
1772:/usr/include/c++/10/bits/random.h **** 	_RealType _M_b;
1773:/usr/include/c++/10/bits/random.h ****       };
1774:/usr/include/c++/10/bits/random.h **** 
1775:/usr/include/c++/10/bits/random.h ****     public:
1776:/usr/include/c++/10/bits/random.h ****       /**
1777:/usr/include/c++/10/bits/random.h ****        * @brief Constructs a uniform_real_distribution object.
1778:/usr/include/c++/10/bits/random.h ****        *
1779:/usr/include/c++/10/bits/random.h ****        * The lower bound is set to 0.0 and the upper bound to 1.0
1780:/usr/include/c++/10/bits/random.h ****        */
1781:/usr/include/c++/10/bits/random.h ****       uniform_real_distribution() : uniform_real_distribution(0.0) { }
1782:/usr/include/c++/10/bits/random.h **** 
AARCH64 GAS  obj/Chapter15_4.s 			page 53


1783:/usr/include/c++/10/bits/random.h ****       /**
1784:/usr/include/c++/10/bits/random.h ****        * @brief Constructs a uniform_real_distribution object.
1785:/usr/include/c++/10/bits/random.h ****        *
1786:/usr/include/c++/10/bits/random.h ****        * @param __a [IN]  The lower bound of the distribution.
1787:/usr/include/c++/10/bits/random.h ****        * @param __b [IN]  The upper bound of the distribution.
1788:/usr/include/c++/10/bits/random.h ****        */
1789:/usr/include/c++/10/bits/random.h ****       explicit
1790:/usr/include/c++/10/bits/random.h ****       uniform_real_distribution(_RealType __a, _RealType __b = _RealType(1))
 487              		.loc 5 1790 7 view .LVU117
 488              	.LBB550:
 489              	.LBI550:
1748:/usr/include/c++/10/bits/random.h **** 	: _M_a(__a), _M_b(__b)
 490              		.loc 5 1748 2 view .LVU118
1748:/usr/include/c++/10/bits/random.h **** 	: _M_a(__a), _M_b(__b)
 491              		.loc 5 1748 2 is_stmt 0 view .LVU119
 492              	.LBE550:
 493              	.LBE549:
  21:Chapter15_4.cpp ****     normal_distribution<float>n_dist{25.0,7.0};
 494              		.loc 4 21 5 is_stmt 1 view .LVU120
 495              	.LBB551:
 496              	.LBI551:
1791:/usr/include/c++/10/bits/random.h ****       : _M_param(__a, __b)
1792:/usr/include/c++/10/bits/random.h ****       { }
1793:/usr/include/c++/10/bits/random.h **** 
1794:/usr/include/c++/10/bits/random.h ****       explicit
1795:/usr/include/c++/10/bits/random.h ****       uniform_real_distribution(const param_type& __p)
1796:/usr/include/c++/10/bits/random.h ****       : _M_param(__p)
1797:/usr/include/c++/10/bits/random.h ****       { }
1798:/usr/include/c++/10/bits/random.h **** 
1799:/usr/include/c++/10/bits/random.h ****       /**
1800:/usr/include/c++/10/bits/random.h ****        * @brief Resets the distribution state.
1801:/usr/include/c++/10/bits/random.h ****        *
1802:/usr/include/c++/10/bits/random.h ****        * Does nothing for the uniform real distribution.
1803:/usr/include/c++/10/bits/random.h ****        */
1804:/usr/include/c++/10/bits/random.h ****       void
1805:/usr/include/c++/10/bits/random.h ****       reset() { }
1806:/usr/include/c++/10/bits/random.h **** 
1807:/usr/include/c++/10/bits/random.h ****       result_type
1808:/usr/include/c++/10/bits/random.h ****       a() const
1809:/usr/include/c++/10/bits/random.h ****       { return _M_param.a(); }
1810:/usr/include/c++/10/bits/random.h **** 
1811:/usr/include/c++/10/bits/random.h ****       result_type
1812:/usr/include/c++/10/bits/random.h ****       b() const
1813:/usr/include/c++/10/bits/random.h ****       { return _M_param.b(); }
1814:/usr/include/c++/10/bits/random.h **** 
1815:/usr/include/c++/10/bits/random.h ****       /**
1816:/usr/include/c++/10/bits/random.h ****        * @brief Returns the parameter set of the distribution.
1817:/usr/include/c++/10/bits/random.h ****        */
1818:/usr/include/c++/10/bits/random.h ****       param_type
1819:/usr/include/c++/10/bits/random.h ****       param() const
1820:/usr/include/c++/10/bits/random.h ****       { return _M_param; }
1821:/usr/include/c++/10/bits/random.h **** 
1822:/usr/include/c++/10/bits/random.h ****       /**
1823:/usr/include/c++/10/bits/random.h ****        * @brief Sets the parameter set of the distribution.
1824:/usr/include/c++/10/bits/random.h ****        * @param __param The new parameter set of the distribution.
1825:/usr/include/c++/10/bits/random.h ****        */
1826:/usr/include/c++/10/bits/random.h ****       void
AARCH64 GAS  obj/Chapter15_4.s 			page 54


1827:/usr/include/c++/10/bits/random.h ****       param(const param_type& __param)
1828:/usr/include/c++/10/bits/random.h ****       { _M_param = __param; }
1829:/usr/include/c++/10/bits/random.h **** 
1830:/usr/include/c++/10/bits/random.h ****       /**
1831:/usr/include/c++/10/bits/random.h ****        * @brief Returns the inclusive lower bound of the distribution range.
1832:/usr/include/c++/10/bits/random.h ****        */
1833:/usr/include/c++/10/bits/random.h ****       result_type
1834:/usr/include/c++/10/bits/random.h ****       min() const
1835:/usr/include/c++/10/bits/random.h ****       { return this->a(); }
1836:/usr/include/c++/10/bits/random.h **** 
1837:/usr/include/c++/10/bits/random.h ****       /**
1838:/usr/include/c++/10/bits/random.h ****        * @brief Returns the inclusive upper bound of the distribution range.
1839:/usr/include/c++/10/bits/random.h ****        */
1840:/usr/include/c++/10/bits/random.h ****       result_type
1841:/usr/include/c++/10/bits/random.h ****       max() const
1842:/usr/include/c++/10/bits/random.h ****       { return this->b(); }
1843:/usr/include/c++/10/bits/random.h **** 
1844:/usr/include/c++/10/bits/random.h ****       /**
1845:/usr/include/c++/10/bits/random.h ****        * @brief Generating functions.
1846:/usr/include/c++/10/bits/random.h ****        */
1847:/usr/include/c++/10/bits/random.h ****       template<typename _UniformRandomNumberGenerator>
1848:/usr/include/c++/10/bits/random.h **** 	result_type
1849:/usr/include/c++/10/bits/random.h **** 	operator()(_UniformRandomNumberGenerator& __urng)
1850:/usr/include/c++/10/bits/random.h ****         { return this->operator()(__urng, _M_param); }
1851:/usr/include/c++/10/bits/random.h **** 
1852:/usr/include/c++/10/bits/random.h ****       template<typename _UniformRandomNumberGenerator>
1853:/usr/include/c++/10/bits/random.h **** 	result_type
1854:/usr/include/c++/10/bits/random.h **** 	operator()(_UniformRandomNumberGenerator& __urng,
1855:/usr/include/c++/10/bits/random.h **** 		   const param_type& __p)
1856:/usr/include/c++/10/bits/random.h **** 	{
1857:/usr/include/c++/10/bits/random.h **** 	  __detail::_Adaptor<_UniformRandomNumberGenerator, result_type>
1858:/usr/include/c++/10/bits/random.h **** 	    __aurng(__urng);
1859:/usr/include/c++/10/bits/random.h **** 	  return (__aurng() * (__p.b() - __p.a())) + __p.a();
1860:/usr/include/c++/10/bits/random.h **** 	}
1861:/usr/include/c++/10/bits/random.h **** 
1862:/usr/include/c++/10/bits/random.h ****       template<typename _ForwardIterator,
1863:/usr/include/c++/10/bits/random.h **** 	       typename _UniformRandomNumberGenerator>
1864:/usr/include/c++/10/bits/random.h **** 	void
1865:/usr/include/c++/10/bits/random.h **** 	__generate(_ForwardIterator __f, _ForwardIterator __t,
1866:/usr/include/c++/10/bits/random.h **** 		   _UniformRandomNumberGenerator& __urng)
1867:/usr/include/c++/10/bits/random.h **** 	{ this->__generate(__f, __t, __urng, _M_param); }
1868:/usr/include/c++/10/bits/random.h **** 
1869:/usr/include/c++/10/bits/random.h ****       template<typename _ForwardIterator,
1870:/usr/include/c++/10/bits/random.h **** 	       typename _UniformRandomNumberGenerator>
1871:/usr/include/c++/10/bits/random.h **** 	void
1872:/usr/include/c++/10/bits/random.h **** 	__generate(_ForwardIterator __f, _ForwardIterator __t,
1873:/usr/include/c++/10/bits/random.h **** 		   _UniformRandomNumberGenerator& __urng,
1874:/usr/include/c++/10/bits/random.h **** 		   const param_type& __p)
1875:/usr/include/c++/10/bits/random.h **** 	{ this->__generate_impl(__f, __t, __urng, __p); }
1876:/usr/include/c++/10/bits/random.h **** 
1877:/usr/include/c++/10/bits/random.h ****       template<typename _UniformRandomNumberGenerator>
1878:/usr/include/c++/10/bits/random.h **** 	void
1879:/usr/include/c++/10/bits/random.h **** 	__generate(result_type* __f, result_type* __t,
1880:/usr/include/c++/10/bits/random.h **** 		   _UniformRandomNumberGenerator& __urng,
1881:/usr/include/c++/10/bits/random.h **** 		   const param_type& __p)
1882:/usr/include/c++/10/bits/random.h **** 	{ this->__generate_impl(__f, __t, __urng, __p); }
1883:/usr/include/c++/10/bits/random.h **** 
AARCH64 GAS  obj/Chapter15_4.s 			page 55


1884:/usr/include/c++/10/bits/random.h ****       /**
1885:/usr/include/c++/10/bits/random.h ****        * @brief Return true if two uniform real distributions have
1886:/usr/include/c++/10/bits/random.h ****        *        the same parameters.
1887:/usr/include/c++/10/bits/random.h ****        */
1888:/usr/include/c++/10/bits/random.h ****       friend bool
1889:/usr/include/c++/10/bits/random.h ****       operator==(const uniform_real_distribution& __d1,
1890:/usr/include/c++/10/bits/random.h **** 		 const uniform_real_distribution& __d2)
1891:/usr/include/c++/10/bits/random.h ****       { return __d1._M_param == __d2._M_param; }
1892:/usr/include/c++/10/bits/random.h **** 
1893:/usr/include/c++/10/bits/random.h ****     private:
1894:/usr/include/c++/10/bits/random.h ****       template<typename _ForwardIterator,
1895:/usr/include/c++/10/bits/random.h **** 	       typename _UniformRandomNumberGenerator>
1896:/usr/include/c++/10/bits/random.h **** 	void
1897:/usr/include/c++/10/bits/random.h **** 	__generate_impl(_ForwardIterator __f, _ForwardIterator __t,
1898:/usr/include/c++/10/bits/random.h **** 			_UniformRandomNumberGenerator& __urng,
1899:/usr/include/c++/10/bits/random.h **** 			const param_type& __p);
1900:/usr/include/c++/10/bits/random.h **** 
1901:/usr/include/c++/10/bits/random.h ****       param_type _M_param;
1902:/usr/include/c++/10/bits/random.h ****     };
1903:/usr/include/c++/10/bits/random.h **** 
1904:/usr/include/c++/10/bits/random.h ****   /**
1905:/usr/include/c++/10/bits/random.h ****    * @brief Return true if two uniform real distributions have
1906:/usr/include/c++/10/bits/random.h ****    *        different parameters.
1907:/usr/include/c++/10/bits/random.h ****    */
1908:/usr/include/c++/10/bits/random.h ****   template<typename _IntType>
1909:/usr/include/c++/10/bits/random.h ****     inline bool
1910:/usr/include/c++/10/bits/random.h ****     operator!=(const std::uniform_real_distribution<_IntType>& __d1,
1911:/usr/include/c++/10/bits/random.h **** 	       const std::uniform_real_distribution<_IntType>& __d2)
1912:/usr/include/c++/10/bits/random.h ****     { return !(__d1 == __d2); }
1913:/usr/include/c++/10/bits/random.h **** 
1914:/usr/include/c++/10/bits/random.h ****   /**
1915:/usr/include/c++/10/bits/random.h ****    * @brief Inserts a %uniform_real_distribution random number
1916:/usr/include/c++/10/bits/random.h ****    *        distribution @p __x into the output stream @p __os.
1917:/usr/include/c++/10/bits/random.h ****    *
1918:/usr/include/c++/10/bits/random.h ****    * @param __os An output stream.
1919:/usr/include/c++/10/bits/random.h ****    * @param __x  A %uniform_real_distribution random number distribution.
1920:/usr/include/c++/10/bits/random.h ****    *
1921:/usr/include/c++/10/bits/random.h ****    * @returns The output stream with the state of @p __x inserted or in
1922:/usr/include/c++/10/bits/random.h ****    *          an error state.
1923:/usr/include/c++/10/bits/random.h ****    */
1924:/usr/include/c++/10/bits/random.h ****   template<typename _RealType, typename _CharT, typename _Traits>
1925:/usr/include/c++/10/bits/random.h ****     std::basic_ostream<_CharT, _Traits>&
1926:/usr/include/c++/10/bits/random.h ****     operator<<(std::basic_ostream<_CharT, _Traits>&,
1927:/usr/include/c++/10/bits/random.h **** 	       const std::uniform_real_distribution<_RealType>&);
1928:/usr/include/c++/10/bits/random.h **** 
1929:/usr/include/c++/10/bits/random.h ****   /**
1930:/usr/include/c++/10/bits/random.h ****    * @brief Extracts a %uniform_real_distribution random number distribution
1931:/usr/include/c++/10/bits/random.h ****    * @p __x from the input stream @p __is.
1932:/usr/include/c++/10/bits/random.h ****    *
1933:/usr/include/c++/10/bits/random.h ****    * @param __is An input stream.
1934:/usr/include/c++/10/bits/random.h ****    * @param __x  A %uniform_real_distribution random number generator engine.
1935:/usr/include/c++/10/bits/random.h ****    *
1936:/usr/include/c++/10/bits/random.h ****    * @returns The input stream with @p __x extracted or in an error state.
1937:/usr/include/c++/10/bits/random.h ****    */
1938:/usr/include/c++/10/bits/random.h ****   template<typename _RealType, typename _CharT, typename _Traits>
1939:/usr/include/c++/10/bits/random.h ****     std::basic_istream<_CharT, _Traits>&
1940:/usr/include/c++/10/bits/random.h ****     operator>>(std::basic_istream<_CharT, _Traits>&,
AARCH64 GAS  obj/Chapter15_4.s 			page 56


1941:/usr/include/c++/10/bits/random.h **** 	       std::uniform_real_distribution<_RealType>&);
1942:/usr/include/c++/10/bits/random.h **** 
1943:/usr/include/c++/10/bits/random.h ****   /* @} */ // group random_distributions_uniform
1944:/usr/include/c++/10/bits/random.h **** 
1945:/usr/include/c++/10/bits/random.h ****   /**
1946:/usr/include/c++/10/bits/random.h ****    * @addtogroup random_distributions_normal Normal Distributions
1947:/usr/include/c++/10/bits/random.h ****    * @ingroup random_distributions
1948:/usr/include/c++/10/bits/random.h ****    * @{
1949:/usr/include/c++/10/bits/random.h ****    */
1950:/usr/include/c++/10/bits/random.h **** 
1951:/usr/include/c++/10/bits/random.h ****   /**
1952:/usr/include/c++/10/bits/random.h ****    * @brief A normal continuous distribution for random numbers.
1953:/usr/include/c++/10/bits/random.h ****    *
1954:/usr/include/c++/10/bits/random.h ****    * The formula for the normal probability density function is
1955:/usr/include/c++/10/bits/random.h ****    * @f[
1956:/usr/include/c++/10/bits/random.h ****    *     p(x|\mu,\sigma) = \frac{1}{\sigma \sqrt{2 \pi}}
1957:/usr/include/c++/10/bits/random.h ****    *            e^{- \frac{{x - \mu}^ {2}}{2 \sigma ^ {2}} } 
1958:/usr/include/c++/10/bits/random.h ****    * @f]
1959:/usr/include/c++/10/bits/random.h ****    */
1960:/usr/include/c++/10/bits/random.h ****   template<typename _RealType = double>
1961:/usr/include/c++/10/bits/random.h ****     class normal_distribution
1962:/usr/include/c++/10/bits/random.h ****     {
1963:/usr/include/c++/10/bits/random.h ****       static_assert(std::is_floating_point<_RealType>::value,
1964:/usr/include/c++/10/bits/random.h **** 		    "result_type must be a floating point type");
1965:/usr/include/c++/10/bits/random.h **** 
1966:/usr/include/c++/10/bits/random.h ****     public:
1967:/usr/include/c++/10/bits/random.h ****       /** The type of the range of the distribution. */
1968:/usr/include/c++/10/bits/random.h ****       typedef _RealType result_type;
1969:/usr/include/c++/10/bits/random.h **** 
1970:/usr/include/c++/10/bits/random.h ****       /** Parameter type. */
1971:/usr/include/c++/10/bits/random.h ****       struct param_type
1972:/usr/include/c++/10/bits/random.h ****       {
1973:/usr/include/c++/10/bits/random.h **** 	typedef normal_distribution<_RealType> distribution_type;
1974:/usr/include/c++/10/bits/random.h **** 
1975:/usr/include/c++/10/bits/random.h **** 	param_type() : param_type(0.0) { }
1976:/usr/include/c++/10/bits/random.h **** 
1977:/usr/include/c++/10/bits/random.h **** 	explicit
1978:/usr/include/c++/10/bits/random.h **** 	param_type(_RealType __mean, _RealType __stddev = _RealType(1))
1979:/usr/include/c++/10/bits/random.h **** 	: _M_mean(__mean), _M_stddev(__stddev)
1980:/usr/include/c++/10/bits/random.h **** 	{
1981:/usr/include/c++/10/bits/random.h **** 	  __glibcxx_assert(_M_stddev > _RealType(0));
1982:/usr/include/c++/10/bits/random.h **** 	}
1983:/usr/include/c++/10/bits/random.h **** 
1984:/usr/include/c++/10/bits/random.h **** 	_RealType
1985:/usr/include/c++/10/bits/random.h **** 	mean() const
1986:/usr/include/c++/10/bits/random.h **** 	{ return _M_mean; }
1987:/usr/include/c++/10/bits/random.h **** 
1988:/usr/include/c++/10/bits/random.h **** 	_RealType
1989:/usr/include/c++/10/bits/random.h **** 	stddev() const
1990:/usr/include/c++/10/bits/random.h **** 	{ return _M_stddev; }
1991:/usr/include/c++/10/bits/random.h **** 
1992:/usr/include/c++/10/bits/random.h **** 	friend bool
1993:/usr/include/c++/10/bits/random.h **** 	operator==(const param_type& __p1, const param_type& __p2)
1994:/usr/include/c++/10/bits/random.h **** 	{ return (__p1._M_mean == __p2._M_mean
1995:/usr/include/c++/10/bits/random.h **** 		  && __p1._M_stddev == __p2._M_stddev); }
1996:/usr/include/c++/10/bits/random.h **** 
1997:/usr/include/c++/10/bits/random.h **** 	friend bool
AARCH64 GAS  obj/Chapter15_4.s 			page 57


1998:/usr/include/c++/10/bits/random.h **** 	operator!=(const param_type& __p1, const param_type& __p2)
1999:/usr/include/c++/10/bits/random.h **** 	{ return !(__p1 == __p2); }
2000:/usr/include/c++/10/bits/random.h **** 
2001:/usr/include/c++/10/bits/random.h ****       private:
2002:/usr/include/c++/10/bits/random.h **** 	_RealType _M_mean;
2003:/usr/include/c++/10/bits/random.h **** 	_RealType _M_stddev;
2004:/usr/include/c++/10/bits/random.h ****       };
2005:/usr/include/c++/10/bits/random.h **** 
2006:/usr/include/c++/10/bits/random.h ****     public:
2007:/usr/include/c++/10/bits/random.h ****       normal_distribution() : normal_distribution(0.0) { }
2008:/usr/include/c++/10/bits/random.h **** 
2009:/usr/include/c++/10/bits/random.h ****       /**
2010:/usr/include/c++/10/bits/random.h ****        * Constructs a normal distribution with parameters @f$mean@f$ and
2011:/usr/include/c++/10/bits/random.h ****        * standard deviation.
2012:/usr/include/c++/10/bits/random.h ****        */
2013:/usr/include/c++/10/bits/random.h ****       explicit
2014:/usr/include/c++/10/bits/random.h ****       normal_distribution(result_type __mean,
 497              		.loc 5 2014 7 view .LVU121
 498              	.LBB552:
 499              	.LBB553:
 500              	.LBI553:
1978:/usr/include/c++/10/bits/random.h **** 	: _M_mean(__mean), _M_stddev(__stddev)
 501              		.loc 5 1978 2 view .LVU122
1978:/usr/include/c++/10/bits/random.h **** 	: _M_mean(__mean), _M_stddev(__stddev)
 502              		.loc 5 1978 2 is_stmt 0 view .LVU123
 503              	.LBE553:
 504              	.LBE552:
 505              	.LBE551:
  22:Chapter15_4.cpp **** 	mt19937 rng{44};
 506              		.loc 4 22 2 is_stmt 1 view .LVU124
 507              	.LBB555:
 508              	.LBI528:
 521:/usr/include/c++/10/bits/random.h ****       { seed(__sd); }
 509              		.loc 5 521 7 view .LVU125
 510              	.LBB546:
 511              	.LBB544:
 512              	.LBI530:
 323:/usr/include/c++/10/bits/random.tcc **** 			    __s, __b, __t, __c, __l, __f>::
 513              		.loc 3 323 5 view .LVU126
 514              	.LBB542:
 515              	.LBB532:
 516              	.LBB533:
 334:/usr/include/c++/10/bits/random.tcc **** 	  __x += __detail::__mod<_UIntType, __n>(__i);
 517              		.loc 3 334 8 is_stmt 0 view .LVU127
 518 0054 A32C91D2 		mov	x3, 35173
 519 0058 C1220091 		add	x1, x22, 8
 520              	.LBE533:
 521              	.LBE532:
 327:/usr/include/c++/10/bits/random.tcc **** 	__detail::_Shift<_UIntType, __w>::__value>(__sd);
 522              		.loc 3 327 15 view .LVU128
 523 005c E00304AA 		mov	x0, x4
 524              	.LVL26:
 525              	.LBB540:
 330:/usr/include/c++/10/bits/random.tcc **** 	{
 526              		.loc 3 330 19 view .LVU129
 527 0060 220080D2 		mov	x2, 1
 528              	.LBB537:
AARCH64 GAS  obj/Chapter15_4.s 			page 58


 334:/usr/include/c++/10/bits/random.tcc **** 	  __x += __detail::__mod<_UIntType, __n>(__i);
 529              		.loc 3 334 8 view .LVU130
 530 0064 E380ADF2 		movk	x3, 0x6c07, lsl 16
 531              	.LBE537:
 532              	.LBE540:
 327:/usr/include/c++/10/bits/random.tcc **** 	__detail::_Shift<_UIntType, __w>::__value>(__sd);
 533              		.loc 3 327 15 view .LVU131
 534 0068 E45700F9 		str	x4, [sp, 168]
 535              	.LVL27:
 536              	.LBB541:
 330:/usr/include/c++/10/bits/random.tcc **** 	{
 537              		.loc 3 330 32 is_stmt 1 view .LVU132
 538 006c 1F2003D5 		.p2align 3,,7
 539              	.L19:
 540              	.LBB538:
 333:/usr/include/c++/10/bits/random.tcc **** 	  __x *= __f;
 541              		.loc 3 333 8 is_stmt 0 view .LVU133
 542 0070 007840CA 		eor	x0, x0, x0, lsr 30
 543              	.LVL28:
 544              	.LBB534:
 545              	.LBI534:
 148:/usr/include/c++/10/bits/random.h ****       { return _Mod<_Tp, __m, __a, __c>::__calc(__x); }
 546              		.loc 5 148 7 is_stmt 1 view .LVU134
 547              	.LBB535:
 548              	.LBI535:
 137:/usr/include/c++/10/bits/random.h **** 	{
 549              		.loc 5 137 2 view .LVU135
 550              	.LBB536:
 141:/usr/include/c++/10/bits/random.h **** 	  return __res;
 551              		.loc 5 141 12 is_stmt 0 view .LVU136
 552 0074 0008031B 		madd	w0, w0, w3, w2
 553              	.LVL29:
 141:/usr/include/c++/10/bits/random.h **** 	  return __res;
 554              		.loc 5 141 12 view .LVU137
 555              	.LBE536:
 556              	.LBE535:
 557              	.LBE534:
 558              	.LBE538:
 330:/usr/include/c++/10/bits/random.tcc **** 	{
 559              		.loc 3 330 7 view .LVU138
 560 0078 42040091 		add	x2, x2, 1
 561              	.LVL30:
 562              	.LBB539:
 336:/usr/include/c++/10/bits/random.tcc **** 	    __detail::_Shift<_UIntType, __w>::__value>(__x);
 563              		.loc 3 336 14 view .LVU139
 564 007c 208400F8 		str	x0, [x1], 8
 565              	.LBE539:
 330:/usr/include/c++/10/bits/random.tcc **** 	{
 566              		.loc 3 330 7 is_stmt 1 view .LVU140
 567              	.LVL31:
 330:/usr/include/c++/10/bits/random.tcc **** 	{
 568              		.loc 3 330 32 view .LVU141
 569 0080 5FC009F1 		cmp	x2, 624
 570 0084 61FFFF54 		bne	.L19
 571              	.LBE541:
 572              	.LBE542:
 573              	.LBE544:
AARCH64 GAS  obj/Chapter15_4.s 			page 59


 574              	.LBE546:
 575              	.LBE555:
 576              	.LBB556:
 577              	.LBB557:
 578              	.LBB558:
 579              	.LBB559:
 580              	.LBB560:
 581              	.LBB561:
 582              	.LBB562:
 583              	.LBB563:
 584              	.LBB564:
 585 0088 C1FF9F52 		mov	w1, 65534
 586              	.LBE564:
 587              	.LBE563:
 588              	.LBE562:
 589              	.LBB585:
 590              	.LBB586:
 591              	.LBB587:
 592 008c 80FF9F52 		mov	w0, 65532
 593              	.LBE587:
 594              	.LBE586:
 595              	.LBE585:
 596              	.LBE561:
 597              	.LBE560:
 598              	.LBE559:
 599              	.LBE558:
 600              	.LBE557:
 601              	.LBB634:
 602              	.LBB635:
 603              	.LBB636:
 604              	.LBB637:
 605              	.LBB638:
 606              	.LBB639:
 607              	.LBB640:
 608              	.LBB641:
 609              	.LBB642:
 423:/usr/include/c++/10/bits/random.tcc **** 
 424:/usr/include/c++/10/bits/random.tcc ****   template<typename _UIntType, size_t __w,
 425:/usr/include/c++/10/bits/random.tcc **** 	   size_t __n, size_t __m, size_t __r,
 426:/usr/include/c++/10/bits/random.tcc **** 	   _UIntType __a, size_t __u, _UIntType __d, size_t __s,
 427:/usr/include/c++/10/bits/random.tcc **** 	   _UIntType __b, size_t __t, _UIntType __c, size_t __l,
 428:/usr/include/c++/10/bits/random.tcc **** 	   _UIntType __f>
 429:/usr/include/c++/10/bits/random.tcc ****     void
 430:/usr/include/c++/10/bits/random.tcc ****     mersenne_twister_engine<_UIntType, __w, __n, __m, __r, __a, __u, __d,
 431:/usr/include/c++/10/bits/random.tcc **** 			    __s, __b, __t, __c, __l, __f>::
 432:/usr/include/c++/10/bits/random.tcc ****     discard(unsigned long long __z)
 433:/usr/include/c++/10/bits/random.tcc ****     {
 434:/usr/include/c++/10/bits/random.tcc ****       while (__z > state_size - _M_p)
 435:/usr/include/c++/10/bits/random.tcc **** 	{
 436:/usr/include/c++/10/bits/random.tcc **** 	  __z -= state_size - _M_p;
 437:/usr/include/c++/10/bits/random.tcc **** 	  _M_gen_rand();
 438:/usr/include/c++/10/bits/random.tcc **** 	}
 439:/usr/include/c++/10/bits/random.tcc ****       _M_p += __z;
 440:/usr/include/c++/10/bits/random.tcc ****     }
 441:/usr/include/c++/10/bits/random.tcc **** 
 442:/usr/include/c++/10/bits/random.tcc ****   template<typename _UIntType, size_t __w,
 443:/usr/include/c++/10/bits/random.tcc **** 	   size_t __n, size_t __m, size_t __r,
AARCH64 GAS  obj/Chapter15_4.s 			page 60


 444:/usr/include/c++/10/bits/random.tcc **** 	   _UIntType __a, size_t __u, _UIntType __d, size_t __s,
 445:/usr/include/c++/10/bits/random.tcc **** 	   _UIntType __b, size_t __t, _UIntType __c, size_t __l,
 446:/usr/include/c++/10/bits/random.tcc **** 	   _UIntType __f>
 447:/usr/include/c++/10/bits/random.tcc ****     typename
 448:/usr/include/c++/10/bits/random.tcc ****     mersenne_twister_engine<_UIntType, __w, __n, __m, __r, __a, __u, __d,
 449:/usr/include/c++/10/bits/random.tcc **** 			    __s, __b, __t, __c, __l, __f>::result_type
 450:/usr/include/c++/10/bits/random.tcc ****     mersenne_twister_engine<_UIntType, __w, __n, __m, __r, __a, __u, __d,
 451:/usr/include/c++/10/bits/random.tcc **** 			    __s, __b, __t, __c, __l, __f>::
 452:/usr/include/c++/10/bits/random.tcc ****     operator()()
 453:/usr/include/c++/10/bits/random.tcc ****     {
 454:/usr/include/c++/10/bits/random.tcc ****       // Reload the vector - cost is O(n) amortized over n calls.
 455:/usr/include/c++/10/bits/random.tcc ****       if (_M_p >= state_size)
 456:/usr/include/c++/10/bits/random.tcc **** 	_M_gen_rand();
 457:/usr/include/c++/10/bits/random.tcc **** 
 458:/usr/include/c++/10/bits/random.tcc ****       // Calculate o(x(i)).
 459:/usr/include/c++/10/bits/random.tcc ****       result_type __z = _M_x[_M_p++];
 460:/usr/include/c++/10/bits/random.tcc ****       __z ^= (__z >> __u) & __d;
 461:/usr/include/c++/10/bits/random.tcc ****       __z ^= (__z << __s) & __b;
 610              		.loc 3 461 27 is_stmt 0 view .LVU142
 611 0090 17D08AD2 		mov	x23, 22144
 612              	.LBE642:
 613              	.LBE641:
 614              	.LBE640:
 615              	.LBE639:
 616              	.LBE638:
 617              	.LBE637:
 618              	.LBE636:
 619              	.LBE635:
 620              	.LBE634:
 621              	.LBE556:
 622              	.LBB686:
 623              	.LBB547:
 624              	.LBB545:
 625              	.LBB543:
 339:/usr/include/c++/10/bits/random.tcc ****     }
 626              		.loc 3 339 12 view .LVU143
 627 0094 E2170AF9 		str	x2, [sp, 5160]
 628              	.LVL32:
 339:/usr/include/c++/10/bits/random.tcc ****     }
 629              		.loc 3 339 12 view .LVU144
 630              	.LBE543:
 631              	.LBE545:
 632              	.LBE547:
 633              	.LBE686:
  23:Chapter15_4.cpp **** 	for(size_t i=0;i<120;i++){
 634              		.loc 4 23 2 is_stmt 1 view .LVU145
 635              	.LBB687:
 636              		.loc 4 23 18 view .LVU146
 637              	.LBB675:
 638              	.LBB631:
 639              	.LBB628:
 640              	.LBB624:
 641              	.LBB621:
 642              	.LBB608:
 643              	.LBB580:
 644              	.LBB575:
 645 0098 E1EFA772 		movk	w1, 0x3f7f, lsl 16
AARCH64 GAS  obj/Chapter15_4.s 			page 61


 646              	.LBE575:
 647              	.LBE580:
 648              	.LBE608:
 649              	.LBB609:
 650              	.LBB603:
 651              	.LBB598:
 652 009c E0EFA772 		movk	w0, 0x3f7f, lsl 16
 653              	.LBE598:
 654              	.LBE603:
 655              	.LBE609:
 656              	.LBB610:
 657              	.LBB581:
 658              	.LBB576:
 659 00a0 2900271E 		fmov	s9, w1
 660              	.LBE576:
 661              	.LBE581:
 662              	.LBE610:
 663              	.LBB611:
 664              	.LBB604:
 665              	.LBB599:
 666 00a4 0A00271E 		fmov	s10, w0
 667              	.LBE599:
 668              	.LBE604:
 669              	.LBE611:
 670              	.LBE621:
 671              	.LBE624:
 672              	.LBE628:
 673              	.LBE631:
 674              	.LBE675:
 675              	.LBE687:
 676              	.LBB688:
 677              	.LBB554:
2015:/usr/include/c++/10/bits/random.h **** 			  result_type __stddev = result_type(1))
2016:/usr/include/c++/10/bits/random.h ****       : _M_param(__mean, __stddev), _M_saved_available(false)
 678              		.loc 5 2016 61 is_stmt 0 view .LVU147
 679 00a8 18008052 		mov	w24, 0
 680              	.LVL33:
 681              		.loc 5 2016 61 view .LVU148
 682              	.LBE554:
 683              	.LBE688:
 684              	.LBB689:
 685              		.loc 4 23 13 view .LVU149
 686 00ac 130080D2 		mov	x19, 0
 687              	.LVL34:
 688              	.LBB676:
 689              	.LBB672:
 690              	.LBB669:
 691              	.LBB666:
 692              	.LBB663:
 693              	.LBB660:
 694              	.LBB655:
 462:/usr/include/c++/10/bits/random.tcc ****       __z ^= (__z << __t) & __c;
 463:/usr/include/c++/10/bits/random.tcc ****       __z ^= (__z >> __l);
 464:/usr/include/c++/10/bits/random.tcc **** 
 465:/usr/include/c++/10/bits/random.tcc ****       return __z;
 466:/usr/include/c++/10/bits/random.tcc ****     }
 467:/usr/include/c++/10/bits/random.tcc **** 
AARCH64 GAS  obj/Chapter15_4.s 			page 62


 468:/usr/include/c++/10/bits/random.tcc ****   template<typename _UIntType, size_t __w,
 469:/usr/include/c++/10/bits/random.tcc **** 	   size_t __n, size_t __m, size_t __r,
 470:/usr/include/c++/10/bits/random.tcc **** 	   _UIntType __a, size_t __u, _UIntType __d, size_t __s,
 471:/usr/include/c++/10/bits/random.tcc **** 	   _UIntType __b, size_t __t, _UIntType __c, size_t __l,
 472:/usr/include/c++/10/bits/random.tcc **** 	   _UIntType __f, typename _CharT, typename _Traits>
 473:/usr/include/c++/10/bits/random.tcc ****     std::basic_ostream<_CharT, _Traits>&
 474:/usr/include/c++/10/bits/random.tcc ****     operator<<(std::basic_ostream<_CharT, _Traits>& __os,
 475:/usr/include/c++/10/bits/random.tcc **** 	       const mersenne_twister_engine<_UIntType, __w, __n, __m,
 476:/usr/include/c++/10/bits/random.tcc **** 	       __r, __a, __u, __d, __s, __b, __t, __c, __l, __f>& __x)
 477:/usr/include/c++/10/bits/random.tcc ****     {
 478:/usr/include/c++/10/bits/random.tcc ****       using __ios_base = typename basic_ostream<_CharT, _Traits>::ios_base;
 479:/usr/include/c++/10/bits/random.tcc **** 
 480:/usr/include/c++/10/bits/random.tcc ****       const typename __ios_base::fmtflags __flags = __os.flags();
 481:/usr/include/c++/10/bits/random.tcc ****       const _CharT __fill = __os.fill();
 482:/usr/include/c++/10/bits/random.tcc ****       const _CharT __space = __os.widen(' ');
 483:/usr/include/c++/10/bits/random.tcc ****       __os.flags(__ios_base::dec | __ios_base::fixed | __ios_base::left);
 484:/usr/include/c++/10/bits/random.tcc ****       __os.fill(__space);
 485:/usr/include/c++/10/bits/random.tcc **** 
 486:/usr/include/c++/10/bits/random.tcc ****       for (size_t __i = 0; __i < __n; ++__i)
 487:/usr/include/c++/10/bits/random.tcc **** 	__os << __x._M_x[__i] << __space;
 488:/usr/include/c++/10/bits/random.tcc ****       __os << __x._M_p;
 489:/usr/include/c++/10/bits/random.tcc **** 
 490:/usr/include/c++/10/bits/random.tcc ****       __os.flags(__flags);
 491:/usr/include/c++/10/bits/random.tcc ****       __os.fill(__fill);
 492:/usr/include/c++/10/bits/random.tcc ****       return __os;
 493:/usr/include/c++/10/bits/random.tcc ****     }
 494:/usr/include/c++/10/bits/random.tcc **** 
 495:/usr/include/c++/10/bits/random.tcc ****   template<typename _UIntType, size_t __w,
 496:/usr/include/c++/10/bits/random.tcc **** 	   size_t __n, size_t __m, size_t __r,
 497:/usr/include/c++/10/bits/random.tcc **** 	   _UIntType __a, size_t __u, _UIntType __d, size_t __s,
 498:/usr/include/c++/10/bits/random.tcc **** 	   _UIntType __b, size_t __t, _UIntType __c, size_t __l,
 499:/usr/include/c++/10/bits/random.tcc **** 	   _UIntType __f, typename _CharT, typename _Traits>
 500:/usr/include/c++/10/bits/random.tcc ****     std::basic_istream<_CharT, _Traits>&
 501:/usr/include/c++/10/bits/random.tcc ****     operator>>(std::basic_istream<_CharT, _Traits>& __is,
 502:/usr/include/c++/10/bits/random.tcc **** 	       mersenne_twister_engine<_UIntType, __w, __n, __m,
 503:/usr/include/c++/10/bits/random.tcc **** 	       __r, __a, __u, __d, __s, __b, __t, __c, __l, __f>& __x)
 504:/usr/include/c++/10/bits/random.tcc ****     {
 505:/usr/include/c++/10/bits/random.tcc ****       using __ios_base = typename basic_istream<_CharT, _Traits>::ios_base;
 506:/usr/include/c++/10/bits/random.tcc **** 
 507:/usr/include/c++/10/bits/random.tcc ****       const typename __ios_base::fmtflags __flags = __is.flags();
 508:/usr/include/c++/10/bits/random.tcc ****       __is.flags(__ios_base::dec | __ios_base::skipws);
 509:/usr/include/c++/10/bits/random.tcc **** 
 510:/usr/include/c++/10/bits/random.tcc ****       for (size_t __i = 0; __i < __n; ++__i)
 511:/usr/include/c++/10/bits/random.tcc **** 	__is >> __x._M_x[__i];
 512:/usr/include/c++/10/bits/random.tcc ****       __is >> __x._M_p;
 513:/usr/include/c++/10/bits/random.tcc **** 
 514:/usr/include/c++/10/bits/random.tcc ****       __is.flags(__flags);
 515:/usr/include/c++/10/bits/random.tcc ****       return __is;
 516:/usr/include/c++/10/bits/random.tcc ****     }
 517:/usr/include/c++/10/bits/random.tcc **** 
 518:/usr/include/c++/10/bits/random.tcc **** 
 519:/usr/include/c++/10/bits/random.tcc ****   template<typename _UIntType, size_t __w, size_t __s, size_t __r>
 520:/usr/include/c++/10/bits/random.tcc ****     constexpr size_t
 521:/usr/include/c++/10/bits/random.tcc ****     subtract_with_carry_engine<_UIntType, __w, __s, __r>::word_size;
 522:/usr/include/c++/10/bits/random.tcc **** 
 523:/usr/include/c++/10/bits/random.tcc ****   template<typename _UIntType, size_t __w, size_t __s, size_t __r>
 524:/usr/include/c++/10/bits/random.tcc ****     constexpr size_t
AARCH64 GAS  obj/Chapter15_4.s 			page 63


 525:/usr/include/c++/10/bits/random.tcc ****     subtract_with_carry_engine<_UIntType, __w, __s, __r>::short_lag;
 526:/usr/include/c++/10/bits/random.tcc **** 
 527:/usr/include/c++/10/bits/random.tcc ****   template<typename _UIntType, size_t __w, size_t __s, size_t __r>
 528:/usr/include/c++/10/bits/random.tcc ****     constexpr size_t
 529:/usr/include/c++/10/bits/random.tcc ****     subtract_with_carry_engine<_UIntType, __w, __s, __r>::long_lag;
 530:/usr/include/c++/10/bits/random.tcc **** 
 531:/usr/include/c++/10/bits/random.tcc ****   template<typename _UIntType, size_t __w, size_t __s, size_t __r>
 532:/usr/include/c++/10/bits/random.tcc ****     constexpr _UIntType
 533:/usr/include/c++/10/bits/random.tcc ****     subtract_with_carry_engine<_UIntType, __w, __s, __r>::default_seed;
 534:/usr/include/c++/10/bits/random.tcc **** 
 535:/usr/include/c++/10/bits/random.tcc ****   template<typename _UIntType, size_t __w, size_t __s, size_t __r>
 536:/usr/include/c++/10/bits/random.tcc ****     void
 537:/usr/include/c++/10/bits/random.tcc ****     subtract_with_carry_engine<_UIntType, __w, __s, __r>::
 538:/usr/include/c++/10/bits/random.tcc ****     seed(result_type __value)
 539:/usr/include/c++/10/bits/random.tcc ****     {
 540:/usr/include/c++/10/bits/random.tcc ****       std::linear_congruential_engine<result_type, 40014u, 0u, 2147483563u>
 541:/usr/include/c++/10/bits/random.tcc **** 	__lcg(__value == 0u ? default_seed : __value);
 542:/usr/include/c++/10/bits/random.tcc **** 
 543:/usr/include/c++/10/bits/random.tcc ****       const size_t __n = (__w + 31) / 32;
 544:/usr/include/c++/10/bits/random.tcc **** 
 545:/usr/include/c++/10/bits/random.tcc ****       for (size_t __i = 0; __i < long_lag; ++__i)
 546:/usr/include/c++/10/bits/random.tcc **** 	{
 547:/usr/include/c++/10/bits/random.tcc **** 	  _UIntType __sum = 0u;
 548:/usr/include/c++/10/bits/random.tcc **** 	  _UIntType __factor = 1u;
 549:/usr/include/c++/10/bits/random.tcc **** 	  for (size_t __j = 0; __j < __n; ++__j)
 550:/usr/include/c++/10/bits/random.tcc **** 	    {
 551:/usr/include/c++/10/bits/random.tcc **** 	      __sum += __detail::__mod<uint_least32_t,
 552:/usr/include/c++/10/bits/random.tcc **** 		       __detail::_Shift<uint_least32_t, 32>::__value>
 553:/usr/include/c++/10/bits/random.tcc **** 			 (__lcg()) * __factor;
 554:/usr/include/c++/10/bits/random.tcc **** 	      __factor *= __detail::_Shift<_UIntType, 32>::__value;
 555:/usr/include/c++/10/bits/random.tcc **** 	    }
 556:/usr/include/c++/10/bits/random.tcc **** 	  _M_x[__i] = __detail::__mod<_UIntType,
 557:/usr/include/c++/10/bits/random.tcc **** 	    __detail::_Shift<_UIntType, __w>::__value>(__sum);
 558:/usr/include/c++/10/bits/random.tcc **** 	}
 559:/usr/include/c++/10/bits/random.tcc ****       _M_carry = (_M_x[long_lag - 1] == 0) ? 1 : 0;
 560:/usr/include/c++/10/bits/random.tcc ****       _M_p = 0;
 561:/usr/include/c++/10/bits/random.tcc ****     }
 562:/usr/include/c++/10/bits/random.tcc **** 
 563:/usr/include/c++/10/bits/random.tcc ****   template<typename _UIntType, size_t __w, size_t __s, size_t __r>
 564:/usr/include/c++/10/bits/random.tcc ****     template<typename _Sseq>
 565:/usr/include/c++/10/bits/random.tcc ****       auto
 566:/usr/include/c++/10/bits/random.tcc ****       subtract_with_carry_engine<_UIntType, __w, __s, __r>::
 567:/usr/include/c++/10/bits/random.tcc ****       seed(_Sseq& __q)
 568:/usr/include/c++/10/bits/random.tcc ****       -> _If_seed_seq<_Sseq>
 569:/usr/include/c++/10/bits/random.tcc ****       {
 570:/usr/include/c++/10/bits/random.tcc **** 	const size_t __k = (__w + 31) / 32;
 571:/usr/include/c++/10/bits/random.tcc **** 	uint_least32_t __arr[__r * __k];
 572:/usr/include/c++/10/bits/random.tcc **** 	__q.generate(__arr + 0, __arr + __r * __k);
 573:/usr/include/c++/10/bits/random.tcc **** 
 574:/usr/include/c++/10/bits/random.tcc **** 	for (size_t __i = 0; __i < long_lag; ++__i)
 575:/usr/include/c++/10/bits/random.tcc **** 	  {
 576:/usr/include/c++/10/bits/random.tcc **** 	    _UIntType __sum = 0u;
 577:/usr/include/c++/10/bits/random.tcc **** 	    _UIntType __factor = 1u;
 578:/usr/include/c++/10/bits/random.tcc **** 	    for (size_t __j = 0; __j < __k; ++__j)
 579:/usr/include/c++/10/bits/random.tcc **** 	      {
 580:/usr/include/c++/10/bits/random.tcc **** 		__sum += __arr[__k * __i + __j] * __factor;
 581:/usr/include/c++/10/bits/random.tcc **** 		__factor *= __detail::_Shift<_UIntType, 32>::__value;
AARCH64 GAS  obj/Chapter15_4.s 			page 64


 582:/usr/include/c++/10/bits/random.tcc **** 	      }
 583:/usr/include/c++/10/bits/random.tcc **** 	    _M_x[__i] = __detail::__mod<_UIntType,
 584:/usr/include/c++/10/bits/random.tcc **** 	      __detail::_Shift<_UIntType, __w>::__value>(__sum);
 585:/usr/include/c++/10/bits/random.tcc **** 	  }
 586:/usr/include/c++/10/bits/random.tcc **** 	_M_carry = (_M_x[long_lag - 1] == 0) ? 1 : 0;
 587:/usr/include/c++/10/bits/random.tcc **** 	_M_p = 0;
 588:/usr/include/c++/10/bits/random.tcc ****       }
 589:/usr/include/c++/10/bits/random.tcc **** 
 590:/usr/include/c++/10/bits/random.tcc ****   template<typename _UIntType, size_t __w, size_t __s, size_t __r>
 591:/usr/include/c++/10/bits/random.tcc ****     typename subtract_with_carry_engine<_UIntType, __w, __s, __r>::
 592:/usr/include/c++/10/bits/random.tcc **** 	     result_type
 593:/usr/include/c++/10/bits/random.tcc ****     subtract_with_carry_engine<_UIntType, __w, __s, __r>::
 594:/usr/include/c++/10/bits/random.tcc ****     operator()()
 595:/usr/include/c++/10/bits/random.tcc ****     {
 596:/usr/include/c++/10/bits/random.tcc ****       // Derive short lag index from current index.
 597:/usr/include/c++/10/bits/random.tcc ****       long __ps = _M_p - short_lag;
 598:/usr/include/c++/10/bits/random.tcc ****       if (__ps < 0)
 599:/usr/include/c++/10/bits/random.tcc **** 	__ps += long_lag;
 600:/usr/include/c++/10/bits/random.tcc **** 
 601:/usr/include/c++/10/bits/random.tcc ****       // Calculate new x(i) without overflow or division.
 602:/usr/include/c++/10/bits/random.tcc ****       // NB: Thanks to the requirements for _UIntType, _M_x[_M_p] + _M_carry
 603:/usr/include/c++/10/bits/random.tcc ****       // cannot overflow.
 604:/usr/include/c++/10/bits/random.tcc ****       _UIntType __xi;
 605:/usr/include/c++/10/bits/random.tcc ****       if (_M_x[__ps] >= _M_x[_M_p] + _M_carry)
 606:/usr/include/c++/10/bits/random.tcc **** 	{
 607:/usr/include/c++/10/bits/random.tcc **** 	  __xi = _M_x[__ps] - _M_x[_M_p] - _M_carry;
 608:/usr/include/c++/10/bits/random.tcc **** 	  _M_carry = 0;
 609:/usr/include/c++/10/bits/random.tcc **** 	}
 610:/usr/include/c++/10/bits/random.tcc ****       else
 611:/usr/include/c++/10/bits/random.tcc **** 	{
 612:/usr/include/c++/10/bits/random.tcc **** 	  __xi = (__detail::_Shift<_UIntType, __w>::__value
 613:/usr/include/c++/10/bits/random.tcc **** 		  - _M_x[_M_p] - _M_carry + _M_x[__ps]);
 614:/usr/include/c++/10/bits/random.tcc **** 	  _M_carry = 1;
 615:/usr/include/c++/10/bits/random.tcc **** 	}
 616:/usr/include/c++/10/bits/random.tcc ****       _M_x[_M_p] = __xi;
 617:/usr/include/c++/10/bits/random.tcc **** 
 618:/usr/include/c++/10/bits/random.tcc ****       // Adjust current index to loop around in ring buffer.
 619:/usr/include/c++/10/bits/random.tcc ****       if (++_M_p >= long_lag)
 620:/usr/include/c++/10/bits/random.tcc **** 	_M_p = 0;
 621:/usr/include/c++/10/bits/random.tcc **** 
 622:/usr/include/c++/10/bits/random.tcc ****       return __xi;
 623:/usr/include/c++/10/bits/random.tcc ****     }
 624:/usr/include/c++/10/bits/random.tcc **** 
 625:/usr/include/c++/10/bits/random.tcc ****   template<typename _UIntType, size_t __w, size_t __s, size_t __r,
 626:/usr/include/c++/10/bits/random.tcc **** 	   typename _CharT, typename _Traits>
 627:/usr/include/c++/10/bits/random.tcc ****     std::basic_ostream<_CharT, _Traits>&
 628:/usr/include/c++/10/bits/random.tcc ****     operator<<(std::basic_ostream<_CharT, _Traits>& __os,
 629:/usr/include/c++/10/bits/random.tcc **** 	       const subtract_with_carry_engine<_UIntType,
 630:/usr/include/c++/10/bits/random.tcc **** 						__w, __s, __r>& __x)
 631:/usr/include/c++/10/bits/random.tcc ****     {
 632:/usr/include/c++/10/bits/random.tcc ****       using __ios_base = typename basic_ostream<_CharT, _Traits>::ios_base;
 633:/usr/include/c++/10/bits/random.tcc **** 
 634:/usr/include/c++/10/bits/random.tcc ****       const typename __ios_base::fmtflags __flags = __os.flags();
 635:/usr/include/c++/10/bits/random.tcc ****       const _CharT __fill = __os.fill();
 636:/usr/include/c++/10/bits/random.tcc ****       const _CharT __space = __os.widen(' ');
 637:/usr/include/c++/10/bits/random.tcc ****       __os.flags(__ios_base::dec | __ios_base::fixed | __ios_base::left);
 638:/usr/include/c++/10/bits/random.tcc ****       __os.fill(__space);
AARCH64 GAS  obj/Chapter15_4.s 			page 65


 639:/usr/include/c++/10/bits/random.tcc **** 
 640:/usr/include/c++/10/bits/random.tcc ****       for (size_t __i = 0; __i < __r; ++__i)
 641:/usr/include/c++/10/bits/random.tcc **** 	__os << __x._M_x[__i] << __space;
 642:/usr/include/c++/10/bits/random.tcc ****       __os << __x._M_carry << __space << __x._M_p;
 643:/usr/include/c++/10/bits/random.tcc **** 
 644:/usr/include/c++/10/bits/random.tcc ****       __os.flags(__flags);
 645:/usr/include/c++/10/bits/random.tcc ****       __os.fill(__fill);
 646:/usr/include/c++/10/bits/random.tcc ****       return __os;
 647:/usr/include/c++/10/bits/random.tcc ****     }
 648:/usr/include/c++/10/bits/random.tcc **** 
 649:/usr/include/c++/10/bits/random.tcc ****   template<typename _UIntType, size_t __w, size_t __s, size_t __r,
 650:/usr/include/c++/10/bits/random.tcc **** 	   typename _CharT, typename _Traits>
 651:/usr/include/c++/10/bits/random.tcc ****     std::basic_istream<_CharT, _Traits>&
 652:/usr/include/c++/10/bits/random.tcc ****     operator>>(std::basic_istream<_CharT, _Traits>& __is,
 653:/usr/include/c++/10/bits/random.tcc **** 	       subtract_with_carry_engine<_UIntType, __w, __s, __r>& __x)
 654:/usr/include/c++/10/bits/random.tcc ****     {
 655:/usr/include/c++/10/bits/random.tcc ****       using __ios_base = typename basic_istream<_CharT, _Traits>::ios_base;
 656:/usr/include/c++/10/bits/random.tcc **** 
 657:/usr/include/c++/10/bits/random.tcc ****       const typename __ios_base::fmtflags __flags = __is.flags();
 658:/usr/include/c++/10/bits/random.tcc ****       __is.flags(__ios_base::dec | __ios_base::skipws);
 659:/usr/include/c++/10/bits/random.tcc **** 
 660:/usr/include/c++/10/bits/random.tcc ****       for (size_t __i = 0; __i < __r; ++__i)
 661:/usr/include/c++/10/bits/random.tcc **** 	__is >> __x._M_x[__i];
 662:/usr/include/c++/10/bits/random.tcc ****       __is >> __x._M_carry;
 663:/usr/include/c++/10/bits/random.tcc ****       __is >> __x._M_p;
 664:/usr/include/c++/10/bits/random.tcc **** 
 665:/usr/include/c++/10/bits/random.tcc ****       __is.flags(__flags);
 666:/usr/include/c++/10/bits/random.tcc ****       return __is;
 667:/usr/include/c++/10/bits/random.tcc ****     }
 668:/usr/include/c++/10/bits/random.tcc **** 
 669:/usr/include/c++/10/bits/random.tcc **** 
 670:/usr/include/c++/10/bits/random.tcc ****   template<typename _RandomNumberEngine, size_t __p, size_t __r>
 671:/usr/include/c++/10/bits/random.tcc ****     constexpr size_t
 672:/usr/include/c++/10/bits/random.tcc ****     discard_block_engine<_RandomNumberEngine, __p, __r>::block_size;
 673:/usr/include/c++/10/bits/random.tcc **** 
 674:/usr/include/c++/10/bits/random.tcc ****   template<typename _RandomNumberEngine, size_t __p, size_t __r>
 675:/usr/include/c++/10/bits/random.tcc ****     constexpr size_t
 676:/usr/include/c++/10/bits/random.tcc ****     discard_block_engine<_RandomNumberEngine, __p, __r>::used_block;
 677:/usr/include/c++/10/bits/random.tcc **** 
