AARCH64 GAS  obj/Chapter13_6.s 			page 1


 GNU assembler version 2.35.2 (aarch64-linux-gnu)
	 using BFD version (GNU Binutils for Debian) 2.35.2.
 options passed	: -I -I -EL -march=armv8-a+simd -mabi=lp64 -aghl=obj/Chapter13_6.lst 
 input file    	: obj/Chapter13_6.s
 output file   	: obj/Chapter13_6.o
 target        	: aarch64-unknown-linux-gnu
 time stamp    	: 2022-07-23T17:21:21.000-0400

AARCH64 GAS  obj/Chapter13_6.s 			page 2


   1              		.arch armv8-a
   2              		.file	"Chapter13_6.cpp"
   3              		.text
   4              	.Ltext0:
   5              		.align	2
   6              		.p2align 4,,11
   7              		.global	_Z9meanStdevPdS_PKdi
   8              		.type	_Z9meanStdevPdS_PKdi, %function
   9              	_Z9meanStdevPdS_PKdi:
  10              	.LVL0:
  11              	.LFB2407:
  12              		.file 1 "Chapter13_6.cpp"
   1:Chapter13_6.cpp **** #include<iostream>
   2:Chapter13_6.cpp **** #include<iomanip>
   3:Chapter13_6.cpp **** #include<cmath>
   4:Chapter13_6.cpp **** 
   5:Chapter13_6.cpp **** using namespace std;
   6:Chapter13_6.cpp **** 
   7:Chapter13_6.cpp **** extern "C" void meanStdev_(double* mean,
   8:Chapter13_6.cpp ****                      double* stdev,
   9:Chapter13_6.cpp **** 					 const double* x,
  10:Chapter13_6.cpp **** 					 int n);
  11:Chapter13_6.cpp **** 
  12:Chapter13_6.cpp **** void meanStdev(double* mean,
  13:Chapter13_6.cpp ****                 double* stdev,
  14:Chapter13_6.cpp **** 				const double* x,
  15:Chapter13_6.cpp **** 				int n)
  16:Chapter13_6.cpp **** {
  13              		.loc 1 16 1 view -0
  14              		.cfi_startproc
  17:Chapter13_6.cpp **** 	double sum1 = 0.0;
  15              		.loc 1 17 2 view .LVU1
  18:Chapter13_6.cpp **** 	double sum2 = 0.0;
  16              		.loc 1 18 2 view .LVU2
  19:Chapter13_6.cpp **** 	
  20:Chapter13_6.cpp **** 	for(int i=0;i<n;i++){
  17              		.loc 1 20 2 view .LVU3
  18              	.LBB112:
  19              		.loc 1 20 15 view .LVU4
  20              	.LBE112:
  21:Chapter13_6.cpp **** 		sum1 += x[i]; 
  22:Chapter13_6.cpp **** 	}
  23:Chapter13_6.cpp **** 	*mean = sum1/n;
  21              		.loc 1 23 14 is_stmt 0 view .LVU5
  22 0000 6100621E 		scvtf	d1, w3
  23              	.LBB113:
  20:Chapter13_6.cpp **** 		sum1 += x[i]; 
  24              		.loc 1 20 15 view .LVU6
  25 0004 7F000071 		cmp	w3, 0
  26 0008 AD040054 		ble	.L2
  27              	.LBE113:
  17:Chapter13_6.cpp **** 	double sum2 = 0.0;
  28              		.loc 1 17 9 view .LVU7
  29 000c 00E4002F 		movi	d0, #0
  30              	.LBB114:
  20:Chapter13_6.cpp **** 		sum1 += x[i]; 
  31              		.loc 1 20 15 view .LVU8
AARCH64 GAS  obj/Chapter13_6.s 			page 3


  32 0010 040080D2 		mov	x4, 0
  33              	.LVL1:
  34 0014 1F2003D5 		.p2align 3,,7
  35              	.L4:
  21:Chapter13_6.cpp **** 		sum1 += x[i]; 
  36              		.loc 1 21 3 is_stmt 1 discriminator 2 view .LVU9
  21:Chapter13_6.cpp **** 		sum1 += x[i]; 
  37              		.loc 1 21 8 is_stmt 0 discriminator 2 view .LVU10
  38 0018 427864FC 		ldr	d2, [x2, x4, lsl 3]
  20:Chapter13_6.cpp **** 		sum1 += x[i]; 
  39              		.loc 1 20 15 discriminator 2 view .LVU11
  40 001c 84040091 		add	x4, x4, 1
  41              	.LVL2:
  21:Chapter13_6.cpp **** 		sum1 += x[i]; 
  42              		.loc 1 21 8 discriminator 2 view .LVU12
  43 0020 0028621E 		fadd	d0, d0, d2
  44              	.LVL3:
  20:Chapter13_6.cpp **** 		sum1 += x[i]; 
  45              		.loc 1 20 2 is_stmt 1 discriminator 2 view .LVU13
  20:Chapter13_6.cpp **** 		sum1 += x[i]; 
  46              		.loc 1 20 15 discriminator 2 view .LVU14
  47 0024 7F00046B 		cmp	w3, w4
  48 0028 8CFFFF54 		bgt	.L4
  49              	.LBE114:
  50              		.loc 1 23 2 view .LVU15
  51              		.loc 1 23 14 is_stmt 0 view .LVU16
  52 002c 0118611E 		fdiv	d1, d0, d1
  53              		.loc 1 23 8 view .LVU17
  54 0030 02E4002F 		movi	d2, #0
  55 0034 040080D2 		mov	x4, 0
  56 0038 010000FD 		str	d1, [x0]
  24:Chapter13_6.cpp **** 	for(int i=0;i<n;i++){
  57              		.loc 1 24 2 is_stmt 1 view .LVU18
  58              	.LVL4:
  59              	.LBB115:
  60              		.loc 1 24 15 view .LVU19
  61 003c 1F2003D5 		.p2align 3,,7
  62              	.L5:
  63              	.LBB116:
  25:Chapter13_6.cpp **** 	    double temp = x[i]-(*mean);
  64              		.loc 1 25 6 discriminator 2 view .LVU20
  65              		.loc 1 25 13 is_stmt 0 discriminator 2 view .LVU21
  66 0040 407864FC 		ldr	d0, [x2, x4, lsl 3]
  67              	.LBE116:
  24:Chapter13_6.cpp **** 	for(int i=0;i<n;i++){
  68              		.loc 1 24 15 discriminator 2 view .LVU22
  69 0044 84040091 		add	x4, x4, 1
  70              	.LVL5:
  71              	.LBB117:
  72              		.loc 1 25 13 discriminator 2 view .LVU23
  73 0048 0038611E 		fsub	d0, d0, d1
  74              	.LVL6:
  26:Chapter13_6.cpp **** 		sum2 += temp*temp;
  75              		.loc 1 26 3 is_stmt 1 discriminator 2 view .LVU24
  76              		.loc 1 26 8 is_stmt 0 discriminator 2 view .LVU25
  77 004c 0208401F 		fmadd	d2, d0, d0, d2
  78              	.LVL7:
AARCH64 GAS  obj/Chapter13_6.s 			page 4


  79              		.loc 1 26 8 discriminator 2 view .LVU26
  80              	.LBE117:
  24:Chapter13_6.cpp **** 	for(int i=0;i<n;i++){
  81              		.loc 1 24 2 is_stmt 1 discriminator 2 view .LVU27
  24:Chapter13_6.cpp **** 	for(int i=0;i<n;i++){
  82              		.loc 1 24 15 discriminator 2 view .LVU28
  83 0050 7F00046B 		cmp	w3, w4
  84 0054 6CFFFF54 		bgt	.L5
  85              	.LBE115:
  27:Chapter13_6.cpp **** 	}
  28:Chapter13_6.cpp ****     *stdev = sqrt(sum2/(n-1));	
  86              		.loc 1 28 5 view .LVU29
  87              		.loc 1 28 26 is_stmt 0 view .LVU30
  88 0058 63040051 		sub	w3, w3, #1
  89              	.LVL8:
  90              		.loc 1 28 18 view .LVU31
  91 005c 6000621E 		scvtf	d0, w3
  92              	.LVL9:
  93              		.loc 1 28 18 view .LVU32
  94 0060 4218601E 		fdiv	d2, d2, d0
  95              	.LVL10:
  96              		.loc 1 28 18 view .LVU33
  97 0064 4820601E 		fcmp	d2, #0.0
  98 0068 45010054 		bpl	.L10
  99              	.LVL11:
 100              	.L19:
 101              		.loc 1 28 18 view .LVU34
 102 006c 4040601E 		fmov	d0, d2
  16:Chapter13_6.cpp **** 	double sum1 = 0.0;
 103              		.loc 1 16 1 view .LVU35
 104 0070 FD7BBEA9 		stp	x29, x30, [sp, -32]!
 105              		.cfi_def_cfa_offset 32
 106              		.cfi_offset 29, -32
 107              		.cfi_offset 30, -24
 108 0074 FD030091 		mov	x29, sp
 109 0078 E10F00F9 		str	x1, [sp, 24]
 110              		.loc 1 28 18 view .LVU36
 111 007c 00000094 		bl	sqrt
 112              	.LVL12:
 113              		.loc 1 28 18 view .LVU37
 114 0080 E10F40F9 		ldr	x1, [sp, 24]
 115              		.loc 1 28 12 view .LVU38
 116 0084 200000FD 		str	d0, [x1]
  29:Chapter13_6.cpp **** }				
 117              		.loc 1 29 1 view .LVU39
 118 0088 FD7BC2A8 		ldp	x29, x30, [sp], 32
 119              		.cfi_restore 30
 120              		.cfi_restore 29
 121              		.cfi_def_cfa_offset 0
 122              	.LVL13:
 123              		.loc 1 29 1 view .LVU40
 124 008c C0035FD6 		ret
 125              	.LVL14:
 126              		.p2align 2,,3
 127              	.L10:
  28:Chapter13_6.cpp **** }				
 128              		.loc 1 28 18 view .LVU41
AARCH64 GAS  obj/Chapter13_6.s 			page 5


 129 0090 42C0611E 		fsqrt	d2, d2
  28:Chapter13_6.cpp **** }				
 130              		.loc 1 28 12 view .LVU42
 131 0094 220000FD 		str	d2, [x1]
 132 0098 C0035FD6 		ret
 133              	.LVL15:
 134              		.p2align 2,,3
 135              	.L2:
  23:Chapter13_6.cpp **** 	for(int i=0;i<n;i++){
 136              		.loc 1 23 2 is_stmt 1 view .LVU43
  28:Chapter13_6.cpp **** }				
 137              		.loc 1 28 26 is_stmt 0 view .LVU44
 138 009c 63040051 		sub	w3, w3, #1
 139              	.LVL16:
  23:Chapter13_6.cpp **** 	for(int i=0;i<n;i++){
 140              		.loc 1 23 14 view .LVU45
 141 00a0 02E4002F 		movi	d2, #0
  28:Chapter13_6.cpp **** }				
 142              		.loc 1 28 18 view .LVU46
 143 00a4 6000621E 		scvtf	d0, w3
  23:Chapter13_6.cpp **** 	for(int i=0;i<n;i++){
 144              		.loc 1 23 14 view .LVU47
 145 00a8 4118611E 		fdiv	d1, d2, d1
  28:Chapter13_6.cpp **** }				
 146              		.loc 1 28 18 view .LVU48
 147 00ac 4218601E 		fdiv	d2, d2, d0
  23:Chapter13_6.cpp **** 	for(int i=0;i<n;i++){
 148              		.loc 1 23 8 view .LVU49
 149 00b0 010000FD 		str	d1, [x0]
  24:Chapter13_6.cpp **** 	    double temp = x[i]-(*mean);
 150              		.loc 1 24 2 is_stmt 1 view .LVU50
 151              	.LVL17:
 152              	.LBB118:
  24:Chapter13_6.cpp **** 	    double temp = x[i]-(*mean);
 153              		.loc 1 24 15 view .LVU51
 154              	.LBE118:
  28:Chapter13_6.cpp **** }				
 155              		.loc 1 28 5 view .LVU52
 156 00b4 4820601E 		fcmp	d2, #0.0
 157 00b8 C5FEFF54 		bpl	.L10
 158 00bc ECFFFF17 		b	.L19
 159              		.cfi_endproc
 160              	.LFE2407:
 161              		.size	_Z9meanStdevPdS_PKdi, .-_Z9meanStdevPdS_PKdi
 162              		.section	.rodata.str1.8,"aMS",@progbits,1
 163              		.align	3
 164              	.LC1:
 165 0000 52657375 		.string	"Result of C++ function:"
 165      6C74206F 
 165      6620432B 
 165      2B206675 
 165      6E637469 
 166              		.align	3
 167              	.LC2:
 168 0018 6D65616E 		.string	"mean = "
 168      203D2000 
 169              		.align	3
AARCH64 GAS  obj/Chapter13_6.s 			page 6


 170              	.LC3:
 171 0020 20207374 		.string	"  std dev = "
 171      64206465 
 171      76203D20 
 171      00
 172 002d 000000   		.align	3
 173              	.LC4:
 174 0030 52657375 		.string	"Result of Asm function:"
 174      6C74206F 
 174      66204173 
 174      6D206675 
 174      6E637469 
 175              		.section	.text.startup,"ax",@progbits
 176              		.align	2
 177              		.p2align 4,,11
 178              		.global	main
 179              		.type	main, %function
 180              	main:
 181              	.LFB2408:
  30:Chapter13_6.cpp **** 					 
  31:Chapter13_6.cpp **** int main()
  32:Chapter13_6.cpp **** {
 182              		.loc 1 32 1 view -0
 183              		.cfi_startproc
  33:Chapter13_6.cpp **** 	const char nl ='\n';
 184              		.loc 1 33 2 view .LVU54
 185              	.LVL18:
  34:Chapter13_6.cpp **** 	double x[]={1,2,3,4,55,64,35,3,9,43};
 186              		.loc 1 34 2 view .LVU55
 187              		.loc 1 34 9 is_stmt 0 view .LVU56
 188 0000 04000090 		adrp	x4, .LANCHOR0
 189 0004 84000091 		add	x4, x4, :lo12:.LANCHOR0
  32:Chapter13_6.cpp **** 	const char nl ='\n';
 190              		.loc 1 32 1 view .LVU57
 191 0008 FD7BB4A9 		stp	x29, x30, [sp, -192]!
 192              		.cfi_def_cfa_offset 192
 193              		.cfi_offset 29, -192
 194              		.cfi_offset 30, -184
  35:Chapter13_6.cpp **** 	const int n = sizeof(x) / sizeof(double);
  36:Chapter13_6.cpp **** 	double mean1=0.0,stdev1=0.0;
  37:Chapter13_6.cpp **** 	double mean2=0.0,stdev2=0.0;
  38:Chapter13_6.cpp **** 	
  39:Chapter13_6.cpp **** 	meanStdev(&mean1,&stdev1,x,n);
 195              		.loc 1 39 11 view .LVU58
 196 000c 43018052 		mov	w3, 10
  32:Chapter13_6.cpp **** 	const char nl ='\n';
 197              		.loc 1 32 1 view .LVU59
 198 0010 FD030091 		mov	x29, sp
  34:Chapter13_6.cpp **** 	const int n = sizeof(x) / sizeof(double);
 199              		.loc 1 34 9 view .LVU60
 200 0014 8C3440A9 		ldp	x12, x13, [x4]
  32:Chapter13_6.cpp **** 	const char nl ='\n';
 201              		.loc 1 32 1 view .LVU61
 202 0018 F35301A9 		stp	x19, x20, [sp, 16]
 203              		.cfi_offset 19, -176
 204              		.cfi_offset 20, -168
  34:Chapter13_6.cpp **** 	const int n = sizeof(x) / sizeof(double);
AARCH64 GAS  obj/Chapter13_6.s 			page 7


 205              		.loc 1 34 9 view .LVU62
 206 001c F3C30191 		add	x19, sp, 112
 207 0020 8A2C41A9 		ldp	x10, x11, [x4, 16]
 208              		.loc 1 39 11 view .LVU63
 209 0024 E20313AA 		mov	x2, x19
  34:Chapter13_6.cpp **** 	const int n = sizeof(x) / sizeof(double);
 210              		.loc 1 34 9 view .LVU64
 211 0028 882442A9 		ldp	x8, x9, [x4, 32]
 212              		.loc 1 39 11 view .LVU65
 213 002c E1630191 		add	x1, sp, 88
  34:Chapter13_6.cpp **** 	const int n = sizeof(x) / sizeof(double);
 214              		.loc 1 34 9 view .LVU66
 215 0030 861C43A9 		ldp	x6, x7, [x4, 48]
 216              		.loc 1 39 11 view .LVU67
 217 0034 E0430191 		add	x0, sp, 80
  34:Chapter13_6.cpp **** 	const int n = sizeof(x) / sizeof(double);
 218              		.loc 1 34 9 view .LVU68
 219 0038 841444A9 		ldp	x4, x5, [x4, 64]
  32:Chapter13_6.cpp **** 	const char nl ='\n';
 220              		.loc 1 32 1 view .LVU69
 221 003c F55B02A9 		stp	x21, x22, [sp, 32]
 222              	.LBB164:
 223              	.LBB165:
 224              		.file 2 "/usr/include/c++/10/ostream"
   1:/usr/include/c++/10/ostream **** // Output streams -*- C++ -*-
   2:/usr/include/c++/10/ostream **** 
   3:/usr/include/c++/10/ostream **** // Copyright (C) 1997-2020 Free Software Foundation, Inc.
   4:/usr/include/c++/10/ostream **** //
   5:/usr/include/c++/10/ostream **** // This file is part of the GNU ISO C++ Library.  This library is free
   6:/usr/include/c++/10/ostream **** // software; you can redistribute it and/or modify it under the
   7:/usr/include/c++/10/ostream **** // terms of the GNU General Public License as published by the
   8:/usr/include/c++/10/ostream **** // Free Software Foundation; either version 3, or (at your option)
   9:/usr/include/c++/10/ostream **** // any later version.
  10:/usr/include/c++/10/ostream **** 
  11:/usr/include/c++/10/ostream **** // This library is distributed in the hope that it will be useful,
  12:/usr/include/c++/10/ostream **** // but WITHOUT ANY WARRANTY; without even the implied warranty of
  13:/usr/include/c++/10/ostream **** // MERCHANTABILITY or FITNESS FOR A PARTICULAR PURPOSE.  See the
  14:/usr/include/c++/10/ostream **** // GNU General Public License for more details.
  15:/usr/include/c++/10/ostream **** 
  16:/usr/include/c++/10/ostream **** // Under Section 7 of GPL version 3, you are granted additional
  17:/usr/include/c++/10/ostream **** // permissions described in the GCC Runtime Library Exception, version
  18:/usr/include/c++/10/ostream **** // 3.1, as published by the Free Software Foundation.
  19:/usr/include/c++/10/ostream **** 
  20:/usr/include/c++/10/ostream **** // You should have received a copy of the GNU General Public License and
  21:/usr/include/c++/10/ostream **** // a copy of the GCC Runtime Library Exception along with this program;
  22:/usr/include/c++/10/ostream **** // see the files COPYING3 and COPYING.RUNTIME respectively.  If not, see
  23:/usr/include/c++/10/ostream **** // <http://www.gnu.org/licenses/>.
  24:/usr/include/c++/10/ostream **** 
  25:/usr/include/c++/10/ostream **** /** @file include/ostream
  26:/usr/include/c++/10/ostream ****  *  This is a Standard C++ Library header.
  27:/usr/include/c++/10/ostream ****  */
  28:/usr/include/c++/10/ostream **** 
  29:/usr/include/c++/10/ostream **** //
  30:/usr/include/c++/10/ostream **** // ISO C++ 14882: 27.6.2  Output streams
  31:/usr/include/c++/10/ostream **** //
  32:/usr/include/c++/10/ostream **** 
  33:/usr/include/c++/10/ostream **** #ifndef _GLIBCXX_OSTREAM
AARCH64 GAS  obj/Chapter13_6.s 			page 8


  34:/usr/include/c++/10/ostream **** #define _GLIBCXX_OSTREAM 1
  35:/usr/include/c++/10/ostream **** 
  36:/usr/include/c++/10/ostream **** #pragma GCC system_header
  37:/usr/include/c++/10/ostream **** 
  38:/usr/include/c++/10/ostream **** #include <ios>
  39:/usr/include/c++/10/ostream **** #include <bits/ostream_insert.h>
  40:/usr/include/c++/10/ostream **** 
  41:/usr/include/c++/10/ostream **** namespace std _GLIBCXX_VISIBILITY(default)
  42:/usr/include/c++/10/ostream **** {
  43:/usr/include/c++/10/ostream **** _GLIBCXX_BEGIN_NAMESPACE_VERSION
  44:/usr/include/c++/10/ostream **** 
  45:/usr/include/c++/10/ostream ****   /**
  46:/usr/include/c++/10/ostream ****    *  @brief  Template class basic_ostream.
  47:/usr/include/c++/10/ostream ****    *  @ingroup io
  48:/usr/include/c++/10/ostream ****    *
  49:/usr/include/c++/10/ostream ****    *  @tparam _CharT  Type of character stream.
  50:/usr/include/c++/10/ostream ****    *  @tparam _Traits  Traits for character type, defaults to
  51:/usr/include/c++/10/ostream ****    *                   char_traits<_CharT>.
  52:/usr/include/c++/10/ostream ****    *
  53:/usr/include/c++/10/ostream ****    *  This is the base class for all output streams.  It provides text
  54:/usr/include/c++/10/ostream ****    *  formatting of all builtin types, and communicates with any class
  55:/usr/include/c++/10/ostream ****    *  derived from basic_streambuf to do the actual output.
  56:/usr/include/c++/10/ostream ****   */
  57:/usr/include/c++/10/ostream ****   template<typename _CharT, typename _Traits>
  58:/usr/include/c++/10/ostream ****     class basic_ostream : virtual public basic_ios<_CharT, _Traits>
  59:/usr/include/c++/10/ostream ****     {
  60:/usr/include/c++/10/ostream ****     public:
  61:/usr/include/c++/10/ostream ****       // Types (inherited from basic_ios):
  62:/usr/include/c++/10/ostream ****       typedef _CharT			 		char_type;
  63:/usr/include/c++/10/ostream ****       typedef typename _Traits::int_type 		int_type;
  64:/usr/include/c++/10/ostream ****       typedef typename _Traits::pos_type 		pos_type;
  65:/usr/include/c++/10/ostream ****       typedef typename _Traits::off_type 		off_type;
  66:/usr/include/c++/10/ostream ****       typedef _Traits			 		traits_type;
  67:/usr/include/c++/10/ostream **** 
  68:/usr/include/c++/10/ostream ****       // Non-standard Types:
  69:/usr/include/c++/10/ostream ****       typedef basic_streambuf<_CharT, _Traits> 		__streambuf_type;
  70:/usr/include/c++/10/ostream ****       typedef basic_ios<_CharT, _Traits>		__ios_type;
  71:/usr/include/c++/10/ostream ****       typedef basic_ostream<_CharT, _Traits>		__ostream_type;
  72:/usr/include/c++/10/ostream ****       typedef num_put<_CharT, ostreambuf_iterator<_CharT, _Traits> >
  73:/usr/include/c++/10/ostream ****       							__num_put_type;
  74:/usr/include/c++/10/ostream ****       typedef ctype<_CharT>	      			__ctype_type;
  75:/usr/include/c++/10/ostream **** 
  76:/usr/include/c++/10/ostream ****       /**
  77:/usr/include/c++/10/ostream ****        *  @brief  Base constructor.
  78:/usr/include/c++/10/ostream ****        *
  79:/usr/include/c++/10/ostream ****        *  This ctor is almost never called by the user directly, rather from
  80:/usr/include/c++/10/ostream ****        *  derived classes' initialization lists, which pass a pointer to
  81:/usr/include/c++/10/ostream ****        *  their own stream buffer.
  82:/usr/include/c++/10/ostream ****       */
  83:/usr/include/c++/10/ostream ****       explicit
  84:/usr/include/c++/10/ostream ****       basic_ostream(__streambuf_type* __sb)
  85:/usr/include/c++/10/ostream ****       { this->init(__sb); }
  86:/usr/include/c++/10/ostream **** 
  87:/usr/include/c++/10/ostream ****       /**
  88:/usr/include/c++/10/ostream ****        *  @brief  Base destructor.
  89:/usr/include/c++/10/ostream ****        *
  90:/usr/include/c++/10/ostream ****        *  This does very little apart from providing a virtual base dtor.
AARCH64 GAS  obj/Chapter13_6.s 			page 9


  91:/usr/include/c++/10/ostream ****       */
  92:/usr/include/c++/10/ostream ****       virtual
  93:/usr/include/c++/10/ostream ****       ~basic_ostream() { }
  94:/usr/include/c++/10/ostream **** 
  95:/usr/include/c++/10/ostream ****       /// Safe prefix/suffix operations.
  96:/usr/include/c++/10/ostream ****       class sentry;
  97:/usr/include/c++/10/ostream ****       friend class sentry;
  98:/usr/include/c++/10/ostream **** 
  99:/usr/include/c++/10/ostream ****       //@{
 100:/usr/include/c++/10/ostream ****       /**
 101:/usr/include/c++/10/ostream ****        *  @brief  Interface for manipulators.
 102:/usr/include/c++/10/ostream ****        *
 103:/usr/include/c++/10/ostream ****        *  Manipulators such as @c std::endl and @c std::hex use these
 104:/usr/include/c++/10/ostream ****        *  functions in constructs like "std::cout << std::endl".  For more
 105:/usr/include/c++/10/ostream ****        *  information, see the iomanip header.
 106:/usr/include/c++/10/ostream ****       */
 107:/usr/include/c++/10/ostream ****       __ostream_type&
 108:/usr/include/c++/10/ostream ****       operator<<(__ostream_type& (*__pf)(__ostream_type&))
 109:/usr/include/c++/10/ostream ****       {
 110:/usr/include/c++/10/ostream **** 	// _GLIBCXX_RESOLVE_LIB_DEFECTS
 111:/usr/include/c++/10/ostream **** 	// DR 60. What is a formatted input function?
 112:/usr/include/c++/10/ostream **** 	// The inserters for manipulators are *not* formatted output functions.
 113:/usr/include/c++/10/ostream **** 	return __pf(*this);
 114:/usr/include/c++/10/ostream ****       }
 115:/usr/include/c++/10/ostream **** 
 116:/usr/include/c++/10/ostream ****       __ostream_type&
 117:/usr/include/c++/10/ostream ****       operator<<(__ios_type& (*__pf)(__ios_type&))
 118:/usr/include/c++/10/ostream ****       {
 119:/usr/include/c++/10/ostream **** 	// _GLIBCXX_RESOLVE_LIB_DEFECTS
 120:/usr/include/c++/10/ostream **** 	// DR 60. What is a formatted input function?
 121:/usr/include/c++/10/ostream **** 	// The inserters for manipulators are *not* formatted output functions.
 122:/usr/include/c++/10/ostream **** 	__pf(*this);
 123:/usr/include/c++/10/ostream **** 	return *this;
 124:/usr/include/c++/10/ostream ****       }
 125:/usr/include/c++/10/ostream **** 
 126:/usr/include/c++/10/ostream ****       __ostream_type&
 127:/usr/include/c++/10/ostream ****       operator<<(ios_base& (*__pf) (ios_base&))
 128:/usr/include/c++/10/ostream ****       {
 129:/usr/include/c++/10/ostream **** 	// _GLIBCXX_RESOLVE_LIB_DEFECTS
 130:/usr/include/c++/10/ostream **** 	// DR 60. What is a formatted input function?
 131:/usr/include/c++/10/ostream **** 	// The inserters for manipulators are *not* formatted output functions.
 132:/usr/include/c++/10/ostream **** 	__pf(*this);
 133:/usr/include/c++/10/ostream **** 	return *this;
 134:/usr/include/c++/10/ostream ****       }
 135:/usr/include/c++/10/ostream ****       //@}
 136:/usr/include/c++/10/ostream **** 
 137:/usr/include/c++/10/ostream ****       //@{
 138:/usr/include/c++/10/ostream ****       /**
 139:/usr/include/c++/10/ostream ****        *  @name Inserters
 140:/usr/include/c++/10/ostream ****        *
 141:/usr/include/c++/10/ostream ****        *  All the @c operator<< functions (aka <em>formatted output
 142:/usr/include/c++/10/ostream ****        *  functions</em>) have some common behavior.  Each starts by
 143:/usr/include/c++/10/ostream ****        *  constructing a temporary object of type std::basic_ostream::sentry.
 144:/usr/include/c++/10/ostream ****        *  This can have several effects, concluding with the setting of a
 145:/usr/include/c++/10/ostream ****        *  status flag; see the sentry documentation for more.
 146:/usr/include/c++/10/ostream ****        *
 147:/usr/include/c++/10/ostream ****        *  If the sentry status is good, the function tries to generate
AARCH64 GAS  obj/Chapter13_6.s 			page 10


 148:/usr/include/c++/10/ostream ****        *  whatever data is appropriate for the type of the argument.
 149:/usr/include/c++/10/ostream ****        *
 150:/usr/include/c++/10/ostream ****        *  If an exception is thrown during insertion, ios_base::badbit
 151:/usr/include/c++/10/ostream ****        *  will be turned on in the stream's error state without causing an
 152:/usr/include/c++/10/ostream ****        *  ios_base::failure to be thrown.  The original exception will then
 153:/usr/include/c++/10/ostream ****        *  be rethrown.
 154:/usr/include/c++/10/ostream ****       */
 155:/usr/include/c++/10/ostream **** 
 156:/usr/include/c++/10/ostream ****       //@{
 157:/usr/include/c++/10/ostream ****       /**
 158:/usr/include/c++/10/ostream ****        *  @brief Integer arithmetic inserters
 159:/usr/include/c++/10/ostream ****        *  @param  __n A variable of builtin integral type.
 160:/usr/include/c++/10/ostream ****        *  @return  @c *this if successful
 161:/usr/include/c++/10/ostream ****        *
 162:/usr/include/c++/10/ostream ****        *  These functions use the stream's current locale (specifically, the
 163:/usr/include/c++/10/ostream ****        *  @c num_get facet) to perform numeric formatting.
 164:/usr/include/c++/10/ostream ****       */
 165:/usr/include/c++/10/ostream ****       __ostream_type&
 166:/usr/include/c++/10/ostream ****       operator<<(long __n)
 167:/usr/include/c++/10/ostream ****       { return _M_insert(__n); }
 168:/usr/include/c++/10/ostream **** 
 169:/usr/include/c++/10/ostream ****       __ostream_type&
 170:/usr/include/c++/10/ostream ****       operator<<(unsigned long __n)
 171:/usr/include/c++/10/ostream ****       { return _M_insert(__n); }
 172:/usr/include/c++/10/ostream **** 
 173:/usr/include/c++/10/ostream ****       __ostream_type&
 174:/usr/include/c++/10/ostream ****       operator<<(bool __n)
 175:/usr/include/c++/10/ostream ****       { return _M_insert(__n); }
 176:/usr/include/c++/10/ostream **** 
 177:/usr/include/c++/10/ostream ****       __ostream_type&
 178:/usr/include/c++/10/ostream ****       operator<<(short __n);
 179:/usr/include/c++/10/ostream **** 
 180:/usr/include/c++/10/ostream ****       __ostream_type&
 181:/usr/include/c++/10/ostream ****       operator<<(unsigned short __n)
 182:/usr/include/c++/10/ostream ****       {
 183:/usr/include/c++/10/ostream **** 	// _GLIBCXX_RESOLVE_LIB_DEFECTS
 184:/usr/include/c++/10/ostream **** 	// 117. basic_ostream uses nonexistent num_put member functions.
 185:/usr/include/c++/10/ostream **** 	return _M_insert(static_cast<unsigned long>(__n));
 186:/usr/include/c++/10/ostream ****       }
 187:/usr/include/c++/10/ostream **** 
 188:/usr/include/c++/10/ostream ****       __ostream_type&
 189:/usr/include/c++/10/ostream ****       operator<<(int __n);
 190:/usr/include/c++/10/ostream **** 
 191:/usr/include/c++/10/ostream ****       __ostream_type&
 192:/usr/include/c++/10/ostream ****       operator<<(unsigned int __n)
 193:/usr/include/c++/10/ostream ****       {
 194:/usr/include/c++/10/ostream **** 	// _GLIBCXX_RESOLVE_LIB_DEFECTS
 195:/usr/include/c++/10/ostream **** 	// 117. basic_ostream uses nonexistent num_put member functions.
 196:/usr/include/c++/10/ostream **** 	return _M_insert(static_cast<unsigned long>(__n));
 197:/usr/include/c++/10/ostream ****       }
 198:/usr/include/c++/10/ostream **** 
 199:/usr/include/c++/10/ostream **** #ifdef _GLIBCXX_USE_LONG_LONG
 200:/usr/include/c++/10/ostream ****       __ostream_type&
 201:/usr/include/c++/10/ostream ****       operator<<(long long __n)
 202:/usr/include/c++/10/ostream ****       { return _M_insert(__n); }
 203:/usr/include/c++/10/ostream **** 
 204:/usr/include/c++/10/ostream ****       __ostream_type&
AARCH64 GAS  obj/Chapter13_6.s 			page 11


 205:/usr/include/c++/10/ostream ****       operator<<(unsigned long long __n)
 206:/usr/include/c++/10/ostream ****       { return _M_insert(__n); }
 207:/usr/include/c++/10/ostream **** #endif
 208:/usr/include/c++/10/ostream ****       //@}
 209:/usr/include/c++/10/ostream **** 
 210:/usr/include/c++/10/ostream ****       //@{
 211:/usr/include/c++/10/ostream ****       /**
 212:/usr/include/c++/10/ostream ****        *  @brief  Floating point arithmetic inserters
 213:/usr/include/c++/10/ostream ****        *  @param  __f A variable of builtin floating point type.
 214:/usr/include/c++/10/ostream ****        *  @return  @c *this if successful
 215:/usr/include/c++/10/ostream ****        *
 216:/usr/include/c++/10/ostream ****        *  These functions use the stream's current locale (specifically, the
 217:/usr/include/c++/10/ostream ****        *  @c num_get facet) to perform numeric formatting.
 218:/usr/include/c++/10/ostream ****       */
 219:/usr/include/c++/10/ostream ****       __ostream_type&
 220:/usr/include/c++/10/ostream ****       operator<<(double __f)
 221:/usr/include/c++/10/ostream ****       { return _M_insert(__f); }
 222:/usr/include/c++/10/ostream **** 
 223:/usr/include/c++/10/ostream ****       __ostream_type&
 224:/usr/include/c++/10/ostream ****       operator<<(float __f)
 225:/usr/include/c++/10/ostream ****       {
 226:/usr/include/c++/10/ostream **** 	// _GLIBCXX_RESOLVE_LIB_DEFECTS
 227:/usr/include/c++/10/ostream **** 	// 117. basic_ostream uses nonexistent num_put member functions.
 228:/usr/include/c++/10/ostream **** 	return _M_insert(static_cast<double>(__f));
 229:/usr/include/c++/10/ostream ****       }
 230:/usr/include/c++/10/ostream **** 
 231:/usr/include/c++/10/ostream ****       __ostream_type&
 232:/usr/include/c++/10/ostream ****       operator<<(long double __f)
 233:/usr/include/c++/10/ostream ****       { return _M_insert(__f); }
 234:/usr/include/c++/10/ostream ****       //@}
 235:/usr/include/c++/10/ostream **** 
 236:/usr/include/c++/10/ostream ****       /**
 237:/usr/include/c++/10/ostream ****        *  @brief  Pointer arithmetic inserters
 238:/usr/include/c++/10/ostream ****        *  @param  __p A variable of pointer type.
 239:/usr/include/c++/10/ostream ****        *  @return  @c *this if successful
 240:/usr/include/c++/10/ostream ****        *
 241:/usr/include/c++/10/ostream ****        *  These functions use the stream's current locale (specifically, the
 242:/usr/include/c++/10/ostream ****        *  @c num_get facet) to perform numeric formatting.
 243:/usr/include/c++/10/ostream ****       */
 244:/usr/include/c++/10/ostream ****       __ostream_type&
 245:/usr/include/c++/10/ostream ****       operator<<(const void* __p)
 246:/usr/include/c++/10/ostream ****       { return _M_insert(__p); }
 247:/usr/include/c++/10/ostream **** 
 248:/usr/include/c++/10/ostream **** #if __cplusplus >= 201703L
 249:/usr/include/c++/10/ostream ****       __ostream_type&
 250:/usr/include/c++/10/ostream ****       operator<<(nullptr_t)
 251:/usr/include/c++/10/ostream ****       { return *this << "nullptr"; }
 252:/usr/include/c++/10/ostream **** #endif
 253:/usr/include/c++/10/ostream **** 
 254:/usr/include/c++/10/ostream ****       /**
 255:/usr/include/c++/10/ostream ****        *  @brief  Extracting from another streambuf.
 256:/usr/include/c++/10/ostream ****        *  @param  __sb  A pointer to a streambuf
 257:/usr/include/c++/10/ostream ****        *
 258:/usr/include/c++/10/ostream ****        *  This function behaves like one of the basic arithmetic extractors,
 259:/usr/include/c++/10/ostream ****        *  in that it also constructs a sentry object and has the same error
 260:/usr/include/c++/10/ostream ****        *  handling behavior.
 261:/usr/include/c++/10/ostream ****        *
AARCH64 GAS  obj/Chapter13_6.s 			page 12


 262:/usr/include/c++/10/ostream ****        *  If @p __sb is NULL, the stream will set failbit in its error state.
 263:/usr/include/c++/10/ostream ****        *
 264:/usr/include/c++/10/ostream ****        *  Characters are extracted from @p __sb and inserted into @c *this
 265:/usr/include/c++/10/ostream ****        *  until one of the following occurs:
 266:/usr/include/c++/10/ostream ****        *
 267:/usr/include/c++/10/ostream ****        *  - the input stream reaches end-of-file,
 268:/usr/include/c++/10/ostream ****        *  - insertion into the output sequence fails (in this case, the
 269:/usr/include/c++/10/ostream ****        *    character that would have been inserted is not extracted), or
 270:/usr/include/c++/10/ostream ****        *  - an exception occurs while getting a character from @p __sb, which
 271:/usr/include/c++/10/ostream ****        *    sets failbit in the error state
 272:/usr/include/c++/10/ostream ****        *
 273:/usr/include/c++/10/ostream ****        *  If the function inserts no characters, failbit is set.
 274:/usr/include/c++/10/ostream ****       */
 275:/usr/include/c++/10/ostream ****       __ostream_type&
 276:/usr/include/c++/10/ostream ****       operator<<(__streambuf_type* __sb);
 277:/usr/include/c++/10/ostream ****       //@}
 278:/usr/include/c++/10/ostream **** 
 279:/usr/include/c++/10/ostream ****       //@{
 280:/usr/include/c++/10/ostream ****       /**
 281:/usr/include/c++/10/ostream ****        *  @name Unformatted Output Functions
 282:/usr/include/c++/10/ostream ****        *
 283:/usr/include/c++/10/ostream ****        *  All the unformatted output functions have some common behavior.
 284:/usr/include/c++/10/ostream ****        *  Each starts by constructing a temporary object of type
 285:/usr/include/c++/10/ostream ****        *  std::basic_ostream::sentry.  This has several effects, concluding
 286:/usr/include/c++/10/ostream ****        *  with the setting of a status flag; see the sentry documentation
 287:/usr/include/c++/10/ostream ****        *  for more.
 288:/usr/include/c++/10/ostream ****        *
 289:/usr/include/c++/10/ostream ****        *  If the sentry status is good, the function tries to generate
 290:/usr/include/c++/10/ostream ****        *  whatever data is appropriate for the type of the argument.
 291:/usr/include/c++/10/ostream ****        *
 292:/usr/include/c++/10/ostream ****        *  If an exception is thrown during insertion, ios_base::badbit
 293:/usr/include/c++/10/ostream ****        *  will be turned on in the stream's error state.  If badbit is on in
 294:/usr/include/c++/10/ostream ****        *  the stream's exceptions mask, the exception will be rethrown
 295:/usr/include/c++/10/ostream ****        *  without completing its actions.
 296:/usr/include/c++/10/ostream ****       */
 297:/usr/include/c++/10/ostream **** 
 298:/usr/include/c++/10/ostream ****       /**
 299:/usr/include/c++/10/ostream ****        *  @brief  Simple insertion.
 300:/usr/include/c++/10/ostream ****        *  @param  __c  The character to insert.
 301:/usr/include/c++/10/ostream ****        *  @return  *this
 302:/usr/include/c++/10/ostream ****        *
 303:/usr/include/c++/10/ostream ****        *  Tries to insert @p __c.
 304:/usr/include/c++/10/ostream ****        *
 305:/usr/include/c++/10/ostream ****        *  @note  This function is not overloaded on signed char and
 306:/usr/include/c++/10/ostream ****        *         unsigned char.
 307:/usr/include/c++/10/ostream ****       */
 308:/usr/include/c++/10/ostream ****       __ostream_type&
 309:/usr/include/c++/10/ostream ****       put(char_type __c);
 310:/usr/include/c++/10/ostream **** 
 311:/usr/include/c++/10/ostream ****       /**
 312:/usr/include/c++/10/ostream ****        *  @brief  Core write functionality, without sentry.
 313:/usr/include/c++/10/ostream ****        *  @param  __s  The array to insert.
 314:/usr/include/c++/10/ostream ****        *  @param  __n  Maximum number of characters to insert.
 315:/usr/include/c++/10/ostream ****       */
 316:/usr/include/c++/10/ostream ****       void
 317:/usr/include/c++/10/ostream ****       _M_write(const char_type* __s, streamsize __n)
 318:/usr/include/c++/10/ostream ****       {
AARCH64 GAS  obj/Chapter13_6.s 			page 13


 319:/usr/include/c++/10/ostream **** 	const streamsize __put = this->rdbuf()->sputn(__s, __n);
 320:/usr/include/c++/10/ostream **** 	if (__put != __n)
 321:/usr/include/c++/10/ostream **** 	  this->setstate(ios_base::badbit);
 322:/usr/include/c++/10/ostream ****       }
 323:/usr/include/c++/10/ostream **** 
 324:/usr/include/c++/10/ostream ****       /**
 325:/usr/include/c++/10/ostream ****        *  @brief  Character string insertion.
 326:/usr/include/c++/10/ostream ****        *  @param  __s  The array to insert.
 327:/usr/include/c++/10/ostream ****        *  @param  __n  Maximum number of characters to insert.
 328:/usr/include/c++/10/ostream ****        *  @return  *this
 329:/usr/include/c++/10/ostream ****        *
 330:/usr/include/c++/10/ostream ****        *  Characters are copied from @p __s and inserted into the stream until
 331:/usr/include/c++/10/ostream ****        *  one of the following happens:
 332:/usr/include/c++/10/ostream ****        *
 333:/usr/include/c++/10/ostream ****        *  - @p __n characters are inserted
 334:/usr/include/c++/10/ostream ****        *  - inserting into the output sequence fails (in this case, badbit
 335:/usr/include/c++/10/ostream ****        *    will be set in the stream's error state)
 336:/usr/include/c++/10/ostream ****        *
 337:/usr/include/c++/10/ostream ****        *  @note  This function is not overloaded on signed char and
 338:/usr/include/c++/10/ostream ****        *         unsigned char.
 339:/usr/include/c++/10/ostream ****       */
 340:/usr/include/c++/10/ostream ****       __ostream_type&
 341:/usr/include/c++/10/ostream ****       write(const char_type* __s, streamsize __n);
 342:/usr/include/c++/10/ostream ****       //@}
 343:/usr/include/c++/10/ostream **** 
 344:/usr/include/c++/10/ostream ****       /**
 345:/usr/include/c++/10/ostream ****        *  @brief  Synchronizing the stream buffer.
 346:/usr/include/c++/10/ostream ****        *  @return  *this
 347:/usr/include/c++/10/ostream ****        *
 348:/usr/include/c++/10/ostream ****        *  If @c rdbuf() is a null pointer, changes nothing.
 349:/usr/include/c++/10/ostream ****        *
 350:/usr/include/c++/10/ostream ****        *  Otherwise, calls @c rdbuf()->pubsync(), and if that returns -1,
 351:/usr/include/c++/10/ostream ****        *  sets badbit.
 352:/usr/include/c++/10/ostream ****       */
 353:/usr/include/c++/10/ostream ****       __ostream_type&
 354:/usr/include/c++/10/ostream ****       flush();
 355:/usr/include/c++/10/ostream **** 
 356:/usr/include/c++/10/ostream ****       /**
 357:/usr/include/c++/10/ostream ****        *  @brief  Getting the current write position.
 358:/usr/include/c++/10/ostream ****        *  @return  A file position object.
 359:/usr/include/c++/10/ostream ****        *
 360:/usr/include/c++/10/ostream ****        *  If @c fail() is not false, returns @c pos_type(-1) to indicate
 361:/usr/include/c++/10/ostream ****        *  failure.  Otherwise returns @c rdbuf()->pubseekoff(0,cur,out).
 362:/usr/include/c++/10/ostream ****       */
 363:/usr/include/c++/10/ostream ****       pos_type
 364:/usr/include/c++/10/ostream ****       tellp();
 365:/usr/include/c++/10/ostream **** 
 366:/usr/include/c++/10/ostream ****       /**
 367:/usr/include/c++/10/ostream ****        *  @brief  Changing the current write position.
 368:/usr/include/c++/10/ostream ****        *  @param  __pos  A file position object.
 369:/usr/include/c++/10/ostream ****        *  @return  *this
 370:/usr/include/c++/10/ostream ****        *
 371:/usr/include/c++/10/ostream ****        *  If @c fail() is not true, calls @c rdbuf()->pubseekpos(pos).  If
 372:/usr/include/c++/10/ostream ****        *  that function fails, sets failbit.
 373:/usr/include/c++/10/ostream ****       */
 374:/usr/include/c++/10/ostream ****       __ostream_type&
 375:/usr/include/c++/10/ostream ****       seekp(pos_type);
AARCH64 GAS  obj/Chapter13_6.s 			page 14


 376:/usr/include/c++/10/ostream **** 
 377:/usr/include/c++/10/ostream ****       /**
 378:/usr/include/c++/10/ostream ****        *  @brief  Changing the current write position.
 379:/usr/include/c++/10/ostream ****        *  @param  __off  A file offset object.
 380:/usr/include/c++/10/ostream ****        *  @param  __dir  The direction in which to seek.
 381:/usr/include/c++/10/ostream ****        *  @return  *this
 382:/usr/include/c++/10/ostream ****        *
 383:/usr/include/c++/10/ostream ****        *  If @c fail() is not true, calls @c rdbuf()->pubseekoff(off,dir).
 384:/usr/include/c++/10/ostream ****        *  If that function fails, sets failbit.
 385:/usr/include/c++/10/ostream ****       */
 386:/usr/include/c++/10/ostream ****        __ostream_type&
 387:/usr/include/c++/10/ostream ****       seekp(off_type, ios_base::seekdir);
 388:/usr/include/c++/10/ostream **** 
 389:/usr/include/c++/10/ostream ****     protected:
 390:/usr/include/c++/10/ostream ****       basic_ostream()
 391:/usr/include/c++/10/ostream ****       { this->init(0); }
 392:/usr/include/c++/10/ostream **** 
 393:/usr/include/c++/10/ostream **** #if __cplusplus >= 201103L
 394:/usr/include/c++/10/ostream ****       // Non-standard constructor that does not call init()
 395:/usr/include/c++/10/ostream ****       basic_ostream(basic_iostream<_CharT, _Traits>&) { }
 396:/usr/include/c++/10/ostream **** 
 397:/usr/include/c++/10/ostream ****       basic_ostream(const basic_ostream&) = delete;
 398:/usr/include/c++/10/ostream **** 
 399:/usr/include/c++/10/ostream ****       basic_ostream(basic_ostream&& __rhs)
 400:/usr/include/c++/10/ostream ****       : __ios_type()
 401:/usr/include/c++/10/ostream ****       { __ios_type::move(__rhs); }
 402:/usr/include/c++/10/ostream **** 
 403:/usr/include/c++/10/ostream ****       // 27.7.3.3 Assign/swap
 404:/usr/include/c++/10/ostream **** 
 405:/usr/include/c++/10/ostream ****       basic_ostream& operator=(const basic_ostream&) = delete;
 406:/usr/include/c++/10/ostream **** 
 407:/usr/include/c++/10/ostream ****       basic_ostream&
 408:/usr/include/c++/10/ostream ****       operator=(basic_ostream&& __rhs)
 409:/usr/include/c++/10/ostream ****       {
 410:/usr/include/c++/10/ostream **** 	swap(__rhs);
 411:/usr/include/c++/10/ostream **** 	return *this;
 412:/usr/include/c++/10/ostream ****       }
 413:/usr/include/c++/10/ostream **** 
 414:/usr/include/c++/10/ostream ****       void
 415:/usr/include/c++/10/ostream ****       swap(basic_ostream& __rhs)
 416:/usr/include/c++/10/ostream ****       { __ios_type::swap(__rhs); }
 417:/usr/include/c++/10/ostream **** #endif
 418:/usr/include/c++/10/ostream **** 
 419:/usr/include/c++/10/ostream ****       template<typename _ValueT>
 420:/usr/include/c++/10/ostream **** 	__ostream_type&
 421:/usr/include/c++/10/ostream **** 	_M_insert(_ValueT __v);
 422:/usr/include/c++/10/ostream ****     };
 423:/usr/include/c++/10/ostream **** 
 424:/usr/include/c++/10/ostream ****   /**
 425:/usr/include/c++/10/ostream ****    *  @brief  Performs setup work for output streams.
 426:/usr/include/c++/10/ostream ****    *
 427:/usr/include/c++/10/ostream ****    *  Objects of this class are created before all of the standard
 428:/usr/include/c++/10/ostream ****    *  inserters are run.  It is responsible for <em>exception-safe prefix and
 429:/usr/include/c++/10/ostream ****    *  suffix operations</em>.
 430:/usr/include/c++/10/ostream ****   */
 431:/usr/include/c++/10/ostream ****   template <typename _CharT, typename _Traits>
 432:/usr/include/c++/10/ostream ****     class basic_ostream<_CharT, _Traits>::sentry
AARCH64 GAS  obj/Chapter13_6.s 			page 15


 433:/usr/include/c++/10/ostream ****     {
 434:/usr/include/c++/10/ostream ****       // Data Members.
 435:/usr/include/c++/10/ostream ****       bool 				_M_ok;
 436:/usr/include/c++/10/ostream ****       basic_ostream<_CharT, _Traits>& 	_M_os;
 437:/usr/include/c++/10/ostream **** 
 438:/usr/include/c++/10/ostream ****     public:
 439:/usr/include/c++/10/ostream ****       /**
 440:/usr/include/c++/10/ostream ****        *  @brief  The constructor performs preparatory work.
 441:/usr/include/c++/10/ostream ****        *  @param  __os  The output stream to guard.
 442:/usr/include/c++/10/ostream ****        *
 443:/usr/include/c++/10/ostream ****        *  If the stream state is good (@a __os.good() is true), then if the
 444:/usr/include/c++/10/ostream ****        *  stream is tied to another output stream, @c is.tie()->flush()
 445:/usr/include/c++/10/ostream ****        *  is called to synchronize the output sequences.
 446:/usr/include/c++/10/ostream ****        *
 447:/usr/include/c++/10/ostream ****        *  If the stream state is still good, then the sentry state becomes
 448:/usr/include/c++/10/ostream ****        *  true (@a okay).
 449:/usr/include/c++/10/ostream ****       */
 450:/usr/include/c++/10/ostream ****       explicit
 451:/usr/include/c++/10/ostream ****       sentry(basic_ostream<_CharT, _Traits>& __os);
 452:/usr/include/c++/10/ostream **** 
 453:/usr/include/c++/10/ostream **** #pragma GCC diagnostic push
 454:/usr/include/c++/10/ostream **** #pragma GCC diagnostic ignored "-Wdeprecated-declarations"
 455:/usr/include/c++/10/ostream ****       /**
 456:/usr/include/c++/10/ostream ****        *  @brief  Possibly flushes the stream.
 457:/usr/include/c++/10/ostream ****        *
 458:/usr/include/c++/10/ostream ****        *  If @c ios_base::unitbuf is set in @c os.flags(), and
 459:/usr/include/c++/10/ostream ****        *  @c std::uncaught_exception() is true, the sentry destructor calls
 460:/usr/include/c++/10/ostream ****        *  @c flush() on the output stream.
 461:/usr/include/c++/10/ostream ****       */
 462:/usr/include/c++/10/ostream ****       ~sentry()
 463:/usr/include/c++/10/ostream ****       {
 464:/usr/include/c++/10/ostream **** 	// XXX MT
 465:/usr/include/c++/10/ostream **** 	if (bool(_M_os.flags() & ios_base::unitbuf) && !uncaught_exception())
 466:/usr/include/c++/10/ostream **** 	  {
 467:/usr/include/c++/10/ostream **** 	    // Can't call flush directly or else will get into recursive lock.
 468:/usr/include/c++/10/ostream **** 	    if (_M_os.rdbuf() && _M_os.rdbuf()->pubsync() == -1)
 469:/usr/include/c++/10/ostream **** 	      _M_os.setstate(ios_base::badbit);
 470:/usr/include/c++/10/ostream **** 	  }
 471:/usr/include/c++/10/ostream ****       }
 472:/usr/include/c++/10/ostream **** #pragma GCC diagnostic pop
 473:/usr/include/c++/10/ostream **** 
 474:/usr/include/c++/10/ostream ****       /**
 475:/usr/include/c++/10/ostream ****        *  @brief  Quick status checking.
 476:/usr/include/c++/10/ostream ****        *  @return  The sentry state.
 477:/usr/include/c++/10/ostream ****        *
 478:/usr/include/c++/10/ostream ****        *  For ease of use, sentries may be converted to booleans.  The
 479:/usr/include/c++/10/ostream ****        *  return value is that of the sentry state (true == okay).
 480:/usr/include/c++/10/ostream ****       */
 481:/usr/include/c++/10/ostream **** #if __cplusplus >= 201103L
 482:/usr/include/c++/10/ostream ****       explicit
 483:/usr/include/c++/10/ostream **** #endif
 484:/usr/include/c++/10/ostream ****       operator bool() const
 485:/usr/include/c++/10/ostream ****       { return _M_ok; }
 486:/usr/include/c++/10/ostream ****     };
 487:/usr/include/c++/10/ostream **** 
 488:/usr/include/c++/10/ostream ****   //@{
 489:/usr/include/c++/10/ostream ****   /**
AARCH64 GAS  obj/Chapter13_6.s 			page 16


 490:/usr/include/c++/10/ostream ****    *  @brief  Character inserters
 491:/usr/include/c++/10/ostream ****    *  @param  __out  An output stream.
 492:/usr/include/c++/10/ostream ****    *  @param  __c  A character.
 493:/usr/include/c++/10/ostream ****    *  @return  out
 494:/usr/include/c++/10/ostream ****    *
 495:/usr/include/c++/10/ostream ****    *  Behaves like one of the formatted arithmetic inserters described in
 496:/usr/include/c++/10/ostream ****    *  std::basic_ostream.  After constructing a sentry object with good
 497:/usr/include/c++/10/ostream ****    *  status, this function inserts a single character and any required
 498:/usr/include/c++/10/ostream ****    *  padding (as determined by [22.2.2.2.2]).  @c __out.width(0) is then
 499:/usr/include/c++/10/ostream ****    *  called.
 500:/usr/include/c++/10/ostream ****    *
 501:/usr/include/c++/10/ostream ****    *  If @p __c is of type @c char and the character type of the stream is not
 502:/usr/include/c++/10/ostream ****    *  @c char, the character is widened before insertion.
 503:/usr/include/c++/10/ostream ****   */
 504:/usr/include/c++/10/ostream ****   template<typename _CharT, typename _Traits>
 505:/usr/include/c++/10/ostream ****     inline basic_ostream<_CharT, _Traits>&
 506:/usr/include/c++/10/ostream ****     operator<<(basic_ostream<_CharT, _Traits>& __out, _CharT __c)
 507:/usr/include/c++/10/ostream ****     { return __ostream_insert(__out, &__c, 1); }
 508:/usr/include/c++/10/ostream **** 
 509:/usr/include/c++/10/ostream ****   template<typename _CharT, typename _Traits>
 510:/usr/include/c++/10/ostream ****     inline basic_ostream<_CharT, _Traits>&
 511:/usr/include/c++/10/ostream ****     operator<<(basic_ostream<_CharT, _Traits>& __out, char __c)
 512:/usr/include/c++/10/ostream ****     { return (__out << __out.widen(__c)); }
 513:/usr/include/c++/10/ostream **** 
 514:/usr/include/c++/10/ostream ****   // Specialization
 515:/usr/include/c++/10/ostream ****   template<typename _Traits>
 516:/usr/include/c++/10/ostream ****     inline basic_ostream<char, _Traits>&
 517:/usr/include/c++/10/ostream ****     operator<<(basic_ostream<char, _Traits>& __out, char __c)
 518:/usr/include/c++/10/ostream ****     { return __ostream_insert(__out, &__c, 1); }
 225              		.loc 2 518 30 view .LVU70
 226 0040 F43F0191 		add	x20, sp, 79
 227              	.LBE165:
 228              	.LBE164:
  32:Chapter13_6.cpp **** 	const char nl ='\n';
 229              		.loc 1 32 1 view .LVU71
 230 0044 F76303A9 		stp	x23, x24, [sp, 48]
 231              		.cfi_offset 21, -160
 232              		.cfi_offset 22, -152
 233              		.cfi_offset 23, -144
 234              		.cfi_offset 24, -136
 235 0048 55018052 		mov	w21, 10
 236              	.LBB167:
 237              	.LBB168:
 519:/usr/include/c++/10/ostream **** 
 520:/usr/include/c++/10/ostream ****   // Signed and unsigned
 521:/usr/include/c++/10/ostream ****   template<typename _Traits>
 522:/usr/include/c++/10/ostream ****     inline basic_ostream<char, _Traits>&
 523:/usr/include/c++/10/ostream ****     operator<<(basic_ostream<char, _Traits>& __out, signed char __c)
 524:/usr/include/c++/10/ostream ****     { return (__out << static_cast<char>(__c)); }
 525:/usr/include/c++/10/ostream **** 
 526:/usr/include/c++/10/ostream ****   template<typename _Traits>
 527:/usr/include/c++/10/ostream ****     inline basic_ostream<char, _Traits>&
 528:/usr/include/c++/10/ostream ****     operator<<(basic_ostream<char, _Traits>& __out, unsigned char __c)
 529:/usr/include/c++/10/ostream ****     { return (__out << static_cast<char>(__c)); }
 530:/usr/include/c++/10/ostream **** 
 531:/usr/include/c++/10/ostream **** #if __cplusplus > 201703L
 532:/usr/include/c++/10/ostream ****   // The following deleted overloads prevent formatting character values as
AARCH64 GAS  obj/Chapter13_6.s 			page 17


 533:/usr/include/c++/10/ostream ****   // numeric values.
 534:/usr/include/c++/10/ostream **** 
 535:/usr/include/c++/10/ostream **** #ifdef _GLIBCXX_USE_WCHAR_T
 536:/usr/include/c++/10/ostream ****   template<typename _Traits>
 537:/usr/include/c++/10/ostream ****     basic_ostream<char, _Traits>&
 538:/usr/include/c++/10/ostream ****     operator<<(basic_ostream<char, _Traits>&, wchar_t) = delete;
 539:/usr/include/c++/10/ostream **** #endif // _GLIBCXX_USE_WCHAR_T
 540:/usr/include/c++/10/ostream **** 
 541:/usr/include/c++/10/ostream **** #ifdef _GLIBCXX_USE_CHAR8_T
 542:/usr/include/c++/10/ostream ****   template<typename _Traits>
 543:/usr/include/c++/10/ostream ****     basic_ostream<char, _Traits>&
 544:/usr/include/c++/10/ostream ****     operator<<(basic_ostream<char, _Traits>&, char8_t) = delete;
 545:/usr/include/c++/10/ostream **** #endif
 546:/usr/include/c++/10/ostream **** 
 547:/usr/include/c++/10/ostream ****   template<typename _Traits>
 548:/usr/include/c++/10/ostream ****     basic_ostream<char, _Traits>&
 549:/usr/include/c++/10/ostream ****     operator<<(basic_ostream<char, _Traits>&, char16_t) = delete;
 550:/usr/include/c++/10/ostream **** 
 551:/usr/include/c++/10/ostream ****   template<typename _Traits>
 552:/usr/include/c++/10/ostream ****     basic_ostream<char, _Traits>&
 553:/usr/include/c++/10/ostream ****     operator<<(basic_ostream<char, _Traits>&, char32_t) = delete;
 554:/usr/include/c++/10/ostream **** 
 555:/usr/include/c++/10/ostream **** #ifdef _GLIBCXX_USE_WCHAR_T
 556:/usr/include/c++/10/ostream **** #ifdef _GLIBCXX_USE_CHAR8_T
 557:/usr/include/c++/10/ostream ****   template<typename _Traits>
 558:/usr/include/c++/10/ostream ****     basic_ostream<wchar_t, _Traits>&
 559:/usr/include/c++/10/ostream ****     operator<<(basic_ostream<wchar_t, _Traits>&, char8_t) = delete;
 560:/usr/include/c++/10/ostream **** #endif // _GLIBCXX_USE_CHAR8_T
 561:/usr/include/c++/10/ostream **** 
 562:/usr/include/c++/10/ostream ****   template<typename _Traits>
 563:/usr/include/c++/10/ostream ****     basic_ostream<wchar_t, _Traits>&
 564:/usr/include/c++/10/ostream ****     operator<<(basic_ostream<wchar_t, _Traits>&, char16_t) = delete;
 565:/usr/include/c++/10/ostream **** 
 566:/usr/include/c++/10/ostream ****   template<typename _Traits>
 567:/usr/include/c++/10/ostream ****     basic_ostream<wchar_t, _Traits>&
 568:/usr/include/c++/10/ostream ****     operator<<(basic_ostream<wchar_t, _Traits>&, char32_t) = delete;
 569:/usr/include/c++/10/ostream **** #endif // _GLIBCXX_USE_WCHAR_T
 570:/usr/include/c++/10/ostream **** #endif // C++20
 571:/usr/include/c++/10/ostream ****   //@}
 572:/usr/include/c++/10/ostream **** 
 573:/usr/include/c++/10/ostream ****   //@{
 574:/usr/include/c++/10/ostream ****   /**
 575:/usr/include/c++/10/ostream ****    *  @brief  String inserters
 576:/usr/include/c++/10/ostream ****    *  @param  __out  An output stream.
 577:/usr/include/c++/10/ostream ****    *  @param  __s  A character string.
 578:/usr/include/c++/10/ostream ****    *  @return  out
 579:/usr/include/c++/10/ostream ****    *  @pre  @p __s must be a non-NULL pointer
 580:/usr/include/c++/10/ostream ****    *
 581:/usr/include/c++/10/ostream ****    *  Behaves like one of the formatted arithmetic inserters described in
 582:/usr/include/c++/10/ostream ****    *  std::basic_ostream.  After constructing a sentry object with good
 583:/usr/include/c++/10/ostream ****    *  status, this function inserts @c traits::length(__s) characters starting
 584:/usr/include/c++/10/ostream ****    *  at @p __s, widened if necessary, followed by any required padding (as
 585:/usr/include/c++/10/ostream ****    *  determined by [22.2.2.2.2]).  @c __out.width(0) is then called.
 586:/usr/include/c++/10/ostream ****   */
 587:/usr/include/c++/10/ostream ****   template<typename _CharT, typename _Traits>
 588:/usr/include/c++/10/ostream ****     inline basic_ostream<_CharT, _Traits>&
 589:/usr/include/c++/10/ostream ****     operator<<(basic_ostream<_CharT, _Traits>& __out, const _CharT* __s)
AARCH64 GAS  obj/Chapter13_6.s 			page 18


 590:/usr/include/c++/10/ostream ****     {
 591:/usr/include/c++/10/ostream ****       if (!__s)
 592:/usr/include/c++/10/ostream **** 	__out.setstate(ios_base::badbit);
 593:/usr/include/c++/10/ostream ****       else
 594:/usr/include/c++/10/ostream **** 	__ostream_insert(__out, __s,
 595:/usr/include/c++/10/ostream **** 			 static_cast<streamsize>(_Traits::length(__s)));
 596:/usr/include/c++/10/ostream ****       return __out;
 597:/usr/include/c++/10/ostream ****     }
 598:/usr/include/c++/10/ostream **** 
 599:/usr/include/c++/10/ostream ****   template<typename _CharT, typename _Traits>
 600:/usr/include/c++/10/ostream ****     basic_ostream<_CharT, _Traits> &
 601:/usr/include/c++/10/ostream ****     operator<<(basic_ostream<_CharT, _Traits>& __out, const char* __s);
 602:/usr/include/c++/10/ostream **** 
 603:/usr/include/c++/10/ostream ****   // Partial specializations
 604:/usr/include/c++/10/ostream ****   template<typename _Traits>
 605:/usr/include/c++/10/ostream ****     inline basic_ostream<char, _Traits>&
 606:/usr/include/c++/10/ostream ****     operator<<(basic_ostream<char, _Traits>& __out, const char* __s)
 607:/usr/include/c++/10/ostream ****     {
 608:/usr/include/c++/10/ostream ****       if (!__s)
 609:/usr/include/c++/10/ostream **** 	__out.setstate(ios_base::badbit);
 610:/usr/include/c++/10/ostream ****       else
 611:/usr/include/c++/10/ostream **** 	__ostream_insert(__out, __s,
 238              		.loc 2 611 18 view .LVU72
 239 004c 17000090 		adrp	x23, .LC2
 240              	.LBE168:
 241              	.LBE167:
  36:Chapter13_6.cpp **** 	double mean2=0.0,stdev2=0.0;
 242              		.loc 1 36 9 view .LVU73
 243 0050 FF2B00F9 		str	xzr, [sp, 80]
 244              	.LBB171:
 245              	.LBB169:
 246              		.loc 2 611 18 view .LVU74
 247 0054 F7020091 		add	x23, x23, :lo12:.LC2
 248              	.LBE169:
 249              	.LBE171:
  36:Chapter13_6.cpp **** 	double mean2=0.0,stdev2=0.0;
 250              		.loc 1 36 19 view .LVU75
 251 0058 FF2F00F9 		str	xzr, [sp, 88]
 252              	.LBB172:
 253              	.LBB173:
 254              		.loc 2 611 18 view .LVU76
 255 005c 16000090 		adrp	x22, .LC3
 256              	.LBE173:
 257              	.LBE172:
  37:Chapter13_6.cpp **** 	
 258              		.loc 1 37 9 view .LVU77
 259 0060 FF3300F9 		str	xzr, [sp, 96]
 260              	.LBB176:
 261              	.LBB174:
 262              		.loc 2 611 18 view .LVU78
 263 0064 D6020091 		add	x22, x22, :lo12:.LC3
 264              	.LBE174:
 265              	.LBE176:
  37:Chapter13_6.cpp **** 	
 266              		.loc 1 37 19 view .LVU79
 267 0068 FF3700F9 		str	xzr, [sp, 104]
  34:Chapter13_6.cpp **** 	const int n = sizeof(x) / sizeof(double);
AARCH64 GAS  obj/Chapter13_6.s 			page 19


 268              		.loc 1 34 9 view .LVU80
 269 006c EC3707A9 		stp	x12, x13, [sp, 112]
 270 0070 EA2F08A9 		stp	x10, x11, [sp, 128]
 271 0074 E82709A9 		stp	x8, x9, [sp, 144]
 272 0078 E61F0AA9 		stp	x6, x7, [sp, 160]
 273 007c E4170BA9 		stp	x4, x5, [sp, 176]
  35:Chapter13_6.cpp **** 	double mean1=0.0,stdev1=0.0;
 274              		.loc 1 35 2 is_stmt 1 view .LVU81
 275              	.LVL19:
  36:Chapter13_6.cpp **** 	double mean2=0.0,stdev2=0.0;
 276              		.loc 1 36 2 view .LVU82
  37:Chapter13_6.cpp **** 	
 277              		.loc 1 37 2 view .LVU83
 278              		.loc 1 39 2 view .LVU84
 279              		.loc 1 39 11 is_stmt 0 view .LVU85
 280 0080 00000094 		bl	_Z9meanStdevPdS_PKdi
 281              	.LVL20:
  40:Chapter13_6.cpp **** 	meanStdev_(&mean2,&stdev2,x,n);
 282              		.loc 1 40 2 is_stmt 1 view .LVU86
 283              		.loc 1 40 12 is_stmt 0 view .LVU87
 284 0084 E20313AA 		mov	x2, x19
 285              	.LBB177:
 286              	.LBB178:
 132:/usr/include/c++/10/ostream **** 	return *this;
 287              		.loc 2 132 6 view .LVU88
 288 0088 13000090 		adrp	x19, :got:_ZSt4cout
 289              	.LBE178:
 290              	.LBE177:
 291              		.loc 1 40 12 view .LVU89
 292 008c E1A30191 		add	x1, sp, 104
 293 0090 E0830191 		add	x0, sp, 96
 294 0094 43018052 		mov	w3, 10
 295 0098 00000094 		bl	meanStdev_
 296              	.LVL21:
  41:Chapter13_6.cpp **** 	
  42:Chapter13_6.cpp **** 	cout<<fixed<<setprecision(6);
 297              		.loc 1 42 2 is_stmt 1 view .LVU90
 298              	.LBB227:
 299              	.LBI177:
 127:/usr/include/c++/10/ostream ****       {
 300              		.loc 2 127 7 view .LVU91
 301              	.LBB219:
 132:/usr/include/c++/10/ostream **** 	return *this;
 302              		.loc 2 132 6 is_stmt 0 view .LVU92
 303 009c 730240F9 		ldr	x19, [x19, #:got_lo12:_ZSt4cout]
 304              	.LBB179:
 305              	.LBB180:
 306              	.LBB181:
 307              	.LBB182:
 308              	.LBB183:
 309              	.LBB184:
 310              		.file 3 "/usr/include/c++/10/bits/ios_base.h"
   1:/usr/include/c++/10/bits/ios_base.h **** // Iostreams base classes -*- C++ -*-
   2:/usr/include/c++/10/bits/ios_base.h **** 
   3:/usr/include/c++/10/bits/ios_base.h **** // Copyright (C) 1997-2020 Free Software Foundation, Inc.
   4:/usr/include/c++/10/bits/ios_base.h **** //
   5:/usr/include/c++/10/bits/ios_base.h **** // This file is part of the GNU ISO C++ Library.  This library is free
AARCH64 GAS  obj/Chapter13_6.s 			page 20


   6:/usr/include/c++/10/bits/ios_base.h **** // software; you can redistribute it and/or modify it under the
   7:/usr/include/c++/10/bits/ios_base.h **** // terms of the GNU General Public License as published by the
   8:/usr/include/c++/10/bits/ios_base.h **** // Free Software Foundation; either version 3, or (at your option)
   9:/usr/include/c++/10/bits/ios_base.h **** // any later version.
  10:/usr/include/c++/10/bits/ios_base.h **** 
  11:/usr/include/c++/10/bits/ios_base.h **** // This library is distributed in the hope that it will be useful,
  12:/usr/include/c++/10/bits/ios_base.h **** // but WITHOUT ANY WARRANTY; without even the implied warranty of
  13:/usr/include/c++/10/bits/ios_base.h **** // MERCHANTABILITY or FITNESS FOR A PARTICULAR PURPOSE.  See the
  14:/usr/include/c++/10/bits/ios_base.h **** // GNU General Public License for more details.
  15:/usr/include/c++/10/bits/ios_base.h **** 
  16:/usr/include/c++/10/bits/ios_base.h **** // Under Section 7 of GPL version 3, you are granted additional
  17:/usr/include/c++/10/bits/ios_base.h **** // permissions described in the GCC Runtime Library Exception, version
  18:/usr/include/c++/10/bits/ios_base.h **** // 3.1, as published by the Free Software Foundation.
  19:/usr/include/c++/10/bits/ios_base.h **** 
  20:/usr/include/c++/10/bits/ios_base.h **** // You should have received a copy of the GNU General Public License and
  21:/usr/include/c++/10/bits/ios_base.h **** // a copy of the GCC Runtime Library Exception along with this program;
  22:/usr/include/c++/10/bits/ios_base.h **** // see the files COPYING3 and COPYING.RUNTIME respectively.  If not, see
  23:/usr/include/c++/10/bits/ios_base.h **** // <http://www.gnu.org/licenses/>.
  24:/usr/include/c++/10/bits/ios_base.h **** 
  25:/usr/include/c++/10/bits/ios_base.h **** /** @file bits/ios_base.h
  26:/usr/include/c++/10/bits/ios_base.h ****  *  This is an internal header file, included by other library headers.
  27:/usr/include/c++/10/bits/ios_base.h ****  *  Do not attempt to use it directly. @headername{ios}
  28:/usr/include/c++/10/bits/ios_base.h ****  */
  29:/usr/include/c++/10/bits/ios_base.h **** 
  30:/usr/include/c++/10/bits/ios_base.h **** //
  31:/usr/include/c++/10/bits/ios_base.h **** // ISO C++ 14882: 27.4  Iostreams base classes
  32:/usr/include/c++/10/bits/ios_base.h **** //
  33:/usr/include/c++/10/bits/ios_base.h **** 
  34:/usr/include/c++/10/bits/ios_base.h **** #ifndef _IOS_BASE_H
  35:/usr/include/c++/10/bits/ios_base.h **** #define _IOS_BASE_H 1
  36:/usr/include/c++/10/bits/ios_base.h **** 
  37:/usr/include/c++/10/bits/ios_base.h **** #pragma GCC system_header
  38:/usr/include/c++/10/bits/ios_base.h **** 
  39:/usr/include/c++/10/bits/ios_base.h **** #include <ext/atomicity.h>
  40:/usr/include/c++/10/bits/ios_base.h **** #include <bits/localefwd.h>
  41:/usr/include/c++/10/bits/ios_base.h **** #include <bits/locale_classes.h>
  42:/usr/include/c++/10/bits/ios_base.h **** 
  43:/usr/include/c++/10/bits/ios_base.h **** #if __cplusplus < 201103L
  44:/usr/include/c++/10/bits/ios_base.h **** # include <stdexcept>
  45:/usr/include/c++/10/bits/ios_base.h **** #else
  46:/usr/include/c++/10/bits/ios_base.h **** # include <system_error>
  47:/usr/include/c++/10/bits/ios_base.h **** #endif
  48:/usr/include/c++/10/bits/ios_base.h **** 
  49:/usr/include/c++/10/bits/ios_base.h **** namespace std _GLIBCXX_VISIBILITY(default)
  50:/usr/include/c++/10/bits/ios_base.h **** {
  51:/usr/include/c++/10/bits/ios_base.h **** _GLIBCXX_BEGIN_NAMESPACE_VERSION
  52:/usr/include/c++/10/bits/ios_base.h **** 
  53:/usr/include/c++/10/bits/ios_base.h ****   // The following definitions of bitmask types are enums, not ints,
  54:/usr/include/c++/10/bits/ios_base.h ****   // as permitted (but not required) in the standard, in order to provide
  55:/usr/include/c++/10/bits/ios_base.h ****   // better type safety in iostream calls.  A side effect is that in C++98
  56:/usr/include/c++/10/bits/ios_base.h ****   // expressions involving them are not compile-time constants.
  57:/usr/include/c++/10/bits/ios_base.h ****   enum _Ios_Fmtflags 
  58:/usr/include/c++/10/bits/ios_base.h ****     { 
  59:/usr/include/c++/10/bits/ios_base.h ****       _S_boolalpha 	= 1L << 0,
  60:/usr/include/c++/10/bits/ios_base.h ****       _S_dec 		= 1L << 1,
  61:/usr/include/c++/10/bits/ios_base.h ****       _S_fixed 		= 1L << 2,
  62:/usr/include/c++/10/bits/ios_base.h ****       _S_hex 		= 1L << 3,
AARCH64 GAS  obj/Chapter13_6.s 			page 21


  63:/usr/include/c++/10/bits/ios_base.h ****       _S_internal 	= 1L << 4,
  64:/usr/include/c++/10/bits/ios_base.h ****       _S_left 		= 1L << 5,
  65:/usr/include/c++/10/bits/ios_base.h ****       _S_oct 		= 1L << 6,
  66:/usr/include/c++/10/bits/ios_base.h ****       _S_right 		= 1L << 7,
  67:/usr/include/c++/10/bits/ios_base.h ****       _S_scientific 	= 1L << 8,
  68:/usr/include/c++/10/bits/ios_base.h ****       _S_showbase 	= 1L << 9,
  69:/usr/include/c++/10/bits/ios_base.h ****       _S_showpoint 	= 1L << 10,
  70:/usr/include/c++/10/bits/ios_base.h ****       _S_showpos 	= 1L << 11,
  71:/usr/include/c++/10/bits/ios_base.h ****       _S_skipws 	= 1L << 12,
  72:/usr/include/c++/10/bits/ios_base.h ****       _S_unitbuf 	= 1L << 13,
  73:/usr/include/c++/10/bits/ios_base.h ****       _S_uppercase 	= 1L << 14,
  74:/usr/include/c++/10/bits/ios_base.h ****       _S_adjustfield 	= _S_left | _S_right | _S_internal,
  75:/usr/include/c++/10/bits/ios_base.h ****       _S_basefield 	= _S_dec | _S_oct | _S_hex,
  76:/usr/include/c++/10/bits/ios_base.h ****       _S_floatfield 	= _S_scientific | _S_fixed,
  77:/usr/include/c++/10/bits/ios_base.h ****       _S_ios_fmtflags_end = 1L << 16,
  78:/usr/include/c++/10/bits/ios_base.h ****       _S_ios_fmtflags_max = __INT_MAX__,
  79:/usr/include/c++/10/bits/ios_base.h ****       _S_ios_fmtflags_min = ~__INT_MAX__
  80:/usr/include/c++/10/bits/ios_base.h ****     };
  81:/usr/include/c++/10/bits/ios_base.h **** 
  82:/usr/include/c++/10/bits/ios_base.h ****   inline _GLIBCXX_CONSTEXPR _Ios_Fmtflags
  83:/usr/include/c++/10/bits/ios_base.h ****   operator&(_Ios_Fmtflags __a, _Ios_Fmtflags __b)
  84:/usr/include/c++/10/bits/ios_base.h ****   { return _Ios_Fmtflags(static_cast<int>(__a) & static_cast<int>(__b)); }
 311              		.loc 3 84 71 view .LVU93
 312 00a0 85208012 		mov	w5, -261
 313              	.LBE184:
 314              	.LBE183:
 315              	.LBE182:
 316              	.LBE181:
 317              	.LBE180:
 318              	.LBE179:
 319              	.LBE219:
 320              	.LBE227:
 321              	.LBB228:
 322              	.LBB229:
 323              	.LBB230:
  85:/usr/include/c++/10/bits/ios_base.h **** 
  86:/usr/include/c++/10/bits/ios_base.h ****   inline _GLIBCXX_CONSTEXPR _Ios_Fmtflags
  87:/usr/include/c++/10/bits/ios_base.h ****   operator|(_Ios_Fmtflags __a, _Ios_Fmtflags __b)
  88:/usr/include/c++/10/bits/ios_base.h ****   { return _Ios_Fmtflags(static_cast<int>(__a) | static_cast<int>(__b)); }
  89:/usr/include/c++/10/bits/ios_base.h **** 
  90:/usr/include/c++/10/bits/ios_base.h ****   inline _GLIBCXX_CONSTEXPR _Ios_Fmtflags
  91:/usr/include/c++/10/bits/ios_base.h ****   operator^(_Ios_Fmtflags __a, _Ios_Fmtflags __b)
  92:/usr/include/c++/10/bits/ios_base.h ****   { return _Ios_Fmtflags(static_cast<int>(__a) ^ static_cast<int>(__b)); }
  93:/usr/include/c++/10/bits/ios_base.h **** 
  94:/usr/include/c++/10/bits/ios_base.h ****   inline _GLIBCXX_CONSTEXPR _Ios_Fmtflags
  95:/usr/include/c++/10/bits/ios_base.h ****   operator~(_Ios_Fmtflags __a)
  96:/usr/include/c++/10/bits/ios_base.h ****   { return _Ios_Fmtflags(~static_cast<int>(__a)); }
  97:/usr/include/c++/10/bits/ios_base.h **** 
  98:/usr/include/c++/10/bits/ios_base.h ****   inline const _Ios_Fmtflags&
  99:/usr/include/c++/10/bits/ios_base.h ****   operator|=(_Ios_Fmtflags& __a, _Ios_Fmtflags __b)
 100:/usr/include/c++/10/bits/ios_base.h ****   { return __a = __a | __b; }
 101:/usr/include/c++/10/bits/ios_base.h **** 
 102:/usr/include/c++/10/bits/ios_base.h ****   inline const _Ios_Fmtflags&
 103:/usr/include/c++/10/bits/ios_base.h ****   operator&=(_Ios_Fmtflags& __a, _Ios_Fmtflags __b)
 104:/usr/include/c++/10/bits/ios_base.h ****   { return __a = __a & __b; }
 105:/usr/include/c++/10/bits/ios_base.h **** 
 106:/usr/include/c++/10/bits/ios_base.h ****   inline const _Ios_Fmtflags&
AARCH64 GAS  obj/Chapter13_6.s 			page 22


 107:/usr/include/c++/10/bits/ios_base.h ****   operator^=(_Ios_Fmtflags& __a, _Ios_Fmtflags __b)
 108:/usr/include/c++/10/bits/ios_base.h ****   { return __a = __a ^ __b; }
 109:/usr/include/c++/10/bits/ios_base.h **** 
 110:/usr/include/c++/10/bits/ios_base.h **** 
 111:/usr/include/c++/10/bits/ios_base.h ****   enum _Ios_Openmode 
 112:/usr/include/c++/10/bits/ios_base.h ****     { 
 113:/usr/include/c++/10/bits/ios_base.h ****       _S_app 		= 1L << 0,
 114:/usr/include/c++/10/bits/ios_base.h ****       _S_ate 		= 1L << 1,
 115:/usr/include/c++/10/bits/ios_base.h ****       _S_bin 		= 1L << 2,
 116:/usr/include/c++/10/bits/ios_base.h ****       _S_in 		= 1L << 3,
 117:/usr/include/c++/10/bits/ios_base.h ****       _S_out 		= 1L << 4,
 118:/usr/include/c++/10/bits/ios_base.h ****       _S_trunc 		= 1L << 5,
 119:/usr/include/c++/10/bits/ios_base.h ****       _S_ios_openmode_end = 1L << 16,
 120:/usr/include/c++/10/bits/ios_base.h ****       _S_ios_openmode_max = __INT_MAX__,
 121:/usr/include/c++/10/bits/ios_base.h ****       _S_ios_openmode_min = ~__INT_MAX__
 122:/usr/include/c++/10/bits/ios_base.h ****     };
 123:/usr/include/c++/10/bits/ios_base.h **** 
 124:/usr/include/c++/10/bits/ios_base.h ****   inline _GLIBCXX_CONSTEXPR _Ios_Openmode
 125:/usr/include/c++/10/bits/ios_base.h ****   operator&(_Ios_Openmode __a, _Ios_Openmode __b)
 126:/usr/include/c++/10/bits/ios_base.h ****   { return _Ios_Openmode(static_cast<int>(__a) & static_cast<int>(__b)); }
 127:/usr/include/c++/10/bits/ios_base.h **** 
 128:/usr/include/c++/10/bits/ios_base.h ****   inline _GLIBCXX_CONSTEXPR _Ios_Openmode
 129:/usr/include/c++/10/bits/ios_base.h ****   operator|(_Ios_Openmode __a, _Ios_Openmode __b)
 130:/usr/include/c++/10/bits/ios_base.h ****   { return _Ios_Openmode(static_cast<int>(__a) | static_cast<int>(__b)); }
 131:/usr/include/c++/10/bits/ios_base.h **** 
 132:/usr/include/c++/10/bits/ios_base.h ****   inline _GLIBCXX_CONSTEXPR _Ios_Openmode
 133:/usr/include/c++/10/bits/ios_base.h ****   operator^(_Ios_Openmode __a, _Ios_Openmode __b)
 134:/usr/include/c++/10/bits/ios_base.h ****   { return _Ios_Openmode(static_cast<int>(__a) ^ static_cast<int>(__b)); }
 135:/usr/include/c++/10/bits/ios_base.h **** 
 136:/usr/include/c++/10/bits/ios_base.h ****   inline _GLIBCXX_CONSTEXPR _Ios_Openmode
 137:/usr/include/c++/10/bits/ios_base.h ****   operator~(_Ios_Openmode __a)
 138:/usr/include/c++/10/bits/ios_base.h ****   { return _Ios_Openmode(~static_cast<int>(__a)); }
 139:/usr/include/c++/10/bits/ios_base.h **** 
 140:/usr/include/c++/10/bits/ios_base.h ****   inline const _Ios_Openmode&
 141:/usr/include/c++/10/bits/ios_base.h ****   operator|=(_Ios_Openmode& __a, _Ios_Openmode __b)
 142:/usr/include/c++/10/bits/ios_base.h ****   { return __a = __a | __b; }
 143:/usr/include/c++/10/bits/ios_base.h **** 
 144:/usr/include/c++/10/bits/ios_base.h ****   inline const _Ios_Openmode&
 145:/usr/include/c++/10/bits/ios_base.h ****   operator&=(_Ios_Openmode& __a, _Ios_Openmode __b)
 146:/usr/include/c++/10/bits/ios_base.h ****   { return __a = __a & __b; }
 147:/usr/include/c++/10/bits/ios_base.h **** 
 148:/usr/include/c++/10/bits/ios_base.h ****   inline const _Ios_Openmode&
 149:/usr/include/c++/10/bits/ios_base.h ****   operator^=(_Ios_Openmode& __a, _Ios_Openmode __b)
 150:/usr/include/c++/10/bits/ios_base.h ****   { return __a = __a ^ __b; }
 151:/usr/include/c++/10/bits/ios_base.h **** 
 152:/usr/include/c++/10/bits/ios_base.h **** 
 153:/usr/include/c++/10/bits/ios_base.h ****   enum _Ios_Iostate
 154:/usr/include/c++/10/bits/ios_base.h ****     { 
 155:/usr/include/c++/10/bits/ios_base.h ****       _S_goodbit 		= 0,
 156:/usr/include/c++/10/bits/ios_base.h ****       _S_badbit 		= 1L << 0,
 157:/usr/include/c++/10/bits/ios_base.h ****       _S_eofbit 		= 1L << 1,
 158:/usr/include/c++/10/bits/ios_base.h ****       _S_failbit		= 1L << 2,
 159:/usr/include/c++/10/bits/ios_base.h ****       _S_ios_iostate_end = 1L << 16,
 160:/usr/include/c++/10/bits/ios_base.h ****       _S_ios_iostate_max = __INT_MAX__,
 161:/usr/include/c++/10/bits/ios_base.h ****       _S_ios_iostate_min = ~__INT_MAX__
 162:/usr/include/c++/10/bits/ios_base.h ****     };
 163:/usr/include/c++/10/bits/ios_base.h **** 
AARCH64 GAS  obj/Chapter13_6.s 			page 23


 164:/usr/include/c++/10/bits/ios_base.h ****   inline _GLIBCXX_CONSTEXPR _Ios_Iostate
 165:/usr/include/c++/10/bits/ios_base.h ****   operator&(_Ios_Iostate __a, _Ios_Iostate __b)
 166:/usr/include/c++/10/bits/ios_base.h ****   { return _Ios_Iostate(static_cast<int>(__a) & static_cast<int>(__b)); }
 167:/usr/include/c++/10/bits/ios_base.h **** 
 168:/usr/include/c++/10/bits/ios_base.h ****   inline _GLIBCXX_CONSTEXPR _Ios_Iostate
 169:/usr/include/c++/10/bits/ios_base.h ****   operator|(_Ios_Iostate __a, _Ios_Iostate __b)
 170:/usr/include/c++/10/bits/ios_base.h ****   { return _Ios_Iostate(static_cast<int>(__a) | static_cast<int>(__b)); }
 171:/usr/include/c++/10/bits/ios_base.h **** 
 172:/usr/include/c++/10/bits/ios_base.h ****   inline _GLIBCXX_CONSTEXPR _Ios_Iostate
 173:/usr/include/c++/10/bits/ios_base.h ****   operator^(_Ios_Iostate __a, _Ios_Iostate __b)
 174:/usr/include/c++/10/bits/ios_base.h ****   { return _Ios_Iostate(static_cast<int>(__a) ^ static_cast<int>(__b)); }
 175:/usr/include/c++/10/bits/ios_base.h **** 
 176:/usr/include/c++/10/bits/ios_base.h ****   inline _GLIBCXX_CONSTEXPR _Ios_Iostate
 177:/usr/include/c++/10/bits/ios_base.h ****   operator~(_Ios_Iostate __a)
 178:/usr/include/c++/10/bits/ios_base.h ****   { return _Ios_Iostate(~static_cast<int>(__a)); }
 179:/usr/include/c++/10/bits/ios_base.h **** 
 180:/usr/include/c++/10/bits/ios_base.h ****   inline const _Ios_Iostate&
 181:/usr/include/c++/10/bits/ios_base.h ****   operator|=(_Ios_Iostate& __a, _Ios_Iostate __b)
 182:/usr/include/c++/10/bits/ios_base.h ****   { return __a = __a | __b; }
 183:/usr/include/c++/10/bits/ios_base.h **** 
 184:/usr/include/c++/10/bits/ios_base.h ****   inline const _Ios_Iostate&
 185:/usr/include/c++/10/bits/ios_base.h ****   operator&=(_Ios_Iostate& __a, _Ios_Iostate __b)
 186:/usr/include/c++/10/bits/ios_base.h ****   { return __a = __a & __b; }
 187:/usr/include/c++/10/bits/ios_base.h **** 
 188:/usr/include/c++/10/bits/ios_base.h ****   inline const  _Ios_Iostate&
 189:/usr/include/c++/10/bits/ios_base.h ****   operator^=(_Ios_Iostate& __a, _Ios_Iostate __b)
 190:/usr/include/c++/10/bits/ios_base.h ****   { return __a = __a ^ __b; }
 191:/usr/include/c++/10/bits/ios_base.h **** 
 192:/usr/include/c++/10/bits/ios_base.h **** 
 193:/usr/include/c++/10/bits/ios_base.h ****   enum _Ios_Seekdir 
 194:/usr/include/c++/10/bits/ios_base.h ****     { 
 195:/usr/include/c++/10/bits/ios_base.h ****       _S_beg = 0,
 196:/usr/include/c++/10/bits/ios_base.h ****       _S_cur = _GLIBCXX_STDIO_SEEK_CUR,
 197:/usr/include/c++/10/bits/ios_base.h ****       _S_end = _GLIBCXX_STDIO_SEEK_END,
 198:/usr/include/c++/10/bits/ios_base.h ****       _S_ios_seekdir_end = 1L << 16 
 199:/usr/include/c++/10/bits/ios_base.h ****     };
 200:/usr/include/c++/10/bits/ios_base.h **** 
 201:/usr/include/c++/10/bits/ios_base.h **** #if __cplusplus >= 201103L
 202:/usr/include/c++/10/bits/ios_base.h ****   /// I/O error code
 203:/usr/include/c++/10/bits/ios_base.h ****   enum class io_errc { stream = 1 };
 204:/usr/include/c++/10/bits/ios_base.h **** 
 205:/usr/include/c++/10/bits/ios_base.h ****   template <> struct is_error_code_enum<io_errc> : public true_type { };
 206:/usr/include/c++/10/bits/ios_base.h **** 
 207:/usr/include/c++/10/bits/ios_base.h ****   const error_category& iostream_category() noexcept;
 208:/usr/include/c++/10/bits/ios_base.h **** 
 209:/usr/include/c++/10/bits/ios_base.h ****   inline error_code
 210:/usr/include/c++/10/bits/ios_base.h ****   make_error_code(io_errc __e) noexcept
 211:/usr/include/c++/10/bits/ios_base.h ****   { return error_code(static_cast<int>(__e), iostream_category()); }
 212:/usr/include/c++/10/bits/ios_base.h **** 
 213:/usr/include/c++/10/bits/ios_base.h ****   inline error_condition
 214:/usr/include/c++/10/bits/ios_base.h ****   make_error_condition(io_errc __e) noexcept
 215:/usr/include/c++/10/bits/ios_base.h ****   { return error_condition(static_cast<int>(__e), iostream_category()); }
 216:/usr/include/c++/10/bits/ios_base.h **** #endif
 217:/usr/include/c++/10/bits/ios_base.h **** 
 218:/usr/include/c++/10/bits/ios_base.h ****   // 27.4.2  Class ios_base
 219:/usr/include/c++/10/bits/ios_base.h ****   /**
 220:/usr/include/c++/10/bits/ios_base.h ****    *  @brief  The base of the I/O class hierarchy.
AARCH64 GAS  obj/Chapter13_6.s 			page 24


 221:/usr/include/c++/10/bits/ios_base.h ****    *  @ingroup io
 222:/usr/include/c++/10/bits/ios_base.h ****    *
 223:/usr/include/c++/10/bits/ios_base.h ****    *  This class defines everything that can be defined about I/O that does
 224:/usr/include/c++/10/bits/ios_base.h ****    *  not depend on the type of characters being input or output.  Most
 225:/usr/include/c++/10/bits/ios_base.h ****    *  people will only see @c ios_base when they need to specify the full
 226:/usr/include/c++/10/bits/ios_base.h ****    *  name of the various I/O flags (e.g., the openmodes).
 227:/usr/include/c++/10/bits/ios_base.h ****   */
 228:/usr/include/c++/10/bits/ios_base.h ****   class ios_base
 229:/usr/include/c++/10/bits/ios_base.h ****   {
 230:/usr/include/c++/10/bits/ios_base.h **** #if _GLIBCXX_USE_CXX11_ABI
 231:/usr/include/c++/10/bits/ios_base.h **** #if __cplusplus < 201103L
 232:/usr/include/c++/10/bits/ios_base.h ****     // Type that is layout-compatible with std::system_error
 233:/usr/include/c++/10/bits/ios_base.h ****     struct system_error : std::runtime_error
 234:/usr/include/c++/10/bits/ios_base.h ****     {
 235:/usr/include/c++/10/bits/ios_base.h ****       // Type that is layout-compatible with std::error_code
 236:/usr/include/c++/10/bits/ios_base.h ****       struct error_code
 237:/usr/include/c++/10/bits/ios_base.h ****       {
 238:/usr/include/c++/10/bits/ios_base.h **** 	error_code() { }
 239:/usr/include/c++/10/bits/ios_base.h ****       private:
 240:/usr/include/c++/10/bits/ios_base.h **** 	int		_M_value;
 241:/usr/include/c++/10/bits/ios_base.h **** 	const void*	_M_cat;
 242:/usr/include/c++/10/bits/ios_base.h ****       } _M_code;
 243:/usr/include/c++/10/bits/ios_base.h ****     };
 244:/usr/include/c++/10/bits/ios_base.h **** #endif
 245:/usr/include/c++/10/bits/ios_base.h **** #endif
 246:/usr/include/c++/10/bits/ios_base.h ****   public:
 247:/usr/include/c++/10/bits/ios_base.h **** 
 248:/usr/include/c++/10/bits/ios_base.h ****     /** 
 249:/usr/include/c++/10/bits/ios_base.h ****      *  @brief These are thrown to indicate problems with io.
 250:/usr/include/c++/10/bits/ios_base.h ****      *  @ingroup exceptions
 251:/usr/include/c++/10/bits/ios_base.h ****      *
 252:/usr/include/c++/10/bits/ios_base.h ****      *  27.4.2.1.1  Class ios_base::failure
 253:/usr/include/c++/10/bits/ios_base.h ****      */
 254:/usr/include/c++/10/bits/ios_base.h **** #if _GLIBCXX_USE_CXX11_ABI
 255:/usr/include/c++/10/bits/ios_base.h ****     class _GLIBCXX_ABI_TAG_CXX11 failure : public system_error
 256:/usr/include/c++/10/bits/ios_base.h ****     {
 257:/usr/include/c++/10/bits/ios_base.h ****     public:
 258:/usr/include/c++/10/bits/ios_base.h ****       explicit
 259:/usr/include/c++/10/bits/ios_base.h ****       failure(const string& __str);
 260:/usr/include/c++/10/bits/ios_base.h **** 
 261:/usr/include/c++/10/bits/ios_base.h **** #if __cplusplus >= 201103L
 262:/usr/include/c++/10/bits/ios_base.h ****       explicit
 263:/usr/include/c++/10/bits/ios_base.h ****       failure(const string&, const error_code&);
 264:/usr/include/c++/10/bits/ios_base.h **** 
 265:/usr/include/c++/10/bits/ios_base.h ****       explicit
 266:/usr/include/c++/10/bits/ios_base.h ****       failure(const char*, const error_code& = io_errc::stream);
 267:/usr/include/c++/10/bits/ios_base.h **** #endif
 268:/usr/include/c++/10/bits/ios_base.h **** 
 269:/usr/include/c++/10/bits/ios_base.h ****       virtual
 270:/usr/include/c++/10/bits/ios_base.h ****       ~failure() throw();
 271:/usr/include/c++/10/bits/ios_base.h **** 
 272:/usr/include/c++/10/bits/ios_base.h ****       virtual const char*
 273:/usr/include/c++/10/bits/ios_base.h ****       what() const throw();
 274:/usr/include/c++/10/bits/ios_base.h ****     };
 275:/usr/include/c++/10/bits/ios_base.h **** #else
 276:/usr/include/c++/10/bits/ios_base.h ****     class failure : public exception
 277:/usr/include/c++/10/bits/ios_base.h ****     {
AARCH64 GAS  obj/Chapter13_6.s 			page 25


 278:/usr/include/c++/10/bits/ios_base.h ****     public:
 279:/usr/include/c++/10/bits/ios_base.h ****       // _GLIBCXX_RESOLVE_LIB_DEFECTS
 280:/usr/include/c++/10/bits/ios_base.h ****       // 48.  Use of non-existent exception constructor
 281:/usr/include/c++/10/bits/ios_base.h ****       explicit
 282:/usr/include/c++/10/bits/ios_base.h ****       failure(const string& __str) throw();
 283:/usr/include/c++/10/bits/ios_base.h **** 
 284:/usr/include/c++/10/bits/ios_base.h ****       // This declaration is not useless:
 285:/usr/include/c++/10/bits/ios_base.h ****       // http://gcc.gnu.org/onlinedocs/gcc-4.3.2/gcc/Vague-Linkage.html
 286:/usr/include/c++/10/bits/ios_base.h ****       virtual
 287:/usr/include/c++/10/bits/ios_base.h ****       ~failure() throw();
 288:/usr/include/c++/10/bits/ios_base.h **** 
 289:/usr/include/c++/10/bits/ios_base.h ****       virtual const char*
 290:/usr/include/c++/10/bits/ios_base.h ****       what() const throw();
 291:/usr/include/c++/10/bits/ios_base.h **** 
 292:/usr/include/c++/10/bits/ios_base.h **** #if __cplusplus >= 201103L
 293:/usr/include/c++/10/bits/ios_base.h ****       // Define the new members required by C++11,
 294:/usr/include/c++/10/bits/ios_base.h ****       // even though the error_code cannot be stored.
 295:/usr/include/c++/10/bits/ios_base.h **** 
 296:/usr/include/c++/10/bits/ios_base.h ****       explicit
 297:/usr/include/c++/10/bits/ios_base.h ****       failure(const string& __s, const error_code&) noexcept
 298:/usr/include/c++/10/bits/ios_base.h ****       : failure(__s)
 299:/usr/include/c++/10/bits/ios_base.h ****       { }
 300:/usr/include/c++/10/bits/ios_base.h **** 
 301:/usr/include/c++/10/bits/ios_base.h ****       explicit
 302:/usr/include/c++/10/bits/ios_base.h ****       failure(const char* __s, const error_code& = error_code{})
 303:/usr/include/c++/10/bits/ios_base.h ****       : failure(string(__s))
 304:/usr/include/c++/10/bits/ios_base.h ****       { }
 305:/usr/include/c++/10/bits/ios_base.h **** 
 306:/usr/include/c++/10/bits/ios_base.h ****       // Stand-in for system_error::code() but returning by value.
 307:/usr/include/c++/10/bits/ios_base.h ****       error_code code() const noexcept { return error_code{}; }
 308:/usr/include/c++/10/bits/ios_base.h **** #endif
 309:/usr/include/c++/10/bits/ios_base.h **** 
 310:/usr/include/c++/10/bits/ios_base.h ****     private:
 311:/usr/include/c++/10/bits/ios_base.h ****       string _M_msg;
 312:/usr/include/c++/10/bits/ios_base.h ****     };
 313:/usr/include/c++/10/bits/ios_base.h **** #endif
 314:/usr/include/c++/10/bits/ios_base.h **** 
 315:/usr/include/c++/10/bits/ios_base.h ****     // 27.4.2.1.2  Type ios_base::fmtflags
 316:/usr/include/c++/10/bits/ios_base.h ****     /**
 317:/usr/include/c++/10/bits/ios_base.h ****      *  @brief This is a bitmask type.
 318:/usr/include/c++/10/bits/ios_base.h ****      *
 319:/usr/include/c++/10/bits/ios_base.h ****      *  @c @a _Ios_Fmtflags is implementation-defined, but it is valid to
 320:/usr/include/c++/10/bits/ios_base.h ****      *  perform bitwise operations on these values and expect the Right
 321:/usr/include/c++/10/bits/ios_base.h ****      *  Thing to happen.  Defined objects of type fmtflags are:
 322:/usr/include/c++/10/bits/ios_base.h ****      *  - boolalpha
 323:/usr/include/c++/10/bits/ios_base.h ****      *  - dec
 324:/usr/include/c++/10/bits/ios_base.h ****      *  - fixed
 325:/usr/include/c++/10/bits/ios_base.h ****      *  - hex
 326:/usr/include/c++/10/bits/ios_base.h ****      *  - internal
 327:/usr/include/c++/10/bits/ios_base.h ****      *  - left
 328:/usr/include/c++/10/bits/ios_base.h ****      *  - oct
 329:/usr/include/c++/10/bits/ios_base.h ****      *  - right
 330:/usr/include/c++/10/bits/ios_base.h ****      *  - scientific
 331:/usr/include/c++/10/bits/ios_base.h ****      *  - showbase
 332:/usr/include/c++/10/bits/ios_base.h ****      *  - showpoint
 333:/usr/include/c++/10/bits/ios_base.h ****      *  - showpos
 334:/usr/include/c++/10/bits/ios_base.h ****      *  - skipws
AARCH64 GAS  obj/Chapter13_6.s 			page 26


 335:/usr/include/c++/10/bits/ios_base.h ****      *  - unitbuf
 336:/usr/include/c++/10/bits/ios_base.h ****      *  - uppercase
 337:/usr/include/c++/10/bits/ios_base.h ****      *  - adjustfield
 338:/usr/include/c++/10/bits/ios_base.h ****      *  - basefield
 339:/usr/include/c++/10/bits/ios_base.h ****      *  - floatfield
 340:/usr/include/c++/10/bits/ios_base.h ****     */
 341:/usr/include/c++/10/bits/ios_base.h ****     typedef _Ios_Fmtflags fmtflags;
 342:/usr/include/c++/10/bits/ios_base.h **** 
 343:/usr/include/c++/10/bits/ios_base.h ****     /// Insert/extract @c bool in alphabetic rather than numeric format.
 344:/usr/include/c++/10/bits/ios_base.h ****     static const fmtflags boolalpha =   _S_boolalpha;
 345:/usr/include/c++/10/bits/ios_base.h **** 
 346:/usr/include/c++/10/bits/ios_base.h ****     /// Converts integer input or generates integer output in decimal base.
 347:/usr/include/c++/10/bits/ios_base.h ****     static const fmtflags dec =         _S_dec;
 348:/usr/include/c++/10/bits/ios_base.h **** 
 349:/usr/include/c++/10/bits/ios_base.h ****     /// Generate floating-point output in fixed-point notation.
 350:/usr/include/c++/10/bits/ios_base.h ****     static const fmtflags fixed =       _S_fixed;
 351:/usr/include/c++/10/bits/ios_base.h **** 
 352:/usr/include/c++/10/bits/ios_base.h ****     /// Converts integer input or generates integer output in hexadecimal base.
 353:/usr/include/c++/10/bits/ios_base.h ****     static const fmtflags hex =         _S_hex;
 354:/usr/include/c++/10/bits/ios_base.h **** 
 355:/usr/include/c++/10/bits/ios_base.h ****     /// Adds fill characters at a designated internal point in certain
 356:/usr/include/c++/10/bits/ios_base.h ****     /// generated output, or identical to @c right if no such point is
 357:/usr/include/c++/10/bits/ios_base.h ****     /// designated.
 358:/usr/include/c++/10/bits/ios_base.h ****     static const fmtflags internal =    _S_internal;
 359:/usr/include/c++/10/bits/ios_base.h **** 
 360:/usr/include/c++/10/bits/ios_base.h ****     /// Adds fill characters on the right (final positions) of certain
 361:/usr/include/c++/10/bits/ios_base.h ****     /// generated output.  (I.e., the thing you print is flush left.)
 362:/usr/include/c++/10/bits/ios_base.h ****     static const fmtflags left =        _S_left;
 363:/usr/include/c++/10/bits/ios_base.h **** 
 364:/usr/include/c++/10/bits/ios_base.h ****     /// Converts integer input or generates integer output in octal base.
 365:/usr/include/c++/10/bits/ios_base.h ****     static const fmtflags oct =         _S_oct;
 366:/usr/include/c++/10/bits/ios_base.h **** 
 367:/usr/include/c++/10/bits/ios_base.h ****     /// Adds fill characters on the left (initial positions) of certain
 368:/usr/include/c++/10/bits/ios_base.h ****     /// generated output.  (I.e., the thing you print is flush right.)
 369:/usr/include/c++/10/bits/ios_base.h ****     static const fmtflags right =       _S_right;
 370:/usr/include/c++/10/bits/ios_base.h **** 
 371:/usr/include/c++/10/bits/ios_base.h ****     /// Generates floating-point output in scientific notation.
 372:/usr/include/c++/10/bits/ios_base.h ****     static const fmtflags scientific =  _S_scientific;
 373:/usr/include/c++/10/bits/ios_base.h **** 
 374:/usr/include/c++/10/bits/ios_base.h ****     /// Generates a prefix indicating the numeric base of generated integer
 375:/usr/include/c++/10/bits/ios_base.h ****     /// output.
 376:/usr/include/c++/10/bits/ios_base.h ****     static const fmtflags showbase =    _S_showbase;
 377:/usr/include/c++/10/bits/ios_base.h **** 
 378:/usr/include/c++/10/bits/ios_base.h ****     /// Generates a decimal-point character unconditionally in generated
 379:/usr/include/c++/10/bits/ios_base.h ****     /// floating-point output.
 380:/usr/include/c++/10/bits/ios_base.h ****     static const fmtflags showpoint =   _S_showpoint;
 381:/usr/include/c++/10/bits/ios_base.h **** 
 382:/usr/include/c++/10/bits/ios_base.h ****     /// Generates a + sign in non-negative generated numeric output.
 383:/usr/include/c++/10/bits/ios_base.h ****     static const fmtflags showpos =     _S_showpos;
 384:/usr/include/c++/10/bits/ios_base.h **** 
 385:/usr/include/c++/10/bits/ios_base.h ****     /// Skips leading white space before certain input operations.
 386:/usr/include/c++/10/bits/ios_base.h ****     static const fmtflags skipws =      _S_skipws;
 387:/usr/include/c++/10/bits/ios_base.h **** 
 388:/usr/include/c++/10/bits/ios_base.h ****     /// Flushes output after each output operation.
 389:/usr/include/c++/10/bits/ios_base.h ****     static const fmtflags unitbuf =     _S_unitbuf;
 390:/usr/include/c++/10/bits/ios_base.h **** 
 391:/usr/include/c++/10/bits/ios_base.h ****     /// Replaces certain lowercase letters with their uppercase equivalents
AARCH64 GAS  obj/Chapter13_6.s 			page 27


 392:/usr/include/c++/10/bits/ios_base.h ****     /// in generated output.
 393:/usr/include/c++/10/bits/ios_base.h ****     static const fmtflags uppercase =   _S_uppercase;
 394:/usr/include/c++/10/bits/ios_base.h **** 
 395:/usr/include/c++/10/bits/ios_base.h ****     /// A mask of left|right|internal.  Useful for the 2-arg form of @c setf.
 396:/usr/include/c++/10/bits/ios_base.h ****     static const fmtflags adjustfield = _S_adjustfield;
 397:/usr/include/c++/10/bits/ios_base.h **** 
 398:/usr/include/c++/10/bits/ios_base.h ****     /// A mask of dec|oct|hex.  Useful for the 2-arg form of @c setf.
 399:/usr/include/c++/10/bits/ios_base.h ****     static const fmtflags basefield =   _S_basefield;
 400:/usr/include/c++/10/bits/ios_base.h **** 
 401:/usr/include/c++/10/bits/ios_base.h ****     /// A mask of scientific|fixed.  Useful for the 2-arg form of @c setf.
 402:/usr/include/c++/10/bits/ios_base.h ****     static const fmtflags floatfield =  _S_floatfield;
 403:/usr/include/c++/10/bits/ios_base.h **** 
 404:/usr/include/c++/10/bits/ios_base.h ****     // 27.4.2.1.3  Type ios_base::iostate
 405:/usr/include/c++/10/bits/ios_base.h ****     /**
 406:/usr/include/c++/10/bits/ios_base.h ****      *  @brief This is a bitmask type.
 407:/usr/include/c++/10/bits/ios_base.h ****      *
 408:/usr/include/c++/10/bits/ios_base.h ****      *  @c @a _Ios_Iostate is implementation-defined, but it is valid to
 409:/usr/include/c++/10/bits/ios_base.h ****      *  perform bitwise operations on these values and expect the Right
 410:/usr/include/c++/10/bits/ios_base.h ****      *  Thing to happen.  Defined objects of type iostate are:
 411:/usr/include/c++/10/bits/ios_base.h ****      *  - badbit
 412:/usr/include/c++/10/bits/ios_base.h ****      *  - eofbit
 413:/usr/include/c++/10/bits/ios_base.h ****      *  - failbit
 414:/usr/include/c++/10/bits/ios_base.h ****      *  - goodbit
 415:/usr/include/c++/10/bits/ios_base.h ****     */
 416:/usr/include/c++/10/bits/ios_base.h ****     typedef _Ios_Iostate iostate;
 417:/usr/include/c++/10/bits/ios_base.h **** 
 418:/usr/include/c++/10/bits/ios_base.h ****     /// Indicates a loss of integrity in an input or output sequence (such
 419:/usr/include/c++/10/bits/ios_base.h ****     /// as an irrecoverable read error from a file).
 420:/usr/include/c++/10/bits/ios_base.h ****     static const iostate badbit =	_S_badbit;
 421:/usr/include/c++/10/bits/ios_base.h **** 
 422:/usr/include/c++/10/bits/ios_base.h ****     /// Indicates that an input operation reached the end of an input sequence.
 423:/usr/include/c++/10/bits/ios_base.h ****     static const iostate eofbit =	_S_eofbit;
 424:/usr/include/c++/10/bits/ios_base.h **** 
 425:/usr/include/c++/10/bits/ios_base.h ****     /// Indicates that an input operation failed to read the expected
 426:/usr/include/c++/10/bits/ios_base.h ****     /// characters, or that an output operation failed to generate the
 427:/usr/include/c++/10/bits/ios_base.h ****     /// desired characters.
 428:/usr/include/c++/10/bits/ios_base.h ****     static const iostate failbit =	_S_failbit;
 429:/usr/include/c++/10/bits/ios_base.h **** 
 430:/usr/include/c++/10/bits/ios_base.h ****     /// Indicates all is well.
 431:/usr/include/c++/10/bits/ios_base.h ****     static const iostate goodbit =	_S_goodbit;
 432:/usr/include/c++/10/bits/ios_base.h **** 
 433:/usr/include/c++/10/bits/ios_base.h ****     // 27.4.2.1.4  Type ios_base::openmode
 434:/usr/include/c++/10/bits/ios_base.h ****     /**
 435:/usr/include/c++/10/bits/ios_base.h ****      *  @brief This is a bitmask type.
 436:/usr/include/c++/10/bits/ios_base.h ****      *
 437:/usr/include/c++/10/bits/ios_base.h ****      *  @c @a _Ios_Openmode is implementation-defined, but it is valid to
 438:/usr/include/c++/10/bits/ios_base.h ****      *  perform bitwise operations on these values and expect the Right
 439:/usr/include/c++/10/bits/ios_base.h ****      *  Thing to happen.  Defined objects of type openmode are:
 440:/usr/include/c++/10/bits/ios_base.h ****      *  - app
 441:/usr/include/c++/10/bits/ios_base.h ****      *  - ate
 442:/usr/include/c++/10/bits/ios_base.h ****      *  - binary
 443:/usr/include/c++/10/bits/ios_base.h ****      *  - in
 444:/usr/include/c++/10/bits/ios_base.h ****      *  - out
 445:/usr/include/c++/10/bits/ios_base.h ****      *  - trunc
 446:/usr/include/c++/10/bits/ios_base.h ****     */
 447:/usr/include/c++/10/bits/ios_base.h ****     typedef _Ios_Openmode openmode;
 448:/usr/include/c++/10/bits/ios_base.h **** 
AARCH64 GAS  obj/Chapter13_6.s 			page 28


 449:/usr/include/c++/10/bits/ios_base.h ****     /// Seek to end before each write.
 450:/usr/include/c++/10/bits/ios_base.h ****     static const openmode app =		_S_app;
 451:/usr/include/c++/10/bits/ios_base.h **** 
 452:/usr/include/c++/10/bits/ios_base.h ****     /// Open and seek to end immediately after opening.
 453:/usr/include/c++/10/bits/ios_base.h ****     static const openmode ate =		_S_ate;
 454:/usr/include/c++/10/bits/ios_base.h **** 
 455:/usr/include/c++/10/bits/ios_base.h ****     /// Perform input and output in binary mode (as opposed to text mode).
 456:/usr/include/c++/10/bits/ios_base.h ****     /// This is probably not what you think it is; see
 457:/usr/include/c++/10/bits/ios_base.h ****     /// https://gcc.gnu.org/onlinedocs/libstdc++/manual/fstreams.html#std.io.filestreams.binary
 458:/usr/include/c++/10/bits/ios_base.h ****     static const openmode binary =	_S_bin;
 459:/usr/include/c++/10/bits/ios_base.h **** 
 460:/usr/include/c++/10/bits/ios_base.h ****     /// Open for input.  Default for @c ifstream and fstream.
 461:/usr/include/c++/10/bits/ios_base.h ****     static const openmode in =		_S_in;
 462:/usr/include/c++/10/bits/ios_base.h **** 
 463:/usr/include/c++/10/bits/ios_base.h ****     /// Open for output.  Default for @c ofstream and fstream.
 464:/usr/include/c++/10/bits/ios_base.h ****     static const openmode out =		_S_out;
 465:/usr/include/c++/10/bits/ios_base.h **** 
 466:/usr/include/c++/10/bits/ios_base.h ****     /// Truncate an existing stream when opening.  Default for @c ofstream.
 467:/usr/include/c++/10/bits/ios_base.h ****     static const openmode trunc =	_S_trunc;
 468:/usr/include/c++/10/bits/ios_base.h **** 
 469:/usr/include/c++/10/bits/ios_base.h ****     // 27.4.2.1.5  Type ios_base::seekdir
 470:/usr/include/c++/10/bits/ios_base.h ****     /**
 471:/usr/include/c++/10/bits/ios_base.h ****      *  @brief This is an enumerated type.
 472:/usr/include/c++/10/bits/ios_base.h ****      *
 473:/usr/include/c++/10/bits/ios_base.h ****      *  @c @a _Ios_Seekdir is implementation-defined.  Defined values
 474:/usr/include/c++/10/bits/ios_base.h ****      *  of type seekdir are:
 475:/usr/include/c++/10/bits/ios_base.h ****      *  - beg
 476:/usr/include/c++/10/bits/ios_base.h ****      *  - cur, equivalent to @c SEEK_CUR in the C standard library.
 477:/usr/include/c++/10/bits/ios_base.h ****      *  - end, equivalent to @c SEEK_END in the C standard library.
 478:/usr/include/c++/10/bits/ios_base.h ****     */
 479:/usr/include/c++/10/bits/ios_base.h ****     typedef _Ios_Seekdir seekdir;
 480:/usr/include/c++/10/bits/ios_base.h **** 
 481:/usr/include/c++/10/bits/ios_base.h ****     /// Request a seek relative to the beginning of the stream.
 482:/usr/include/c++/10/bits/ios_base.h ****     static const seekdir beg =		_S_beg;
 483:/usr/include/c++/10/bits/ios_base.h **** 
 484:/usr/include/c++/10/bits/ios_base.h ****     /// Request a seek relative to the current position within the sequence.
 485:/usr/include/c++/10/bits/ios_base.h ****     static const seekdir cur =		_S_cur;
 486:/usr/include/c++/10/bits/ios_base.h **** 
 487:/usr/include/c++/10/bits/ios_base.h ****     /// Request a seek relative to the current end of the sequence.
 488:/usr/include/c++/10/bits/ios_base.h ****     static const seekdir end =		_S_end;
 489:/usr/include/c++/10/bits/ios_base.h **** 
 490:/usr/include/c++/10/bits/ios_base.h **** #if __cplusplus <= 201402L
 491:/usr/include/c++/10/bits/ios_base.h ****     // Annex D.6 (removed in C++17)
 492:/usr/include/c++/10/bits/ios_base.h ****     typedef int io_state
 493:/usr/include/c++/10/bits/ios_base.h ****       _GLIBCXX_DEPRECATED_SUGGEST("std::iostate");
 494:/usr/include/c++/10/bits/ios_base.h ****     typedef int open_mode
 495:/usr/include/c++/10/bits/ios_base.h ****       _GLIBCXX_DEPRECATED_SUGGEST("std::openmode");
 496:/usr/include/c++/10/bits/ios_base.h ****     typedef int seek_dir
 497:/usr/include/c++/10/bits/ios_base.h ****       _GLIBCXX_DEPRECATED_SUGGEST("std::seekdir");
 498:/usr/include/c++/10/bits/ios_base.h **** 
 499:/usr/include/c++/10/bits/ios_base.h ****     typedef std::streampos streampos
 500:/usr/include/c++/10/bits/ios_base.h ****       _GLIBCXX_DEPRECATED_SUGGEST("std::streampos");
 501:/usr/include/c++/10/bits/ios_base.h ****     typedef std::streamoff streamoff
 502:/usr/include/c++/10/bits/ios_base.h ****       _GLIBCXX_DEPRECATED_SUGGEST("std::streamoff");
 503:/usr/include/c++/10/bits/ios_base.h **** #endif
 504:/usr/include/c++/10/bits/ios_base.h **** 
 505:/usr/include/c++/10/bits/ios_base.h ****     // Callbacks;
AARCH64 GAS  obj/Chapter13_6.s 			page 29


 506:/usr/include/c++/10/bits/ios_base.h ****     /**
 507:/usr/include/c++/10/bits/ios_base.h ****      *  @brief  The set of events that may be passed to an event callback.
 508:/usr/include/c++/10/bits/ios_base.h ****      *
 509:/usr/include/c++/10/bits/ios_base.h ****      *  erase_event is used during ~ios() and copyfmt().  imbue_event is used
 510:/usr/include/c++/10/bits/ios_base.h ****      *  during imbue().  copyfmt_event is used during copyfmt().
 511:/usr/include/c++/10/bits/ios_base.h ****     */
 512:/usr/include/c++/10/bits/ios_base.h ****     enum event
 513:/usr/include/c++/10/bits/ios_base.h ****     {
 514:/usr/include/c++/10/bits/ios_base.h ****       erase_event,
 515:/usr/include/c++/10/bits/ios_base.h ****       imbue_event,
 516:/usr/include/c++/10/bits/ios_base.h ****       copyfmt_event
 517:/usr/include/c++/10/bits/ios_base.h ****     };
 518:/usr/include/c++/10/bits/ios_base.h **** 
 519:/usr/include/c++/10/bits/ios_base.h ****     /**
 520:/usr/include/c++/10/bits/ios_base.h ****      *  @brief  The type of an event callback function.
 521:/usr/include/c++/10/bits/ios_base.h ****      *  @param  __e  One of the members of the event enum.
 522:/usr/include/c++/10/bits/ios_base.h ****      *  @param  __b  Reference to the ios_base object.
 523:/usr/include/c++/10/bits/ios_base.h ****      *  @param  __i  The integer provided when the callback was registered.
 524:/usr/include/c++/10/bits/ios_base.h ****      *
 525:/usr/include/c++/10/bits/ios_base.h ****      *  Event callbacks are user defined functions that get called during
 526:/usr/include/c++/10/bits/ios_base.h ****      *  several ios_base and basic_ios functions, specifically imbue(),
 527:/usr/include/c++/10/bits/ios_base.h ****      *  copyfmt(), and ~ios().
 528:/usr/include/c++/10/bits/ios_base.h ****     */
 529:/usr/include/c++/10/bits/ios_base.h ****     typedef void (*event_callback) (event __e, ios_base& __b, int __i);
 530:/usr/include/c++/10/bits/ios_base.h **** 
 531:/usr/include/c++/10/bits/ios_base.h ****     /**
 532:/usr/include/c++/10/bits/ios_base.h ****      *  @brief  Add the callback __fn with parameter __index.
 533:/usr/include/c++/10/bits/ios_base.h ****      *  @param  __fn  The function to add.
 534:/usr/include/c++/10/bits/ios_base.h ****      *  @param  __index  The integer to pass to the function when invoked.
 535:/usr/include/c++/10/bits/ios_base.h ****      *
 536:/usr/include/c++/10/bits/ios_base.h ****      *  Registers a function as an event callback with an integer parameter to
 537:/usr/include/c++/10/bits/ios_base.h ****      *  be passed to the function when invoked.  Multiple copies of the
 538:/usr/include/c++/10/bits/ios_base.h ****      *  function are allowed.  If there are multiple callbacks, they are
 539:/usr/include/c++/10/bits/ios_base.h ****      *  invoked in the order they were registered.
 540:/usr/include/c++/10/bits/ios_base.h ****     */
 541:/usr/include/c++/10/bits/ios_base.h ****     void
 542:/usr/include/c++/10/bits/ios_base.h ****     register_callback(event_callback __fn, int __index);
 543:/usr/include/c++/10/bits/ios_base.h **** 
 544:/usr/include/c++/10/bits/ios_base.h ****   protected:
 545:/usr/include/c++/10/bits/ios_base.h ****     streamsize		_M_precision;
 546:/usr/include/c++/10/bits/ios_base.h ****     streamsize		_M_width;
 547:/usr/include/c++/10/bits/ios_base.h ****     fmtflags		_M_flags;
 548:/usr/include/c++/10/bits/ios_base.h ****     iostate		_M_exception;
 549:/usr/include/c++/10/bits/ios_base.h ****     iostate		_M_streambuf_state;
 550:/usr/include/c++/10/bits/ios_base.h **** 
 551:/usr/include/c++/10/bits/ios_base.h ****     // 27.4.2.6  Members for callbacks
 552:/usr/include/c++/10/bits/ios_base.h ****     // 27.4.2.6  ios_base callbacks
 553:/usr/include/c++/10/bits/ios_base.h ****     struct _Callback_list
 554:/usr/include/c++/10/bits/ios_base.h ****     {
 555:/usr/include/c++/10/bits/ios_base.h ****       // Data Members
 556:/usr/include/c++/10/bits/ios_base.h ****       _Callback_list*		_M_next;
 557:/usr/include/c++/10/bits/ios_base.h ****       ios_base::event_callback	_M_fn;
 558:/usr/include/c++/10/bits/ios_base.h ****       int			_M_index;
 559:/usr/include/c++/10/bits/ios_base.h ****       _Atomic_word		_M_refcount;  // 0 means one reference.
 560:/usr/include/c++/10/bits/ios_base.h **** 
 561:/usr/include/c++/10/bits/ios_base.h ****       _Callback_list(ios_base::event_callback __fn, int __index,
 562:/usr/include/c++/10/bits/ios_base.h **** 		     _Callback_list* __cb)
AARCH64 GAS  obj/Chapter13_6.s 			page 30


 563:/usr/include/c++/10/bits/ios_base.h ****       : _M_next(__cb), _M_fn(__fn), _M_index(__index), _M_refcount(0) { }
 564:/usr/include/c++/10/bits/ios_base.h **** 
 565:/usr/include/c++/10/bits/ios_base.h ****       void
 566:/usr/include/c++/10/bits/ios_base.h ****       _M_add_reference() { __gnu_cxx::__atomic_add_dispatch(&_M_refcount, 1); }
 567:/usr/include/c++/10/bits/ios_base.h **** 
 568:/usr/include/c++/10/bits/ios_base.h ****       // 0 => OK to delete.
 569:/usr/include/c++/10/bits/ios_base.h ****       int
 570:/usr/include/c++/10/bits/ios_base.h ****       _M_remove_reference() 
 571:/usr/include/c++/10/bits/ios_base.h ****       {
 572:/usr/include/c++/10/bits/ios_base.h ****         // Be race-detector-friendly.  For more info see bits/c++config.
 573:/usr/include/c++/10/bits/ios_base.h ****         _GLIBCXX_SYNCHRONIZATION_HAPPENS_BEFORE(&_M_refcount);
 574:/usr/include/c++/10/bits/ios_base.h ****         int __res = __gnu_cxx::__exchange_and_add_dispatch(&_M_refcount, -1);
 575:/usr/include/c++/10/bits/ios_base.h ****         if (__res == 0)
 576:/usr/include/c++/10/bits/ios_base.h ****           {
 577:/usr/include/c++/10/bits/ios_base.h ****             _GLIBCXX_SYNCHRONIZATION_HAPPENS_AFTER(&_M_refcount);
 578:/usr/include/c++/10/bits/ios_base.h ****           }
 579:/usr/include/c++/10/bits/ios_base.h ****         return __res;
 580:/usr/include/c++/10/bits/ios_base.h ****       }
 581:/usr/include/c++/10/bits/ios_base.h ****     };
 582:/usr/include/c++/10/bits/ios_base.h **** 
 583:/usr/include/c++/10/bits/ios_base.h ****      _Callback_list*	_M_callbacks;
 584:/usr/include/c++/10/bits/ios_base.h **** 
 585:/usr/include/c++/10/bits/ios_base.h ****     void
 586:/usr/include/c++/10/bits/ios_base.h ****     _M_call_callbacks(event __ev) throw();
 587:/usr/include/c++/10/bits/ios_base.h **** 
 588:/usr/include/c++/10/bits/ios_base.h ****     void
 589:/usr/include/c++/10/bits/ios_base.h ****     _M_dispose_callbacks(void) throw();
 590:/usr/include/c++/10/bits/ios_base.h **** 
 591:/usr/include/c++/10/bits/ios_base.h ****     // 27.4.2.5  Members for iword/pword storage
 592:/usr/include/c++/10/bits/ios_base.h ****     struct _Words
 593:/usr/include/c++/10/bits/ios_base.h ****     {
 594:/usr/include/c++/10/bits/ios_base.h ****       void*	_M_pword;
 595:/usr/include/c++/10/bits/ios_base.h ****       long	_M_iword;
 596:/usr/include/c++/10/bits/ios_base.h ****       _Words() : _M_pword(0), _M_iword(0) { }
 597:/usr/include/c++/10/bits/ios_base.h ****     };
 598:/usr/include/c++/10/bits/ios_base.h **** 
 599:/usr/include/c++/10/bits/ios_base.h ****     // Only for failed iword/pword calls.
 600:/usr/include/c++/10/bits/ios_base.h ****     _Words		_M_word_zero;
 601:/usr/include/c++/10/bits/ios_base.h **** 
 602:/usr/include/c++/10/bits/ios_base.h ****     // Guaranteed storage.
 603:/usr/include/c++/10/bits/ios_base.h ****     // The first 5 iword and pword slots are reserved for internal use.
 604:/usr/include/c++/10/bits/ios_base.h ****     enum { _S_local_word_size = 8 };
 605:/usr/include/c++/10/bits/ios_base.h ****     _Words		_M_local_word[_S_local_word_size];
 606:/usr/include/c++/10/bits/ios_base.h **** 
 607:/usr/include/c++/10/bits/ios_base.h ****     // Allocated storage.
 608:/usr/include/c++/10/bits/ios_base.h ****     int			_M_word_size;
 609:/usr/include/c++/10/bits/ios_base.h ****     _Words*		_M_word;
 610:/usr/include/c++/10/bits/ios_base.h **** 
 611:/usr/include/c++/10/bits/ios_base.h ****     _Words&
 612:/usr/include/c++/10/bits/ios_base.h ****     _M_grow_words(int __index, bool __iword);
 613:/usr/include/c++/10/bits/ios_base.h **** 
 614:/usr/include/c++/10/bits/ios_base.h ****     // Members for locale and locale caching.
 615:/usr/include/c++/10/bits/ios_base.h ****     locale		_M_ios_locale;
 616:/usr/include/c++/10/bits/ios_base.h **** 
 617:/usr/include/c++/10/bits/ios_base.h ****     void
 618:/usr/include/c++/10/bits/ios_base.h ****     _M_init() throw();
 619:/usr/include/c++/10/bits/ios_base.h **** 
AARCH64 GAS  obj/Chapter13_6.s 			page 31


 620:/usr/include/c++/10/bits/ios_base.h ****   public:
 621:/usr/include/c++/10/bits/ios_base.h **** 
 622:/usr/include/c++/10/bits/ios_base.h ****     // 27.4.2.1.6  Class ios_base::Init
 623:/usr/include/c++/10/bits/ios_base.h ****     // Used to initialize standard streams. In theory, g++ could use
 624:/usr/include/c++/10/bits/ios_base.h ****     // -finit-priority to order this stuff correctly without going
 625:/usr/include/c++/10/bits/ios_base.h ****     // through these machinations.
 626:/usr/include/c++/10/bits/ios_base.h ****     class Init
 627:/usr/include/c++/10/bits/ios_base.h ****     {
 628:/usr/include/c++/10/bits/ios_base.h ****       friend class ios_base;
 629:/usr/include/c++/10/bits/ios_base.h ****     public:
 630:/usr/include/c++/10/bits/ios_base.h ****       Init();
 631:/usr/include/c++/10/bits/ios_base.h ****       ~Init();
 632:/usr/include/c++/10/bits/ios_base.h **** 
 633:/usr/include/c++/10/bits/ios_base.h **** #if __cplusplus >= 201103L
 634:/usr/include/c++/10/bits/ios_base.h ****       Init(const Init&) = default;
 635:/usr/include/c++/10/bits/ios_base.h ****       Init& operator=(const Init&) = default;
 636:/usr/include/c++/10/bits/ios_base.h **** #endif
 637:/usr/include/c++/10/bits/ios_base.h **** 
 638:/usr/include/c++/10/bits/ios_base.h ****     private:
 639:/usr/include/c++/10/bits/ios_base.h ****       static _Atomic_word	_S_refcount;
 640:/usr/include/c++/10/bits/ios_base.h ****       static bool		_S_synced_with_stdio;
 641:/usr/include/c++/10/bits/ios_base.h ****     };
 642:/usr/include/c++/10/bits/ios_base.h **** 
 643:/usr/include/c++/10/bits/ios_base.h ****     // [27.4.2.2] fmtflags state functions
 644:/usr/include/c++/10/bits/ios_base.h ****     /**
 645:/usr/include/c++/10/bits/ios_base.h ****      *  @brief  Access to format flags.
 646:/usr/include/c++/10/bits/ios_base.h ****      *  @return  The format control flags for both input and output.
 647:/usr/include/c++/10/bits/ios_base.h ****     */
 648:/usr/include/c++/10/bits/ios_base.h ****     fmtflags
 649:/usr/include/c++/10/bits/ios_base.h ****     flags() const
 650:/usr/include/c++/10/bits/ios_base.h ****     { return _M_flags; }
 651:/usr/include/c++/10/bits/ios_base.h **** 
 652:/usr/include/c++/10/bits/ios_base.h ****     /**
 653:/usr/include/c++/10/bits/ios_base.h ****      *  @brief  Setting new format flags all at once.
 654:/usr/include/c++/10/bits/ios_base.h ****      *  @param  __fmtfl  The new flags to set.
 655:/usr/include/c++/10/bits/ios_base.h ****      *  @return  The previous format control flags.
 656:/usr/include/c++/10/bits/ios_base.h ****      *
 657:/usr/include/c++/10/bits/ios_base.h ****      *  This function overwrites all the format flags with @a __fmtfl.
 658:/usr/include/c++/10/bits/ios_base.h ****     */
 659:/usr/include/c++/10/bits/ios_base.h ****     fmtflags
 660:/usr/include/c++/10/bits/ios_base.h ****     flags(fmtflags __fmtfl)
 661:/usr/include/c++/10/bits/ios_base.h ****     {
 662:/usr/include/c++/10/bits/ios_base.h ****       fmtflags __old = _M_flags;
 663:/usr/include/c++/10/bits/ios_base.h ****       _M_flags = __fmtfl;
 664:/usr/include/c++/10/bits/ios_base.h ****       return __old;
 665:/usr/include/c++/10/bits/ios_base.h ****     }
 666:/usr/include/c++/10/bits/ios_base.h **** 
 667:/usr/include/c++/10/bits/ios_base.h ****     /**
 668:/usr/include/c++/10/bits/ios_base.h ****      *  @brief  Setting new format flags.
 669:/usr/include/c++/10/bits/ios_base.h ****      *  @param  __fmtfl  Additional flags to set.
 670:/usr/include/c++/10/bits/ios_base.h ****      *  @return  The previous format control flags.
 671:/usr/include/c++/10/bits/ios_base.h ****      *
 672:/usr/include/c++/10/bits/ios_base.h ****      *  This function sets additional flags in format control.  Flags that
 673:/usr/include/c++/10/bits/ios_base.h ****      *  were previously set remain set.
 674:/usr/include/c++/10/bits/ios_base.h ****     */
 675:/usr/include/c++/10/bits/ios_base.h ****     fmtflags
 676:/usr/include/c++/10/bits/ios_base.h ****     setf(fmtflags __fmtfl)
AARCH64 GAS  obj/Chapter13_6.s 			page 32


 677:/usr/include/c++/10/bits/ios_base.h ****     {
 678:/usr/include/c++/10/bits/ios_base.h ****       fmtflags __old = _M_flags;
 679:/usr/include/c++/10/bits/ios_base.h ****       _M_flags |= __fmtfl;
 680:/usr/include/c++/10/bits/ios_base.h ****       return __old;
 681:/usr/include/c++/10/bits/ios_base.h ****     }
 682:/usr/include/c++/10/bits/ios_base.h **** 
 683:/usr/include/c++/10/bits/ios_base.h ****     /**
 684:/usr/include/c++/10/bits/ios_base.h ****      *  @brief  Setting new format flags.
 685:/usr/include/c++/10/bits/ios_base.h ****      *  @param  __fmtfl  Additional flags to set.
 686:/usr/include/c++/10/bits/ios_base.h ****      *  @param  __mask  The flags mask for @a fmtfl.
 687:/usr/include/c++/10/bits/ios_base.h ****      *  @return  The previous format control flags.
 688:/usr/include/c++/10/bits/ios_base.h ****      *
 689:/usr/include/c++/10/bits/ios_base.h ****      *  This function clears @a mask in the format flags, then sets
 690:/usr/include/c++/10/bits/ios_base.h ****      *  @a fmtfl @c & @a mask.  An example mask is @c ios_base::adjustfield.
 691:/usr/include/c++/10/bits/ios_base.h ****     */
 692:/usr/include/c++/10/bits/ios_base.h ****     fmtflags
 693:/usr/include/c++/10/bits/ios_base.h ****     setf(fmtflags __fmtfl, fmtflags __mask)
 694:/usr/include/c++/10/bits/ios_base.h ****     {
 695:/usr/include/c++/10/bits/ios_base.h ****       fmtflags __old = _M_flags;
 696:/usr/include/c++/10/bits/ios_base.h ****       _M_flags &= ~__mask;
 697:/usr/include/c++/10/bits/ios_base.h ****       _M_flags |= (__fmtfl & __mask);
 698:/usr/include/c++/10/bits/ios_base.h ****       return __old;
 699:/usr/include/c++/10/bits/ios_base.h ****     }
 700:/usr/include/c++/10/bits/ios_base.h **** 
 701:/usr/include/c++/10/bits/ios_base.h ****     /**
 702:/usr/include/c++/10/bits/ios_base.h ****      *  @brief  Clearing format flags.
 703:/usr/include/c++/10/bits/ios_base.h ****      *  @param  __mask  The flags to unset.
 704:/usr/include/c++/10/bits/ios_base.h ****      *
 705:/usr/include/c++/10/bits/ios_base.h ****      *  This function clears @a __mask in the format flags.
 706:/usr/include/c++/10/bits/ios_base.h ****     */
 707:/usr/include/c++/10/bits/ios_base.h ****     void
 708:/usr/include/c++/10/bits/ios_base.h ****     unsetf(fmtflags __mask)
 709:/usr/include/c++/10/bits/ios_base.h ****     { _M_flags &= ~__mask; }
 710:/usr/include/c++/10/bits/ios_base.h **** 
 711:/usr/include/c++/10/bits/ios_base.h ****     /**
 712:/usr/include/c++/10/bits/ios_base.h ****      *  @brief  Flags access.
 713:/usr/include/c++/10/bits/ios_base.h ****      *  @return  The precision to generate on certain output operations.
 714:/usr/include/c++/10/bits/ios_base.h ****      *
 715:/usr/include/c++/10/bits/ios_base.h ****      *  Be careful if you try to give a definition of @a precision here; see
 716:/usr/include/c++/10/bits/ios_base.h ****      *  DR 189.
 717:/usr/include/c++/10/bits/ios_base.h ****     */
 718:/usr/include/c++/10/bits/ios_base.h ****     streamsize
 719:/usr/include/c++/10/bits/ios_base.h ****     precision() const
 720:/usr/include/c++/10/bits/ios_base.h ****     { return _M_precision; }
 721:/usr/include/c++/10/bits/ios_base.h **** 
 722:/usr/include/c++/10/bits/ios_base.h ****     /**
 723:/usr/include/c++/10/bits/ios_base.h ****      *  @brief  Changing flags.
 724:/usr/include/c++/10/bits/ios_base.h ****      *  @param  __prec  The new precision value.
 725:/usr/include/c++/10/bits/ios_base.h ****      *  @return  The previous value of precision().
 726:/usr/include/c++/10/bits/ios_base.h ****     */
 727:/usr/include/c++/10/bits/ios_base.h ****     streamsize
 728:/usr/include/c++/10/bits/ios_base.h ****     precision(streamsize __prec)
 729:/usr/include/c++/10/bits/ios_base.h ****     {
 730:/usr/include/c++/10/bits/ios_base.h ****       streamsize __old = _M_precision;
 731:/usr/include/c++/10/bits/ios_base.h ****       _M_precision = __prec;
 324              		.loc 3 731 20 view .LVU94
 325 00a4 C60080D2 		mov	x6, 6
AARCH64 GAS  obj/Chapter13_6.s 			page 33


 326              	.LBE230:
 327              	.LBE229:
 328              	.LBE228:
 329              	.LBB235:
 330              	.LBB236:
 331              		.loc 2 611 18 view .LVU95
 332 00a8 E20280D2 		mov	x2, 23
 333 00ac E00313AA 		mov	x0, x19
 334 00b0 01000090 		adrp	x1, .LC1
 335              	.LBE236:
 336              	.LBE235:
 337              	.LBB239:
 338              	.LBB220:
 132:/usr/include/c++/10/ostream **** 	return *this;
 339              		.loc 2 132 6 view .LVU96
 340 00b4 630240F9 		ldr	x3, [x19]
 341              	.LBE220:
 342              	.LBE239:
 343              	.LBB240:
 344              	.LBB237:
 345              		.loc 2 611 18 view .LVU97
 346 00b8 21000091 		add	x1, x1, :lo12:.LC1
 347              	.LBE237:
 348              	.LBE240:
 349              	.LBB241:
 350              	.LBB221:
 132:/usr/include/c++/10/ostream **** 	return *this;
 351              		.loc 2 132 6 view .LVU98
 352 00bc 63805EF8 		ldr	x3, [x3, -24]
 353 00c0 6300138B 		add	x3, x3, x19
 354              	.LVL22:
 355              	.LBB213:
 356              	.LBI179:
 732:/usr/include/c++/10/bits/ios_base.h ****       return __old;
 733:/usr/include/c++/10/bits/ios_base.h ****     }
 734:/usr/include/c++/10/bits/ios_base.h **** 
 735:/usr/include/c++/10/bits/ios_base.h ****     /**
 736:/usr/include/c++/10/bits/ios_base.h ****      *  @brief  Flags access.
 737:/usr/include/c++/10/bits/ios_base.h ****      *  @return  The minimum field width to generate on output operations.
 738:/usr/include/c++/10/bits/ios_base.h ****      *
 739:/usr/include/c++/10/bits/ios_base.h ****      *  <em>Minimum field width</em> refers to the number of characters.
 740:/usr/include/c++/10/bits/ios_base.h ****     */
 741:/usr/include/c++/10/bits/ios_base.h ****     streamsize
 742:/usr/include/c++/10/bits/ios_base.h ****     width() const
 743:/usr/include/c++/10/bits/ios_base.h ****     { return _M_width; }
 744:/usr/include/c++/10/bits/ios_base.h **** 
 745:/usr/include/c++/10/bits/ios_base.h ****     /**
 746:/usr/include/c++/10/bits/ios_base.h ****      *  @brief  Changing flags.
 747:/usr/include/c++/10/bits/ios_base.h ****      *  @param  __wide  The new width value.
 748:/usr/include/c++/10/bits/ios_base.h ****      *  @return  The previous value of width().
 749:/usr/include/c++/10/bits/ios_base.h ****     */
 750:/usr/include/c++/10/bits/ios_base.h ****     streamsize
 751:/usr/include/c++/10/bits/ios_base.h ****     width(streamsize __wide)
 752:/usr/include/c++/10/bits/ios_base.h ****     {
 753:/usr/include/c++/10/bits/ios_base.h ****       streamsize __old = _M_width;
 754:/usr/include/c++/10/bits/ios_base.h ****       _M_width = __wide;
 755:/usr/include/c++/10/bits/ios_base.h ****       return __old;
AARCH64 GAS  obj/Chapter13_6.s 			page 34


 756:/usr/include/c++/10/bits/ios_base.h ****     }
 757:/usr/include/c++/10/bits/ios_base.h **** 
 758:/usr/include/c++/10/bits/ios_base.h ****     // [27.4.2.4] ios_base static members
 759:/usr/include/c++/10/bits/ios_base.h ****     /**
 760:/usr/include/c++/10/bits/ios_base.h ****      *  @brief  Interaction with the standard C I/O objects.
 761:/usr/include/c++/10/bits/ios_base.h ****      *  @param  __sync  Whether to synchronize or not.
 762:/usr/include/c++/10/bits/ios_base.h ****      *  @return  True if the standard streams were previously synchronized.
 763:/usr/include/c++/10/bits/ios_base.h ****      *
 764:/usr/include/c++/10/bits/ios_base.h ****      *  The synchronization referred to is @e only that between the standard
 765:/usr/include/c++/10/bits/ios_base.h ****      *  C facilities (e.g., stdout) and the standard C++ objects (e.g.,
 766:/usr/include/c++/10/bits/ios_base.h ****      *  cout).  User-declared streams are unaffected.  See
 767:/usr/include/c++/10/bits/ios_base.h ****      *  https://gcc.gnu.org/onlinedocs/libstdc++/manual/fstreams.html#std.io.filestreams.binary
 768:/usr/include/c++/10/bits/ios_base.h ****     */
 769:/usr/include/c++/10/bits/ios_base.h ****     static bool
 770:/usr/include/c++/10/bits/ios_base.h ****     sync_with_stdio(bool __sync = true);
 771:/usr/include/c++/10/bits/ios_base.h **** 
 772:/usr/include/c++/10/bits/ios_base.h ****     // [27.4.2.3] ios_base locale functions
 773:/usr/include/c++/10/bits/ios_base.h ****     /**
 774:/usr/include/c++/10/bits/ios_base.h ****      *  @brief  Setting a new locale.
 775:/usr/include/c++/10/bits/ios_base.h ****      *  @param  __loc  The new locale.
 776:/usr/include/c++/10/bits/ios_base.h ****      *  @return  The previous locale.
 777:/usr/include/c++/10/bits/ios_base.h ****      *
 778:/usr/include/c++/10/bits/ios_base.h ****      *  Sets the new locale for this stream, and then invokes each callback
 779:/usr/include/c++/10/bits/ios_base.h ****      *  with imbue_event.
 780:/usr/include/c++/10/bits/ios_base.h ****     */
 781:/usr/include/c++/10/bits/ios_base.h ****     locale
 782:/usr/include/c++/10/bits/ios_base.h ****     imbue(const locale& __loc) throw();
 783:/usr/include/c++/10/bits/ios_base.h **** 
 784:/usr/include/c++/10/bits/ios_base.h ****     /**
 785:/usr/include/c++/10/bits/ios_base.h ****      *  @brief  Locale access
 786:/usr/include/c++/10/bits/ios_base.h ****      *  @return  A copy of the current locale.
 787:/usr/include/c++/10/bits/ios_base.h ****      *
 788:/usr/include/c++/10/bits/ios_base.h ****      *  If @c imbue(loc) has previously been called, then this function
 789:/usr/include/c++/10/bits/ios_base.h ****      *  returns @c loc.  Otherwise, it returns a copy of @c std::locale(),
 790:/usr/include/c++/10/bits/ios_base.h ****      *  the global C++ locale.
 791:/usr/include/c++/10/bits/ios_base.h ****     */
 792:/usr/include/c++/10/bits/ios_base.h ****     locale
 793:/usr/include/c++/10/bits/ios_base.h ****     getloc() const
 794:/usr/include/c++/10/bits/ios_base.h ****     { return _M_ios_locale; }
 795:/usr/include/c++/10/bits/ios_base.h **** 
 796:/usr/include/c++/10/bits/ios_base.h ****     /**
 797:/usr/include/c++/10/bits/ios_base.h ****      *  @brief  Locale access
 798:/usr/include/c++/10/bits/ios_base.h ****      *  @return  A reference to the current locale.
 799:/usr/include/c++/10/bits/ios_base.h ****      *
 800:/usr/include/c++/10/bits/ios_base.h ****      *  Like getloc above, but returns a reference instead of
 801:/usr/include/c++/10/bits/ios_base.h ****      *  generating a copy.
 802:/usr/include/c++/10/bits/ios_base.h ****     */
 803:/usr/include/c++/10/bits/ios_base.h ****     const locale&
 804:/usr/include/c++/10/bits/ios_base.h ****     _M_getloc() const
 805:/usr/include/c++/10/bits/ios_base.h ****     { return _M_ios_locale; }
 806:/usr/include/c++/10/bits/ios_base.h **** 
 807:/usr/include/c++/10/bits/ios_base.h ****     // [27.4.2.5] ios_base storage functions
 808:/usr/include/c++/10/bits/ios_base.h ****     /**
 809:/usr/include/c++/10/bits/ios_base.h ****      *  @brief  Access to unique indices.
 810:/usr/include/c++/10/bits/ios_base.h ****      *  @return  An integer different from all previous calls.
 811:/usr/include/c++/10/bits/ios_base.h ****      *
 812:/usr/include/c++/10/bits/ios_base.h ****      *  This function returns a unique integer every time it is called.  It
AARCH64 GAS  obj/Chapter13_6.s 			page 35


 813:/usr/include/c++/10/bits/ios_base.h ****      *  can be used for any purpose, but is primarily intended to be a unique
 814:/usr/include/c++/10/bits/ios_base.h ****      *  index for the iword and pword functions.  The expectation is that an
 815:/usr/include/c++/10/bits/ios_base.h ****      *  application calls xalloc in order to obtain an index in the iword and
 816:/usr/include/c++/10/bits/ios_base.h ****      *  pword arrays that can be used without fear of conflict.
 817:/usr/include/c++/10/bits/ios_base.h ****      *
 818:/usr/include/c++/10/bits/ios_base.h ****      *  The implementation maintains a static variable that is incremented and
 819:/usr/include/c++/10/bits/ios_base.h ****      *  returned on each invocation.  xalloc is guaranteed to return an index
 820:/usr/include/c++/10/bits/ios_base.h ****      *  that is safe to use in the iword and pword arrays.
 821:/usr/include/c++/10/bits/ios_base.h ****     */
 822:/usr/include/c++/10/bits/ios_base.h ****     static int
 823:/usr/include/c++/10/bits/ios_base.h ****     xalloc() throw();
 824:/usr/include/c++/10/bits/ios_base.h **** 
 825:/usr/include/c++/10/bits/ios_base.h ****     /**
 826:/usr/include/c++/10/bits/ios_base.h ****      *  @brief  Access to integer array.
 827:/usr/include/c++/10/bits/ios_base.h ****      *  @param  __ix  Index into the array.
 828:/usr/include/c++/10/bits/ios_base.h ****      *  @return  A reference to an integer associated with the index.
 829:/usr/include/c++/10/bits/ios_base.h ****      *
 830:/usr/include/c++/10/bits/ios_base.h ****      *  The iword function provides access to an array of integers that can be
 831:/usr/include/c++/10/bits/ios_base.h ****      *  used for any purpose.  The array grows as required to hold the
 832:/usr/include/c++/10/bits/ios_base.h ****      *  supplied index.  All integers in the array are initialized to 0.
 833:/usr/include/c++/10/bits/ios_base.h ****      *
 834:/usr/include/c++/10/bits/ios_base.h ****      *  The implementation reserves several indices.  You should use xalloc to
 835:/usr/include/c++/10/bits/ios_base.h ****      *  obtain an index that is safe to use.  Also note that since the array
 836:/usr/include/c++/10/bits/ios_base.h ****      *  can grow dynamically, it is not safe to hold onto the reference.
 837:/usr/include/c++/10/bits/ios_base.h ****     */
 838:/usr/include/c++/10/bits/ios_base.h ****     long&
 839:/usr/include/c++/10/bits/ios_base.h ****     iword(int __ix)
 840:/usr/include/c++/10/bits/ios_base.h ****     {
 841:/usr/include/c++/10/bits/ios_base.h ****       _Words& __word = ((unsigned)__ix < (unsigned)_M_word_size)
 842:/usr/include/c++/10/bits/ios_base.h **** 			? _M_word[__ix] : _M_grow_words(__ix, true);
 843:/usr/include/c++/10/bits/ios_base.h ****       return __word._M_iword;
 844:/usr/include/c++/10/bits/ios_base.h ****     }
 845:/usr/include/c++/10/bits/ios_base.h **** 
 846:/usr/include/c++/10/bits/ios_base.h ****     /**
 847:/usr/include/c++/10/bits/ios_base.h ****      *  @brief  Access to void pointer array.
 848:/usr/include/c++/10/bits/ios_base.h ****      *  @param  __ix  Index into the array.
 849:/usr/include/c++/10/bits/ios_base.h ****      *  @return  A reference to a void* associated with the index.
 850:/usr/include/c++/10/bits/ios_base.h ****      *
 851:/usr/include/c++/10/bits/ios_base.h ****      *  The pword function provides access to an array of pointers that can be
 852:/usr/include/c++/10/bits/ios_base.h ****      *  used for any purpose.  The array grows as required to hold the
 853:/usr/include/c++/10/bits/ios_base.h ****      *  supplied index.  All pointers in the array are initialized to 0.
 854:/usr/include/c++/10/bits/ios_base.h ****      *
 855:/usr/include/c++/10/bits/ios_base.h ****      *  The implementation reserves several indices.  You should use xalloc to
 856:/usr/include/c++/10/bits/ios_base.h ****      *  obtain an index that is safe to use.  Also note that since the array
 857:/usr/include/c++/10/bits/ios_base.h ****      *  can grow dynamically, it is not safe to hold onto the reference.
 858:/usr/include/c++/10/bits/ios_base.h ****     */
 859:/usr/include/c++/10/bits/ios_base.h ****     void*&
 860:/usr/include/c++/10/bits/ios_base.h ****     pword(int __ix)
 861:/usr/include/c++/10/bits/ios_base.h ****     {
 862:/usr/include/c++/10/bits/ios_base.h ****       _Words& __word = ((unsigned)__ix < (unsigned)_M_word_size)
 863:/usr/include/c++/10/bits/ios_base.h **** 			? _M_word[__ix] : _M_grow_words(__ix, false);
 864:/usr/include/c++/10/bits/ios_base.h ****       return __word._M_pword;
 865:/usr/include/c++/10/bits/ios_base.h ****     }
 866:/usr/include/c++/10/bits/ios_base.h **** 
 867:/usr/include/c++/10/bits/ios_base.h ****     // Destructor
 868:/usr/include/c++/10/bits/ios_base.h ****     /**
 869:/usr/include/c++/10/bits/ios_base.h ****      *  Invokes each callback with erase_event.  Destroys local storage.
AARCH64 GAS  obj/Chapter13_6.s 			page 36


 870:/usr/include/c++/10/bits/ios_base.h ****      *
 871:/usr/include/c++/10/bits/ios_base.h ****      *  Note that the ios_base object for the standard streams never gets
 872:/usr/include/c++/10/bits/ios_base.h ****      *  destroyed.  As a result, any callbacks registered with the standard
 873:/usr/include/c++/10/bits/ios_base.h ****      *  streams will not get invoked with erase_event (unless copyfmt is
 874:/usr/include/c++/10/bits/ios_base.h ****      *  used).
 875:/usr/include/c++/10/bits/ios_base.h ****     */
 876:/usr/include/c++/10/bits/ios_base.h ****     virtual ~ios_base();
 877:/usr/include/c++/10/bits/ios_base.h **** 
 878:/usr/include/c++/10/bits/ios_base.h ****   protected:
 879:/usr/include/c++/10/bits/ios_base.h ****     ios_base() throw ();
 880:/usr/include/c++/10/bits/ios_base.h **** 
 881:/usr/include/c++/10/bits/ios_base.h **** #if __cplusplus < 201103L
 882:/usr/include/c++/10/bits/ios_base.h ****   // _GLIBCXX_RESOLVE_LIB_DEFECTS
 883:/usr/include/c++/10/bits/ios_base.h ****   // 50.  Copy constructor and assignment operator of ios_base
 884:/usr/include/c++/10/bits/ios_base.h ****   private:
 885:/usr/include/c++/10/bits/ios_base.h ****     ios_base(const ios_base&);
 886:/usr/include/c++/10/bits/ios_base.h **** 
 887:/usr/include/c++/10/bits/ios_base.h ****     ios_base&
 888:/usr/include/c++/10/bits/ios_base.h ****     operator=(const ios_base&);
 889:/usr/include/c++/10/bits/ios_base.h **** #else
 890:/usr/include/c++/10/bits/ios_base.h ****   public:
 891:/usr/include/c++/10/bits/ios_base.h ****     ios_base(const ios_base&) = delete;
 892:/usr/include/c++/10/bits/ios_base.h **** 
 893:/usr/include/c++/10/bits/ios_base.h ****     ios_base&
 894:/usr/include/c++/10/bits/ios_base.h ****     operator=(const ios_base&) = delete;
 895:/usr/include/c++/10/bits/ios_base.h **** 
 896:/usr/include/c++/10/bits/ios_base.h ****   protected:
 897:/usr/include/c++/10/bits/ios_base.h ****     void
 898:/usr/include/c++/10/bits/ios_base.h ****     _M_move(ios_base&) noexcept;
 899:/usr/include/c++/10/bits/ios_base.h **** 
 900:/usr/include/c++/10/bits/ios_base.h ****     void
 901:/usr/include/c++/10/bits/ios_base.h ****     _M_swap(ios_base& __rhs) noexcept;
 902:/usr/include/c++/10/bits/ios_base.h **** #endif
 903:/usr/include/c++/10/bits/ios_base.h ****   };
 904:/usr/include/c++/10/bits/ios_base.h **** 
 905:/usr/include/c++/10/bits/ios_base.h ****   // [27.4.5.1] fmtflags manipulators
 906:/usr/include/c++/10/bits/ios_base.h ****   /// Calls base.setf(ios_base::boolalpha).
 907:/usr/include/c++/10/bits/ios_base.h ****   inline ios_base&
 908:/usr/include/c++/10/bits/ios_base.h ****   boolalpha(ios_base& __base)
 909:/usr/include/c++/10/bits/ios_base.h ****   {
 910:/usr/include/c++/10/bits/ios_base.h ****     __base.setf(ios_base::boolalpha);
 911:/usr/include/c++/10/bits/ios_base.h ****     return __base;
 912:/usr/include/c++/10/bits/ios_base.h ****   }
 913:/usr/include/c++/10/bits/ios_base.h **** 
 914:/usr/include/c++/10/bits/ios_base.h ****   /// Calls base.unsetf(ios_base::boolalpha).
 915:/usr/include/c++/10/bits/ios_base.h ****   inline ios_base&
 916:/usr/include/c++/10/bits/ios_base.h ****   noboolalpha(ios_base& __base)
 917:/usr/include/c++/10/bits/ios_base.h ****   {
 918:/usr/include/c++/10/bits/ios_base.h ****     __base.unsetf(ios_base::boolalpha);
 919:/usr/include/c++/10/bits/ios_base.h ****     return __base;
 920:/usr/include/c++/10/bits/ios_base.h ****   }
 921:/usr/include/c++/10/bits/ios_base.h **** 
 922:/usr/include/c++/10/bits/ios_base.h ****   /// Calls base.setf(ios_base::showbase).
 923:/usr/include/c++/10/bits/ios_base.h ****   inline ios_base&
 924:/usr/include/c++/10/bits/ios_base.h ****   showbase(ios_base& __base)
 925:/usr/include/c++/10/bits/ios_base.h ****   {
 926:/usr/include/c++/10/bits/ios_base.h ****     __base.setf(ios_base::showbase);
AARCH64 GAS  obj/Chapter13_6.s 			page 37


 927:/usr/include/c++/10/bits/ios_base.h ****     return __base;
 928:/usr/include/c++/10/bits/ios_base.h ****   }
 929:/usr/include/c++/10/bits/ios_base.h **** 
 930:/usr/include/c++/10/bits/ios_base.h ****   /// Calls base.unsetf(ios_base::showbase).
 931:/usr/include/c++/10/bits/ios_base.h ****   inline ios_base&
 932:/usr/include/c++/10/bits/ios_base.h ****   noshowbase(ios_base& __base)
 933:/usr/include/c++/10/bits/ios_base.h ****   {
 934:/usr/include/c++/10/bits/ios_base.h ****     __base.unsetf(ios_base::showbase);
 935:/usr/include/c++/10/bits/ios_base.h ****     return __base;
 936:/usr/include/c++/10/bits/ios_base.h ****   }
 937:/usr/include/c++/10/bits/ios_base.h **** 
 938:/usr/include/c++/10/bits/ios_base.h ****   /// Calls base.setf(ios_base::showpoint).
 939:/usr/include/c++/10/bits/ios_base.h ****   inline ios_base&
 940:/usr/include/c++/10/bits/ios_base.h ****   showpoint(ios_base& __base)
 941:/usr/include/c++/10/bits/ios_base.h ****   {
 942:/usr/include/c++/10/bits/ios_base.h ****     __base.setf(ios_base::showpoint);
 943:/usr/include/c++/10/bits/ios_base.h ****     return __base;
 944:/usr/include/c++/10/bits/ios_base.h ****   }
 945:/usr/include/c++/10/bits/ios_base.h **** 
 946:/usr/include/c++/10/bits/ios_base.h ****   /// Calls base.unsetf(ios_base::showpoint).
 947:/usr/include/c++/10/bits/ios_base.h ****   inline ios_base&
 948:/usr/include/c++/10/bits/ios_base.h ****   noshowpoint(ios_base& __base)
 949:/usr/include/c++/10/bits/ios_base.h ****   {
 950:/usr/include/c++/10/bits/ios_base.h ****     __base.unsetf(ios_base::showpoint);
 951:/usr/include/c++/10/bits/ios_base.h ****     return __base;
 952:/usr/include/c++/10/bits/ios_base.h ****   }
 953:/usr/include/c++/10/bits/ios_base.h **** 
 954:/usr/include/c++/10/bits/ios_base.h ****   /// Calls base.setf(ios_base::showpos).
 955:/usr/include/c++/10/bits/ios_base.h ****   inline ios_base&
 956:/usr/include/c++/10/bits/ios_base.h ****   showpos(ios_base& __base)
 957:/usr/include/c++/10/bits/ios_base.h ****   {
 958:/usr/include/c++/10/bits/ios_base.h ****     __base.setf(ios_base::showpos);
 959:/usr/include/c++/10/bits/ios_base.h ****     return __base;
 960:/usr/include/c++/10/bits/ios_base.h ****   }
 961:/usr/include/c++/10/bits/ios_base.h **** 
 962:/usr/include/c++/10/bits/ios_base.h ****   /// Calls base.unsetf(ios_base::showpos).
 963:/usr/include/c++/10/bits/ios_base.h ****   inline ios_base&
 964:/usr/include/c++/10/bits/ios_base.h ****   noshowpos(ios_base& __base)
 965:/usr/include/c++/10/bits/ios_base.h ****   {
 966:/usr/include/c++/10/bits/ios_base.h ****     __base.unsetf(ios_base::showpos);
 967:/usr/include/c++/10/bits/ios_base.h ****     return __base;
 968:/usr/include/c++/10/bits/ios_base.h ****   }
 969:/usr/include/c++/10/bits/ios_base.h **** 
 970:/usr/include/c++/10/bits/ios_base.h ****   /// Calls base.setf(ios_base::skipws).
 971:/usr/include/c++/10/bits/ios_base.h ****   inline ios_base&
 972:/usr/include/c++/10/bits/ios_base.h ****   skipws(ios_base& __base)
 973:/usr/include/c++/10/bits/ios_base.h ****   {
 974:/usr/include/c++/10/bits/ios_base.h ****     __base.setf(ios_base::skipws);
 975:/usr/include/c++/10/bits/ios_base.h ****     return __base;
 976:/usr/include/c++/10/bits/ios_base.h ****   }
 977:/usr/include/c++/10/bits/ios_base.h **** 
 978:/usr/include/c++/10/bits/ios_base.h ****   /// Calls base.unsetf(ios_base::skipws).
 979:/usr/include/c++/10/bits/ios_base.h ****   inline ios_base&
 980:/usr/include/c++/10/bits/ios_base.h ****   noskipws(ios_base& __base)
 981:/usr/include/c++/10/bits/ios_base.h ****   {
 982:/usr/include/c++/10/bits/ios_base.h ****     __base.unsetf(ios_base::skipws);
 983:/usr/include/c++/10/bits/ios_base.h ****     return __base;
AARCH64 GAS  obj/Chapter13_6.s 			page 38


 984:/usr/include/c++/10/bits/ios_base.h ****   }
 985:/usr/include/c++/10/bits/ios_base.h **** 
 986:/usr/include/c++/10/bits/ios_base.h ****   /// Calls base.setf(ios_base::uppercase).
 987:/usr/include/c++/10/bits/ios_base.h ****   inline ios_base&
 988:/usr/include/c++/10/bits/ios_base.h ****   uppercase(ios_base& __base)
 989:/usr/include/c++/10/bits/ios_base.h ****   {
 990:/usr/include/c++/10/bits/ios_base.h ****     __base.setf(ios_base::uppercase);
 991:/usr/include/c++/10/bits/ios_base.h ****     return __base;
 992:/usr/include/c++/10/bits/ios_base.h ****   }
 993:/usr/include/c++/10/bits/ios_base.h **** 
 994:/usr/include/c++/10/bits/ios_base.h ****   /// Calls base.unsetf(ios_base::uppercase).
 995:/usr/include/c++/10/bits/ios_base.h ****   inline ios_base&
 996:/usr/include/c++/10/bits/ios_base.h ****   nouppercase(ios_base& __base)
 997:/usr/include/c++/10/bits/ios_base.h ****   {
 998:/usr/include/c++/10/bits/ios_base.h ****     __base.unsetf(ios_base::uppercase);
 999:/usr/include/c++/10/bits/ios_base.h ****     return __base;
1000:/usr/include/c++/10/bits/ios_base.h ****   }
1001:/usr/include/c++/10/bits/ios_base.h **** 
1002:/usr/include/c++/10/bits/ios_base.h ****   /// Calls base.setf(ios_base::unitbuf).
1003:/usr/include/c++/10/bits/ios_base.h ****   inline ios_base&
1004:/usr/include/c++/10/bits/ios_base.h ****   unitbuf(ios_base& __base)
1005:/usr/include/c++/10/bits/ios_base.h ****   {
1006:/usr/include/c++/10/bits/ios_base.h ****      __base.setf(ios_base::unitbuf);
1007:/usr/include/c++/10/bits/ios_base.h ****      return __base;
1008:/usr/include/c++/10/bits/ios_base.h ****   }
1009:/usr/include/c++/10/bits/ios_base.h **** 
1010:/usr/include/c++/10/bits/ios_base.h ****   /// Calls base.unsetf(ios_base::unitbuf).
1011:/usr/include/c++/10/bits/ios_base.h ****   inline ios_base&
1012:/usr/include/c++/10/bits/ios_base.h ****   nounitbuf(ios_base& __base)
1013:/usr/include/c++/10/bits/ios_base.h ****   {
1014:/usr/include/c++/10/bits/ios_base.h ****      __base.unsetf(ios_base::unitbuf);
1015:/usr/include/c++/10/bits/ios_base.h ****      return __base;
1016:/usr/include/c++/10/bits/ios_base.h ****   }
1017:/usr/include/c++/10/bits/ios_base.h **** 
1018:/usr/include/c++/10/bits/ios_base.h ****   // [27.4.5.2] adjustfield manipulators
1019:/usr/include/c++/10/bits/ios_base.h ****   /// Calls base.setf(ios_base::internal, ios_base::adjustfield).
1020:/usr/include/c++/10/bits/ios_base.h ****   inline ios_base&
1021:/usr/include/c++/10/bits/ios_base.h ****   internal(ios_base& __base)
1022:/usr/include/c++/10/bits/ios_base.h ****   {
1023:/usr/include/c++/10/bits/ios_base.h ****      __base.setf(ios_base::internal, ios_base::adjustfield);
1024:/usr/include/c++/10/bits/ios_base.h ****      return __base;
1025:/usr/include/c++/10/bits/ios_base.h ****   }
1026:/usr/include/c++/10/bits/ios_base.h **** 
1027:/usr/include/c++/10/bits/ios_base.h ****   /// Calls base.setf(ios_base::left, ios_base::adjustfield).
1028:/usr/include/c++/10/bits/ios_base.h ****   inline ios_base&
1029:/usr/include/c++/10/bits/ios_base.h ****   left(ios_base& __base)
1030:/usr/include/c++/10/bits/ios_base.h ****   {
1031:/usr/include/c++/10/bits/ios_base.h ****     __base.setf(ios_base::left, ios_base::adjustfield);
1032:/usr/include/c++/10/bits/ios_base.h ****     return __base;
1033:/usr/include/c++/10/bits/ios_base.h ****   }
1034:/usr/include/c++/10/bits/ios_base.h **** 
1035:/usr/include/c++/10/bits/ios_base.h ****   /// Calls base.setf(ios_base::right, ios_base::adjustfield).
1036:/usr/include/c++/10/bits/ios_base.h ****   inline ios_base&
1037:/usr/include/c++/10/bits/ios_base.h ****   right(ios_base& __base)
1038:/usr/include/c++/10/bits/ios_base.h ****   {
1039:/usr/include/c++/10/bits/ios_base.h ****     __base.setf(ios_base::right, ios_base::adjustfield);
1040:/usr/include/c++/10/bits/ios_base.h ****     return __base;
AARCH64 GAS  obj/Chapter13_6.s 			page 39


1041:/usr/include/c++/10/bits/ios_base.h ****   }
1042:/usr/include/c++/10/bits/ios_base.h **** 
1043:/usr/include/c++/10/bits/ios_base.h ****   // [27.4.5.3] basefield manipulators
1044:/usr/include/c++/10/bits/ios_base.h ****   /// Calls base.setf(ios_base::dec, ios_base::basefield).
1045:/usr/include/c++/10/bits/ios_base.h ****   inline ios_base&
1046:/usr/include/c++/10/bits/ios_base.h ****   dec(ios_base& __base)
1047:/usr/include/c++/10/bits/ios_base.h ****   {
1048:/usr/include/c++/10/bits/ios_base.h ****     __base.setf(ios_base::dec, ios_base::basefield);
1049:/usr/include/c++/10/bits/ios_base.h ****     return __base;
1050:/usr/include/c++/10/bits/ios_base.h ****   }
1051:/usr/include/c++/10/bits/ios_base.h **** 
1052:/usr/include/c++/10/bits/ios_base.h ****   /// Calls base.setf(ios_base::hex, ios_base::basefield).
1053:/usr/include/c++/10/bits/ios_base.h ****   inline ios_base&
1054:/usr/include/c++/10/bits/ios_base.h ****   hex(ios_base& __base)
1055:/usr/include/c++/10/bits/ios_base.h ****   {
1056:/usr/include/c++/10/bits/ios_base.h ****     __base.setf(ios_base::hex, ios_base::basefield);
1057:/usr/include/c++/10/bits/ios_base.h ****     return __base;
1058:/usr/include/c++/10/bits/ios_base.h ****   }
1059:/usr/include/c++/10/bits/ios_base.h **** 
1060:/usr/include/c++/10/bits/ios_base.h ****   /// Calls base.setf(ios_base::oct, ios_base::basefield).
1061:/usr/include/c++/10/bits/ios_base.h ****   inline ios_base&
1062:/usr/include/c++/10/bits/ios_base.h ****   oct(ios_base& __base)
1063:/usr/include/c++/10/bits/ios_base.h ****   {
1064:/usr/include/c++/10/bits/ios_base.h ****     __base.setf(ios_base::oct, ios_base::basefield);
1065:/usr/include/c++/10/bits/ios_base.h ****     return __base;
1066:/usr/include/c++/10/bits/ios_base.h ****   }
1067:/usr/include/c++/10/bits/ios_base.h **** 
1068:/usr/include/c++/10/bits/ios_base.h ****   // [27.4.5.4] floatfield manipulators
1069:/usr/include/c++/10/bits/ios_base.h ****   /// Calls base.setf(ios_base::fixed, ios_base::floatfield).
1070:/usr/include/c++/10/bits/ios_base.h ****   inline ios_base&
1071:/usr/include/c++/10/bits/ios_base.h ****   fixed(ios_base& __base)
 357              		.loc 3 1071 3 is_stmt 1 view .LVU99
 358              	.LBE213:
 359              	.LBE221:
 360              	.LBE241:
1072:/usr/include/c++/10/bits/ios_base.h ****   {
1073:/usr/include/c++/10/bits/ios_base.h ****     __base.setf(ios_base::fixed, ios_base::floatfield);
 361              		.loc 3 1073 5 view .LVU100
 362              	.LBB242:
 363              	.LBB222:
 364              	.LBB214:
 365              	.LBB208:
 366              	.LBI180:
 693:/usr/include/c++/10/bits/ios_base.h ****     {
 367              		.loc 3 693 5 view .LVU101
 368              	.LBB203:
 695:/usr/include/c++/10/bits/ios_base.h ****       _M_flags &= ~__mask;
 369              		.loc 3 695 7 view .LVU102
 696:/usr/include/c++/10/bits/ios_base.h ****       _M_flags |= (__fmtfl & __mask);
 370              		.loc 3 696 7 view .LVU103
 696:/usr/include/c++/10/bits/ios_base.h ****       _M_flags |= (__fmtfl & __mask);
 371              		.loc 3 696 7 is_stmt 0 view .LVU104
 372              	.LBE203:
 373              	.LBE208:
 374              	.LBE214:
 375              	.LBE222:
 376              	.LBE242:
AARCH64 GAS  obj/Chapter13_6.s 			page 40


  96:/usr/include/c++/10/bits/ios_base.h **** 
 377              		.loc 3 96 5 is_stmt 1 view .LVU105
 378              	.LBB243:
 379              	.LBB223:
 380              	.LBB215:
 381              	.LBB209:
 382              	.LBB204:
 383              	.LBB191:
 384              	.LBI182:
 103:/usr/include/c++/10/bits/ios_base.h ****   { return __a = __a & __b; }
 385              		.loc 3 103 3 view .LVU106
 386              	.LBE191:
 387              	.LBE204:
 388              	.LBE209:
 389              	.LBE215:
 390              	.LBE223:
 391              	.LBE243:
 104:/usr/include/c++/10/bits/ios_base.h **** 
 392              		.loc 3 104 5 view .LVU107
 393              	.LBB244:
 394              	.LBB224:
 395              	.LBB216:
 396              	.LBB210:
 397              	.LBB205:
 398              	.LBB192:
 399              	.LBB188:
 400              	.LBI183:
  83:/usr/include/c++/10/bits/ios_base.h ****   { return _Ios_Fmtflags(static_cast<int>(__a) & static_cast<int>(__b)); }
 401              		.loc 3 83 3 view .LVU108
 402              	.LBB185:
  84:/usr/include/c++/10/bits/ios_base.h **** 
 403              		.loc 3 84 5 view .LVU109
  84:/usr/include/c++/10/bits/ios_base.h **** 
 404              		.loc 3 84 5 is_stmt 0 view .LVU110
 405              	.LBE185:
 406              	.LBE188:
 407              	.LBE192:
 697:/usr/include/c++/10/bits/ios_base.h ****       return __old;
 408              		.loc 3 697 7 is_stmt 1 view .LVU111
 697:/usr/include/c++/10/bits/ios_base.h ****       return __old;
 409              		.loc 3 697 7 is_stmt 0 view .LVU112
 410              	.LBE205:
 411              	.LBE210:
 412              	.LBE216:
 413              	.LBE224:
 414              	.LBE244:
  84:/usr/include/c++/10/bits/ios_base.h **** 
 415              		.loc 3 84 5 is_stmt 1 view .LVU113
 416              	.LBB245:
 417              	.LBB225:
 418              	.LBB217:
 419              	.LBB211:
 420              	.LBB206:
 421              	.LBB193:
 422              	.LBI193:
  99:/usr/include/c++/10/bits/ios_base.h ****   { return __a = __a | __b; }
 423              		.loc 3 99 3 view .LVU114
AARCH64 GAS  obj/Chapter13_6.s 			page 41


 424              	.LBB194:
 100:/usr/include/c++/10/bits/ios_base.h **** 
 425              		.loc 3 100 5 view .LVU115
 426              	.LBB195:
 427              	.LBI195:
  87:/usr/include/c++/10/bits/ios_base.h ****   { return _Ios_Fmtflags(static_cast<int>(__a) | static_cast<int>(__b)); }
 428              		.loc 3 87 3 view .LVU116
 429              	.LBB196:
  88:/usr/include/c++/10/bits/ios_base.h **** 
 430              		.loc 3 88 5 view .LVU117
  88:/usr/include/c++/10/bits/ios_base.h **** 
 431              		.loc 3 88 5 is_stmt 0 view .LVU118
 432              	.LBE196:
 433              	.LBE195:
 434              	.LBE194:
 435              	.LBE193:
 436              	.LBB200:
 437              	.LBB189:
 438              	.LBB186:
  84:/usr/include/c++/10/bits/ios_base.h **** 
 439              		.loc 3 84 71 view .LVU119
 440 00c4 641840B9 		ldr	w4, [x3, 24]
 441              	.LBE186:
 442              	.LBE189:
 443              	.LBE200:
 444              	.LBE206:
 445              	.LBE211:
 446              	.LBE217:
 447              	.LBE225:
 448              	.LBE245:
 449              	.LBB246:
 450              	.LBB233:
 451              	.LBB231:
 731:/usr/include/c++/10/bits/ios_base.h ****       return __old;
 452              		.loc 3 731 20 view .LVU120
 453 00c8 660400F9 		str	x6, [x3, 8]
 454              	.LBE231:
 455              	.LBE233:
 456              	.LBE246:
 457              	.LBB247:
 458              	.LBB226:
 459              	.LBB218:
 460              	.LBB212:
 461              	.LBB207:
 462              	.LBB201:
 463              	.LBB190:
 464              	.LBB187:
  84:/usr/include/c++/10/bits/ios_base.h **** 
 465              		.loc 3 84 71 view .LVU121
 466 00cc 8400050A 		and	w4, w4, w5
 467              	.LBE187:
 468              	.LBE190:
 469              	.LBE201:
 470              	.LBB202:
 471              	.LBB199:
 472              	.LBB198:
 473              	.LBB197:
AARCH64 GAS  obj/Chapter13_6.s 			page 42


  88:/usr/include/c++/10/bits/ios_base.h **** 
 474              		.loc 3 88 71 view .LVU122
 475 00d0 84001E32 		orr	w4, w4, 4
 476              	.LBE197:
 477              	.LBE198:
 100:/usr/include/c++/10/bits/ios_base.h **** 
 478              		.loc 3 100 16 view .LVU123
 479 00d4 641800B9 		str	w4, [x3, 24]
 480              	.LVL23:
 100:/usr/include/c++/10/bits/ios_base.h **** 
 481              		.loc 3 100 16 view .LVU124
 482              	.LBE199:
 483              	.LBE202:
 698:/usr/include/c++/10/bits/ios_base.h ****     }
 484              		.loc 3 698 7 is_stmt 1 view .LVU125
 698:/usr/include/c++/10/bits/ios_base.h ****     }
 485              		.loc 3 698 7 is_stmt 0 view .LVU126
 486              	.LBE207:
 487              	.LBE212:
 488              	.LBE218:
 489              	.LBE226:
 490              	.LBE247:
1074:/usr/include/c++/10/bits/ios_base.h ****     return __base;
 491              		.loc 3 1074 5 is_stmt 1 view .LVU127
 492              		.file 4 "/usr/include/c++/10/iomanip"
   1:/usr/include/c++/10/iomanip **** // Standard stream manipulators -*- C++ -*-
   2:/usr/include/c++/10/iomanip **** 
   3:/usr/include/c++/10/iomanip **** // Copyright (C) 1997-2020 Free Software Foundation, Inc.
   4:/usr/include/c++/10/iomanip **** //
   5:/usr/include/c++/10/iomanip **** // This file is part of the GNU ISO C++ Library.  This library is free
   6:/usr/include/c++/10/iomanip **** // software; you can redistribute it and/or modify it under the
   7:/usr/include/c++/10/iomanip **** // terms of the GNU General Public License as published by the
   8:/usr/include/c++/10/iomanip **** // Free Software Foundation; either version 3, or (at your option)
   9:/usr/include/c++/10/iomanip **** // any later version.
  10:/usr/include/c++/10/iomanip **** 
  11:/usr/include/c++/10/iomanip **** // This library is distributed in the hope that it will be useful,
  12:/usr/include/c++/10/iomanip **** // but WITHOUT ANY WARRANTY; without even the implied warranty of
  13:/usr/include/c++/10/iomanip **** // MERCHANTABILITY or FITNESS FOR A PARTICULAR PURPOSE.  See the
  14:/usr/include/c++/10/iomanip **** // GNU General Public License for more details.
  15:/usr/include/c++/10/iomanip **** 
  16:/usr/include/c++/10/iomanip **** // Under Section 7 of GPL version 3, you are granted additional
  17:/usr/include/c++/10/iomanip **** // permissions described in the GCC Runtime Library Exception, version
  18:/usr/include/c++/10/iomanip **** // 3.1, as published by the Free Software Foundation.
  19:/usr/include/c++/10/iomanip **** 
  20:/usr/include/c++/10/iomanip **** // You should have received a copy of the GNU General Public License and
  21:/usr/include/c++/10/iomanip **** // a copy of the GCC Runtime Library Exception along with this program;
  22:/usr/include/c++/10/iomanip **** // see the files COPYING3 and COPYING.RUNTIME respectively.  If not, see
  23:/usr/include/c++/10/iomanip **** // <http://www.gnu.org/licenses/>.
  24:/usr/include/c++/10/iomanip **** 
  25:/usr/include/c++/10/iomanip **** /** @file include/iomanip
  26:/usr/include/c++/10/iomanip ****  *  This is a Standard C++ Library header.
  27:/usr/include/c++/10/iomanip ****  */
  28:/usr/include/c++/10/iomanip **** 
  29:/usr/include/c++/10/iomanip **** //
  30:/usr/include/c++/10/iomanip **** // ISO C++ 14882: 27.6.3  Standard manipulators
  31:/usr/include/c++/10/iomanip **** //
  32:/usr/include/c++/10/iomanip **** 
AARCH64 GAS  obj/Chapter13_6.s 			page 43


  33:/usr/include/c++/10/iomanip **** #ifndef _GLIBCXX_IOMANIP
  34:/usr/include/c++/10/iomanip **** #define _GLIBCXX_IOMANIP 1
  35:/usr/include/c++/10/iomanip **** 
  36:/usr/include/c++/10/iomanip **** #pragma GCC system_header
  37:/usr/include/c++/10/iomanip **** 
  38:/usr/include/c++/10/iomanip **** #include <bits/c++config.h>
  39:/usr/include/c++/10/iomanip **** #include <iosfwd>
  40:/usr/include/c++/10/iomanip **** #include <bits/ios_base.h>
  41:/usr/include/c++/10/iomanip **** 
  42:/usr/include/c++/10/iomanip **** #if __cplusplus >= 201103L
  43:/usr/include/c++/10/iomanip **** #include <locale>
  44:/usr/include/c++/10/iomanip **** #if __cplusplus > 201103L
  45:/usr/include/c++/10/iomanip **** #include <bits/quoted_string.h>
  46:/usr/include/c++/10/iomanip **** #endif
  47:/usr/include/c++/10/iomanip **** #endif
  48:/usr/include/c++/10/iomanip **** 
  49:/usr/include/c++/10/iomanip **** namespace std _GLIBCXX_VISIBILITY(default)
  50:/usr/include/c++/10/iomanip **** {
  51:/usr/include/c++/10/iomanip **** _GLIBCXX_BEGIN_NAMESPACE_VERSION
  52:/usr/include/c++/10/iomanip **** 
  53:/usr/include/c++/10/iomanip ****   // [27.6.3] standard manipulators
  54:/usr/include/c++/10/iomanip ****   // Also see DR 183.
  55:/usr/include/c++/10/iomanip **** 
  56:/usr/include/c++/10/iomanip ****   struct _Resetiosflags { ios_base::fmtflags _M_mask; };
  57:/usr/include/c++/10/iomanip **** 
  58:/usr/include/c++/10/iomanip ****   /**
  59:/usr/include/c++/10/iomanip ****    *  @brief  Manipulator for @c setf.
  60:/usr/include/c++/10/iomanip ****    *  @param  __mask  A format flags mask.
  61:/usr/include/c++/10/iomanip ****    *
  62:/usr/include/c++/10/iomanip ****    *  Sent to a stream object, this manipulator resets the specified flags,
  63:/usr/include/c++/10/iomanip ****    *  via @e stream.setf(0,__mask).
  64:/usr/include/c++/10/iomanip ****   */
  65:/usr/include/c++/10/iomanip ****   inline _Resetiosflags
  66:/usr/include/c++/10/iomanip ****   resetiosflags(ios_base::fmtflags __mask)
  67:/usr/include/c++/10/iomanip ****   { return { __mask }; }
  68:/usr/include/c++/10/iomanip **** 
  69:/usr/include/c++/10/iomanip ****   template<typename _CharT, typename _Traits>
  70:/usr/include/c++/10/iomanip ****     inline basic_istream<_CharT, _Traits>&
  71:/usr/include/c++/10/iomanip ****     operator>>(basic_istream<_CharT, _Traits>& __is, _Resetiosflags __f)
  72:/usr/include/c++/10/iomanip ****     {
  73:/usr/include/c++/10/iomanip ****       __is.setf(ios_base::fmtflags(0), __f._M_mask);
  74:/usr/include/c++/10/iomanip ****       return __is;
  75:/usr/include/c++/10/iomanip ****     }
  76:/usr/include/c++/10/iomanip **** 
  77:/usr/include/c++/10/iomanip ****   template<typename _CharT, typename _Traits>
  78:/usr/include/c++/10/iomanip ****     inline basic_ostream<_CharT, _Traits>&
  79:/usr/include/c++/10/iomanip ****     operator<<(basic_ostream<_CharT, _Traits>& __os, _Resetiosflags __f)
  80:/usr/include/c++/10/iomanip ****     {
  81:/usr/include/c++/10/iomanip ****       __os.setf(ios_base::fmtflags(0), __f._M_mask);
  82:/usr/include/c++/10/iomanip ****       return __os;
  83:/usr/include/c++/10/iomanip ****     }
  84:/usr/include/c++/10/iomanip **** 
  85:/usr/include/c++/10/iomanip **** 
  86:/usr/include/c++/10/iomanip ****   struct _Setiosflags { ios_base::fmtflags _M_mask; };
  87:/usr/include/c++/10/iomanip **** 
  88:/usr/include/c++/10/iomanip ****   /**
  89:/usr/include/c++/10/iomanip ****    *  @brief  Manipulator for @c setf.
AARCH64 GAS  obj/Chapter13_6.s 			page 44


  90:/usr/include/c++/10/iomanip ****    *  @param  __mask  A format flags mask.
  91:/usr/include/c++/10/iomanip ****    *
  92:/usr/include/c++/10/iomanip ****    *  Sent to a stream object, this manipulator sets the format flags
  93:/usr/include/c++/10/iomanip ****    *  to @a __mask.
  94:/usr/include/c++/10/iomanip ****   */
  95:/usr/include/c++/10/iomanip ****   inline _Setiosflags
  96:/usr/include/c++/10/iomanip ****   setiosflags(ios_base::fmtflags __mask)
  97:/usr/include/c++/10/iomanip ****   { return { __mask }; }
  98:/usr/include/c++/10/iomanip **** 
  99:/usr/include/c++/10/iomanip ****   template<typename _CharT, typename _Traits>
 100:/usr/include/c++/10/iomanip ****     inline basic_istream<_CharT, _Traits>&
 101:/usr/include/c++/10/iomanip ****     operator>>(basic_istream<_CharT, _Traits>& __is, _Setiosflags __f)
 102:/usr/include/c++/10/iomanip ****     {
 103:/usr/include/c++/10/iomanip ****       __is.setf(__f._M_mask);
 104:/usr/include/c++/10/iomanip ****       return __is;
 105:/usr/include/c++/10/iomanip ****     }
 106:/usr/include/c++/10/iomanip **** 
 107:/usr/include/c++/10/iomanip ****   template<typename _CharT, typename _Traits>
 108:/usr/include/c++/10/iomanip ****     inline basic_ostream<_CharT, _Traits>&
 109:/usr/include/c++/10/iomanip ****     operator<<(basic_ostream<_CharT, _Traits>& __os, _Setiosflags __f)
 110:/usr/include/c++/10/iomanip ****     {
 111:/usr/include/c++/10/iomanip ****       __os.setf(__f._M_mask);
 112:/usr/include/c++/10/iomanip ****       return __os;
 113:/usr/include/c++/10/iomanip ****     }
 114:/usr/include/c++/10/iomanip **** 
 115:/usr/include/c++/10/iomanip **** 
 116:/usr/include/c++/10/iomanip ****   struct _Setbase { int _M_base; };
 117:/usr/include/c++/10/iomanip **** 
 118:/usr/include/c++/10/iomanip ****   /**
 119:/usr/include/c++/10/iomanip ****    *  @brief  Manipulator for @c setf.
 120:/usr/include/c++/10/iomanip ****    *  @param  __base  A numeric base.
 121:/usr/include/c++/10/iomanip ****    *
 122:/usr/include/c++/10/iomanip ****    *  Sent to a stream object, this manipulator changes the
 123:/usr/include/c++/10/iomanip ****    *  @c ios_base::basefield flags to @c oct, @c dec, or @c hex when @a base
 124:/usr/include/c++/10/iomanip ****    *  is 8, 10, or 16, accordingly, and to 0 if @a __base is any other value.
 125:/usr/include/c++/10/iomanip ****   */
 126:/usr/include/c++/10/iomanip ****   inline _Setbase
 127:/usr/include/c++/10/iomanip ****   setbase(int __base)
 128:/usr/include/c++/10/iomanip ****   { return { __base }; }
 129:/usr/include/c++/10/iomanip **** 
 130:/usr/include/c++/10/iomanip ****   template<typename _CharT, typename _Traits>
 131:/usr/include/c++/10/iomanip ****     inline basic_istream<_CharT, _Traits>&
 132:/usr/include/c++/10/iomanip ****     operator>>(basic_istream<_CharT, _Traits>& __is, _Setbase __f)
 133:/usr/include/c++/10/iomanip ****     {
 134:/usr/include/c++/10/iomanip ****       __is.setf(__f._M_base ==  8 ? ios_base::oct :
 135:/usr/include/c++/10/iomanip **** 		__f._M_base == 10 ? ios_base::dec :
 136:/usr/include/c++/10/iomanip **** 		__f._M_base == 16 ? ios_base::hex :
 137:/usr/include/c++/10/iomanip **** 		ios_base::fmtflags(0), ios_base::basefield);
 138:/usr/include/c++/10/iomanip ****       return __is;
 139:/usr/include/c++/10/iomanip ****     }
 140:/usr/include/c++/10/iomanip **** 
 141:/usr/include/c++/10/iomanip ****   template<typename _CharT, typename _Traits>
 142:/usr/include/c++/10/iomanip ****     inline basic_ostream<_CharT, _Traits>&
 143:/usr/include/c++/10/iomanip ****     operator<<(basic_ostream<_CharT, _Traits>& __os, _Setbase __f)
 144:/usr/include/c++/10/iomanip ****     {
 145:/usr/include/c++/10/iomanip ****       __os.setf(__f._M_base ==  8 ? ios_base::oct :
 146:/usr/include/c++/10/iomanip **** 		__f._M_base == 10 ? ios_base::dec :
AARCH64 GAS  obj/Chapter13_6.s 			page 45


 147:/usr/include/c++/10/iomanip **** 		__f._M_base == 16 ? ios_base::hex :
 148:/usr/include/c++/10/iomanip **** 		ios_base::fmtflags(0), ios_base::basefield);
 149:/usr/include/c++/10/iomanip ****       return __os;
 150:/usr/include/c++/10/iomanip ****     }
 151:/usr/include/c++/10/iomanip **** 
 152:/usr/include/c++/10/iomanip **** 
 153:/usr/include/c++/10/iomanip ****   template<typename _CharT>
 154:/usr/include/c++/10/iomanip ****     struct _Setfill { _CharT _M_c; };
 155:/usr/include/c++/10/iomanip **** 
 156:/usr/include/c++/10/iomanip ****   /**
 157:/usr/include/c++/10/iomanip ****    *  @brief  Manipulator for @c fill.
 158:/usr/include/c++/10/iomanip ****    *  @param  __c  The new fill character.
 159:/usr/include/c++/10/iomanip ****    *
 160:/usr/include/c++/10/iomanip ****    *  Sent to a stream object, this manipulator calls @c fill(__c) for that
 161:/usr/include/c++/10/iomanip ****    *  object.
 162:/usr/include/c++/10/iomanip ****   */
 163:/usr/include/c++/10/iomanip ****   template<typename _CharT>
 164:/usr/include/c++/10/iomanip ****     inline _Setfill<_CharT>
 165:/usr/include/c++/10/iomanip ****     setfill(_CharT __c)
 166:/usr/include/c++/10/iomanip ****     { return { __c }; }
 167:/usr/include/c++/10/iomanip **** 
 168:/usr/include/c++/10/iomanip ****   template<typename _CharT, typename _Traits>
 169:/usr/include/c++/10/iomanip ****     inline basic_istream<_CharT, _Traits>&
 170:/usr/include/c++/10/iomanip ****     operator>>(basic_istream<_CharT, _Traits>& __is, _Setfill<_CharT> __f)
 171:/usr/include/c++/10/iomanip ****     {
 172:/usr/include/c++/10/iomanip ****       __is.fill(__f._M_c);
 173:/usr/include/c++/10/iomanip ****       return __is;
 174:/usr/include/c++/10/iomanip ****     }
 175:/usr/include/c++/10/iomanip **** 
 176:/usr/include/c++/10/iomanip ****   template<typename _CharT, typename _Traits>
 177:/usr/include/c++/10/iomanip ****     inline basic_ostream<_CharT, _Traits>&
 178:/usr/include/c++/10/iomanip ****     operator<<(basic_ostream<_CharT, _Traits>& __os, _Setfill<_CharT> __f)
 179:/usr/include/c++/10/iomanip ****     {
 180:/usr/include/c++/10/iomanip ****       __os.fill(__f._M_c);
 181:/usr/include/c++/10/iomanip ****       return __os;
 182:/usr/include/c++/10/iomanip ****     }
 183:/usr/include/c++/10/iomanip **** 
 184:/usr/include/c++/10/iomanip **** 
 185:/usr/include/c++/10/iomanip ****   struct _Setprecision { int _M_n; };
 186:/usr/include/c++/10/iomanip **** 
 187:/usr/include/c++/10/iomanip ****   /**
 188:/usr/include/c++/10/iomanip ****    *  @brief  Manipulator for @c precision.
 189:/usr/include/c++/10/iomanip ****    *  @param  __n  The new precision.
 190:/usr/include/c++/10/iomanip ****    *
 191:/usr/include/c++/10/iomanip ****    *  Sent to a stream object, this manipulator calls @c precision(__n) for
 192:/usr/include/c++/10/iomanip ****    *  that object.
 193:/usr/include/c++/10/iomanip ****   */
 194:/usr/include/c++/10/iomanip ****   inline _Setprecision
 195:/usr/include/c++/10/iomanip ****   setprecision(int __n)
 196:/usr/include/c++/10/iomanip ****   { return { __n }; }
 493              		.loc 4 196 5 view .LVU128
 494              	.LBB248:
 495              	.LBI228:
 197:/usr/include/c++/10/iomanip **** 
 198:/usr/include/c++/10/iomanip ****   template<typename _CharT, typename _Traits>
 199:/usr/include/c++/10/iomanip ****     inline basic_istream<_CharT, _Traits>&
 200:/usr/include/c++/10/iomanip ****     operator>>(basic_istream<_CharT, _Traits>& __is, _Setprecision __f)
AARCH64 GAS  obj/Chapter13_6.s 			page 46


 201:/usr/include/c++/10/iomanip ****     {
 202:/usr/include/c++/10/iomanip ****       __is.precision(__f._M_n);
 203:/usr/include/c++/10/iomanip ****       return __is;
 204:/usr/include/c++/10/iomanip ****     }
 205:/usr/include/c++/10/iomanip **** 
 206:/usr/include/c++/10/iomanip ****   template<typename _CharT, typename _Traits>
 207:/usr/include/c++/10/iomanip ****     inline basic_ostream<_CharT, _Traits>&
 208:/usr/include/c++/10/iomanip ****     operator<<(basic_ostream<_CharT, _Traits>& __os, _Setprecision __f)
 496              		.loc 4 208 5 view .LVU129
 497              	.LBB234:
 498              	.LBI229:
 728:/usr/include/c++/10/bits/ios_base.h ****     {
 499              		.loc 3 728 5 view .LVU130
 500              	.LBB232:
 730:/usr/include/c++/10/bits/ios_base.h ****       _M_precision = __prec;
 501              		.loc 3 730 7 view .LVU131
 731:/usr/include/c++/10/bits/ios_base.h ****       return __old;
 502              		.loc 3 731 7 view .LVU132
 732:/usr/include/c++/10/bits/ios_base.h ****     }
 503              		.loc 3 732 7 view .LVU133
 732:/usr/include/c++/10/bits/ios_base.h ****     }
 504              		.loc 3 732 7 is_stmt 0 view .LVU134
 505              	.LBE232:
 506              	.LBE234:
 507              	.LBE248:
  43:Chapter13_6.cpp **** 	cout<<"Result of C++ function:"<<nl;
 508              		.loc 1 43 2 is_stmt 1 view .LVU135
 509              	.LBB249:
 510              	.LBI235:
 606:/usr/include/c++/10/ostream ****     {
 511              		.loc 2 606 5 view .LVU136
 606:/usr/include/c++/10/ostream ****     {
 512              		.loc 2 606 5 is_stmt 0 view .LVU137
 513              	.LBE249:
 514              		.file 5 "/usr/include/c++/10/bits/char_traits.h"
   1:/usr/include/c++/10/bits/char_traits.h **** // Character Traits for use by standard string and iostream -*- C++ -*-
   2:/usr/include/c++/10/bits/char_traits.h **** 
   3:/usr/include/c++/10/bits/char_traits.h **** // Copyright (C) 1997-2020 Free Software Foundation, Inc.
   4:/usr/include/c++/10/bits/char_traits.h **** //
   5:/usr/include/c++/10/bits/char_traits.h **** // This file is part of the GNU ISO C++ Library.  This library is free
   6:/usr/include/c++/10/bits/char_traits.h **** // software; you can redistribute it and/or modify it under the
   7:/usr/include/c++/10/bits/char_traits.h **** // terms of the GNU General Public License as published by the
   8:/usr/include/c++/10/bits/char_traits.h **** // Free Software Foundation; either version 3, or (at your option)
   9:/usr/include/c++/10/bits/char_traits.h **** // any later version.
  10:/usr/include/c++/10/bits/char_traits.h **** 
  11:/usr/include/c++/10/bits/char_traits.h **** // This library is distributed in the hope that it will be useful,
  12:/usr/include/c++/10/bits/char_traits.h **** // but WITHOUT ANY WARRANTY; without even the implied warranty of
  13:/usr/include/c++/10/bits/char_traits.h **** // MERCHANTABILITY or FITNESS FOR A PARTICULAR PURPOSE.  See the
  14:/usr/include/c++/10/bits/char_traits.h **** // GNU General Public License for more details.
  15:/usr/include/c++/10/bits/char_traits.h **** 
  16:/usr/include/c++/10/bits/char_traits.h **** // Under Section 7 of GPL version 3, you are granted additional
  17:/usr/include/c++/10/bits/char_traits.h **** // permissions described in the GCC Runtime Library Exception, version
  18:/usr/include/c++/10/bits/char_traits.h **** // 3.1, as published by the Free Software Foundation.
  19:/usr/include/c++/10/bits/char_traits.h **** 
  20:/usr/include/c++/10/bits/char_traits.h **** // You should have received a copy of the GNU General Public License and
  21:/usr/include/c++/10/bits/char_traits.h **** // a copy of the GCC Runtime Library Exception along with this program;
  22:/usr/include/c++/10/bits/char_traits.h **** // see the files COPYING3 and COPYING.RUNTIME respectively.  If not, see
AARCH64 GAS  obj/Chapter13_6.s 			page 47


  23:/usr/include/c++/10/bits/char_traits.h **** // <http://www.gnu.org/licenses/>.
  24:/usr/include/c++/10/bits/char_traits.h **** 
  25:/usr/include/c++/10/bits/char_traits.h **** /** @file bits/char_traits.h
  26:/usr/include/c++/10/bits/char_traits.h ****  *  This is an internal header file, included by other library headers.
  27:/usr/include/c++/10/bits/char_traits.h ****  *  Do not attempt to use it directly. @headername{string}
  28:/usr/include/c++/10/bits/char_traits.h ****  */
  29:/usr/include/c++/10/bits/char_traits.h **** 
  30:/usr/include/c++/10/bits/char_traits.h **** //
  31:/usr/include/c++/10/bits/char_traits.h **** // ISO C++ 14882: 21  Strings library
  32:/usr/include/c++/10/bits/char_traits.h **** //
  33:/usr/include/c++/10/bits/char_traits.h **** 
  34:/usr/include/c++/10/bits/char_traits.h **** #ifndef _CHAR_TRAITS_H
  35:/usr/include/c++/10/bits/char_traits.h **** #define _CHAR_TRAITS_H 1
  36:/usr/include/c++/10/bits/char_traits.h **** 
  37:/usr/include/c++/10/bits/char_traits.h **** #pragma GCC system_header
  38:/usr/include/c++/10/bits/char_traits.h **** 
  39:/usr/include/c++/10/bits/char_traits.h **** #include <bits/stl_algobase.h>  // std::copy, std::fill_n
  40:/usr/include/c++/10/bits/char_traits.h **** #include <bits/postypes.h>      // For streampos
  41:/usr/include/c++/10/bits/char_traits.h **** #include <cwchar>               // For WEOF, wmemmove, wmemset, etc.
  42:/usr/include/c++/10/bits/char_traits.h **** #if __cplusplus > 201703L
  43:/usr/include/c++/10/bits/char_traits.h **** # include <compare>
  44:/usr/include/c++/10/bits/char_traits.h **** #endif
  45:/usr/include/c++/10/bits/char_traits.h **** 
  46:/usr/include/c++/10/bits/char_traits.h **** #ifndef _GLIBCXX_ALWAYS_INLINE
  47:/usr/include/c++/10/bits/char_traits.h **** # define _GLIBCXX_ALWAYS_INLINE inline __attribute__((__always_inline__))
  48:/usr/include/c++/10/bits/char_traits.h **** #endif
  49:/usr/include/c++/10/bits/char_traits.h **** 
  50:/usr/include/c++/10/bits/char_traits.h **** namespace __gnu_cxx _GLIBCXX_VISIBILITY(default)
  51:/usr/include/c++/10/bits/char_traits.h **** {
  52:/usr/include/c++/10/bits/char_traits.h **** _GLIBCXX_BEGIN_NAMESPACE_VERSION
  53:/usr/include/c++/10/bits/char_traits.h **** 
  54:/usr/include/c++/10/bits/char_traits.h ****   /**
  55:/usr/include/c++/10/bits/char_traits.h ****    *  @brief  Mapping from character type to associated types.
  56:/usr/include/c++/10/bits/char_traits.h ****    *
  57:/usr/include/c++/10/bits/char_traits.h ****    *  @note This is an implementation class for the generic version
  58:/usr/include/c++/10/bits/char_traits.h ****    *  of char_traits.  It defines int_type, off_type, pos_type, and
  59:/usr/include/c++/10/bits/char_traits.h ****    *  state_type.  By default these are unsigned long, streamoff,
  60:/usr/include/c++/10/bits/char_traits.h ****    *  streampos, and mbstate_t.  Users who need a different set of
  61:/usr/include/c++/10/bits/char_traits.h ****    *  types, but who don't need to change the definitions of any function
  62:/usr/include/c++/10/bits/char_traits.h ****    *  defined in char_traits, can specialize __gnu_cxx::_Char_types
  63:/usr/include/c++/10/bits/char_traits.h ****    *  while leaving __gnu_cxx::char_traits alone. */
  64:/usr/include/c++/10/bits/char_traits.h ****   template<typename _CharT>
  65:/usr/include/c++/10/bits/char_traits.h ****     struct _Char_types
  66:/usr/include/c++/10/bits/char_traits.h ****     {
  67:/usr/include/c++/10/bits/char_traits.h ****       typedef unsigned long   int_type;
  68:/usr/include/c++/10/bits/char_traits.h ****       typedef std::streampos  pos_type;
  69:/usr/include/c++/10/bits/char_traits.h ****       typedef std::streamoff  off_type;
  70:/usr/include/c++/10/bits/char_traits.h ****       typedef std::mbstate_t  state_type;
  71:/usr/include/c++/10/bits/char_traits.h ****     };
  72:/usr/include/c++/10/bits/char_traits.h **** 
  73:/usr/include/c++/10/bits/char_traits.h **** 
  74:/usr/include/c++/10/bits/char_traits.h ****   /**
  75:/usr/include/c++/10/bits/char_traits.h ****    *  @brief  Base class used to implement std::char_traits.
  76:/usr/include/c++/10/bits/char_traits.h ****    *
  77:/usr/include/c++/10/bits/char_traits.h ****    *  @note For any given actual character type, this definition is
  78:/usr/include/c++/10/bits/char_traits.h ****    *  probably wrong.  (Most of the member functions are likely to be
  79:/usr/include/c++/10/bits/char_traits.h ****    *  right, but the int_type and state_type typedefs, and the eof()
AARCH64 GAS  obj/Chapter13_6.s 			page 48


  80:/usr/include/c++/10/bits/char_traits.h ****    *  member function, are likely to be wrong.)  The reason this class
  81:/usr/include/c++/10/bits/char_traits.h ****    *  exists is so users can specialize it.  Classes in namespace std
  82:/usr/include/c++/10/bits/char_traits.h ****    *  may not be specialized for fundamental types, but classes in
  83:/usr/include/c++/10/bits/char_traits.h ****    *  namespace __gnu_cxx may be.
  84:/usr/include/c++/10/bits/char_traits.h ****    *
  85:/usr/include/c++/10/bits/char_traits.h ****    *  See https://gcc.gnu.org/onlinedocs/libstdc++/manual/strings.html#strings.string.character_typ
  86:/usr/include/c++/10/bits/char_traits.h ****    *  for advice on how to make use of this class for @a unusual character
  87:/usr/include/c++/10/bits/char_traits.h ****    *  types. Also, check out include/ext/pod_char_traits.h.  
  88:/usr/include/c++/10/bits/char_traits.h ****    */
  89:/usr/include/c++/10/bits/char_traits.h ****   template<typename _CharT>
  90:/usr/include/c++/10/bits/char_traits.h ****     struct char_traits
  91:/usr/include/c++/10/bits/char_traits.h ****     {
  92:/usr/include/c++/10/bits/char_traits.h ****       typedef _CharT                                    char_type;
  93:/usr/include/c++/10/bits/char_traits.h ****       typedef typename _Char_types<_CharT>::int_type    int_type;
  94:/usr/include/c++/10/bits/char_traits.h ****       typedef typename _Char_types<_CharT>::pos_type    pos_type;
  95:/usr/include/c++/10/bits/char_traits.h ****       typedef typename _Char_types<_CharT>::off_type    off_type;
  96:/usr/include/c++/10/bits/char_traits.h ****       typedef typename _Char_types<_CharT>::state_type  state_type;
  97:/usr/include/c++/10/bits/char_traits.h **** #if __cpp_lib_three_way_comparison
  98:/usr/include/c++/10/bits/char_traits.h ****       using comparison_category = std::strong_ordering;
  99:/usr/include/c++/10/bits/char_traits.h **** #endif
 100:/usr/include/c++/10/bits/char_traits.h **** 
 101:/usr/include/c++/10/bits/char_traits.h ****       static _GLIBCXX14_CONSTEXPR void
 102:/usr/include/c++/10/bits/char_traits.h ****       assign(char_type& __c1, const char_type& __c2)
 103:/usr/include/c++/10/bits/char_traits.h ****       { __c1 = __c2; }
 104:/usr/include/c++/10/bits/char_traits.h **** 
 105:/usr/include/c++/10/bits/char_traits.h ****       static _GLIBCXX_CONSTEXPR bool
 106:/usr/include/c++/10/bits/char_traits.h ****       eq(const char_type& __c1, const char_type& __c2)
 107:/usr/include/c++/10/bits/char_traits.h ****       { return __c1 == __c2; }
 108:/usr/include/c++/10/bits/char_traits.h **** 
 109:/usr/include/c++/10/bits/char_traits.h ****       static _GLIBCXX_CONSTEXPR bool
 110:/usr/include/c++/10/bits/char_traits.h ****       lt(const char_type& __c1, const char_type& __c2)
 111:/usr/include/c++/10/bits/char_traits.h ****       { return __c1 < __c2; }
 112:/usr/include/c++/10/bits/char_traits.h **** 
 113:/usr/include/c++/10/bits/char_traits.h ****       static _GLIBCXX14_CONSTEXPR int
 114:/usr/include/c++/10/bits/char_traits.h ****       compare(const char_type* __s1, const char_type* __s2, std::size_t __n);
 115:/usr/include/c++/10/bits/char_traits.h **** 
 116:/usr/include/c++/10/bits/char_traits.h ****       static _GLIBCXX14_CONSTEXPR std::size_t
 117:/usr/include/c++/10/bits/char_traits.h ****       length(const char_type* __s);
 118:/usr/include/c++/10/bits/char_traits.h **** 
 119:/usr/include/c++/10/bits/char_traits.h ****       static _GLIBCXX14_CONSTEXPR const char_type*
 120:/usr/include/c++/10/bits/char_traits.h ****       find(const char_type* __s, std::size_t __n, const char_type& __a);
 121:/usr/include/c++/10/bits/char_traits.h **** 
 122:/usr/include/c++/10/bits/char_traits.h ****       static _GLIBCXX20_CONSTEXPR char_type*
 123:/usr/include/c++/10/bits/char_traits.h ****       move(char_type* __s1, const char_type* __s2, std::size_t __n);
 124:/usr/include/c++/10/bits/char_traits.h **** 
 125:/usr/include/c++/10/bits/char_traits.h ****       static _GLIBCXX20_CONSTEXPR char_type*
 126:/usr/include/c++/10/bits/char_traits.h ****       copy(char_type* __s1, const char_type* __s2, std::size_t __n);
 127:/usr/include/c++/10/bits/char_traits.h **** 
 128:/usr/include/c++/10/bits/char_traits.h ****       static _GLIBCXX20_CONSTEXPR char_type*
 129:/usr/include/c++/10/bits/char_traits.h ****       assign(char_type* __s, std::size_t __n, char_type __a);
 130:/usr/include/c++/10/bits/char_traits.h **** 
 131:/usr/include/c++/10/bits/char_traits.h ****       static _GLIBCXX_CONSTEXPR char_type
 132:/usr/include/c++/10/bits/char_traits.h ****       to_char_type(const int_type& __c)
 133:/usr/include/c++/10/bits/char_traits.h ****       { return static_cast<char_type>(__c); }
 134:/usr/include/c++/10/bits/char_traits.h **** 
 135:/usr/include/c++/10/bits/char_traits.h ****       static _GLIBCXX_CONSTEXPR int_type
 136:/usr/include/c++/10/bits/char_traits.h ****       to_int_type(const char_type& __c)
AARCH64 GAS  obj/Chapter13_6.s 			page 49


 137:/usr/include/c++/10/bits/char_traits.h ****       { return static_cast<int_type>(__c); }
 138:/usr/include/c++/10/bits/char_traits.h **** 
 139:/usr/include/c++/10/bits/char_traits.h ****       static _GLIBCXX_CONSTEXPR bool
 140:/usr/include/c++/10/bits/char_traits.h ****       eq_int_type(const int_type& __c1, const int_type& __c2)
 141:/usr/include/c++/10/bits/char_traits.h ****       { return __c1 == __c2; }
 142:/usr/include/c++/10/bits/char_traits.h **** 
 143:/usr/include/c++/10/bits/char_traits.h ****       static _GLIBCXX_CONSTEXPR int_type
 144:/usr/include/c++/10/bits/char_traits.h ****       eof()
 145:/usr/include/c++/10/bits/char_traits.h ****       { return static_cast<int_type>(_GLIBCXX_STDIO_EOF); }
 146:/usr/include/c++/10/bits/char_traits.h **** 
 147:/usr/include/c++/10/bits/char_traits.h ****       static _GLIBCXX_CONSTEXPR int_type
 148:/usr/include/c++/10/bits/char_traits.h ****       not_eof(const int_type& __c)
 149:/usr/include/c++/10/bits/char_traits.h ****       { return !eq_int_type(__c, eof()) ? __c : to_int_type(char_type()); }
 150:/usr/include/c++/10/bits/char_traits.h ****     };
 151:/usr/include/c++/10/bits/char_traits.h **** 
 152:/usr/include/c++/10/bits/char_traits.h ****   template<typename _CharT>
 153:/usr/include/c++/10/bits/char_traits.h ****     _GLIBCXX14_CONSTEXPR int
 154:/usr/include/c++/10/bits/char_traits.h ****     char_traits<_CharT>::
 155:/usr/include/c++/10/bits/char_traits.h ****     compare(const char_type* __s1, const char_type* __s2, std::size_t __n)
 156:/usr/include/c++/10/bits/char_traits.h ****     {
 157:/usr/include/c++/10/bits/char_traits.h ****       for (std::size_t __i = 0; __i < __n; ++__i)
 158:/usr/include/c++/10/bits/char_traits.h **** 	if (lt(__s1[__i], __s2[__i]))
 159:/usr/include/c++/10/bits/char_traits.h **** 	  return -1;
 160:/usr/include/c++/10/bits/char_traits.h **** 	else if (lt(__s2[__i], __s1[__i]))
 161:/usr/include/c++/10/bits/char_traits.h **** 	  return 1;
 162:/usr/include/c++/10/bits/char_traits.h ****       return 0;
 163:/usr/include/c++/10/bits/char_traits.h ****     }
 164:/usr/include/c++/10/bits/char_traits.h **** 
 165:/usr/include/c++/10/bits/char_traits.h ****   template<typename _CharT>
 166:/usr/include/c++/10/bits/char_traits.h ****     _GLIBCXX14_CONSTEXPR std::size_t
 167:/usr/include/c++/10/bits/char_traits.h ****     char_traits<_CharT>::
 168:/usr/include/c++/10/bits/char_traits.h ****     length(const char_type* __p)
 169:/usr/include/c++/10/bits/char_traits.h ****     {
 170:/usr/include/c++/10/bits/char_traits.h ****       std::size_t __i = 0;
 171:/usr/include/c++/10/bits/char_traits.h ****       while (!eq(__p[__i], char_type()))
 172:/usr/include/c++/10/bits/char_traits.h ****         ++__i;
 173:/usr/include/c++/10/bits/char_traits.h ****       return __i;
 174:/usr/include/c++/10/bits/char_traits.h ****     }
 175:/usr/include/c++/10/bits/char_traits.h **** 
 176:/usr/include/c++/10/bits/char_traits.h ****   template<typename _CharT>
 177:/usr/include/c++/10/bits/char_traits.h ****     _GLIBCXX14_CONSTEXPR const typename char_traits<_CharT>::char_type*
 178:/usr/include/c++/10/bits/char_traits.h ****     char_traits<_CharT>::
 179:/usr/include/c++/10/bits/char_traits.h ****     find(const char_type* __s, std::size_t __n, const char_type& __a)
 180:/usr/include/c++/10/bits/char_traits.h ****     {
 181:/usr/include/c++/10/bits/char_traits.h ****       for (std::size_t __i = 0; __i < __n; ++__i)
 182:/usr/include/c++/10/bits/char_traits.h ****         if (eq(__s[__i], __a))
 183:/usr/include/c++/10/bits/char_traits.h ****           return __s + __i;
 184:/usr/include/c++/10/bits/char_traits.h ****       return 0;
 185:/usr/include/c++/10/bits/char_traits.h ****     }
 186:/usr/include/c++/10/bits/char_traits.h **** 
 187:/usr/include/c++/10/bits/char_traits.h ****   template<typename _CharT>
 188:/usr/include/c++/10/bits/char_traits.h ****     _GLIBCXX20_CONSTEXPR
 189:/usr/include/c++/10/bits/char_traits.h ****     typename char_traits<_CharT>::char_type*
 190:/usr/include/c++/10/bits/char_traits.h ****     char_traits<_CharT>::
 191:/usr/include/c++/10/bits/char_traits.h ****     move(char_type* __s1, const char_type* __s2, std::size_t __n)
 192:/usr/include/c++/10/bits/char_traits.h ****     {
 193:/usr/include/c++/10/bits/char_traits.h ****       if (__n == 0)
AARCH64 GAS  obj/Chapter13_6.s 			page 50


 194:/usr/include/c++/10/bits/char_traits.h **** 	return __s1;
 195:/usr/include/c++/10/bits/char_traits.h **** #ifdef __cpp_lib_is_constant_evaluated
 196:/usr/include/c++/10/bits/char_traits.h ****       if (std::is_constant_evaluated())
 197:/usr/include/c++/10/bits/char_traits.h **** 	{
 198:/usr/include/c++/10/bits/char_traits.h **** 	  if (__s1 > __s2 && __s1 < __s2 + __n)
 199:/usr/include/c++/10/bits/char_traits.h **** 	    std::copy_backward(__s2, __s2 + __n, __s1);
 200:/usr/include/c++/10/bits/char_traits.h **** 	  else
 201:/usr/include/c++/10/bits/char_traits.h **** 	    std::copy(__s2, __s2 + __n, __s1);
 202:/usr/include/c++/10/bits/char_traits.h **** 	  return __s1;
 203:/usr/include/c++/10/bits/char_traits.h **** 	}
 204:/usr/include/c++/10/bits/char_traits.h **** #endif
 205:/usr/include/c++/10/bits/char_traits.h ****       return static_cast<_CharT*>(__builtin_memmove(__s1, __s2,
 206:/usr/include/c++/10/bits/char_traits.h **** 						    __n * sizeof(char_type)));
 207:/usr/include/c++/10/bits/char_traits.h ****     }
 208:/usr/include/c++/10/bits/char_traits.h **** 
 209:/usr/include/c++/10/bits/char_traits.h ****   template<typename _CharT>
 210:/usr/include/c++/10/bits/char_traits.h ****     _GLIBCXX20_CONSTEXPR
 211:/usr/include/c++/10/bits/char_traits.h ****     typename char_traits<_CharT>::char_type*
 212:/usr/include/c++/10/bits/char_traits.h ****     char_traits<_CharT>::
 213:/usr/include/c++/10/bits/char_traits.h ****     copy(char_type* __s1, const char_type* __s2, std::size_t __n)
 214:/usr/include/c++/10/bits/char_traits.h ****     {
 215:/usr/include/c++/10/bits/char_traits.h ****       // NB: Inline std::copy so no recursive dependencies.
 216:/usr/include/c++/10/bits/char_traits.h ****       std::copy(__s2, __s2 + __n, __s1);
 217:/usr/include/c++/10/bits/char_traits.h ****       return __s1;
 218:/usr/include/c++/10/bits/char_traits.h ****     }
 219:/usr/include/c++/10/bits/char_traits.h **** 
 220:/usr/include/c++/10/bits/char_traits.h ****   template<typename _CharT>
 221:/usr/include/c++/10/bits/char_traits.h ****     _GLIBCXX20_CONSTEXPR
 222:/usr/include/c++/10/bits/char_traits.h ****     typename char_traits<_CharT>::char_type*
 223:/usr/include/c++/10/bits/char_traits.h ****     char_traits<_CharT>::
 224:/usr/include/c++/10/bits/char_traits.h ****     assign(char_type* __s, std::size_t __n, char_type __a)
 225:/usr/include/c++/10/bits/char_traits.h ****     {
 226:/usr/include/c++/10/bits/char_traits.h ****       // NB: Inline std::fill_n so no recursive dependencies.
 227:/usr/include/c++/10/bits/char_traits.h ****       std::fill_n(__s, __n, __a);
 228:/usr/include/c++/10/bits/char_traits.h ****       return __s;
 229:/usr/include/c++/10/bits/char_traits.h ****     }
 230:/usr/include/c++/10/bits/char_traits.h **** 
 231:/usr/include/c++/10/bits/char_traits.h **** _GLIBCXX_END_NAMESPACE_VERSION
 232:/usr/include/c++/10/bits/char_traits.h **** } // namespace
 233:/usr/include/c++/10/bits/char_traits.h **** 
 234:/usr/include/c++/10/bits/char_traits.h **** namespace std _GLIBCXX_VISIBILITY(default)
 235:/usr/include/c++/10/bits/char_traits.h **** {
 236:/usr/include/c++/10/bits/char_traits.h **** _GLIBCXX_BEGIN_NAMESPACE_VERSION
 237:/usr/include/c++/10/bits/char_traits.h **** 
 238:/usr/include/c++/10/bits/char_traits.h **** #if __cplusplus >= 201703L
 239:/usr/include/c++/10/bits/char_traits.h **** 
 240:/usr/include/c++/10/bits/char_traits.h **** #if __cplusplus == 201703L
 241:/usr/include/c++/10/bits/char_traits.h **** // Unofficial macro indicating P0426R1 support
 242:/usr/include/c++/10/bits/char_traits.h **** # define __cpp_lib_constexpr_char_traits 201611L
 243:/usr/include/c++/10/bits/char_traits.h **** #else
 244:/usr/include/c++/10/bits/char_traits.h **** // Also support P1032R1 in C++20
 245:/usr/include/c++/10/bits/char_traits.h **** # define __cpp_lib_constexpr_char_traits 201811L
 246:/usr/include/c++/10/bits/char_traits.h **** #endif
 247:/usr/include/c++/10/bits/char_traits.h **** 
 248:/usr/include/c++/10/bits/char_traits.h ****   /**
 249:/usr/include/c++/10/bits/char_traits.h ****    *  @brief Determine whether the characters of a NULL-terminated
 250:/usr/include/c++/10/bits/char_traits.h ****    *  string are known at compile time.
AARCH64 GAS  obj/Chapter13_6.s 			page 51


 251:/usr/include/c++/10/bits/char_traits.h ****    *  @param  __s  The string.
 252:/usr/include/c++/10/bits/char_traits.h ****    *
 253:/usr/include/c++/10/bits/char_traits.h ****    *  Assumes that _CharT is a built-in character type.
 254:/usr/include/c++/10/bits/char_traits.h ****    */
 255:/usr/include/c++/10/bits/char_traits.h ****   template<typename _CharT>
 256:/usr/include/c++/10/bits/char_traits.h ****     static _GLIBCXX_ALWAYS_INLINE constexpr bool
 257:/usr/include/c++/10/bits/char_traits.h ****     __constant_string_p(const _CharT* __s)
 258:/usr/include/c++/10/bits/char_traits.h ****     {
 259:/usr/include/c++/10/bits/char_traits.h **** #ifdef _GLIBCXX_HAVE_BUILTIN_IS_CONSTANT_EVALUATED
 260:/usr/include/c++/10/bits/char_traits.h ****       (void) __s;
 261:/usr/include/c++/10/bits/char_traits.h ****       // In constexpr contexts all strings should be constant.
 262:/usr/include/c++/10/bits/char_traits.h ****       return __builtin_is_constant_evaluated();
 263:/usr/include/c++/10/bits/char_traits.h **** #else
 264:/usr/include/c++/10/bits/char_traits.h ****       while (__builtin_constant_p(*__s) && *__s)
 265:/usr/include/c++/10/bits/char_traits.h **** 	__s++;
 266:/usr/include/c++/10/bits/char_traits.h ****       return __builtin_constant_p(*__s);
 267:/usr/include/c++/10/bits/char_traits.h **** #endif
 268:/usr/include/c++/10/bits/char_traits.h ****     }
 269:/usr/include/c++/10/bits/char_traits.h **** 
 270:/usr/include/c++/10/bits/char_traits.h ****   /**
 271:/usr/include/c++/10/bits/char_traits.h ****    *  @brief Determine whether the characters of a character array are
 272:/usr/include/c++/10/bits/char_traits.h ****    *  known at compile time.
 273:/usr/include/c++/10/bits/char_traits.h ****    *  @param  __a  The character array.
 274:/usr/include/c++/10/bits/char_traits.h ****    *  @param  __n  Number of characters.
 275:/usr/include/c++/10/bits/char_traits.h ****    *
 276:/usr/include/c++/10/bits/char_traits.h ****    *  Assumes that _CharT is a built-in character type.
 277:/usr/include/c++/10/bits/char_traits.h ****    */
 278:/usr/include/c++/10/bits/char_traits.h ****   template<typename _CharT>
 279:/usr/include/c++/10/bits/char_traits.h ****     static _GLIBCXX_ALWAYS_INLINE constexpr bool
 280:/usr/include/c++/10/bits/char_traits.h ****     __constant_char_array_p(const _CharT* __a, size_t __n)
 281:/usr/include/c++/10/bits/char_traits.h ****     {
 282:/usr/include/c++/10/bits/char_traits.h **** #ifdef _GLIBCXX_HAVE_BUILTIN_IS_CONSTANT_EVALUATED
 283:/usr/include/c++/10/bits/char_traits.h ****       (void) __a;
 284:/usr/include/c++/10/bits/char_traits.h ****       (void) __n;
 285:/usr/include/c++/10/bits/char_traits.h ****       // In constexpr contexts all character arrays should be constant.
 286:/usr/include/c++/10/bits/char_traits.h ****       return __builtin_is_constant_evaluated();
 287:/usr/include/c++/10/bits/char_traits.h **** #else
 288:/usr/include/c++/10/bits/char_traits.h ****       size_t __i = 0;
 289:/usr/include/c++/10/bits/char_traits.h ****       while (__i < __n && __builtin_constant_p(__a[__i]))
 290:/usr/include/c++/10/bits/char_traits.h **** 	__i++;
 291:/usr/include/c++/10/bits/char_traits.h ****       return __i == __n;
 292:/usr/include/c++/10/bits/char_traits.h **** #endif
 293:/usr/include/c++/10/bits/char_traits.h ****     }
 294:/usr/include/c++/10/bits/char_traits.h **** #endif
 295:/usr/include/c++/10/bits/char_traits.h **** 
 296:/usr/include/c++/10/bits/char_traits.h ****   // 21.1
 297:/usr/include/c++/10/bits/char_traits.h ****   /**
 298:/usr/include/c++/10/bits/char_traits.h ****    *  @brief  Basis for explicit traits specializations.
 299:/usr/include/c++/10/bits/char_traits.h ****    *
 300:/usr/include/c++/10/bits/char_traits.h ****    *  @note  For any given actual character type, this definition is
 301:/usr/include/c++/10/bits/char_traits.h ****    *  probably wrong.  Since this is just a thin wrapper around
 302:/usr/include/c++/10/bits/char_traits.h ****    *  __gnu_cxx::char_traits, it is possible to achieve a more
 303:/usr/include/c++/10/bits/char_traits.h ****    *  appropriate definition by specializing __gnu_cxx::char_traits.
 304:/usr/include/c++/10/bits/char_traits.h ****    *
 305:/usr/include/c++/10/bits/char_traits.h ****    *  See https://gcc.gnu.org/onlinedocs/libstdc++/manual/strings.html#strings.string.character_typ
 306:/usr/include/c++/10/bits/char_traits.h ****    *  for advice on how to make use of this class for @a unusual character
 307:/usr/include/c++/10/bits/char_traits.h ****    *  types. Also, check out include/ext/pod_char_traits.h.
AARCH64 GAS  obj/Chapter13_6.s 			page 52


 308:/usr/include/c++/10/bits/char_traits.h ****   */
 309:/usr/include/c++/10/bits/char_traits.h ****   template<class _CharT>
 310:/usr/include/c++/10/bits/char_traits.h ****     struct char_traits : public __gnu_cxx::char_traits<_CharT>
 311:/usr/include/c++/10/bits/char_traits.h ****     { };
 312:/usr/include/c++/10/bits/char_traits.h **** 
 313:/usr/include/c++/10/bits/char_traits.h **** 
 314:/usr/include/c++/10/bits/char_traits.h ****   /// 21.1.3.1  char_traits specializations
 315:/usr/include/c++/10/bits/char_traits.h ****   template<>
 316:/usr/include/c++/10/bits/char_traits.h ****     struct char_traits<char>
 317:/usr/include/c++/10/bits/char_traits.h ****     {
 318:/usr/include/c++/10/bits/char_traits.h ****       typedef char              char_type;
 319:/usr/include/c++/10/bits/char_traits.h ****       typedef int               int_type;
 320:/usr/include/c++/10/bits/char_traits.h ****       typedef streampos         pos_type;
 321:/usr/include/c++/10/bits/char_traits.h ****       typedef streamoff         off_type;
 322:/usr/include/c++/10/bits/char_traits.h ****       typedef mbstate_t         state_type;
 323:/usr/include/c++/10/bits/char_traits.h **** #if __cpp_lib_three_way_comparison
 324:/usr/include/c++/10/bits/char_traits.h ****       using comparison_category = strong_ordering;
 325:/usr/include/c++/10/bits/char_traits.h **** #endif
 326:/usr/include/c++/10/bits/char_traits.h **** 
 327:/usr/include/c++/10/bits/char_traits.h ****       static _GLIBCXX17_CONSTEXPR void
 328:/usr/include/c++/10/bits/char_traits.h ****       assign(char_type& __c1, const char_type& __c2) _GLIBCXX_NOEXCEPT
 329:/usr/include/c++/10/bits/char_traits.h ****       { __c1 = __c2; }
 330:/usr/include/c++/10/bits/char_traits.h **** 
 331:/usr/include/c++/10/bits/char_traits.h ****       static _GLIBCXX_CONSTEXPR bool
 332:/usr/include/c++/10/bits/char_traits.h ****       eq(const char_type& __c1, const char_type& __c2) _GLIBCXX_NOEXCEPT
 333:/usr/include/c++/10/bits/char_traits.h ****       { return __c1 == __c2; }
 334:/usr/include/c++/10/bits/char_traits.h **** 
 335:/usr/include/c++/10/bits/char_traits.h ****       static _GLIBCXX_CONSTEXPR bool
 336:/usr/include/c++/10/bits/char_traits.h ****       lt(const char_type& __c1, const char_type& __c2) _GLIBCXX_NOEXCEPT
 337:/usr/include/c++/10/bits/char_traits.h ****       {
 338:/usr/include/c++/10/bits/char_traits.h **** 	// LWG 467.
 339:/usr/include/c++/10/bits/char_traits.h **** 	return (static_cast<unsigned char>(__c1)
 340:/usr/include/c++/10/bits/char_traits.h **** 		< static_cast<unsigned char>(__c2));
 341:/usr/include/c++/10/bits/char_traits.h ****       }
 342:/usr/include/c++/10/bits/char_traits.h **** 
 343:/usr/include/c++/10/bits/char_traits.h ****       static _GLIBCXX17_CONSTEXPR int
 344:/usr/include/c++/10/bits/char_traits.h ****       compare(const char_type* __s1, const char_type* __s2, size_t __n)
 345:/usr/include/c++/10/bits/char_traits.h ****       {
 346:/usr/include/c++/10/bits/char_traits.h **** 	if (__n == 0)
 347:/usr/include/c++/10/bits/char_traits.h **** 	  return 0;
 348:/usr/include/c++/10/bits/char_traits.h **** #if __cplusplus >= 201703L
 349:/usr/include/c++/10/bits/char_traits.h **** 	if (__builtin_constant_p(__n)
 350:/usr/include/c++/10/bits/char_traits.h **** 	    && __constant_char_array_p(__s1, __n)
 351:/usr/include/c++/10/bits/char_traits.h **** 	    && __constant_char_array_p(__s2, __n))
 352:/usr/include/c++/10/bits/char_traits.h **** 	  return __gnu_cxx::char_traits<char_type>::compare(__s1, __s2, __n);
 353:/usr/include/c++/10/bits/char_traits.h **** #endif
 354:/usr/include/c++/10/bits/char_traits.h **** 	return __builtin_memcmp(__s1, __s2, __n);
 355:/usr/include/c++/10/bits/char_traits.h ****       }
 356:/usr/include/c++/10/bits/char_traits.h **** 
 357:/usr/include/c++/10/bits/char_traits.h ****       static _GLIBCXX17_CONSTEXPR size_t
 358:/usr/include/c++/10/bits/char_traits.h ****       length(const char_type* __s)
 359:/usr/include/c++/10/bits/char_traits.h ****       {
 360:/usr/include/c++/10/bits/char_traits.h **** #if __cplusplus >= 201703L
 361:/usr/include/c++/10/bits/char_traits.h **** 	if (__constant_string_p(__s))
 362:/usr/include/c++/10/bits/char_traits.h **** 	  return __gnu_cxx::char_traits<char_type>::length(__s);
 363:/usr/include/c++/10/bits/char_traits.h **** #endif
 364:/usr/include/c++/10/bits/char_traits.h **** 	return __builtin_strlen(__s);
AARCH64 GAS  obj/Chapter13_6.s 			page 53


 515              		.loc 5 364 2 is_stmt 1 view .LVU138
 516              	.LBB250:
 517              	.LBB238:
 518              		.loc 2 611 18 is_stmt 0 view .LVU139
 519 00d8 00000094 		bl	_ZSt16__ostream_insertIcSt11char_traitsIcEERSt13basic_ostreamIT_T0_ES6_PKS3_l
 520              	.LVL24:
 521              		.loc 2 611 18 view .LVU140
 522 00dc F53F0139 		strb	w21, [sp, 79]
 523              	.LVL25:
 524              		.loc 2 611 18 view .LVU141
 525              	.LBE238:
 526              	.LBE250:
 527              	.LBB251:
 528              	.LBI164:
 517:/usr/include/c++/10/ostream ****     { return __ostream_insert(__out, &__c, 1); }
 529              		.loc 2 517 5 is_stmt 1 view .LVU142
 530              	.LBB166:
 518:/usr/include/c++/10/ostream **** 
 531              		.loc 2 518 30 is_stmt 0 view .LVU143
 532 00e0 E10314AA 		mov	x1, x20
 533 00e4 E00313AA 		mov	x0, x19
 534 00e8 220080D2 		mov	x2, 1
 535 00ec 00000094 		bl	_ZSt16__ostream_insertIcSt11char_traitsIcEERSt13basic_ostreamIT_T0_ES6_PKS3_l
 536              	.LVL26:
 518:/usr/include/c++/10/ostream **** 
 537              		.loc 2 518 30 view .LVU144
 538              	.LBE166:
 539              	.LBE251:
  44:Chapter13_6.cpp **** 	cout<<"mean = "<<mean1<<"  std dev = "<<stdev1<<nl;
 540              		.loc 1 44 2 is_stmt 1 view .LVU145
 541              	.LBB252:
 542              	.LBI167:
 606:/usr/include/c++/10/ostream ****     {
 543              		.loc 2 606 5 view .LVU146
 606:/usr/include/c++/10/ostream ****     {
 544              		.loc 2 606 5 is_stmt 0 view .LVU147
 545              	.LBE252:
 546              		.loc 5 364 2 is_stmt 1 view .LVU148
 547              	.LBB253:
 548              	.LBB170:
 549              		.loc 2 611 18 is_stmt 0 view .LVU149
 550 00f0 E10317AA 		mov	x1, x23
 551 00f4 E20080D2 		mov	x2, 7
 552 00f8 E00313AA 		mov	x0, x19
 553 00fc 00000094 		bl	_ZSt16__ostream_insertIcSt11char_traitsIcEERSt13basic_ostreamIT_T0_ES6_PKS3_l
 554              	.LVL27:
 555              		.loc 2 611 18 view .LVU150
 556              	.LBE170:
 557              	.LBE253:
 558              	.LBB254:
 559              	.LBI254:
 220:/usr/include/c++/10/ostream ****       { return _M_insert(__f); }
 560              		.loc 2 220 7 is_stmt 1 view .LVU151
 561              	.LBB255:
 221:/usr/include/c++/10/ostream **** 
 562              		.loc 2 221 25 is_stmt 0 view .LVU152
 563 0100 E02B40FD 		ldr	d0, [sp, 80]
AARCH64 GAS  obj/Chapter13_6.s 			page 54


 564 0104 E00313AA 		mov	x0, x19
 565 0108 00000094 		bl	_ZNSo9_M_insertIdEERSoT_
 566              	.LVL28:
 221:/usr/include/c++/10/ostream **** 
 567              		.loc 2 221 25 view .LVU153
 568 010c F80300AA 		mov	x24, x0
 569              	.LVL29:
 221:/usr/include/c++/10/ostream **** 
 570              		.loc 2 221 25 view .LVU154
 571              	.LBE255:
 572              	.LBE254:
 573              	.LBB256:
 574              	.LBI172:
 606:/usr/include/c++/10/ostream ****     {
 575              		.loc 2 606 5 is_stmt 1 view .LVU155
 606:/usr/include/c++/10/ostream ****     {
 576              		.loc 2 606 5 is_stmt 0 view .LVU156
 577              	.LBE256:
 578              		.loc 5 364 2 is_stmt 1 view .LVU157
 579              	.LBB257:
 580              	.LBB175:
 581              		.loc 2 611 18 is_stmt 0 view .LVU158
 582 0110 E10316AA 		mov	x1, x22
 583 0114 820180D2 		mov	x2, 12
 584 0118 00000094 		bl	_ZSt16__ostream_insertIcSt11char_traitsIcEERSt13basic_ostreamIT_T0_ES6_PKS3_l
 585              	.LVL30:
 586              		.loc 2 611 18 view .LVU159
 587              	.LBE175:
 588              	.LBE257:
 589              	.LBB258:
 590              	.LBI258:
 220:/usr/include/c++/10/ostream ****       { return _M_insert(__f); }
 591              		.loc 2 220 7 is_stmt 1 view .LVU160
 592              	.LBB259:
 221:/usr/include/c++/10/ostream **** 
 593              		.loc 2 221 25 is_stmt 0 view .LVU161
 594 011c E02F40FD 		ldr	d0, [sp, 88]
 595 0120 E00318AA 		mov	x0, x24
 596 0124 00000094 		bl	_ZNSo9_M_insertIdEERSoT_
 597              	.LVL31:
 221:/usr/include/c++/10/ostream **** 
 598              		.loc 2 221 25 view .LVU162
 599 0128 F53F0139 		strb	w21, [sp, 79]
 600              	.LVL32:
 221:/usr/include/c++/10/ostream **** 
 601              		.loc 2 221 25 view .LVU163
 602              	.LBE259:
 603              	.LBE258:
 604              	.LBB260:
 605              	.LBI260:
 517:/usr/include/c++/10/ostream ****     { return __ostream_insert(__out, &__c, 1); }
 606              		.loc 2 517 5 is_stmt 1 view .LVU164
 607              	.LBB261:
 518:/usr/include/c++/10/ostream **** 
 608              		.loc 2 518 30 is_stmt 0 view .LVU165
 609 012c E10314AA 		mov	x1, x20
 610 0130 220080D2 		mov	x2, 1
AARCH64 GAS  obj/Chapter13_6.s 			page 55


 611 0134 00000094 		bl	_ZSt16__ostream_insertIcSt11char_traitsIcEERSt13basic_ostreamIT_T0_ES6_PKS3_l
 612              	.LVL33:
 518:/usr/include/c++/10/ostream **** 
 613              		.loc 2 518 30 view .LVU166
 614              	.LBE261:
 615              	.LBE260:
  45:Chapter13_6.cpp **** 	cout<<"Result of Asm function:"<<nl;
 616              		.loc 1 45 2 is_stmt 1 view .LVU167
 617              	.LBB262:
 618              	.LBI262:
 606:/usr/include/c++/10/ostream ****     {
 619              		.loc 2 606 5 view .LVU168
 606:/usr/include/c++/10/ostream ****     {
 620              		.loc 2 606 5 is_stmt 0 view .LVU169
 621              	.LBE262:
 622              		.loc 5 364 2 is_stmt 1 view .LVU170
 623              	.LBB264:
 624              	.LBB263:
 625              		.loc 2 611 18 is_stmt 0 view .LVU171
 626 0138 E00313AA 		mov	x0, x19
 627 013c E20280D2 		mov	x2, 23
 628 0140 01000090 		adrp	x1, .LC4
 629 0144 21000091 		add	x1, x1, :lo12:.LC4
 630 0148 00000094 		bl	_ZSt16__ostream_insertIcSt11char_traitsIcEERSt13basic_ostreamIT_T0_ES6_PKS3_l
 631              	.LVL34:
 632              		.loc 2 611 18 view .LVU172
 633 014c F53F0139 		strb	w21, [sp, 79]
 634              	.LVL35:
 635              		.loc 2 611 18 view .LVU173
 636              	.LBE263:
 637              	.LBE264:
 638              	.LBB265:
 639              	.LBI265:
 517:/usr/include/c++/10/ostream ****     { return __ostream_insert(__out, &__c, 1); }
 640              		.loc 2 517 5 is_stmt 1 view .LVU174
 641              	.LBB266:
 518:/usr/include/c++/10/ostream **** 
 642              		.loc 2 518 30 is_stmt 0 view .LVU175
 643 0150 E10314AA 		mov	x1, x20
 644 0154 E00313AA 		mov	x0, x19
 645 0158 220080D2 		mov	x2, 1
 646 015c 00000094 		bl	_ZSt16__ostream_insertIcSt11char_traitsIcEERSt13basic_ostreamIT_T0_ES6_PKS3_l
 647              	.LVL36:
 518:/usr/include/c++/10/ostream **** 
 648              		.loc 2 518 30 view .LVU176
 649              	.LBE266:
 650              	.LBE265:
  46:Chapter13_6.cpp **** 	cout<<"mean = "<<mean2<<"  std dev = "<<stdev2<<nl;
 651              		.loc 1 46 2 is_stmt 1 view .LVU177
 652              	.LBB267:
 653              	.LBI267:
 606:/usr/include/c++/10/ostream ****     {
 654              		.loc 2 606 5 view .LVU178
 606:/usr/include/c++/10/ostream ****     {
 655              		.loc 2 606 5 is_stmt 0 view .LVU179
 656              	.LBE267:
 657              		.loc 5 364 2 is_stmt 1 view .LVU180
AARCH64 GAS  obj/Chapter13_6.s 			page 56


 658              	.LBB269:
 659              	.LBB268:
 660              		.loc 2 611 18 is_stmt 0 view .LVU181
 661 0160 E10317AA 		mov	x1, x23
 662 0164 E20080D2 		mov	x2, 7
 663 0168 E00313AA 		mov	x0, x19
 664 016c 00000094 		bl	_ZSt16__ostream_insertIcSt11char_traitsIcEERSt13basic_ostreamIT_T0_ES6_PKS3_l
 665              	.LVL37:
 666              		.loc 2 611 18 view .LVU182
 667              	.LBE268:
 668              	.LBE269:
 669              	.LBB270:
 670              	.LBI270:
 220:/usr/include/c++/10/ostream ****       { return _M_insert(__f); }
 671              		.loc 2 220 7 is_stmt 1 view .LVU183
 672              	.LBB271:
 221:/usr/include/c++/10/ostream **** 
 673              		.loc 2 221 25 is_stmt 0 view .LVU184
 674 0170 E03340FD 		ldr	d0, [sp, 96]
 675 0174 E00313AA 		mov	x0, x19
 676 0178 00000094 		bl	_ZNSo9_M_insertIdEERSoT_
 677              	.LVL38:
 221:/usr/include/c++/10/ostream **** 
 678              		.loc 2 221 25 view .LVU185
 679 017c F30300AA 		mov	x19, x0
 680              	.LVL39:
 221:/usr/include/c++/10/ostream **** 
 681              		.loc 2 221 25 view .LVU186
 682              	.LBE271:
 683              	.LBE270:
 684              	.LBB272:
 685              	.LBI272:
 606:/usr/include/c++/10/ostream ****     {
 686              		.loc 2 606 5 is_stmt 1 view .LVU187
 606:/usr/include/c++/10/ostream ****     {
 687              		.loc 2 606 5 is_stmt 0 view .LVU188
 688              	.LBE272:
 689              		.loc 5 364 2 is_stmt 1 view .LVU189
 690              	.LBB274:
 691              	.LBB273:
 692              		.loc 2 611 18 is_stmt 0 view .LVU190
 693 0180 E10316AA 		mov	x1, x22
 694 0184 820180D2 		mov	x2, 12
 695 0188 00000094 		bl	_ZSt16__ostream_insertIcSt11char_traitsIcEERSt13basic_ostreamIT_T0_ES6_PKS3_l
 696              	.LVL40:
 697              		.loc 2 611 18 view .LVU191
 698              	.LBE273:
 699              	.LBE274:
 700              	.LBB275:
 701              	.LBI275:
 220:/usr/include/c++/10/ostream ****       { return _M_insert(__f); }
 702              		.loc 2 220 7 is_stmt 1 view .LVU192
 703              	.LBB276:
 221:/usr/include/c++/10/ostream **** 
 704              		.loc 2 221 25 is_stmt 0 view .LVU193
 705 018c E03740FD 		ldr	d0, [sp, 104]
 706 0190 E00313AA 		mov	x0, x19
AARCH64 GAS  obj/Chapter13_6.s 			page 57


 707 0194 00000094 		bl	_ZNSo9_M_insertIdEERSoT_
 708              	.LVL41:
 221:/usr/include/c++/10/ostream **** 
 709              		.loc 2 221 25 view .LVU194
 710 0198 F53F0139 		strb	w21, [sp, 79]
 711              	.LVL42:
 221:/usr/include/c++/10/ostream **** 
 712              		.loc 2 221 25 view .LVU195
 713              	.LBE276:
 714              	.LBE275:
 715              	.LBB277:
 716              	.LBI277:
 517:/usr/include/c++/10/ostream ****     { return __ostream_insert(__out, &__c, 1); }
 717              		.loc 2 517 5 is_stmt 1 view .LVU196
 718              	.LBB278:
 518:/usr/include/c++/10/ostream **** 
 719              		.loc 2 518 30 is_stmt 0 view .LVU197
 720 019c E10314AA 		mov	x1, x20
 721 01a0 220080D2 		mov	x2, 1
 722 01a4 00000094 		bl	_ZSt16__ostream_insertIcSt11char_traitsIcEERSt13basic_ostreamIT_T0_ES6_PKS3_l
 723              	.LVL43:
 518:/usr/include/c++/10/ostream **** 
 724              		.loc 2 518 30 view .LVU198
 725              	.LBE278:
 726              	.LBE277:
  47:Chapter13_6.cpp **** }
 727              		.loc 1 47 1 view .LVU199
 728 01a8 00008052 		mov	w0, 0
 729 01ac F35341A9 		ldp	x19, x20, [sp, 16]
 730 01b0 F55B42A9 		ldp	x21, x22, [sp, 32]
 731 01b4 F76343A9 		ldp	x23, x24, [sp, 48]
 732 01b8 FD7BCCA8 		ldp	x29, x30, [sp], 192
 733              		.cfi_restore 30
 734              		.cfi_restore 29
 735              		.cfi_restore 23
 736              		.cfi_restore 24
 737              		.cfi_restore 21
 738              		.cfi_restore 22
 739              		.cfi_restore 19
 740              		.cfi_restore 20
 741              		.cfi_def_cfa_offset 0
 742 01bc C0035FD6 		ret
 743              		.cfi_endproc
 744              	.LFE2408:
 745              		.size	main, .-main
 746              		.align	2
 747              		.p2align 4,,11
 748              		.type	_GLOBAL__sub_I__Z9meanStdevPdS_PKdi, %function
 749              	_GLOBAL__sub_I__Z9meanStdevPdS_PKdi:
 750              	.LFB2922:
 751              		.loc 1 47 1 is_stmt 1 view -0
 752              		.cfi_startproc
 753              	.LVL44:
 754              	.LBB279:
 755              	.LBI279:
 756              		.loc 1 47 1 view .LVU201
 757              	.LBE279:
AARCH64 GAS  obj/Chapter13_6.s 			page 58


 758 01c0 FD7BBEA9 		stp	x29, x30, [sp, -32]!
 759              		.cfi_def_cfa_offset 32
 760              		.cfi_offset 29, -32
 761              		.cfi_offset 30, -24
 762 01c4 FD030091 		mov	x29, sp
 763 01c8 F30B00F9 		str	x19, [sp, 16]
 764              		.cfi_offset 19, -16
 765              	.LBB283:
 766              	.LBB280:
 767              		.file 6 "/usr/include/c++/10/iostream"
   1:/usr/include/c++/10/iostream **** // Standard iostream objects -*- C++ -*-
   2:/usr/include/c++/10/iostream **** 
   3:/usr/include/c++/10/iostream **** // Copyright (C) 1997-2020 Free Software Foundation, Inc.
   4:/usr/include/c++/10/iostream **** //
   5:/usr/include/c++/10/iostream **** // This file is part of the GNU ISO C++ Library.  This library is free
   6:/usr/include/c++/10/iostream **** // software; you can redistribute it and/or modify it under the
   7:/usr/include/c++/10/iostream **** // terms of the GNU General Public License as published by the
   8:/usr/include/c++/10/iostream **** // Free Software Foundation; either version 3, or (at your option)
   9:/usr/include/c++/10/iostream **** // any later version.
  10:/usr/include/c++/10/iostream **** 
  11:/usr/include/c++/10/iostream **** // This library is distributed in the hope that it will be useful,
  12:/usr/include/c++/10/iostream **** // but WITHOUT ANY WARRANTY; without even the implied warranty of
  13:/usr/include/c++/10/iostream **** // MERCHANTABILITY or FITNESS FOR A PARTICULAR PURPOSE.  See the
  14:/usr/include/c++/10/iostream **** // GNU General Public License for more details.
  15:/usr/include/c++/10/iostream **** 
  16:/usr/include/c++/10/iostream **** // Under Section 7 of GPL version 3, you are granted additional
  17:/usr/include/c++/10/iostream **** // permissions described in the GCC Runtime Library Exception, version
  18:/usr/include/c++/10/iostream **** // 3.1, as published by the Free Software Foundation.
  19:/usr/include/c++/10/iostream **** 
  20:/usr/include/c++/10/iostream **** // You should have received a copy of the GNU General Public License and
  21:/usr/include/c++/10/iostream **** // a copy of the GCC Runtime Library Exception along with this program;
  22:/usr/include/c++/10/iostream **** // see the files COPYING3 and COPYING.RUNTIME respectively.  If not, see
  23:/usr/include/c++/10/iostream **** // <http://www.gnu.org/licenses/>.
  24:/usr/include/c++/10/iostream **** 
  25:/usr/include/c++/10/iostream **** /** @file include/iostream
  26:/usr/include/c++/10/iostream ****  *  This is a Standard C++ Library header.
  27:/usr/include/c++/10/iostream ****  */
  28:/usr/include/c++/10/iostream **** 
  29:/usr/include/c++/10/iostream **** //
  30:/usr/include/c++/10/iostream **** // ISO C++ 14882: 27.3  Standard iostream objects
  31:/usr/include/c++/10/iostream **** //
  32:/usr/include/c++/10/iostream **** 
  33:/usr/include/c++/10/iostream **** #ifndef _GLIBCXX_IOSTREAM
  34:/usr/include/c++/10/iostream **** #define _GLIBCXX_IOSTREAM 1
  35:/usr/include/c++/10/iostream **** 
  36:/usr/include/c++/10/iostream **** #pragma GCC system_header
  37:/usr/include/c++/10/iostream **** 
  38:/usr/include/c++/10/iostream **** #include <bits/c++config.h>
  39:/usr/include/c++/10/iostream **** #include <ostream>
  40:/usr/include/c++/10/iostream **** #include <istream>
  41:/usr/include/c++/10/iostream **** 
  42:/usr/include/c++/10/iostream **** namespace std _GLIBCXX_VISIBILITY(default)
  43:/usr/include/c++/10/iostream **** {
  44:/usr/include/c++/10/iostream **** _GLIBCXX_BEGIN_NAMESPACE_VERSION
  45:/usr/include/c++/10/iostream **** 
  46:/usr/include/c++/10/iostream ****   /**
  47:/usr/include/c++/10/iostream ****    *  @name Standard Stream Objects
AARCH64 GAS  obj/Chapter13_6.s 			page 59


  48:/usr/include/c++/10/iostream ****    *
  49:/usr/include/c++/10/iostream ****    *  The &lt;iostream&gt; header declares the eight <em>standard stream
  50:/usr/include/c++/10/iostream ****    *  objects</em>.  For other declarations, see
  51:/usr/include/c++/10/iostream ****    *  http://gcc.gnu.org/onlinedocs/libstdc++/manual/io.html
  52:/usr/include/c++/10/iostream ****    *  and the @link iosfwd I/O forward declarations @endlink
  53:/usr/include/c++/10/iostream ****    *
  54:/usr/include/c++/10/iostream ****    *  They are required by default to cooperate with the global C
  55:/usr/include/c++/10/iostream ****    *  library's @c FILE streams, and to be available during program
  56:/usr/include/c++/10/iostream ****    *  startup and termination. For more information, see the section of the
  57:/usr/include/c++/10/iostream ****    *  manual linked to above.
  58:/usr/include/c++/10/iostream ****   */
  59:/usr/include/c++/10/iostream ****   //@{
  60:/usr/include/c++/10/iostream ****   extern istream cin;		/// Linked to standard input
  61:/usr/include/c++/10/iostream ****   extern ostream cout;		/// Linked to standard output
  62:/usr/include/c++/10/iostream ****   extern ostream cerr;		/// Linked to standard error (unbuffered)
  63:/usr/include/c++/10/iostream ****   extern ostream clog;		/// Linked to standard error (buffered)
  64:/usr/include/c++/10/iostream **** 
  65:/usr/include/c++/10/iostream **** #ifdef _GLIBCXX_USE_WCHAR_T
  66:/usr/include/c++/10/iostream ****   extern wistream wcin;		/// Linked to standard input
  67:/usr/include/c++/10/iostream ****   extern wostream wcout;	/// Linked to standard output
  68:/usr/include/c++/10/iostream ****   extern wostream wcerr;	/// Linked to standard error (unbuffered)
  69:/usr/include/c++/10/iostream ****   extern wostream wclog;	/// Linked to standard error (buffered)
  70:/usr/include/c++/10/iostream **** #endif
  71:/usr/include/c++/10/iostream ****   //@}
  72:/usr/include/c++/10/iostream **** 
  73:/usr/include/c++/10/iostream ****   // For construction of filebuffers for cout, cin, cerr, clog et. al.
  74:/usr/include/c++/10/iostream ****   static ios_base::Init __ioinit;
 768              		.loc 6 74 25 is_stmt 0 view .LVU202
 769 01cc 13000090 		adrp	x19, .LANCHOR1
 770 01d0 73020091 		add	x19, x19, :lo12:.LANCHOR1
 771 01d4 E00313AA 		mov	x0, x19
 772 01d8 00000094 		bl	_ZNSt8ios_base4InitC1Ev
 773              	.LVL45:
 774 01dc E10313AA 		mov	x1, x19
 775 01e0 00000090 		adrp	x0, :got:_ZNSt8ios_base4InitD1Ev
 776              	.LBE280:
 777              	.LBE283:
 778              		.loc 1 47 1 view .LVU203
 779 01e4 F30B40F9 		ldr	x19, [sp, 16]
 780              	.LBB284:
 781              	.LBB281:
 782              		.loc 6 74 25 view .LVU204
 783 01e8 02000090 		adrp	x2, __dso_handle
 784              	.LBE281:
 785              	.LBE284:
 786              		.loc 1 47 1 view .LVU205
 787 01ec FD7BC2A8 		ldp	x29, x30, [sp], 32
 788              		.cfi_restore 30
 789              		.cfi_restore 29
 790              		.cfi_restore 19
 791              		.cfi_def_cfa_offset 0
 792              	.LBB285:
 793              	.LBB282:
 794              		.loc 6 74 25 view .LVU206
 795 01f0 42000091 		add	x2, x2, :lo12:__dso_handle
 796 01f4 000040F9 		ldr	x0, [x0, #:got_lo12:_ZNSt8ios_base4InitD1Ev]
 797 01f8 00000014 		b	__cxa_atexit
AARCH64 GAS  obj/Chapter13_6.s 			page 60


 798              	.LVL46:
 799              	.LBE282:
 800              	.LBE285:
 801              		.cfi_endproc
 802              	.LFE2922:
 803              		.size	_GLOBAL__sub_I__Z9meanStdevPdS_PKdi, .-_GLOBAL__sub_I__Z9meanStdevPdS_PKdi
 804              		.section	.init_array,"aw"
 805              		.align	3
 806 0000 00000000 		.xword	_GLOBAL__sub_I__Z9meanStdevPdS_PKdi
 806      00000000 
 807              		.section	.rodata
 808              		.align	3
 809              		.set	.LANCHOR0,. + 0
 810              	.LC0:
 811 0000 00000000 		.word	0
 812 0004 0000F03F 		.word	1072693248
 813 0008 00000000 		.word	0
 814 000c 00000040 		.word	1073741824
 815 0010 00000000 		.word	0
 816 0014 00000840 		.word	1074266112
 817 0018 00000000 		.word	0
 818 001c 00001040 		.word	1074790400
 819 0020 00000000 		.word	0
 820 0024 00804B40 		.word	1078689792
 821 0028 00000000 		.word	0
 822 002c 00005040 		.word	1078984704
 823 0030 00000000 		.word	0
 824 0034 00804140 		.word	1078034432
 825 0038 00000000 		.word	0
 826 003c 00000840 		.word	1074266112
 827 0040 00000000 		.word	0
 828 0044 00002240 		.word	1075970048
 829 0048 00000000 		.word	0
 830 004c 00804540 		.word	1078296576
 831              		.bss
 832              		.align	3
 833              		.set	.LANCHOR1,. + 0
 834              		.type	_ZStL8__ioinit, %object
 835              		.size	_ZStL8__ioinit, 1
 836              	_ZStL8__ioinit:
 837 0000 00       		.zero	1
 838              		.text
 839              	.Letext0:
 840              		.file 7 "/usr/include/c++/10/cwchar"
 841              		.file 8 "/usr/include/c++/10/bits/exception_ptr.h"
 842              		.file 9 "/usr/include/aarch64-linux-gnu/c++/10/bits/c++config.h"
 843              		.file 10 "/usr/include/c++/10/bits/stl_pair.h"
 844              		.file 11 "/usr/include/c++/10/type_traits"
 845              		.file 12 "/usr/include/c++/10/debug/debug.h"
 846              		.file 13 "/usr/include/c++/10/cstdint"
 847              		.file 14 "/usr/include/c++/10/clocale"
 848              		.file 15 "/usr/include/c++/10/cstdlib"
 849              		.file 16 "/usr/include/c++/10/cstdio"
 850              		.file 17 "/usr/include/c++/10/bits/basic_string.h"
 851              		.file 18 "/usr/include/c++/10/system_error"
 852              		.file 19 "/usr/include/c++/10/cwctype"
 853              		.file 20 "/usr/include/c++/10/iosfwd"
AARCH64 GAS  obj/Chapter13_6.s 			page 61


 854              		.file 21 "/usr/include/c++/10/ctime"
 855              		.file 22 "/usr/include/c++/10/bits/uses_allocator.h"
 856              		.file 23 "/usr/include/c++/10/tuple"
 857              		.file 24 "/usr/include/c++/10/cmath"
 858              		.file 25 "/usr/include/c++/10/bits/basic_ios.h"
 859              		.file 26 "/usr/include/c++/10/bits/postypes.h"
 860              		.file 27 "/usr/include/c++/10/bits/ostream.tcc"
 861              		.file 28 "/usr/include/c++/10/bits/ostream_insert.h"
 862              		.file 29 "/usr/include/c++/10/bits/predefined_ops.h"
 863              		.file 30 "/usr/lib/gcc/aarch64-linux-gnu/10/include/stddef.h"
 864              		.file 31 "/usr/lib/gcc/aarch64-linux-gnu/10/include/stdarg.h"
 865              		.file 32 "/usr/include/aarch64-linux-gnu/bits/types/wint_t.h"
 866              		.file 33 "/usr/include/aarch64-linux-gnu/bits/types/__mbstate_t.h"
 867              		.file 34 "/usr/include/aarch64-linux-gnu/bits/types/mbstate_t.h"
 868              		.file 35 "/usr/include/aarch64-linux-gnu/bits/types/__FILE.h"
 869              		.file 36 "/usr/include/aarch64-linux-gnu/bits/types/struct_FILE.h"
 870              		.file 37 "/usr/include/aarch64-linux-gnu/bits/types/FILE.h"
 871              		.file 38 "/usr/include/wchar.h"
 872              		.file 39 "/usr/include/aarch64-linux-gnu/bits/types/struct_tm.h"
 873              		.file 40 "/usr/include/aarch64-linux-gnu/bits/types.h"
 874              		.file 41 "/usr/include/aarch64-linux-gnu/bits/stdint-intn.h"
 875              		.file 42 "/usr/include/aarch64-linux-gnu/bits/stdint-uintn.h"
 876              		.file 43 "/usr/include/stdint.h"
 877              		.file 44 "/usr/include/locale.h"
 878              		.file 45 "/usr/include/aarch64-linux-gnu/bits/types/time_t.h"
 879              		.file 46 "/usr/include/aarch64-linux-gnu/bits/types/clock_t.h"
 880              		.file 47 "/usr/include/aarch64-linux-gnu/c++/10/bits/atomic_word.h"
 881              		.file 48 "/usr/include/stdlib.h"
 882              		.file 49 "/usr/include/aarch64-linux-gnu/bits/stdlib-float.h"
 883              		.file 50 "/usr/include/aarch64-linux-gnu/bits/stdlib-bsearch.h"
 884              		.file 51 "/usr/include/aarch64-linux-gnu/bits/types/__fpos_t.h"
 885              		.file 52 "/usr/include/stdio.h"
 886              		.file 53 "/usr/include/aarch64-linux-gnu/bits/stdio.h"
 887              		.file 54 "/usr/include/aarch64-linux-gnu/bits/wctype-wchar.h"
 888              		.file 55 "/usr/include/wctype.h"
 889              		.file 56 "/usr/include/time.h"
 890              		.file 57 "/usr/include/math.h"
 891              		.file 58 "/usr/include/aarch64-linux-gnu/bits/mathcalls.h"
 892              		.file 59 "<built-in>"
 11200              		.section	.note.GNU-stack,"",@progbits
