AARCH64 GAS  obj/Ch11_05.s 			page 1


 GNU assembler version 2.35.2 (aarch64-linux-gnu)
	 using BFD version (GNU Binutils for Debian) 2.35.2.
 options passed	: -I -I -EL -march=armv8-a+simd -mabi=lp64 -aghl=obj/Ch11_05.lst 
 input file    	: obj/Ch11_05.s
 output file   	: obj/Ch11_05.o
 target        	: aarch64-unknown-linux-gnu
 time stamp    	: 2022-07-19T17:32:21.000-0400

AARCH64 GAS  obj/Ch11_05.s 			page 2


   1              		.arch armv8-a
   2              		.file	"Ch11_05.cpp"
   3              		.text
   4              	.Ltext0:
   5              		.section	.rodata.str1.8,"aMS",@progbits,1
   6              		.align	3
   7              	.LC0:
   8 0000 0A526573 		.string	"\nResults for MoveA_"
   8      756C7473 
   8      20666F72 
   8      204D6F76 
   8      65415F00 
   9 0014 00000000 		.align	3
  10              	.LC1:
  11 0018 6130203D 		.string	"a0 = "
  11      2000
  12 001e 0000     		.align	3
  13              	.LC2:
  14 0020 6131203D 		.string	"a1 = "
  14      2000
  15 0026 0000     		.align	3
  16              	.LC3:
  17 0028 6132203D 		.string	"a2 = "
  17      2000
  18 002e 0000     		.align	3
  19              	.LC4:
  20 0030 6133203D 		.string	"a3 = "
  20      2000
  21 0036 0000     		.align	3
  22              	.LC5:
  23 0038 0A526573 		.string	"\nResults for MoveB_"
  23      756C7473 
  23      20666F72 
  23      204D6F76 
  23      65425F00 
  24 004c 00000000 		.align	3
  25              	.LC6:
  26 0050 6230203D 		.string	"b0 = "
  26      2000
  27 0056 0000     		.align	3
  28              	.LC7:
  29 0058 6231203D 		.string	"b1 = "
  29      2000
  30 005e 0000     		.align	3
  31              	.LC8:
  32 0060 6232203D 		.string	"b2 = "
  32      2000
  33 0066 0000     		.align	3
  34              	.LC9:
  35 0068 6233203D 		.string	"b3 = "
  35      2000
  36 006e 0000     		.align	3
  37              	.LC10:
  38 0070 0A526573 		.string	"\nResults for MoveC_"
  38      756C7473 
  38      20666F72 
  38      204D6F76 
AARCH64 GAS  obj/Ch11_05.s 			page 3


  38      65435F00 
  39 0084 00000000 		.align	3
  40              	.LC11:
  41 0088 6330203D 		.string	"c0 = "
  41      2000
  42 008e 0000     		.align	3
  43              	.LC12:
  44 0090 6331203D 		.string	"c1 = "
  44      2000
  45 0096 0000     		.align	3
  46              	.LC13:
  47 0098 0A526573 		.string	"\nResults for MoveD_"
  47      756C7473 
  47      20666F72 
  47      204D6F76 
  47      65445F00 
  48 00ac 00000000 		.align	3
  49              	.LC14:
  50 00b0 6430203D 		.string	"d0 = "
  50      2000
  51 00b6 0000     		.align	3
  52              	.LC15:
  53 00b8 6431203D 		.string	"d1 = "
  53      2000
  54 00be 0000     		.align	3
  55              	.LC16:
  56 00c0 6432203D 		.string	"d2 = "
  56      2000
  57              		.section	.text.startup,"ax",@progbits
  58              		.align	2
  59              		.p2align 4,,11
  60              		.global	main
  61              		.type	main, %function
  62              	main:
  63              	.LVL0:
  64              	.LFB1587:
  65              		.file 1 "Ch11_05.cpp"
   1:Ch11_05.cpp   **** //-------------------------------------------------
   2:Ch11_05.cpp   **** //               Ch11_05.cpp
   3:Ch11_05.cpp   **** //-------------------------------------------------
   4:Ch11_05.cpp   **** 
   5:Ch11_05.cpp   **** #include <iostream>
   6:Ch11_05.cpp   **** #include <cstdint>
   7:Ch11_05.cpp   **** 
   8:Ch11_05.cpp   **** using namespace std;
   9:Ch11_05.cpp   **** 
  10:Ch11_05.cpp   **** extern "C" void MoveA_(int32_t& a0, int32_t& a1, int32_t& a2, int32_t& a3);
  11:Ch11_05.cpp   **** extern "C" void MoveB_(int64_t& b0, int64_t& b1, int64_t& b2, int64_t& b3);
  12:Ch11_05.cpp   **** extern "C" void MoveC_(int32_t& c0, int32_t& c1);
  13:Ch11_05.cpp   **** extern "C" void MoveD_(int64_t& d0, int64_t& d1, int64_t& d2);
  14:Ch11_05.cpp   **** 
  15:Ch11_05.cpp   **** int main(int argc, char** argv)
  16:Ch11_05.cpp   **** {
  66              		.loc 1 16 1 view -0
  67              		.cfi_startproc
  17:Ch11_05.cpp   ****     const char nl = '\n';
  68              		.loc 1 17 5 view .LVU1
AARCH64 GAS  obj/Ch11_05.s 			page 4


  18:Ch11_05.cpp   **** 
  19:Ch11_05.cpp   ****     int32_t a0, a1, a2, a3;
  69              		.loc 1 19 5 view .LVU2
  20:Ch11_05.cpp   ****     MoveA_(a0, a1, a2, a3);
  70              		.loc 1 20 5 view .LVU3
  16:Ch11_05.cpp   ****     const char nl = '\n';
  71              		.loc 1 16 1 is_stmt 0 view .LVU4
  72 0000 FD7BB7A9 		stp	x29, x30, [sp, -144]!
  73              		.cfi_def_cfa_offset 144
  74              		.cfi_offset 29, -144
  75              		.cfi_offset 30, -136
  76 0004 FD030091 		mov	x29, sp
  77 0008 F35301A9 		stp	x19, x20, [sp, 16]
  78              		.cfi_offset 19, -128
  79              		.cfi_offset 20, -120
  80              	.LBB140:
  81              	.LBB141:
  82              		.file 2 "/usr/include/c++/10/ostream"
   1:/usr/include/c++/10/ostream **** // Output streams -*- C++ -*-
   2:/usr/include/c++/10/ostream **** 
   3:/usr/include/c++/10/ostream **** // Copyright (C) 1997-2020 Free Software Foundation, Inc.
   4:/usr/include/c++/10/ostream **** //
   5:/usr/include/c++/10/ostream **** // This file is part of the GNU ISO C++ Library.  This library is free
   6:/usr/include/c++/10/ostream **** // software; you can redistribute it and/or modify it under the
   7:/usr/include/c++/10/ostream **** // terms of the GNU General Public License as published by the
   8:/usr/include/c++/10/ostream **** // Free Software Foundation; either version 3, or (at your option)
   9:/usr/include/c++/10/ostream **** // any later version.
  10:/usr/include/c++/10/ostream **** 
  11:/usr/include/c++/10/ostream **** // This library is distributed in the hope that it will be useful,
  12:/usr/include/c++/10/ostream **** // but WITHOUT ANY WARRANTY; without even the implied warranty of
  13:/usr/include/c++/10/ostream **** // MERCHANTABILITY or FITNESS FOR A PARTICULAR PURPOSE.  See the
  14:/usr/include/c++/10/ostream **** // GNU General Public License for more details.
  15:/usr/include/c++/10/ostream **** 
  16:/usr/include/c++/10/ostream **** // Under Section 7 of GPL version 3, you are granted additional
  17:/usr/include/c++/10/ostream **** // permissions described in the GCC Runtime Library Exception, version
  18:/usr/include/c++/10/ostream **** // 3.1, as published by the Free Software Foundation.
  19:/usr/include/c++/10/ostream **** 
  20:/usr/include/c++/10/ostream **** // You should have received a copy of the GNU General Public License and
  21:/usr/include/c++/10/ostream **** // a copy of the GCC Runtime Library Exception along with this program;
  22:/usr/include/c++/10/ostream **** // see the files COPYING3 and COPYING.RUNTIME respectively.  If not, see
  23:/usr/include/c++/10/ostream **** // <http://www.gnu.org/licenses/>.
  24:/usr/include/c++/10/ostream **** 
  25:/usr/include/c++/10/ostream **** /** @file include/ostream
  26:/usr/include/c++/10/ostream ****  *  This is a Standard C++ Library header.
  27:/usr/include/c++/10/ostream ****  */
  28:/usr/include/c++/10/ostream **** 
  29:/usr/include/c++/10/ostream **** //
  30:/usr/include/c++/10/ostream **** // ISO C++ 14882: 27.6.2  Output streams
  31:/usr/include/c++/10/ostream **** //
  32:/usr/include/c++/10/ostream **** 
  33:/usr/include/c++/10/ostream **** #ifndef _GLIBCXX_OSTREAM
  34:/usr/include/c++/10/ostream **** #define _GLIBCXX_OSTREAM 1
  35:/usr/include/c++/10/ostream **** 
  36:/usr/include/c++/10/ostream **** #pragma GCC system_header
  37:/usr/include/c++/10/ostream **** 
  38:/usr/include/c++/10/ostream **** #include <ios>
  39:/usr/include/c++/10/ostream **** #include <bits/ostream_insert.h>
AARCH64 GAS  obj/Ch11_05.s 			page 5


  40:/usr/include/c++/10/ostream **** 
  41:/usr/include/c++/10/ostream **** namespace std _GLIBCXX_VISIBILITY(default)
  42:/usr/include/c++/10/ostream **** {
  43:/usr/include/c++/10/ostream **** _GLIBCXX_BEGIN_NAMESPACE_VERSION
  44:/usr/include/c++/10/ostream **** 
  45:/usr/include/c++/10/ostream ****   /**
  46:/usr/include/c++/10/ostream ****    *  @brief  Template class basic_ostream.
  47:/usr/include/c++/10/ostream ****    *  @ingroup io
  48:/usr/include/c++/10/ostream ****    *
  49:/usr/include/c++/10/ostream ****    *  @tparam _CharT  Type of character stream.
  50:/usr/include/c++/10/ostream ****    *  @tparam _Traits  Traits for character type, defaults to
  51:/usr/include/c++/10/ostream ****    *                   char_traits<_CharT>.
  52:/usr/include/c++/10/ostream ****    *
  53:/usr/include/c++/10/ostream ****    *  This is the base class for all output streams.  It provides text
  54:/usr/include/c++/10/ostream ****    *  formatting of all builtin types, and communicates with any class
  55:/usr/include/c++/10/ostream ****    *  derived from basic_streambuf to do the actual output.
  56:/usr/include/c++/10/ostream ****   */
  57:/usr/include/c++/10/ostream ****   template<typename _CharT, typename _Traits>
  58:/usr/include/c++/10/ostream ****     class basic_ostream : virtual public basic_ios<_CharT, _Traits>
  59:/usr/include/c++/10/ostream ****     {
  60:/usr/include/c++/10/ostream ****     public:
  61:/usr/include/c++/10/ostream ****       // Types (inherited from basic_ios):
  62:/usr/include/c++/10/ostream ****       typedef _CharT			 		char_type;
  63:/usr/include/c++/10/ostream ****       typedef typename _Traits::int_type 		int_type;
  64:/usr/include/c++/10/ostream ****       typedef typename _Traits::pos_type 		pos_type;
  65:/usr/include/c++/10/ostream ****       typedef typename _Traits::off_type 		off_type;
  66:/usr/include/c++/10/ostream ****       typedef _Traits			 		traits_type;
  67:/usr/include/c++/10/ostream **** 
  68:/usr/include/c++/10/ostream ****       // Non-standard Types:
  69:/usr/include/c++/10/ostream ****       typedef basic_streambuf<_CharT, _Traits> 		__streambuf_type;
  70:/usr/include/c++/10/ostream ****       typedef basic_ios<_CharT, _Traits>		__ios_type;
  71:/usr/include/c++/10/ostream ****       typedef basic_ostream<_CharT, _Traits>		__ostream_type;
  72:/usr/include/c++/10/ostream ****       typedef num_put<_CharT, ostreambuf_iterator<_CharT, _Traits> >
  73:/usr/include/c++/10/ostream ****       							__num_put_type;
  74:/usr/include/c++/10/ostream ****       typedef ctype<_CharT>	      			__ctype_type;
  75:/usr/include/c++/10/ostream **** 
  76:/usr/include/c++/10/ostream ****       /**
  77:/usr/include/c++/10/ostream ****        *  @brief  Base constructor.
  78:/usr/include/c++/10/ostream ****        *
  79:/usr/include/c++/10/ostream ****        *  This ctor is almost never called by the user directly, rather from
  80:/usr/include/c++/10/ostream ****        *  derived classes' initialization lists, which pass a pointer to
  81:/usr/include/c++/10/ostream ****        *  their own stream buffer.
  82:/usr/include/c++/10/ostream ****       */
  83:/usr/include/c++/10/ostream ****       explicit
  84:/usr/include/c++/10/ostream ****       basic_ostream(__streambuf_type* __sb)
  85:/usr/include/c++/10/ostream ****       { this->init(__sb); }
  86:/usr/include/c++/10/ostream **** 
  87:/usr/include/c++/10/ostream ****       /**
  88:/usr/include/c++/10/ostream ****        *  @brief  Base destructor.
  89:/usr/include/c++/10/ostream ****        *
  90:/usr/include/c++/10/ostream ****        *  This does very little apart from providing a virtual base dtor.
  91:/usr/include/c++/10/ostream ****       */
  92:/usr/include/c++/10/ostream ****       virtual
  93:/usr/include/c++/10/ostream ****       ~basic_ostream() { }
  94:/usr/include/c++/10/ostream **** 
  95:/usr/include/c++/10/ostream ****       /// Safe prefix/suffix operations.
  96:/usr/include/c++/10/ostream ****       class sentry;
AARCH64 GAS  obj/Ch11_05.s 			page 6


  97:/usr/include/c++/10/ostream ****       friend class sentry;
  98:/usr/include/c++/10/ostream **** 
  99:/usr/include/c++/10/ostream ****       //@{
 100:/usr/include/c++/10/ostream ****       /**
 101:/usr/include/c++/10/ostream ****        *  @brief  Interface for manipulators.
 102:/usr/include/c++/10/ostream ****        *
 103:/usr/include/c++/10/ostream ****        *  Manipulators such as @c std::endl and @c std::hex use these
 104:/usr/include/c++/10/ostream ****        *  functions in constructs like "std::cout << std::endl".  For more
 105:/usr/include/c++/10/ostream ****        *  information, see the iomanip header.
 106:/usr/include/c++/10/ostream ****       */
 107:/usr/include/c++/10/ostream ****       __ostream_type&
 108:/usr/include/c++/10/ostream ****       operator<<(__ostream_type& (*__pf)(__ostream_type&))
 109:/usr/include/c++/10/ostream ****       {
 110:/usr/include/c++/10/ostream **** 	// _GLIBCXX_RESOLVE_LIB_DEFECTS
 111:/usr/include/c++/10/ostream **** 	// DR 60. What is a formatted input function?
 112:/usr/include/c++/10/ostream **** 	// The inserters for manipulators are *not* formatted output functions.
 113:/usr/include/c++/10/ostream **** 	return __pf(*this);
 114:/usr/include/c++/10/ostream ****       }
 115:/usr/include/c++/10/ostream **** 
 116:/usr/include/c++/10/ostream ****       __ostream_type&
 117:/usr/include/c++/10/ostream ****       operator<<(__ios_type& (*__pf)(__ios_type&))
 118:/usr/include/c++/10/ostream ****       {
 119:/usr/include/c++/10/ostream **** 	// _GLIBCXX_RESOLVE_LIB_DEFECTS
 120:/usr/include/c++/10/ostream **** 	// DR 60. What is a formatted input function?
 121:/usr/include/c++/10/ostream **** 	// The inserters for manipulators are *not* formatted output functions.
 122:/usr/include/c++/10/ostream **** 	__pf(*this);
 123:/usr/include/c++/10/ostream **** 	return *this;
 124:/usr/include/c++/10/ostream ****       }
 125:/usr/include/c++/10/ostream **** 
 126:/usr/include/c++/10/ostream ****       __ostream_type&
 127:/usr/include/c++/10/ostream ****       operator<<(ios_base& (*__pf) (ios_base&))
 128:/usr/include/c++/10/ostream ****       {
 129:/usr/include/c++/10/ostream **** 	// _GLIBCXX_RESOLVE_LIB_DEFECTS
 130:/usr/include/c++/10/ostream **** 	// DR 60. What is a formatted input function?
 131:/usr/include/c++/10/ostream **** 	// The inserters for manipulators are *not* formatted output functions.
 132:/usr/include/c++/10/ostream **** 	__pf(*this);
 133:/usr/include/c++/10/ostream **** 	return *this;
 134:/usr/include/c++/10/ostream ****       }
 135:/usr/include/c++/10/ostream ****       //@}
 136:/usr/include/c++/10/ostream **** 
 137:/usr/include/c++/10/ostream ****       //@{
 138:/usr/include/c++/10/ostream ****       /**
 139:/usr/include/c++/10/ostream ****        *  @name Inserters
 140:/usr/include/c++/10/ostream ****        *
 141:/usr/include/c++/10/ostream ****        *  All the @c operator<< functions (aka <em>formatted output
 142:/usr/include/c++/10/ostream ****        *  functions</em>) have some common behavior.  Each starts by
 143:/usr/include/c++/10/ostream ****        *  constructing a temporary object of type std::basic_ostream::sentry.
 144:/usr/include/c++/10/ostream ****        *  This can have several effects, concluding with the setting of a
 145:/usr/include/c++/10/ostream ****        *  status flag; see the sentry documentation for more.
 146:/usr/include/c++/10/ostream ****        *
 147:/usr/include/c++/10/ostream ****        *  If the sentry status is good, the function tries to generate
 148:/usr/include/c++/10/ostream ****        *  whatever data is appropriate for the type of the argument.
 149:/usr/include/c++/10/ostream ****        *
 150:/usr/include/c++/10/ostream ****        *  If an exception is thrown during insertion, ios_base::badbit
 151:/usr/include/c++/10/ostream ****        *  will be turned on in the stream's error state without causing an
 152:/usr/include/c++/10/ostream ****        *  ios_base::failure to be thrown.  The original exception will then
 153:/usr/include/c++/10/ostream ****        *  be rethrown.
AARCH64 GAS  obj/Ch11_05.s 			page 7


 154:/usr/include/c++/10/ostream ****       */
 155:/usr/include/c++/10/ostream **** 
 156:/usr/include/c++/10/ostream ****       //@{
 157:/usr/include/c++/10/ostream ****       /**
 158:/usr/include/c++/10/ostream ****        *  @brief Integer arithmetic inserters
 159:/usr/include/c++/10/ostream ****        *  @param  __n A variable of builtin integral type.
 160:/usr/include/c++/10/ostream ****        *  @return  @c *this if successful
 161:/usr/include/c++/10/ostream ****        *
 162:/usr/include/c++/10/ostream ****        *  These functions use the stream's current locale (specifically, the
 163:/usr/include/c++/10/ostream ****        *  @c num_get facet) to perform numeric formatting.
 164:/usr/include/c++/10/ostream ****       */
 165:/usr/include/c++/10/ostream ****       __ostream_type&
 166:/usr/include/c++/10/ostream ****       operator<<(long __n)
 167:/usr/include/c++/10/ostream ****       { return _M_insert(__n); }
 168:/usr/include/c++/10/ostream **** 
 169:/usr/include/c++/10/ostream ****       __ostream_type&
 170:/usr/include/c++/10/ostream ****       operator<<(unsigned long __n)
 171:/usr/include/c++/10/ostream ****       { return _M_insert(__n); }
 172:/usr/include/c++/10/ostream **** 
 173:/usr/include/c++/10/ostream ****       __ostream_type&
 174:/usr/include/c++/10/ostream ****       operator<<(bool __n)
 175:/usr/include/c++/10/ostream ****       { return _M_insert(__n); }
 176:/usr/include/c++/10/ostream **** 
 177:/usr/include/c++/10/ostream ****       __ostream_type&
 178:/usr/include/c++/10/ostream ****       operator<<(short __n);
 179:/usr/include/c++/10/ostream **** 
 180:/usr/include/c++/10/ostream ****       __ostream_type&
 181:/usr/include/c++/10/ostream ****       operator<<(unsigned short __n)
 182:/usr/include/c++/10/ostream ****       {
 183:/usr/include/c++/10/ostream **** 	// _GLIBCXX_RESOLVE_LIB_DEFECTS
 184:/usr/include/c++/10/ostream **** 	// 117. basic_ostream uses nonexistent num_put member functions.
 185:/usr/include/c++/10/ostream **** 	return _M_insert(static_cast<unsigned long>(__n));
 186:/usr/include/c++/10/ostream ****       }
 187:/usr/include/c++/10/ostream **** 
 188:/usr/include/c++/10/ostream ****       __ostream_type&
 189:/usr/include/c++/10/ostream ****       operator<<(int __n);
 190:/usr/include/c++/10/ostream **** 
 191:/usr/include/c++/10/ostream ****       __ostream_type&
 192:/usr/include/c++/10/ostream ****       operator<<(unsigned int __n)
 193:/usr/include/c++/10/ostream ****       {
 194:/usr/include/c++/10/ostream **** 	// _GLIBCXX_RESOLVE_LIB_DEFECTS
 195:/usr/include/c++/10/ostream **** 	// 117. basic_ostream uses nonexistent num_put member functions.
 196:/usr/include/c++/10/ostream **** 	return _M_insert(static_cast<unsigned long>(__n));
 197:/usr/include/c++/10/ostream ****       }
 198:/usr/include/c++/10/ostream **** 
 199:/usr/include/c++/10/ostream **** #ifdef _GLIBCXX_USE_LONG_LONG
 200:/usr/include/c++/10/ostream ****       __ostream_type&
 201:/usr/include/c++/10/ostream ****       operator<<(long long __n)
 202:/usr/include/c++/10/ostream ****       { return _M_insert(__n); }
 203:/usr/include/c++/10/ostream **** 
 204:/usr/include/c++/10/ostream ****       __ostream_type&
 205:/usr/include/c++/10/ostream ****       operator<<(unsigned long long __n)
 206:/usr/include/c++/10/ostream ****       { return _M_insert(__n); }
 207:/usr/include/c++/10/ostream **** #endif
 208:/usr/include/c++/10/ostream ****       //@}
 209:/usr/include/c++/10/ostream **** 
 210:/usr/include/c++/10/ostream ****       //@{
AARCH64 GAS  obj/Ch11_05.s 			page 8


 211:/usr/include/c++/10/ostream ****       /**
 212:/usr/include/c++/10/ostream ****        *  @brief  Floating point arithmetic inserters
 213:/usr/include/c++/10/ostream ****        *  @param  __f A variable of builtin floating point type.
 214:/usr/include/c++/10/ostream ****        *  @return  @c *this if successful
 215:/usr/include/c++/10/ostream ****        *
 216:/usr/include/c++/10/ostream ****        *  These functions use the stream's current locale (specifically, the
 217:/usr/include/c++/10/ostream ****        *  @c num_get facet) to perform numeric formatting.
 218:/usr/include/c++/10/ostream ****       */
 219:/usr/include/c++/10/ostream ****       __ostream_type&
 220:/usr/include/c++/10/ostream ****       operator<<(double __f)
 221:/usr/include/c++/10/ostream ****       { return _M_insert(__f); }
 222:/usr/include/c++/10/ostream **** 
 223:/usr/include/c++/10/ostream ****       __ostream_type&
 224:/usr/include/c++/10/ostream ****       operator<<(float __f)
 225:/usr/include/c++/10/ostream ****       {
 226:/usr/include/c++/10/ostream **** 	// _GLIBCXX_RESOLVE_LIB_DEFECTS
 227:/usr/include/c++/10/ostream **** 	// 117. basic_ostream uses nonexistent num_put member functions.
 228:/usr/include/c++/10/ostream **** 	return _M_insert(static_cast<double>(__f));
 229:/usr/include/c++/10/ostream ****       }
 230:/usr/include/c++/10/ostream **** 
 231:/usr/include/c++/10/ostream ****       __ostream_type&
 232:/usr/include/c++/10/ostream ****       operator<<(long double __f)
 233:/usr/include/c++/10/ostream ****       { return _M_insert(__f); }
 234:/usr/include/c++/10/ostream ****       //@}
 235:/usr/include/c++/10/ostream **** 
 236:/usr/include/c++/10/ostream ****       /**
 237:/usr/include/c++/10/ostream ****        *  @brief  Pointer arithmetic inserters
 238:/usr/include/c++/10/ostream ****        *  @param  __p A variable of pointer type.
 239:/usr/include/c++/10/ostream ****        *  @return  @c *this if successful
 240:/usr/include/c++/10/ostream ****        *
 241:/usr/include/c++/10/ostream ****        *  These functions use the stream's current locale (specifically, the
 242:/usr/include/c++/10/ostream ****        *  @c num_get facet) to perform numeric formatting.
 243:/usr/include/c++/10/ostream ****       */
 244:/usr/include/c++/10/ostream ****       __ostream_type&
 245:/usr/include/c++/10/ostream ****       operator<<(const void* __p)
 246:/usr/include/c++/10/ostream ****       { return _M_insert(__p); }
 247:/usr/include/c++/10/ostream **** 
 248:/usr/include/c++/10/ostream **** #if __cplusplus >= 201703L
 249:/usr/include/c++/10/ostream ****       __ostream_type&
 250:/usr/include/c++/10/ostream ****       operator<<(nullptr_t)
 251:/usr/include/c++/10/ostream ****       { return *this << "nullptr"; }
 252:/usr/include/c++/10/ostream **** #endif
 253:/usr/include/c++/10/ostream **** 
 254:/usr/include/c++/10/ostream ****       /**
 255:/usr/include/c++/10/ostream ****        *  @brief  Extracting from another streambuf.
 256:/usr/include/c++/10/ostream ****        *  @param  __sb  A pointer to a streambuf
 257:/usr/include/c++/10/ostream ****        *
 258:/usr/include/c++/10/ostream ****        *  This function behaves like one of the basic arithmetic extractors,
 259:/usr/include/c++/10/ostream ****        *  in that it also constructs a sentry object and has the same error
 260:/usr/include/c++/10/ostream ****        *  handling behavior.
 261:/usr/include/c++/10/ostream ****        *
 262:/usr/include/c++/10/ostream ****        *  If @p __sb is NULL, the stream will set failbit in its error state.
 263:/usr/include/c++/10/ostream ****        *
 264:/usr/include/c++/10/ostream ****        *  Characters are extracted from @p __sb and inserted into @c *this
 265:/usr/include/c++/10/ostream ****        *  until one of the following occurs:
 266:/usr/include/c++/10/ostream ****        *
 267:/usr/include/c++/10/ostream ****        *  - the input stream reaches end-of-file,
AARCH64 GAS  obj/Ch11_05.s 			page 9


 268:/usr/include/c++/10/ostream ****        *  - insertion into the output sequence fails (in this case, the
 269:/usr/include/c++/10/ostream ****        *    character that would have been inserted is not extracted), or
 270:/usr/include/c++/10/ostream ****        *  - an exception occurs while getting a character from @p __sb, which
 271:/usr/include/c++/10/ostream ****        *    sets failbit in the error state
 272:/usr/include/c++/10/ostream ****        *
 273:/usr/include/c++/10/ostream ****        *  If the function inserts no characters, failbit is set.
 274:/usr/include/c++/10/ostream ****       */
 275:/usr/include/c++/10/ostream ****       __ostream_type&
 276:/usr/include/c++/10/ostream ****       operator<<(__streambuf_type* __sb);
 277:/usr/include/c++/10/ostream ****       //@}
 278:/usr/include/c++/10/ostream **** 
 279:/usr/include/c++/10/ostream ****       //@{
 280:/usr/include/c++/10/ostream ****       /**
 281:/usr/include/c++/10/ostream ****        *  @name Unformatted Output Functions
 282:/usr/include/c++/10/ostream ****        *
 283:/usr/include/c++/10/ostream ****        *  All the unformatted output functions have some common behavior.
 284:/usr/include/c++/10/ostream ****        *  Each starts by constructing a temporary object of type
 285:/usr/include/c++/10/ostream ****        *  std::basic_ostream::sentry.  This has several effects, concluding
 286:/usr/include/c++/10/ostream ****        *  with the setting of a status flag; see the sentry documentation
 287:/usr/include/c++/10/ostream ****        *  for more.
 288:/usr/include/c++/10/ostream ****        *
 289:/usr/include/c++/10/ostream ****        *  If the sentry status is good, the function tries to generate
 290:/usr/include/c++/10/ostream ****        *  whatever data is appropriate for the type of the argument.
 291:/usr/include/c++/10/ostream ****        *
 292:/usr/include/c++/10/ostream ****        *  If an exception is thrown during insertion, ios_base::badbit
 293:/usr/include/c++/10/ostream ****        *  will be turned on in the stream's error state.  If badbit is on in
 294:/usr/include/c++/10/ostream ****        *  the stream's exceptions mask, the exception will be rethrown
 295:/usr/include/c++/10/ostream ****        *  without completing its actions.
 296:/usr/include/c++/10/ostream ****       */
 297:/usr/include/c++/10/ostream **** 
 298:/usr/include/c++/10/ostream ****       /**
 299:/usr/include/c++/10/ostream ****        *  @brief  Simple insertion.
 300:/usr/include/c++/10/ostream ****        *  @param  __c  The character to insert.
 301:/usr/include/c++/10/ostream ****        *  @return  *this
 302:/usr/include/c++/10/ostream ****        *
 303:/usr/include/c++/10/ostream ****        *  Tries to insert @p __c.
 304:/usr/include/c++/10/ostream ****        *
 305:/usr/include/c++/10/ostream ****        *  @note  This function is not overloaded on signed char and
 306:/usr/include/c++/10/ostream ****        *         unsigned char.
 307:/usr/include/c++/10/ostream ****       */
 308:/usr/include/c++/10/ostream ****       __ostream_type&
 309:/usr/include/c++/10/ostream ****       put(char_type __c);
 310:/usr/include/c++/10/ostream **** 
 311:/usr/include/c++/10/ostream ****       /**
 312:/usr/include/c++/10/ostream ****        *  @brief  Core write functionality, without sentry.
 313:/usr/include/c++/10/ostream ****        *  @param  __s  The array to insert.
 314:/usr/include/c++/10/ostream ****        *  @param  __n  Maximum number of characters to insert.
 315:/usr/include/c++/10/ostream ****       */
 316:/usr/include/c++/10/ostream ****       void
 317:/usr/include/c++/10/ostream ****       _M_write(const char_type* __s, streamsize __n)
 318:/usr/include/c++/10/ostream ****       {
 319:/usr/include/c++/10/ostream **** 	const streamsize __put = this->rdbuf()->sputn(__s, __n);
 320:/usr/include/c++/10/ostream **** 	if (__put != __n)
 321:/usr/include/c++/10/ostream **** 	  this->setstate(ios_base::badbit);
 322:/usr/include/c++/10/ostream ****       }
 323:/usr/include/c++/10/ostream **** 
 324:/usr/include/c++/10/ostream ****       /**
AARCH64 GAS  obj/Ch11_05.s 			page 10


 325:/usr/include/c++/10/ostream ****        *  @brief  Character string insertion.
 326:/usr/include/c++/10/ostream ****        *  @param  __s  The array to insert.
 327:/usr/include/c++/10/ostream ****        *  @param  __n  Maximum number of characters to insert.
 328:/usr/include/c++/10/ostream ****        *  @return  *this
 329:/usr/include/c++/10/ostream ****        *
 330:/usr/include/c++/10/ostream ****        *  Characters are copied from @p __s and inserted into the stream until
 331:/usr/include/c++/10/ostream ****        *  one of the following happens:
 332:/usr/include/c++/10/ostream ****        *
 333:/usr/include/c++/10/ostream ****        *  - @p __n characters are inserted
 334:/usr/include/c++/10/ostream ****        *  - inserting into the output sequence fails (in this case, badbit
 335:/usr/include/c++/10/ostream ****        *    will be set in the stream's error state)
 336:/usr/include/c++/10/ostream ****        *
 337:/usr/include/c++/10/ostream ****        *  @note  This function is not overloaded on signed char and
 338:/usr/include/c++/10/ostream ****        *         unsigned char.
 339:/usr/include/c++/10/ostream ****       */
 340:/usr/include/c++/10/ostream ****       __ostream_type&
 341:/usr/include/c++/10/ostream ****       write(const char_type* __s, streamsize __n);
 342:/usr/include/c++/10/ostream ****       //@}
 343:/usr/include/c++/10/ostream **** 
 344:/usr/include/c++/10/ostream ****       /**
 345:/usr/include/c++/10/ostream ****        *  @brief  Synchronizing the stream buffer.
 346:/usr/include/c++/10/ostream ****        *  @return  *this
 347:/usr/include/c++/10/ostream ****        *
 348:/usr/include/c++/10/ostream ****        *  If @c rdbuf() is a null pointer, changes nothing.
 349:/usr/include/c++/10/ostream ****        *
 350:/usr/include/c++/10/ostream ****        *  Otherwise, calls @c rdbuf()->pubsync(), and if that returns -1,
 351:/usr/include/c++/10/ostream ****        *  sets badbit.
 352:/usr/include/c++/10/ostream ****       */
 353:/usr/include/c++/10/ostream ****       __ostream_type&
 354:/usr/include/c++/10/ostream ****       flush();
 355:/usr/include/c++/10/ostream **** 
 356:/usr/include/c++/10/ostream ****       /**
 357:/usr/include/c++/10/ostream ****        *  @brief  Getting the current write position.
 358:/usr/include/c++/10/ostream ****        *  @return  A file position object.
 359:/usr/include/c++/10/ostream ****        *
 360:/usr/include/c++/10/ostream ****        *  If @c fail() is not false, returns @c pos_type(-1) to indicate
 361:/usr/include/c++/10/ostream ****        *  failure.  Otherwise returns @c rdbuf()->pubseekoff(0,cur,out).
 362:/usr/include/c++/10/ostream ****       */
 363:/usr/include/c++/10/ostream ****       pos_type
 364:/usr/include/c++/10/ostream ****       tellp();
 365:/usr/include/c++/10/ostream **** 
 366:/usr/include/c++/10/ostream ****       /**
 367:/usr/include/c++/10/ostream ****        *  @brief  Changing the current write position.
 368:/usr/include/c++/10/ostream ****        *  @param  __pos  A file position object.
 369:/usr/include/c++/10/ostream ****        *  @return  *this
 370:/usr/include/c++/10/ostream ****        *
 371:/usr/include/c++/10/ostream ****        *  If @c fail() is not true, calls @c rdbuf()->pubseekpos(pos).  If
 372:/usr/include/c++/10/ostream ****        *  that function fails, sets failbit.
 373:/usr/include/c++/10/ostream ****       */
 374:/usr/include/c++/10/ostream ****       __ostream_type&
 375:/usr/include/c++/10/ostream ****       seekp(pos_type);
 376:/usr/include/c++/10/ostream **** 
 377:/usr/include/c++/10/ostream ****       /**
 378:/usr/include/c++/10/ostream ****        *  @brief  Changing the current write position.
 379:/usr/include/c++/10/ostream ****        *  @param  __off  A file offset object.
 380:/usr/include/c++/10/ostream ****        *  @param  __dir  The direction in which to seek.
 381:/usr/include/c++/10/ostream ****        *  @return  *this
AARCH64 GAS  obj/Ch11_05.s 			page 11


 382:/usr/include/c++/10/ostream ****        *
 383:/usr/include/c++/10/ostream ****        *  If @c fail() is not true, calls @c rdbuf()->pubseekoff(off,dir).
 384:/usr/include/c++/10/ostream ****        *  If that function fails, sets failbit.
 385:/usr/include/c++/10/ostream ****       */
 386:/usr/include/c++/10/ostream ****        __ostream_type&
 387:/usr/include/c++/10/ostream ****       seekp(off_type, ios_base::seekdir);
 388:/usr/include/c++/10/ostream **** 
 389:/usr/include/c++/10/ostream ****     protected:
 390:/usr/include/c++/10/ostream ****       basic_ostream()
 391:/usr/include/c++/10/ostream ****       { this->init(0); }
 392:/usr/include/c++/10/ostream **** 
 393:/usr/include/c++/10/ostream **** #if __cplusplus >= 201103L
 394:/usr/include/c++/10/ostream ****       // Non-standard constructor that does not call init()
 395:/usr/include/c++/10/ostream ****       basic_ostream(basic_iostream<_CharT, _Traits>&) { }
 396:/usr/include/c++/10/ostream **** 
 397:/usr/include/c++/10/ostream ****       basic_ostream(const basic_ostream&) = delete;
 398:/usr/include/c++/10/ostream **** 
 399:/usr/include/c++/10/ostream ****       basic_ostream(basic_ostream&& __rhs)
 400:/usr/include/c++/10/ostream ****       : __ios_type()
 401:/usr/include/c++/10/ostream ****       { __ios_type::move(__rhs); }
 402:/usr/include/c++/10/ostream **** 
 403:/usr/include/c++/10/ostream ****       // 27.7.3.3 Assign/swap
 404:/usr/include/c++/10/ostream **** 
 405:/usr/include/c++/10/ostream ****       basic_ostream& operator=(const basic_ostream&) = delete;
 406:/usr/include/c++/10/ostream **** 
 407:/usr/include/c++/10/ostream ****       basic_ostream&
 408:/usr/include/c++/10/ostream ****       operator=(basic_ostream&& __rhs)
 409:/usr/include/c++/10/ostream ****       {
 410:/usr/include/c++/10/ostream **** 	swap(__rhs);
 411:/usr/include/c++/10/ostream **** 	return *this;
 412:/usr/include/c++/10/ostream ****       }
 413:/usr/include/c++/10/ostream **** 
 414:/usr/include/c++/10/ostream ****       void
 415:/usr/include/c++/10/ostream ****       swap(basic_ostream& __rhs)
 416:/usr/include/c++/10/ostream ****       { __ios_type::swap(__rhs); }
 417:/usr/include/c++/10/ostream **** #endif
 418:/usr/include/c++/10/ostream **** 
 419:/usr/include/c++/10/ostream ****       template<typename _ValueT>
 420:/usr/include/c++/10/ostream **** 	__ostream_type&
 421:/usr/include/c++/10/ostream **** 	_M_insert(_ValueT __v);
 422:/usr/include/c++/10/ostream ****     };
 423:/usr/include/c++/10/ostream **** 
 424:/usr/include/c++/10/ostream ****   /**
 425:/usr/include/c++/10/ostream ****    *  @brief  Performs setup work for output streams.
 426:/usr/include/c++/10/ostream ****    *
 427:/usr/include/c++/10/ostream ****    *  Objects of this class are created before all of the standard
 428:/usr/include/c++/10/ostream ****    *  inserters are run.  It is responsible for <em>exception-safe prefix and
 429:/usr/include/c++/10/ostream ****    *  suffix operations</em>.
 430:/usr/include/c++/10/ostream ****   */
 431:/usr/include/c++/10/ostream ****   template <typename _CharT, typename _Traits>
 432:/usr/include/c++/10/ostream ****     class basic_ostream<_CharT, _Traits>::sentry
 433:/usr/include/c++/10/ostream ****     {
 434:/usr/include/c++/10/ostream ****       // Data Members.
 435:/usr/include/c++/10/ostream ****       bool 				_M_ok;
 436:/usr/include/c++/10/ostream ****       basic_ostream<_CharT, _Traits>& 	_M_os;
 437:/usr/include/c++/10/ostream **** 
 438:/usr/include/c++/10/ostream ****     public:
AARCH64 GAS  obj/Ch11_05.s 			page 12


 439:/usr/include/c++/10/ostream ****       /**
 440:/usr/include/c++/10/ostream ****        *  @brief  The constructor performs preparatory work.
 441:/usr/include/c++/10/ostream ****        *  @param  __os  The output stream to guard.
 442:/usr/include/c++/10/ostream ****        *
 443:/usr/include/c++/10/ostream ****        *  If the stream state is good (@a __os.good() is true), then if the
 444:/usr/include/c++/10/ostream ****        *  stream is tied to another output stream, @c is.tie()->flush()
 445:/usr/include/c++/10/ostream ****        *  is called to synchronize the output sequences.
 446:/usr/include/c++/10/ostream ****        *
 447:/usr/include/c++/10/ostream ****        *  If the stream state is still good, then the sentry state becomes
 448:/usr/include/c++/10/ostream ****        *  true (@a okay).
 449:/usr/include/c++/10/ostream ****       */
 450:/usr/include/c++/10/ostream ****       explicit
 451:/usr/include/c++/10/ostream ****       sentry(basic_ostream<_CharT, _Traits>& __os);
 452:/usr/include/c++/10/ostream **** 
 453:/usr/include/c++/10/ostream **** #pragma GCC diagnostic push
 454:/usr/include/c++/10/ostream **** #pragma GCC diagnostic ignored "-Wdeprecated-declarations"
 455:/usr/include/c++/10/ostream ****       /**
 456:/usr/include/c++/10/ostream ****        *  @brief  Possibly flushes the stream.
 457:/usr/include/c++/10/ostream ****        *
 458:/usr/include/c++/10/ostream ****        *  If @c ios_base::unitbuf is set in @c os.flags(), and
 459:/usr/include/c++/10/ostream ****        *  @c std::uncaught_exception() is true, the sentry destructor calls
 460:/usr/include/c++/10/ostream ****        *  @c flush() on the output stream.
 461:/usr/include/c++/10/ostream ****       */
 462:/usr/include/c++/10/ostream ****       ~sentry()
 463:/usr/include/c++/10/ostream ****       {
 464:/usr/include/c++/10/ostream **** 	// XXX MT
 465:/usr/include/c++/10/ostream **** 	if (bool(_M_os.flags() & ios_base::unitbuf) && !uncaught_exception())
 466:/usr/include/c++/10/ostream **** 	  {
 467:/usr/include/c++/10/ostream **** 	    // Can't call flush directly or else will get into recursive lock.
 468:/usr/include/c++/10/ostream **** 	    if (_M_os.rdbuf() && _M_os.rdbuf()->pubsync() == -1)
 469:/usr/include/c++/10/ostream **** 	      _M_os.setstate(ios_base::badbit);
 470:/usr/include/c++/10/ostream **** 	  }
 471:/usr/include/c++/10/ostream ****       }
 472:/usr/include/c++/10/ostream **** #pragma GCC diagnostic pop
 473:/usr/include/c++/10/ostream **** 
 474:/usr/include/c++/10/ostream ****       /**
 475:/usr/include/c++/10/ostream ****        *  @brief  Quick status checking.
 476:/usr/include/c++/10/ostream ****        *  @return  The sentry state.
 477:/usr/include/c++/10/ostream ****        *
 478:/usr/include/c++/10/ostream ****        *  For ease of use, sentries may be converted to booleans.  The
 479:/usr/include/c++/10/ostream ****        *  return value is that of the sentry state (true == okay).
 480:/usr/include/c++/10/ostream ****       */
 481:/usr/include/c++/10/ostream **** #if __cplusplus >= 201103L
 482:/usr/include/c++/10/ostream ****       explicit
 483:/usr/include/c++/10/ostream **** #endif
 484:/usr/include/c++/10/ostream ****       operator bool() const
 485:/usr/include/c++/10/ostream ****       { return _M_ok; }
 486:/usr/include/c++/10/ostream ****     };
 487:/usr/include/c++/10/ostream **** 
 488:/usr/include/c++/10/ostream ****   //@{
 489:/usr/include/c++/10/ostream ****   /**
 490:/usr/include/c++/10/ostream ****    *  @brief  Character inserters
 491:/usr/include/c++/10/ostream ****    *  @param  __out  An output stream.
 492:/usr/include/c++/10/ostream ****    *  @param  __c  A character.
 493:/usr/include/c++/10/ostream ****    *  @return  out
 494:/usr/include/c++/10/ostream ****    *
 495:/usr/include/c++/10/ostream ****    *  Behaves like one of the formatted arithmetic inserters described in
AARCH64 GAS  obj/Ch11_05.s 			page 13


 496:/usr/include/c++/10/ostream ****    *  std::basic_ostream.  After constructing a sentry object with good
 497:/usr/include/c++/10/ostream ****    *  status, this function inserts a single character and any required
 498:/usr/include/c++/10/ostream ****    *  padding (as determined by [22.2.2.2.2]).  @c __out.width(0) is then
 499:/usr/include/c++/10/ostream ****    *  called.
 500:/usr/include/c++/10/ostream ****    *
 501:/usr/include/c++/10/ostream ****    *  If @p __c is of type @c char and the character type of the stream is not
 502:/usr/include/c++/10/ostream ****    *  @c char, the character is widened before insertion.
 503:/usr/include/c++/10/ostream ****   */
 504:/usr/include/c++/10/ostream ****   template<typename _CharT, typename _Traits>
 505:/usr/include/c++/10/ostream ****     inline basic_ostream<_CharT, _Traits>&
 506:/usr/include/c++/10/ostream ****     operator<<(basic_ostream<_CharT, _Traits>& __out, _CharT __c)
 507:/usr/include/c++/10/ostream ****     { return __ostream_insert(__out, &__c, 1); }
 508:/usr/include/c++/10/ostream **** 
 509:/usr/include/c++/10/ostream ****   template<typename _CharT, typename _Traits>
 510:/usr/include/c++/10/ostream ****     inline basic_ostream<_CharT, _Traits>&
 511:/usr/include/c++/10/ostream ****     operator<<(basic_ostream<_CharT, _Traits>& __out, char __c)
 512:/usr/include/c++/10/ostream ****     { return (__out << __out.widen(__c)); }
 513:/usr/include/c++/10/ostream **** 
 514:/usr/include/c++/10/ostream ****   // Specialization
 515:/usr/include/c++/10/ostream ****   template<typename _Traits>
 516:/usr/include/c++/10/ostream ****     inline basic_ostream<char, _Traits>&
 517:/usr/include/c++/10/ostream ****     operator<<(basic_ostream<char, _Traits>& __out, char __c)
 518:/usr/include/c++/10/ostream ****     { return __ostream_insert(__out, &__c, 1); }
 519:/usr/include/c++/10/ostream **** 
 520:/usr/include/c++/10/ostream ****   // Signed and unsigned
 521:/usr/include/c++/10/ostream ****   template<typename _Traits>
 522:/usr/include/c++/10/ostream ****     inline basic_ostream<char, _Traits>&
 523:/usr/include/c++/10/ostream ****     operator<<(basic_ostream<char, _Traits>& __out, signed char __c)
 524:/usr/include/c++/10/ostream ****     { return (__out << static_cast<char>(__c)); }
 525:/usr/include/c++/10/ostream **** 
 526:/usr/include/c++/10/ostream ****   template<typename _Traits>
 527:/usr/include/c++/10/ostream ****     inline basic_ostream<char, _Traits>&
 528:/usr/include/c++/10/ostream ****     operator<<(basic_ostream<char, _Traits>& __out, unsigned char __c)
 529:/usr/include/c++/10/ostream ****     { return (__out << static_cast<char>(__c)); }
 530:/usr/include/c++/10/ostream **** 
 531:/usr/include/c++/10/ostream **** #if __cplusplus > 201703L
 532:/usr/include/c++/10/ostream ****   // The following deleted overloads prevent formatting character values as
 533:/usr/include/c++/10/ostream ****   // numeric values.
 534:/usr/include/c++/10/ostream **** 
 535:/usr/include/c++/10/ostream **** #ifdef _GLIBCXX_USE_WCHAR_T
 536:/usr/include/c++/10/ostream ****   template<typename _Traits>
 537:/usr/include/c++/10/ostream ****     basic_ostream<char, _Traits>&
 538:/usr/include/c++/10/ostream ****     operator<<(basic_ostream<char, _Traits>&, wchar_t) = delete;
 539:/usr/include/c++/10/ostream **** #endif // _GLIBCXX_USE_WCHAR_T
 540:/usr/include/c++/10/ostream **** 
 541:/usr/include/c++/10/ostream **** #ifdef _GLIBCXX_USE_CHAR8_T
 542:/usr/include/c++/10/ostream ****   template<typename _Traits>
 543:/usr/include/c++/10/ostream ****     basic_ostream<char, _Traits>&
 544:/usr/include/c++/10/ostream ****     operator<<(basic_ostream<char, _Traits>&, char8_t) = delete;
 545:/usr/include/c++/10/ostream **** #endif
 546:/usr/include/c++/10/ostream **** 
 547:/usr/include/c++/10/ostream ****   template<typename _Traits>
 548:/usr/include/c++/10/ostream ****     basic_ostream<char, _Traits>&
 549:/usr/include/c++/10/ostream ****     operator<<(basic_ostream<char, _Traits>&, char16_t) = delete;
 550:/usr/include/c++/10/ostream **** 
 551:/usr/include/c++/10/ostream ****   template<typename _Traits>
 552:/usr/include/c++/10/ostream ****     basic_ostream<char, _Traits>&
AARCH64 GAS  obj/Ch11_05.s 			page 14


 553:/usr/include/c++/10/ostream ****     operator<<(basic_ostream<char, _Traits>&, char32_t) = delete;
 554:/usr/include/c++/10/ostream **** 
 555:/usr/include/c++/10/ostream **** #ifdef _GLIBCXX_USE_WCHAR_T
 556:/usr/include/c++/10/ostream **** #ifdef _GLIBCXX_USE_CHAR8_T
 557:/usr/include/c++/10/ostream ****   template<typename _Traits>
 558:/usr/include/c++/10/ostream ****     basic_ostream<wchar_t, _Traits>&
 559:/usr/include/c++/10/ostream ****     operator<<(basic_ostream<wchar_t, _Traits>&, char8_t) = delete;
 560:/usr/include/c++/10/ostream **** #endif // _GLIBCXX_USE_CHAR8_T
 561:/usr/include/c++/10/ostream **** 
 562:/usr/include/c++/10/ostream ****   template<typename _Traits>
 563:/usr/include/c++/10/ostream ****     basic_ostream<wchar_t, _Traits>&
 564:/usr/include/c++/10/ostream ****     operator<<(basic_ostream<wchar_t, _Traits>&, char16_t) = delete;
 565:/usr/include/c++/10/ostream **** 
 566:/usr/include/c++/10/ostream ****   template<typename _Traits>
 567:/usr/include/c++/10/ostream ****     basic_ostream<wchar_t, _Traits>&
 568:/usr/include/c++/10/ostream ****     operator<<(basic_ostream<wchar_t, _Traits>&, char32_t) = delete;
 569:/usr/include/c++/10/ostream **** #endif // _GLIBCXX_USE_WCHAR_T
 570:/usr/include/c++/10/ostream **** #endif // C++20
 571:/usr/include/c++/10/ostream ****   //@}
 572:/usr/include/c++/10/ostream **** 
 573:/usr/include/c++/10/ostream ****   //@{
 574:/usr/include/c++/10/ostream ****   /**
 575:/usr/include/c++/10/ostream ****    *  @brief  String inserters
 576:/usr/include/c++/10/ostream ****    *  @param  __out  An output stream.
 577:/usr/include/c++/10/ostream ****    *  @param  __s  A character string.
 578:/usr/include/c++/10/ostream ****    *  @return  out
 579:/usr/include/c++/10/ostream ****    *  @pre  @p __s must be a non-NULL pointer
 580:/usr/include/c++/10/ostream ****    *
 581:/usr/include/c++/10/ostream ****    *  Behaves like one of the formatted arithmetic inserters described in
 582:/usr/include/c++/10/ostream ****    *  std::basic_ostream.  After constructing a sentry object with good
 583:/usr/include/c++/10/ostream ****    *  status, this function inserts @c traits::length(__s) characters starting
 584:/usr/include/c++/10/ostream ****    *  at @p __s, widened if necessary, followed by any required padding (as
 585:/usr/include/c++/10/ostream ****    *  determined by [22.2.2.2.2]).  @c __out.width(0) is then called.
 586:/usr/include/c++/10/ostream ****   */
 587:/usr/include/c++/10/ostream ****   template<typename _CharT, typename _Traits>
 588:/usr/include/c++/10/ostream ****     inline basic_ostream<_CharT, _Traits>&
 589:/usr/include/c++/10/ostream ****     operator<<(basic_ostream<_CharT, _Traits>& __out, const _CharT* __s)
 590:/usr/include/c++/10/ostream ****     {
 591:/usr/include/c++/10/ostream ****       if (!__s)
 592:/usr/include/c++/10/ostream **** 	__out.setstate(ios_base::badbit);
 593:/usr/include/c++/10/ostream ****       else
 594:/usr/include/c++/10/ostream **** 	__ostream_insert(__out, __s,
 595:/usr/include/c++/10/ostream **** 			 static_cast<streamsize>(_Traits::length(__s)));
 596:/usr/include/c++/10/ostream ****       return __out;
 597:/usr/include/c++/10/ostream ****     }
 598:/usr/include/c++/10/ostream **** 
 599:/usr/include/c++/10/ostream ****   template<typename _CharT, typename _Traits>
 600:/usr/include/c++/10/ostream ****     basic_ostream<_CharT, _Traits> &
 601:/usr/include/c++/10/ostream ****     operator<<(basic_ostream<_CharT, _Traits>& __out, const char* __s);
 602:/usr/include/c++/10/ostream **** 
 603:/usr/include/c++/10/ostream ****   // Partial specializations
 604:/usr/include/c++/10/ostream ****   template<typename _Traits>
 605:/usr/include/c++/10/ostream ****     inline basic_ostream<char, _Traits>&
 606:/usr/include/c++/10/ostream ****     operator<<(basic_ostream<char, _Traits>& __out, const char* __s)
 607:/usr/include/c++/10/ostream ****     {
 608:/usr/include/c++/10/ostream ****       if (!__s)
 609:/usr/include/c++/10/ostream **** 	__out.setstate(ios_base::badbit);
AARCH64 GAS  obj/Ch11_05.s 			page 15


 610:/usr/include/c++/10/ostream ****       else
 611:/usr/include/c++/10/ostream **** 	__ostream_insert(__out, __s,
  83              		.loc 2 611 18 view .LVU5
  84 000c 13000090 		adrp	x19, :got:_ZSt4cout
  85              	.LBE141:
  86              	.LBE140:
  87              		.loc 1 20 11 view .LVU6
  88 0010 E3330191 		add	x3, sp, 76
  89 0014 E2230191 		add	x2, sp, 72
  90 0018 E1130191 		add	x1, sp, 68
  91              	.LVL1:
  92              		.loc 1 20 11 view .LVU7
  93 001c E0030191 		add	x0, sp, 64
  94              	.LVL2:
  16:Ch11_05.cpp   ****     const char nl = '\n';
  95              		.loc 1 16 1 view .LVU8
  96 0020 F55B02A9 		stp	x21, x22, [sp, 32]
  97              		.cfi_offset 21, -112
  98              		.cfi_offset 22, -104
  99              		.loc 1 20 11 view .LVU9
 100 0024 00000094 		bl	MoveA_
 101              	.LVL3:
  21:Ch11_05.cpp   ****     cout << "\nResults for MoveA_" << nl;
 102              		.loc 1 21 5 is_stmt 1 view .LVU10
 103              	.LBB144:
 104              	.LBI140:
 606:/usr/include/c++/10/ostream ****     {
 105              		.loc 2 606 5 view .LVU11
 606:/usr/include/c++/10/ostream ****     {
 106              		.loc 2 606 5 is_stmt 0 view .LVU12
 107              	.LBE144:
 108              		.file 3 "/usr/include/c++/10/bits/char_traits.h"
   1:/usr/include/c++/10/bits/char_traits.h **** // Character Traits for use by standard string and iostream -*- C++ -*-
   2:/usr/include/c++/10/bits/char_traits.h **** 
   3:/usr/include/c++/10/bits/char_traits.h **** // Copyright (C) 1997-2020 Free Software Foundation, Inc.
   4:/usr/include/c++/10/bits/char_traits.h **** //
   5:/usr/include/c++/10/bits/char_traits.h **** // This file is part of the GNU ISO C++ Library.  This library is free
   6:/usr/include/c++/10/bits/char_traits.h **** // software; you can redistribute it and/or modify it under the
   7:/usr/include/c++/10/bits/char_traits.h **** // terms of the GNU General Public License as published by the
   8:/usr/include/c++/10/bits/char_traits.h **** // Free Software Foundation; either version 3, or (at your option)
   9:/usr/include/c++/10/bits/char_traits.h **** // any later version.
  10:/usr/include/c++/10/bits/char_traits.h **** 
  11:/usr/include/c++/10/bits/char_traits.h **** // This library is distributed in the hope that it will be useful,
  12:/usr/include/c++/10/bits/char_traits.h **** // but WITHOUT ANY WARRANTY; without even the implied warranty of
  13:/usr/include/c++/10/bits/char_traits.h **** // MERCHANTABILITY or FITNESS FOR A PARTICULAR PURPOSE.  See the
  14:/usr/include/c++/10/bits/char_traits.h **** // GNU General Public License for more details.
  15:/usr/include/c++/10/bits/char_traits.h **** 
  16:/usr/include/c++/10/bits/char_traits.h **** // Under Section 7 of GPL version 3, you are granted additional
  17:/usr/include/c++/10/bits/char_traits.h **** // permissions described in the GCC Runtime Library Exception, version
  18:/usr/include/c++/10/bits/char_traits.h **** // 3.1, as published by the Free Software Foundation.
  19:/usr/include/c++/10/bits/char_traits.h **** 
  20:/usr/include/c++/10/bits/char_traits.h **** // You should have received a copy of the GNU General Public License and
  21:/usr/include/c++/10/bits/char_traits.h **** // a copy of the GCC Runtime Library Exception along with this program;
  22:/usr/include/c++/10/bits/char_traits.h **** // see the files COPYING3 and COPYING.RUNTIME respectively.  If not, see
  23:/usr/include/c++/10/bits/char_traits.h **** // <http://www.gnu.org/licenses/>.
  24:/usr/include/c++/10/bits/char_traits.h **** 
  25:/usr/include/c++/10/bits/char_traits.h **** /** @file bits/char_traits.h
AARCH64 GAS  obj/Ch11_05.s 			page 16


  26:/usr/include/c++/10/bits/char_traits.h ****  *  This is an internal header file, included by other library headers.
  27:/usr/include/c++/10/bits/char_traits.h ****  *  Do not attempt to use it directly. @headername{string}
  28:/usr/include/c++/10/bits/char_traits.h ****  */
  29:/usr/include/c++/10/bits/char_traits.h **** 
  30:/usr/include/c++/10/bits/char_traits.h **** //
  31:/usr/include/c++/10/bits/char_traits.h **** // ISO C++ 14882: 21  Strings library
  32:/usr/include/c++/10/bits/char_traits.h **** //
  33:/usr/include/c++/10/bits/char_traits.h **** 
  34:/usr/include/c++/10/bits/char_traits.h **** #ifndef _CHAR_TRAITS_H
  35:/usr/include/c++/10/bits/char_traits.h **** #define _CHAR_TRAITS_H 1
  36:/usr/include/c++/10/bits/char_traits.h **** 
  37:/usr/include/c++/10/bits/char_traits.h **** #pragma GCC system_header
  38:/usr/include/c++/10/bits/char_traits.h **** 
  39:/usr/include/c++/10/bits/char_traits.h **** #include <bits/stl_algobase.h>  // std::copy, std::fill_n
  40:/usr/include/c++/10/bits/char_traits.h **** #include <bits/postypes.h>      // For streampos
  41:/usr/include/c++/10/bits/char_traits.h **** #include <cwchar>               // For WEOF, wmemmove, wmemset, etc.
  42:/usr/include/c++/10/bits/char_traits.h **** #if __cplusplus > 201703L
  43:/usr/include/c++/10/bits/char_traits.h **** # include <compare>
  44:/usr/include/c++/10/bits/char_traits.h **** #endif
  45:/usr/include/c++/10/bits/char_traits.h **** 
  46:/usr/include/c++/10/bits/char_traits.h **** #ifndef _GLIBCXX_ALWAYS_INLINE
  47:/usr/include/c++/10/bits/char_traits.h **** # define _GLIBCXX_ALWAYS_INLINE inline __attribute__((__always_inline__))
  48:/usr/include/c++/10/bits/char_traits.h **** #endif
  49:/usr/include/c++/10/bits/char_traits.h **** 
  50:/usr/include/c++/10/bits/char_traits.h **** namespace __gnu_cxx _GLIBCXX_VISIBILITY(default)
  51:/usr/include/c++/10/bits/char_traits.h **** {
  52:/usr/include/c++/10/bits/char_traits.h **** _GLIBCXX_BEGIN_NAMESPACE_VERSION
  53:/usr/include/c++/10/bits/char_traits.h **** 
  54:/usr/include/c++/10/bits/char_traits.h ****   /**
  55:/usr/include/c++/10/bits/char_traits.h ****    *  @brief  Mapping from character type to associated types.
  56:/usr/include/c++/10/bits/char_traits.h ****    *
  57:/usr/include/c++/10/bits/char_traits.h ****    *  @note This is an implementation class for the generic version
  58:/usr/include/c++/10/bits/char_traits.h ****    *  of char_traits.  It defines int_type, off_type, pos_type, and
  59:/usr/include/c++/10/bits/char_traits.h ****    *  state_type.  By default these are unsigned long, streamoff,
  60:/usr/include/c++/10/bits/char_traits.h ****    *  streampos, and mbstate_t.  Users who need a different set of
  61:/usr/include/c++/10/bits/char_traits.h ****    *  types, but who don't need to change the definitions of any function
  62:/usr/include/c++/10/bits/char_traits.h ****    *  defined in char_traits, can specialize __gnu_cxx::_Char_types
  63:/usr/include/c++/10/bits/char_traits.h ****    *  while leaving __gnu_cxx::char_traits alone. */
  64:/usr/include/c++/10/bits/char_traits.h ****   template<typename _CharT>
  65:/usr/include/c++/10/bits/char_traits.h ****     struct _Char_types
  66:/usr/include/c++/10/bits/char_traits.h ****     {
  67:/usr/include/c++/10/bits/char_traits.h ****       typedef unsigned long   int_type;
  68:/usr/include/c++/10/bits/char_traits.h ****       typedef std::streampos  pos_type;
  69:/usr/include/c++/10/bits/char_traits.h ****       typedef std::streamoff  off_type;
  70:/usr/include/c++/10/bits/char_traits.h ****       typedef std::mbstate_t  state_type;
  71:/usr/include/c++/10/bits/char_traits.h ****     };
  72:/usr/include/c++/10/bits/char_traits.h **** 
  73:/usr/include/c++/10/bits/char_traits.h **** 
  74:/usr/include/c++/10/bits/char_traits.h ****   /**
  75:/usr/include/c++/10/bits/char_traits.h ****    *  @brief  Base class used to implement std::char_traits.
  76:/usr/include/c++/10/bits/char_traits.h ****    *
  77:/usr/include/c++/10/bits/char_traits.h ****    *  @note For any given actual character type, this definition is
  78:/usr/include/c++/10/bits/char_traits.h ****    *  probably wrong.  (Most of the member functions are likely to be
  79:/usr/include/c++/10/bits/char_traits.h ****    *  right, but the int_type and state_type typedefs, and the eof()
  80:/usr/include/c++/10/bits/char_traits.h ****    *  member function, are likely to be wrong.)  The reason this class
  81:/usr/include/c++/10/bits/char_traits.h ****    *  exists is so users can specialize it.  Classes in namespace std
  82:/usr/include/c++/10/bits/char_traits.h ****    *  may not be specialized for fundamental types, but classes in
AARCH64 GAS  obj/Ch11_05.s 			page 17


  83:/usr/include/c++/10/bits/char_traits.h ****    *  namespace __gnu_cxx may be.
  84:/usr/include/c++/10/bits/char_traits.h ****    *
  85:/usr/include/c++/10/bits/char_traits.h ****    *  See https://gcc.gnu.org/onlinedocs/libstdc++/manual/strings.html#strings.string.character_typ
  86:/usr/include/c++/10/bits/char_traits.h ****    *  for advice on how to make use of this class for @a unusual character
  87:/usr/include/c++/10/bits/char_traits.h ****    *  types. Also, check out include/ext/pod_char_traits.h.  
  88:/usr/include/c++/10/bits/char_traits.h ****    */
  89:/usr/include/c++/10/bits/char_traits.h ****   template<typename _CharT>
  90:/usr/include/c++/10/bits/char_traits.h ****     struct char_traits
  91:/usr/include/c++/10/bits/char_traits.h ****     {
  92:/usr/include/c++/10/bits/char_traits.h ****       typedef _CharT                                    char_type;
  93:/usr/include/c++/10/bits/char_traits.h ****       typedef typename _Char_types<_CharT>::int_type    int_type;
  94:/usr/include/c++/10/bits/char_traits.h ****       typedef typename _Char_types<_CharT>::pos_type    pos_type;
  95:/usr/include/c++/10/bits/char_traits.h ****       typedef typename _Char_types<_CharT>::off_type    off_type;
  96:/usr/include/c++/10/bits/char_traits.h ****       typedef typename _Char_types<_CharT>::state_type  state_type;
  97:/usr/include/c++/10/bits/char_traits.h **** #if __cpp_lib_three_way_comparison
  98:/usr/include/c++/10/bits/char_traits.h ****       using comparison_category = std::strong_ordering;
  99:/usr/include/c++/10/bits/char_traits.h **** #endif
 100:/usr/include/c++/10/bits/char_traits.h **** 
 101:/usr/include/c++/10/bits/char_traits.h ****       static _GLIBCXX14_CONSTEXPR void
 102:/usr/include/c++/10/bits/char_traits.h ****       assign(char_type& __c1, const char_type& __c2)
 103:/usr/include/c++/10/bits/char_traits.h ****       { __c1 = __c2; }
 104:/usr/include/c++/10/bits/char_traits.h **** 
 105:/usr/include/c++/10/bits/char_traits.h ****       static _GLIBCXX_CONSTEXPR bool
 106:/usr/include/c++/10/bits/char_traits.h ****       eq(const char_type& __c1, const char_type& __c2)
 107:/usr/include/c++/10/bits/char_traits.h ****       { return __c1 == __c2; }
 108:/usr/include/c++/10/bits/char_traits.h **** 
 109:/usr/include/c++/10/bits/char_traits.h ****       static _GLIBCXX_CONSTEXPR bool
 110:/usr/include/c++/10/bits/char_traits.h ****       lt(const char_type& __c1, const char_type& __c2)
 111:/usr/include/c++/10/bits/char_traits.h ****       { return __c1 < __c2; }
 112:/usr/include/c++/10/bits/char_traits.h **** 
 113:/usr/include/c++/10/bits/char_traits.h ****       static _GLIBCXX14_CONSTEXPR int
 114:/usr/include/c++/10/bits/char_traits.h ****       compare(const char_type* __s1, const char_type* __s2, std::size_t __n);
 115:/usr/include/c++/10/bits/char_traits.h **** 
 116:/usr/include/c++/10/bits/char_traits.h ****       static _GLIBCXX14_CONSTEXPR std::size_t
 117:/usr/include/c++/10/bits/char_traits.h ****       length(const char_type* __s);
 118:/usr/include/c++/10/bits/char_traits.h **** 
 119:/usr/include/c++/10/bits/char_traits.h ****       static _GLIBCXX14_CONSTEXPR const char_type*
 120:/usr/include/c++/10/bits/char_traits.h ****       find(const char_type* __s, std::size_t __n, const char_type& __a);
 121:/usr/include/c++/10/bits/char_traits.h **** 
 122:/usr/include/c++/10/bits/char_traits.h ****       static _GLIBCXX20_CONSTEXPR char_type*
 123:/usr/include/c++/10/bits/char_traits.h ****       move(char_type* __s1, const char_type* __s2, std::size_t __n);
 124:/usr/include/c++/10/bits/char_traits.h **** 
 125:/usr/include/c++/10/bits/char_traits.h ****       static _GLIBCXX20_CONSTEXPR char_type*
 126:/usr/include/c++/10/bits/char_traits.h ****       copy(char_type* __s1, const char_type* __s2, std::size_t __n);
 127:/usr/include/c++/10/bits/char_traits.h **** 
 128:/usr/include/c++/10/bits/char_traits.h ****       static _GLIBCXX20_CONSTEXPR char_type*
 129:/usr/include/c++/10/bits/char_traits.h ****       assign(char_type* __s, std::size_t __n, char_type __a);
 130:/usr/include/c++/10/bits/char_traits.h **** 
 131:/usr/include/c++/10/bits/char_traits.h ****       static _GLIBCXX_CONSTEXPR char_type
 132:/usr/include/c++/10/bits/char_traits.h ****       to_char_type(const int_type& __c)
 133:/usr/include/c++/10/bits/char_traits.h ****       { return static_cast<char_type>(__c); }
 134:/usr/include/c++/10/bits/char_traits.h **** 
 135:/usr/include/c++/10/bits/char_traits.h ****       static _GLIBCXX_CONSTEXPR int_type
 136:/usr/include/c++/10/bits/char_traits.h ****       to_int_type(const char_type& __c)
 137:/usr/include/c++/10/bits/char_traits.h ****       { return static_cast<int_type>(__c); }
 138:/usr/include/c++/10/bits/char_traits.h **** 
 139:/usr/include/c++/10/bits/char_traits.h ****       static _GLIBCXX_CONSTEXPR bool
AARCH64 GAS  obj/Ch11_05.s 			page 18


 140:/usr/include/c++/10/bits/char_traits.h ****       eq_int_type(const int_type& __c1, const int_type& __c2)
 141:/usr/include/c++/10/bits/char_traits.h ****       { return __c1 == __c2; }
 142:/usr/include/c++/10/bits/char_traits.h **** 
 143:/usr/include/c++/10/bits/char_traits.h ****       static _GLIBCXX_CONSTEXPR int_type
 144:/usr/include/c++/10/bits/char_traits.h ****       eof()
 145:/usr/include/c++/10/bits/char_traits.h ****       { return static_cast<int_type>(_GLIBCXX_STDIO_EOF); }
 146:/usr/include/c++/10/bits/char_traits.h **** 
 147:/usr/include/c++/10/bits/char_traits.h ****       static _GLIBCXX_CONSTEXPR int_type
 148:/usr/include/c++/10/bits/char_traits.h ****       not_eof(const int_type& __c)
 149:/usr/include/c++/10/bits/char_traits.h ****       { return !eq_int_type(__c, eof()) ? __c : to_int_type(char_type()); }
 150:/usr/include/c++/10/bits/char_traits.h ****     };
 151:/usr/include/c++/10/bits/char_traits.h **** 
 152:/usr/include/c++/10/bits/char_traits.h ****   template<typename _CharT>
 153:/usr/include/c++/10/bits/char_traits.h ****     _GLIBCXX14_CONSTEXPR int
 154:/usr/include/c++/10/bits/char_traits.h ****     char_traits<_CharT>::
 155:/usr/include/c++/10/bits/char_traits.h ****     compare(const char_type* __s1, const char_type* __s2, std::size_t __n)
 156:/usr/include/c++/10/bits/char_traits.h ****     {
 157:/usr/include/c++/10/bits/char_traits.h ****       for (std::size_t __i = 0; __i < __n; ++__i)
 158:/usr/include/c++/10/bits/char_traits.h **** 	if (lt(__s1[__i], __s2[__i]))
 159:/usr/include/c++/10/bits/char_traits.h **** 	  return -1;
 160:/usr/include/c++/10/bits/char_traits.h **** 	else if (lt(__s2[__i], __s1[__i]))
 161:/usr/include/c++/10/bits/char_traits.h **** 	  return 1;
 162:/usr/include/c++/10/bits/char_traits.h ****       return 0;
 163:/usr/include/c++/10/bits/char_traits.h ****     }
 164:/usr/include/c++/10/bits/char_traits.h **** 
 165:/usr/include/c++/10/bits/char_traits.h ****   template<typename _CharT>
 166:/usr/include/c++/10/bits/char_traits.h ****     _GLIBCXX14_CONSTEXPR std::size_t
 167:/usr/include/c++/10/bits/char_traits.h ****     char_traits<_CharT>::
 168:/usr/include/c++/10/bits/char_traits.h ****     length(const char_type* __p)
 169:/usr/include/c++/10/bits/char_traits.h ****     {
 170:/usr/include/c++/10/bits/char_traits.h ****       std::size_t __i = 0;
 171:/usr/include/c++/10/bits/char_traits.h ****       while (!eq(__p[__i], char_type()))
 172:/usr/include/c++/10/bits/char_traits.h ****         ++__i;
 173:/usr/include/c++/10/bits/char_traits.h ****       return __i;
 174:/usr/include/c++/10/bits/char_traits.h ****     }
 175:/usr/include/c++/10/bits/char_traits.h **** 
 176:/usr/include/c++/10/bits/char_traits.h ****   template<typename _CharT>
 177:/usr/include/c++/10/bits/char_traits.h ****     _GLIBCXX14_CONSTEXPR const typename char_traits<_CharT>::char_type*
 178:/usr/include/c++/10/bits/char_traits.h ****     char_traits<_CharT>::
 179:/usr/include/c++/10/bits/char_traits.h ****     find(const char_type* __s, std::size_t __n, const char_type& __a)
 180:/usr/include/c++/10/bits/char_traits.h ****     {
 181:/usr/include/c++/10/bits/char_traits.h ****       for (std::size_t __i = 0; __i < __n; ++__i)
 182:/usr/include/c++/10/bits/char_traits.h ****         if (eq(__s[__i], __a))
 183:/usr/include/c++/10/bits/char_traits.h ****           return __s + __i;
 184:/usr/include/c++/10/bits/char_traits.h ****       return 0;
 185:/usr/include/c++/10/bits/char_traits.h ****     }
 186:/usr/include/c++/10/bits/char_traits.h **** 
 187:/usr/include/c++/10/bits/char_traits.h ****   template<typename _CharT>
 188:/usr/include/c++/10/bits/char_traits.h ****     _GLIBCXX20_CONSTEXPR
 189:/usr/include/c++/10/bits/char_traits.h ****     typename char_traits<_CharT>::char_type*
 190:/usr/include/c++/10/bits/char_traits.h ****     char_traits<_CharT>::
 191:/usr/include/c++/10/bits/char_traits.h ****     move(char_type* __s1, const char_type* __s2, std::size_t __n)
 192:/usr/include/c++/10/bits/char_traits.h ****     {
 193:/usr/include/c++/10/bits/char_traits.h ****       if (__n == 0)
 194:/usr/include/c++/10/bits/char_traits.h **** 	return __s1;
 195:/usr/include/c++/10/bits/char_traits.h **** #ifdef __cpp_lib_is_constant_evaluated
 196:/usr/include/c++/10/bits/char_traits.h ****       if (std::is_constant_evaluated())
AARCH64 GAS  obj/Ch11_05.s 			page 19


 197:/usr/include/c++/10/bits/char_traits.h **** 	{
 198:/usr/include/c++/10/bits/char_traits.h **** 	  if (__s1 > __s2 && __s1 < __s2 + __n)
 199:/usr/include/c++/10/bits/char_traits.h **** 	    std::copy_backward(__s2, __s2 + __n, __s1);
 200:/usr/include/c++/10/bits/char_traits.h **** 	  else
 201:/usr/include/c++/10/bits/char_traits.h **** 	    std::copy(__s2, __s2 + __n, __s1);
 202:/usr/include/c++/10/bits/char_traits.h **** 	  return __s1;
 203:/usr/include/c++/10/bits/char_traits.h **** 	}
 204:/usr/include/c++/10/bits/char_traits.h **** #endif
 205:/usr/include/c++/10/bits/char_traits.h ****       return static_cast<_CharT*>(__builtin_memmove(__s1, __s2,
 206:/usr/include/c++/10/bits/char_traits.h **** 						    __n * sizeof(char_type)));
 207:/usr/include/c++/10/bits/char_traits.h ****     }
 208:/usr/include/c++/10/bits/char_traits.h **** 
 209:/usr/include/c++/10/bits/char_traits.h ****   template<typename _CharT>
 210:/usr/include/c++/10/bits/char_traits.h ****     _GLIBCXX20_CONSTEXPR
 211:/usr/include/c++/10/bits/char_traits.h ****     typename char_traits<_CharT>::char_type*
 212:/usr/include/c++/10/bits/char_traits.h ****     char_traits<_CharT>::
 213:/usr/include/c++/10/bits/char_traits.h ****     copy(char_type* __s1, const char_type* __s2, std::size_t __n)
 214:/usr/include/c++/10/bits/char_traits.h ****     {
 215:/usr/include/c++/10/bits/char_traits.h ****       // NB: Inline std::copy so no recursive dependencies.
 216:/usr/include/c++/10/bits/char_traits.h ****       std::copy(__s2, __s2 + __n, __s1);
 217:/usr/include/c++/10/bits/char_traits.h ****       return __s1;
 218:/usr/include/c++/10/bits/char_traits.h ****     }
 219:/usr/include/c++/10/bits/char_traits.h **** 
 220:/usr/include/c++/10/bits/char_traits.h ****   template<typename _CharT>
 221:/usr/include/c++/10/bits/char_traits.h ****     _GLIBCXX20_CONSTEXPR
 222:/usr/include/c++/10/bits/char_traits.h ****     typename char_traits<_CharT>::char_type*
 223:/usr/include/c++/10/bits/char_traits.h ****     char_traits<_CharT>::
 224:/usr/include/c++/10/bits/char_traits.h ****     assign(char_type* __s, std::size_t __n, char_type __a)
 225:/usr/include/c++/10/bits/char_traits.h ****     {
 226:/usr/include/c++/10/bits/char_traits.h ****       // NB: Inline std::fill_n so no recursive dependencies.
 227:/usr/include/c++/10/bits/char_traits.h ****       std::fill_n(__s, __n, __a);
 228:/usr/include/c++/10/bits/char_traits.h ****       return __s;
 229:/usr/include/c++/10/bits/char_traits.h ****     }
 230:/usr/include/c++/10/bits/char_traits.h **** 
 231:/usr/include/c++/10/bits/char_traits.h **** _GLIBCXX_END_NAMESPACE_VERSION
 232:/usr/include/c++/10/bits/char_traits.h **** } // namespace
 233:/usr/include/c++/10/bits/char_traits.h **** 
 234:/usr/include/c++/10/bits/char_traits.h **** namespace std _GLIBCXX_VISIBILITY(default)
 235:/usr/include/c++/10/bits/char_traits.h **** {
 236:/usr/include/c++/10/bits/char_traits.h **** _GLIBCXX_BEGIN_NAMESPACE_VERSION
 237:/usr/include/c++/10/bits/char_traits.h **** 
 238:/usr/include/c++/10/bits/char_traits.h **** #if __cplusplus >= 201703L
 239:/usr/include/c++/10/bits/char_traits.h **** 
 240:/usr/include/c++/10/bits/char_traits.h **** #if __cplusplus == 201703L
 241:/usr/include/c++/10/bits/char_traits.h **** // Unofficial macro indicating P0426R1 support
 242:/usr/include/c++/10/bits/char_traits.h **** # define __cpp_lib_constexpr_char_traits 201611L
 243:/usr/include/c++/10/bits/char_traits.h **** #else
 244:/usr/include/c++/10/bits/char_traits.h **** // Also support P1032R1 in C++20
 245:/usr/include/c++/10/bits/char_traits.h **** # define __cpp_lib_constexpr_char_traits 201811L
 246:/usr/include/c++/10/bits/char_traits.h **** #endif
 247:/usr/include/c++/10/bits/char_traits.h **** 
 248:/usr/include/c++/10/bits/char_traits.h ****   /**
 249:/usr/include/c++/10/bits/char_traits.h ****    *  @brief Determine whether the characters of a NULL-terminated
 250:/usr/include/c++/10/bits/char_traits.h ****    *  string are known at compile time.
 251:/usr/include/c++/10/bits/char_traits.h ****    *  @param  __s  The string.
 252:/usr/include/c++/10/bits/char_traits.h ****    *
 253:/usr/include/c++/10/bits/char_traits.h ****    *  Assumes that _CharT is a built-in character type.
AARCH64 GAS  obj/Ch11_05.s 			page 20


 254:/usr/include/c++/10/bits/char_traits.h ****    */
 255:/usr/include/c++/10/bits/char_traits.h ****   template<typename _CharT>
 256:/usr/include/c++/10/bits/char_traits.h ****     static _GLIBCXX_ALWAYS_INLINE constexpr bool
 257:/usr/include/c++/10/bits/char_traits.h ****     __constant_string_p(const _CharT* __s)
 258:/usr/include/c++/10/bits/char_traits.h ****     {
 259:/usr/include/c++/10/bits/char_traits.h **** #ifdef _GLIBCXX_HAVE_BUILTIN_IS_CONSTANT_EVALUATED
 260:/usr/include/c++/10/bits/char_traits.h ****       (void) __s;
 261:/usr/include/c++/10/bits/char_traits.h ****       // In constexpr contexts all strings should be constant.
 262:/usr/include/c++/10/bits/char_traits.h ****       return __builtin_is_constant_evaluated();
 263:/usr/include/c++/10/bits/char_traits.h **** #else
 264:/usr/include/c++/10/bits/char_traits.h ****       while (__builtin_constant_p(*__s) && *__s)
 265:/usr/include/c++/10/bits/char_traits.h **** 	__s++;
 266:/usr/include/c++/10/bits/char_traits.h ****       return __builtin_constant_p(*__s);
 267:/usr/include/c++/10/bits/char_traits.h **** #endif
 268:/usr/include/c++/10/bits/char_traits.h ****     }
 269:/usr/include/c++/10/bits/char_traits.h **** 
 270:/usr/include/c++/10/bits/char_traits.h ****   /**
 271:/usr/include/c++/10/bits/char_traits.h ****    *  @brief Determine whether the characters of a character array are
 272:/usr/include/c++/10/bits/char_traits.h ****    *  known at compile time.
 273:/usr/include/c++/10/bits/char_traits.h ****    *  @param  __a  The character array.
 274:/usr/include/c++/10/bits/char_traits.h ****    *  @param  __n  Number of characters.
 275:/usr/include/c++/10/bits/char_traits.h ****    *
 276:/usr/include/c++/10/bits/char_traits.h ****    *  Assumes that _CharT is a built-in character type.
 277:/usr/include/c++/10/bits/char_traits.h ****    */
 278:/usr/include/c++/10/bits/char_traits.h ****   template<typename _CharT>
 279:/usr/include/c++/10/bits/char_traits.h ****     static _GLIBCXX_ALWAYS_INLINE constexpr bool
 280:/usr/include/c++/10/bits/char_traits.h ****     __constant_char_array_p(const _CharT* __a, size_t __n)
 281:/usr/include/c++/10/bits/char_traits.h ****     {
 282:/usr/include/c++/10/bits/char_traits.h **** #ifdef _GLIBCXX_HAVE_BUILTIN_IS_CONSTANT_EVALUATED
 283:/usr/include/c++/10/bits/char_traits.h ****       (void) __a;
 284:/usr/include/c++/10/bits/char_traits.h ****       (void) __n;
 285:/usr/include/c++/10/bits/char_traits.h ****       // In constexpr contexts all character arrays should be constant.
 286:/usr/include/c++/10/bits/char_traits.h ****       return __builtin_is_constant_evaluated();
 287:/usr/include/c++/10/bits/char_traits.h **** #else
 288:/usr/include/c++/10/bits/char_traits.h ****       size_t __i = 0;
 289:/usr/include/c++/10/bits/char_traits.h ****       while (__i < __n && __builtin_constant_p(__a[__i]))
 290:/usr/include/c++/10/bits/char_traits.h **** 	__i++;
 291:/usr/include/c++/10/bits/char_traits.h ****       return __i == __n;
 292:/usr/include/c++/10/bits/char_traits.h **** #endif
 293:/usr/include/c++/10/bits/char_traits.h ****     }
 294:/usr/include/c++/10/bits/char_traits.h **** #endif
 295:/usr/include/c++/10/bits/char_traits.h **** 
 296:/usr/include/c++/10/bits/char_traits.h ****   // 21.1
 297:/usr/include/c++/10/bits/char_traits.h ****   /**
 298:/usr/include/c++/10/bits/char_traits.h ****    *  @brief  Basis for explicit traits specializations.
 299:/usr/include/c++/10/bits/char_traits.h ****    *
 300:/usr/include/c++/10/bits/char_traits.h ****    *  @note  For any given actual character type, this definition is
 301:/usr/include/c++/10/bits/char_traits.h ****    *  probably wrong.  Since this is just a thin wrapper around
 302:/usr/include/c++/10/bits/char_traits.h ****    *  __gnu_cxx::char_traits, it is possible to achieve a more
 303:/usr/include/c++/10/bits/char_traits.h ****    *  appropriate definition by specializing __gnu_cxx::char_traits.
 304:/usr/include/c++/10/bits/char_traits.h ****    *
 305:/usr/include/c++/10/bits/char_traits.h ****    *  See https://gcc.gnu.org/onlinedocs/libstdc++/manual/strings.html#strings.string.character_typ
 306:/usr/include/c++/10/bits/char_traits.h ****    *  for advice on how to make use of this class for @a unusual character
 307:/usr/include/c++/10/bits/char_traits.h ****    *  types. Also, check out include/ext/pod_char_traits.h.
 308:/usr/include/c++/10/bits/char_traits.h ****   */
 309:/usr/include/c++/10/bits/char_traits.h ****   template<class _CharT>
 310:/usr/include/c++/10/bits/char_traits.h ****     struct char_traits : public __gnu_cxx::char_traits<_CharT>
AARCH64 GAS  obj/Ch11_05.s 			page 21


 311:/usr/include/c++/10/bits/char_traits.h ****     { };
 312:/usr/include/c++/10/bits/char_traits.h **** 
 313:/usr/include/c++/10/bits/char_traits.h **** 
 314:/usr/include/c++/10/bits/char_traits.h ****   /// 21.1.3.1  char_traits specializations
 315:/usr/include/c++/10/bits/char_traits.h ****   template<>
 316:/usr/include/c++/10/bits/char_traits.h ****     struct char_traits<char>
 317:/usr/include/c++/10/bits/char_traits.h ****     {
 318:/usr/include/c++/10/bits/char_traits.h ****       typedef char              char_type;
 319:/usr/include/c++/10/bits/char_traits.h ****       typedef int               int_type;
 320:/usr/include/c++/10/bits/char_traits.h ****       typedef streampos         pos_type;
 321:/usr/include/c++/10/bits/char_traits.h ****       typedef streamoff         off_type;
 322:/usr/include/c++/10/bits/char_traits.h ****       typedef mbstate_t         state_type;
 323:/usr/include/c++/10/bits/char_traits.h **** #if __cpp_lib_three_way_comparison
 324:/usr/include/c++/10/bits/char_traits.h ****       using comparison_category = strong_ordering;
 325:/usr/include/c++/10/bits/char_traits.h **** #endif
 326:/usr/include/c++/10/bits/char_traits.h **** 
 327:/usr/include/c++/10/bits/char_traits.h ****       static _GLIBCXX17_CONSTEXPR void
 328:/usr/include/c++/10/bits/char_traits.h ****       assign(char_type& __c1, const char_type& __c2) _GLIBCXX_NOEXCEPT
 329:/usr/include/c++/10/bits/char_traits.h ****       { __c1 = __c2; }
 330:/usr/include/c++/10/bits/char_traits.h **** 
 331:/usr/include/c++/10/bits/char_traits.h ****       static _GLIBCXX_CONSTEXPR bool
 332:/usr/include/c++/10/bits/char_traits.h ****       eq(const char_type& __c1, const char_type& __c2) _GLIBCXX_NOEXCEPT
 333:/usr/include/c++/10/bits/char_traits.h ****       { return __c1 == __c2; }
 334:/usr/include/c++/10/bits/char_traits.h **** 
 335:/usr/include/c++/10/bits/char_traits.h ****       static _GLIBCXX_CONSTEXPR bool
 336:/usr/include/c++/10/bits/char_traits.h ****       lt(const char_type& __c1, const char_type& __c2) _GLIBCXX_NOEXCEPT
 337:/usr/include/c++/10/bits/char_traits.h ****       {
 338:/usr/include/c++/10/bits/char_traits.h **** 	// LWG 467.
 339:/usr/include/c++/10/bits/char_traits.h **** 	return (static_cast<unsigned char>(__c1)
 340:/usr/include/c++/10/bits/char_traits.h **** 		< static_cast<unsigned char>(__c2));
 341:/usr/include/c++/10/bits/char_traits.h ****       }
 342:/usr/include/c++/10/bits/char_traits.h **** 
 343:/usr/include/c++/10/bits/char_traits.h ****       static _GLIBCXX17_CONSTEXPR int
 344:/usr/include/c++/10/bits/char_traits.h ****       compare(const char_type* __s1, const char_type* __s2, size_t __n)
 345:/usr/include/c++/10/bits/char_traits.h ****       {
 346:/usr/include/c++/10/bits/char_traits.h **** 	if (__n == 0)
 347:/usr/include/c++/10/bits/char_traits.h **** 	  return 0;
 348:/usr/include/c++/10/bits/char_traits.h **** #if __cplusplus >= 201703L
 349:/usr/include/c++/10/bits/char_traits.h **** 	if (__builtin_constant_p(__n)
 350:/usr/include/c++/10/bits/char_traits.h **** 	    && __constant_char_array_p(__s1, __n)
 351:/usr/include/c++/10/bits/char_traits.h **** 	    && __constant_char_array_p(__s2, __n))
 352:/usr/include/c++/10/bits/char_traits.h **** 	  return __gnu_cxx::char_traits<char_type>::compare(__s1, __s2, __n);
 353:/usr/include/c++/10/bits/char_traits.h **** #endif
 354:/usr/include/c++/10/bits/char_traits.h **** 	return __builtin_memcmp(__s1, __s2, __n);
 355:/usr/include/c++/10/bits/char_traits.h ****       }
 356:/usr/include/c++/10/bits/char_traits.h **** 
 357:/usr/include/c++/10/bits/char_traits.h ****       static _GLIBCXX17_CONSTEXPR size_t
 358:/usr/include/c++/10/bits/char_traits.h ****       length(const char_type* __s)
 359:/usr/include/c++/10/bits/char_traits.h ****       {
 360:/usr/include/c++/10/bits/char_traits.h **** #if __cplusplus >= 201703L
 361:/usr/include/c++/10/bits/char_traits.h **** 	if (__constant_string_p(__s))
 362:/usr/include/c++/10/bits/char_traits.h **** 	  return __gnu_cxx::char_traits<char_type>::length(__s);
 363:/usr/include/c++/10/bits/char_traits.h **** #endif
 364:/usr/include/c++/10/bits/char_traits.h **** 	return __builtin_strlen(__s);
 109              		.loc 3 364 2 is_stmt 1 view .LVU13
 110              	.LBB145:
 111              	.LBB142:
AARCH64 GAS  obj/Ch11_05.s 			page 22


 112              		.loc 2 611 18 is_stmt 0 view .LVU14
 113 0028 730240F9 		ldr	x19, [x19, #:got_lo12:_ZSt4cout]
 114              	.LBE142:
 115              	.LBE145:
 116              	.LBB146:
 117              	.LBB147:
 518:/usr/include/c++/10/ostream **** 
 118              		.loc 2 518 30 view .LVU15
 119 002c F5230291 		add	x21, sp, 136
 120              	.LBE147:
 121              	.LBE146:
 122              	.LBB150:
 123              	.LBB143:
 124              		.loc 2 611 18 view .LVU16
 125 0030 620280D2 		mov	x2, 19
 126 0034 01000090 		adrp	x1, .LC0
 127 0038 E00313AA 		mov	x0, x19
 128 003c 21000091 		add	x1, x1, :lo12:.LC0
 129 0040 00000094 		bl	_ZSt16__ostream_insertIcSt11char_traitsIcEERSt13basic_ostreamIT_T0_ES6_PKS3_l
 130              	.LVL4:
 131              		.loc 2 611 18 view .LVU17
 132 0044 54018052 		mov	w20, 10
 133              	.LBE143:
 134              	.LBE150:
 135              	.LBB151:
 136              	.LBB148:
 518:/usr/include/c++/10/ostream **** 
 137              		.loc 2 518 30 view .LVU18
 138 0048 E10315AA 		mov	x1, x21
 139 004c E00313AA 		mov	x0, x19
 140 0050 220080D2 		mov	x2, 1
 141 0054 F4230239 		strb	w20, [sp, 136]
 142              	.LVL5:
 518:/usr/include/c++/10/ostream **** 
 143              		.loc 2 518 30 view .LVU19
 144              	.LBE148:
 145              	.LBI146:
 517:/usr/include/c++/10/ostream ****     { return __ostream_insert(__out, &__c, 1); }
 146              		.loc 2 517 5 is_stmt 1 view .LVU20
 147              	.LBB149:
 518:/usr/include/c++/10/ostream **** 
 148              		.loc 2 518 30 is_stmt 0 view .LVU21
 149 0058 00000094 		bl	_ZSt16__ostream_insertIcSt11char_traitsIcEERSt13basic_ostreamIT_T0_ES6_PKS3_l
 150              	.LVL6:
 518:/usr/include/c++/10/ostream **** 
 151              		.loc 2 518 30 view .LVU22
 152              	.LBE149:
 153              	.LBE151:
  22:Ch11_05.cpp   ****     cout << "a0 = " << a0 << nl;
 154              		.loc 1 22 5 is_stmt 1 view .LVU23
 155              	.LBB152:
 156              	.LBI152:
 606:/usr/include/c++/10/ostream ****     {
 157              		.loc 2 606 5 view .LVU24
 606:/usr/include/c++/10/ostream ****     {
 158              		.loc 2 606 5 is_stmt 0 view .LVU25
 159              	.LBE152:
AARCH64 GAS  obj/Ch11_05.s 			page 23


 160              		.loc 3 364 2 is_stmt 1 view .LVU26
 161              	.LBB154:
 162              	.LBB155:
 518:/usr/include/c++/10/ostream **** 
 163              		.loc 2 518 30 is_stmt 0 view .LVU27
 164 005c F6FF0091 		add	x22, sp, 63
 165              	.LBE155:
 166              	.LBE154:
 167              	.LBB157:
 168              	.LBB153:
 169              		.loc 2 611 18 view .LVU28
 170 0060 A20080D2 		mov	x2, 5
 171 0064 E00313AA 		mov	x0, x19
 172 0068 01000090 		adrp	x1, .LC1
 173 006c 21000091 		add	x1, x1, :lo12:.LC1
 174 0070 00000094 		bl	_ZSt16__ostream_insertIcSt11char_traitsIcEERSt13basic_ostreamIT_T0_ES6_PKS3_l
 175              	.LVL7:
 176              		.loc 2 611 18 view .LVU29
 177              	.LBE153:
 178              	.LBE157:
 179              		.loc 1 22 30 view .LVU30
 180 0074 E14340B9 		ldr	w1, [sp, 64]
 181 0078 E00313AA 		mov	x0, x19
 182 007c 00000094 		bl	_ZNSolsEi
 183              	.LVL8:
 184              		.loc 1 22 30 view .LVU31
 185 0080 F4230239 		strb	w20, [sp, 136]
 186              	.LVL9:
 187              	.LBB158:
 188              	.LBI158:
 517:/usr/include/c++/10/ostream ****     { return __ostream_insert(__out, &__c, 1); }
 189              		.loc 2 517 5 is_stmt 1 view .LVU32
 190              	.LBB159:
 518:/usr/include/c++/10/ostream **** 
 191              		.loc 2 518 30 is_stmt 0 view .LVU33
 192 0084 E10315AA 		mov	x1, x21
 193 0088 220080D2 		mov	x2, 1
 194 008c 00000094 		bl	_ZSt16__ostream_insertIcSt11char_traitsIcEERSt13basic_ostreamIT_T0_ES6_PKS3_l
 195              	.LVL10:
 518:/usr/include/c++/10/ostream **** 
 196              		.loc 2 518 30 view .LVU34
 197              	.LBE159:
 198              	.LBE158:
  23:Ch11_05.cpp   ****     cout << "a1 = " << a1 << nl;
 199              		.loc 1 23 5 is_stmt 1 view .LVU35
 200              	.LBB160:
 201              	.LBI160:
 606:/usr/include/c++/10/ostream ****     {
 202              		.loc 2 606 5 view .LVU36
 606:/usr/include/c++/10/ostream ****     {
 203              		.loc 2 606 5 is_stmt 0 view .LVU37
 204              	.LBE160:
 205              		.loc 3 364 2 is_stmt 1 view .LVU38
 206              	.LBB162:
 207              	.LBB161:
 208              		.loc 2 611 18 is_stmt 0 view .LVU39
 209 0090 A20080D2 		mov	x2, 5
AARCH64 GAS  obj/Ch11_05.s 			page 24


 210 0094 E00313AA 		mov	x0, x19
 211 0098 01000090 		adrp	x1, .LC2
 212 009c 21000091 		add	x1, x1, :lo12:.LC2
 213 00a0 00000094 		bl	_ZSt16__ostream_insertIcSt11char_traitsIcEERSt13basic_ostreamIT_T0_ES6_PKS3_l
 214              	.LVL11:
 215              		.loc 2 611 18 view .LVU40
 216              	.LBE161:
 217              	.LBE162:
 218              		.loc 1 23 30 view .LVU41
 219 00a4 E14740B9 		ldr	w1, [sp, 68]
 220 00a8 E00313AA 		mov	x0, x19
 221 00ac 00000094 		bl	_ZNSolsEi
 222              	.LVL12:
 223              		.loc 1 23 30 view .LVU42
 224 00b0 F4230239 		strb	w20, [sp, 136]
 225              	.LVL13:
 226              	.LBB163:
 227              	.LBI163:
 517:/usr/include/c++/10/ostream ****     { return __ostream_insert(__out, &__c, 1); }
 228              		.loc 2 517 5 is_stmt 1 view .LVU43
 229              	.LBB164:
 518:/usr/include/c++/10/ostream **** 
 230              		.loc 2 518 30 is_stmt 0 view .LVU44
 231 00b4 E10315AA 		mov	x1, x21
 232 00b8 220080D2 		mov	x2, 1
 233 00bc 00000094 		bl	_ZSt16__ostream_insertIcSt11char_traitsIcEERSt13basic_ostreamIT_T0_ES6_PKS3_l
 234              	.LVL14:
 518:/usr/include/c++/10/ostream **** 
 235              		.loc 2 518 30 view .LVU45
 236              	.LBE164:
 237              	.LBE163:
  24:Ch11_05.cpp   ****     cout << "a2 = " << a2 << nl;
 238              		.loc 1 24 5 is_stmt 1 view .LVU46
 239              	.LBB165:
 240              	.LBI165:
 606:/usr/include/c++/10/ostream ****     {
 241              		.loc 2 606 5 view .LVU47
 606:/usr/include/c++/10/ostream ****     {
 242              		.loc 2 606 5 is_stmt 0 view .LVU48
 243              	.LBE165:
 244              		.loc 3 364 2 is_stmt 1 view .LVU49
 245              	.LBB167:
 246              	.LBB166:
 247              		.loc 2 611 18 is_stmt 0 view .LVU50
 248 00c0 A20080D2 		mov	x2, 5
 249 00c4 E00313AA 		mov	x0, x19
 250 00c8 01000090 		adrp	x1, .LC3
 251 00cc 21000091 		add	x1, x1, :lo12:.LC3
 252 00d0 00000094 		bl	_ZSt16__ostream_insertIcSt11char_traitsIcEERSt13basic_ostreamIT_T0_ES6_PKS3_l
 253              	.LVL15:
 254              		.loc 2 611 18 view .LVU51
 255              	.LBE166:
 256              	.LBE167:
 257              		.loc 1 24 30 view .LVU52
 258 00d4 E14B40B9 		ldr	w1, [sp, 72]
 259 00d8 E00313AA 		mov	x0, x19
 260 00dc 00000094 		bl	_ZNSolsEi
AARCH64 GAS  obj/Ch11_05.s 			page 25


 261              	.LVL16:
 262              		.loc 1 24 30 view .LVU53
 263 00e0 F4230239 		strb	w20, [sp, 136]
 264              	.LVL17:
 265              	.LBB168:
 266              	.LBI168:
 517:/usr/include/c++/10/ostream ****     { return __ostream_insert(__out, &__c, 1); }
 267              		.loc 2 517 5 is_stmt 1 view .LVU54
 268              	.LBB169:
 518:/usr/include/c++/10/ostream **** 
 269              		.loc 2 518 30 is_stmt 0 view .LVU55
 270 00e4 E10315AA 		mov	x1, x21
 271 00e8 220080D2 		mov	x2, 1
 272 00ec 00000094 		bl	_ZSt16__ostream_insertIcSt11char_traitsIcEERSt13basic_ostreamIT_T0_ES6_PKS3_l
 273              	.LVL18:
 518:/usr/include/c++/10/ostream **** 
 274              		.loc 2 518 30 view .LVU56
 275              	.LBE169:
 276              	.LBE168:
  25:Ch11_05.cpp   ****     cout << "a3 = " << a3 << nl;
 277              		.loc 1 25 5 is_stmt 1 view .LVU57
 278              	.LBB170:
 279              	.LBI170:
 606:/usr/include/c++/10/ostream ****     {
 280              		.loc 2 606 5 view .LVU58
 606:/usr/include/c++/10/ostream ****     {
 281              		.loc 2 606 5 is_stmt 0 view .LVU59
 282              	.LBE170:
 283              		.loc 3 364 2 is_stmt 1 view .LVU60
 284              	.LBB172:
 285              	.LBB171:
 286              		.loc 2 611 18 is_stmt 0 view .LVU61
 287 00f0 A20080D2 		mov	x2, 5
 288 00f4 E00313AA 		mov	x0, x19
 289 00f8 01000090 		adrp	x1, .LC4
 290 00fc 21000091 		add	x1, x1, :lo12:.LC4
 291 0100 00000094 		bl	_ZSt16__ostream_insertIcSt11char_traitsIcEERSt13basic_ostreamIT_T0_ES6_PKS3_l
 292              	.LVL19:
 293              		.loc 2 611 18 view .LVU62
 294              	.LBE171:
 295              	.LBE172:
 296              		.loc 1 25 30 view .LVU63
 297 0104 E14F40B9 		ldr	w1, [sp, 76]
 298 0108 E00313AA 		mov	x0, x19
 299 010c 00000094 		bl	_ZNSolsEi
 300              	.LVL20:
 301              		.loc 1 25 30 view .LVU64
 302 0110 F4230239 		strb	w20, [sp, 136]
 303              	.LVL21:
 304              	.LBB173:
 305              	.LBI173:
 517:/usr/include/c++/10/ostream ****     { return __ostream_insert(__out, &__c, 1); }
 306              		.loc 2 517 5 is_stmt 1 view .LVU65
 307              	.LBB174:
 518:/usr/include/c++/10/ostream **** 
 308              		.loc 2 518 30 is_stmt 0 view .LVU66
 309 0114 E10315AA 		mov	x1, x21
AARCH64 GAS  obj/Ch11_05.s 			page 26


 310 0118 220080D2 		mov	x2, 1
 311 011c 00000094 		bl	_ZSt16__ostream_insertIcSt11char_traitsIcEERSt13basic_ostreamIT_T0_ES6_PKS3_l
 312              	.LVL22:
 518:/usr/include/c++/10/ostream **** 
 313              		.loc 2 518 30 view .LVU67
 314              	.LBE174:
 315              	.LBE173:
  26:Ch11_05.cpp   **** 
  27:Ch11_05.cpp   ****     int64_t b0, b1, b2, b3;
 316              		.loc 1 27 5 is_stmt 1 view .LVU68
  28:Ch11_05.cpp   ****     MoveB_(b0, b1, b2, b3);
 317              		.loc 1 28 5 view .LVU69
 318              		.loc 1 28 11 is_stmt 0 view .LVU70
 319 0120 E3C30191 		add	x3, sp, 112
 320 0124 E2A30191 		add	x2, sp, 104
 321 0128 E1830191 		add	x1, sp, 96
 322 012c E0630191 		add	x0, sp, 88
 323 0130 00000094 		bl	MoveB_
 324              	.LVL23:
  29:Ch11_05.cpp   ****     cout << "\nResults for MoveB_" << nl;
 325              		.loc 1 29 5 is_stmt 1 view .LVU71
 326              	.LBB175:
 327              	.LBI175:
 606:/usr/include/c++/10/ostream ****     {
 328              		.loc 2 606 5 view .LVU72
 606:/usr/include/c++/10/ostream ****     {
 329              		.loc 2 606 5 is_stmt 0 view .LVU73
 330              	.LBE175:
 331              		.loc 3 364 2 is_stmt 1 view .LVU74
 332              	.LBB177:
 333              	.LBB176:
 334              		.loc 2 611 18 is_stmt 0 view .LVU75
 335 0134 E00313AA 		mov	x0, x19
 336 0138 620280D2 		mov	x2, 19
 337 013c 01000090 		adrp	x1, .LC5
 338 0140 21000091 		add	x1, x1, :lo12:.LC5
 339 0144 00000094 		bl	_ZSt16__ostream_insertIcSt11char_traitsIcEERSt13basic_ostreamIT_T0_ES6_PKS3_l
 340              	.LVL24:
 341              		.loc 2 611 18 view .LVU76
 342 0148 F4230239 		strb	w20, [sp, 136]
 343              	.LVL25:
 344              		.loc 2 611 18 view .LVU77
 345              	.LBE176:
 346              	.LBE177:
 347              	.LBB178:
 348              	.LBI178:
 517:/usr/include/c++/10/ostream ****     { return __ostream_insert(__out, &__c, 1); }
 349              		.loc 2 517 5 is_stmt 1 view .LVU78
 350              	.LBB179:
 518:/usr/include/c++/10/ostream **** 
 351              		.loc 2 518 30 is_stmt 0 view .LVU79
 352 014c E10315AA 		mov	x1, x21
 353 0150 E00313AA 		mov	x0, x19
 354 0154 220080D2 		mov	x2, 1
 355 0158 00000094 		bl	_ZSt16__ostream_insertIcSt11char_traitsIcEERSt13basic_ostreamIT_T0_ES6_PKS3_l
 356              	.LVL26:
 518:/usr/include/c++/10/ostream **** 
AARCH64 GAS  obj/Ch11_05.s 			page 27


 357              		.loc 2 518 30 view .LVU80
 358              	.LBE179:
 359              	.LBE178:
  30:Ch11_05.cpp   ****     cout << "b0 = " << b0 << nl;
 360              		.loc 1 30 5 is_stmt 1 view .LVU81
 361              	.LBB180:
 362              	.LBI180:
 606:/usr/include/c++/10/ostream ****     {
 363              		.loc 2 606 5 view .LVU82
 606:/usr/include/c++/10/ostream ****     {
 364              		.loc 2 606 5 is_stmt 0 view .LVU83
 365              	.LBE180:
 366              		.loc 3 364 2 is_stmt 1 view .LVU84
 367              	.LBB182:
 368              	.LBB181:
 369              		.loc 2 611 18 is_stmt 0 view .LVU85
 370 015c A20080D2 		mov	x2, 5
 371 0160 E00313AA 		mov	x0, x19
 372 0164 01000090 		adrp	x1, .LC6
 373 0168 21000091 		add	x1, x1, :lo12:.LC6
 374 016c 00000094 		bl	_ZSt16__ostream_insertIcSt11char_traitsIcEERSt13basic_ostreamIT_T0_ES6_PKS3_l
 375              	.LVL27:
 376              		.loc 2 611 18 view .LVU86
 377              	.LBE181:
 378              	.LBE182:
 379              	.LBB183:
 380              	.LBI183:
 166:/usr/include/c++/10/ostream ****       { return _M_insert(__n); }
 381              		.loc 2 166 7 is_stmt 1 view .LVU87
 382              	.LBB184:
 167:/usr/include/c++/10/ostream **** 
 383              		.loc 2 167 25 is_stmt 0 view .LVU88
 384 0170 E12F40F9 		ldr	x1, [sp, 88]
 385 0174 E00313AA 		mov	x0, x19
 386 0178 00000094 		bl	_ZNSo9_M_insertIlEERSoT_
 387              	.LVL28:
 167:/usr/include/c++/10/ostream **** 
 388              		.loc 2 167 25 view .LVU89
 389 017c F4230239 		strb	w20, [sp, 136]
 390              	.LVL29:
 167:/usr/include/c++/10/ostream **** 
 391              		.loc 2 167 25 view .LVU90
 392              	.LBE184:
 393              	.LBE183:
 394              	.LBB185:
 395              	.LBI185:
 517:/usr/include/c++/10/ostream ****     { return __ostream_insert(__out, &__c, 1); }
 396              		.loc 2 517 5 is_stmt 1 view .LVU91
 397              	.LBB186:
 518:/usr/include/c++/10/ostream **** 
 398              		.loc 2 518 30 is_stmt 0 view .LVU92
 399 0180 E10315AA 		mov	x1, x21
 400 0184 220080D2 		mov	x2, 1
 401 0188 00000094 		bl	_ZSt16__ostream_insertIcSt11char_traitsIcEERSt13basic_ostreamIT_T0_ES6_PKS3_l
 402              	.LVL30:
 518:/usr/include/c++/10/ostream **** 
 403              		.loc 2 518 30 view .LVU93
AARCH64 GAS  obj/Ch11_05.s 			page 28


 404              	.LBE186:
 405              	.LBE185:
  31:Ch11_05.cpp   ****     cout << "b1 = " << b1 << nl;
 406              		.loc 1 31 5 is_stmt 1 view .LVU94
 407              	.LBB187:
 408              	.LBI187:
 606:/usr/include/c++/10/ostream ****     {
 409              		.loc 2 606 5 view .LVU95
 606:/usr/include/c++/10/ostream ****     {
 410              		.loc 2 606 5 is_stmt 0 view .LVU96
 411              	.LBE187:
 412              		.loc 3 364 2 is_stmt 1 view .LVU97
 413              	.LBB189:
 414              	.LBB188:
 415              		.loc 2 611 18 is_stmt 0 view .LVU98
 416 018c A20080D2 		mov	x2, 5
 417 0190 E00313AA 		mov	x0, x19
 418 0194 01000090 		adrp	x1, .LC7
 419 0198 21000091 		add	x1, x1, :lo12:.LC7
 420 019c 00000094 		bl	_ZSt16__ostream_insertIcSt11char_traitsIcEERSt13basic_ostreamIT_T0_ES6_PKS3_l
 421              	.LVL31:
 422              		.loc 2 611 18 view .LVU99
 423              	.LBE188:
 424              	.LBE189:
 425              	.LBB190:
 426              	.LBI190:
 166:/usr/include/c++/10/ostream ****       { return _M_insert(__n); }
 427              		.loc 2 166 7 is_stmt 1 view .LVU100
 428              	.LBB191:
 167:/usr/include/c++/10/ostream **** 
 429              		.loc 2 167 25 is_stmt 0 view .LVU101
 430 01a0 E13340F9 		ldr	x1, [sp, 96]
 431 01a4 E00313AA 		mov	x0, x19
 432 01a8 00000094 		bl	_ZNSo9_M_insertIlEERSoT_
 433              	.LVL32:
 167:/usr/include/c++/10/ostream **** 
 434              		.loc 2 167 25 view .LVU102
 435 01ac F4230239 		strb	w20, [sp, 136]
 436              	.LVL33:
 167:/usr/include/c++/10/ostream **** 
 437              		.loc 2 167 25 view .LVU103
 438              	.LBE191:
 439              	.LBE190:
 440              	.LBB192:
 441              	.LBI192:
 517:/usr/include/c++/10/ostream ****     { return __ostream_insert(__out, &__c, 1); }
 442              		.loc 2 517 5 is_stmt 1 view .LVU104
 443              	.LBB193:
 518:/usr/include/c++/10/ostream **** 
 444              		.loc 2 518 30 is_stmt 0 view .LVU105
 445 01b0 E10315AA 		mov	x1, x21
 446 01b4 220080D2 		mov	x2, 1
 447 01b8 00000094 		bl	_ZSt16__ostream_insertIcSt11char_traitsIcEERSt13basic_ostreamIT_T0_ES6_PKS3_l
 448              	.LVL34:
 518:/usr/include/c++/10/ostream **** 
 449              		.loc 2 518 30 view .LVU106
 450              	.LBE193:
AARCH64 GAS  obj/Ch11_05.s 			page 29


 451              	.LBE192:
  32:Ch11_05.cpp   ****     cout << "b2 = " << b2 << nl;
 452              		.loc 1 32 5 is_stmt 1 view .LVU107
 453              	.LBB194:
 454              	.LBI194:
 606:/usr/include/c++/10/ostream ****     {
 455              		.loc 2 606 5 view .LVU108
 606:/usr/include/c++/10/ostream ****     {
 456              		.loc 2 606 5 is_stmt 0 view .LVU109
 457              	.LBE194:
 458              		.loc 3 364 2 is_stmt 1 view .LVU110
 459              	.LBB196:
 460              	.LBB195:
 461              		.loc 2 611 18 is_stmt 0 view .LVU111
 462 01bc A20080D2 		mov	x2, 5
 463 01c0 E00313AA 		mov	x0, x19
 464 01c4 01000090 		adrp	x1, .LC8
 465 01c8 21000091 		add	x1, x1, :lo12:.LC8
 466 01cc 00000094 		bl	_ZSt16__ostream_insertIcSt11char_traitsIcEERSt13basic_ostreamIT_T0_ES6_PKS3_l
 467              	.LVL35:
 468              		.loc 2 611 18 view .LVU112
 469              	.LBE195:
 470              	.LBE196:
 471              	.LBB197:
 472              	.LBI197:
 166:/usr/include/c++/10/ostream ****       { return _M_insert(__n); }
 473              		.loc 2 166 7 is_stmt 1 view .LVU113
 474              	.LBB198:
 167:/usr/include/c++/10/ostream **** 
 475              		.loc 2 167 25 is_stmt 0 view .LVU114
 476 01d0 E13740F9 		ldr	x1, [sp, 104]
 477 01d4 E00313AA 		mov	x0, x19
 478 01d8 00000094 		bl	_ZNSo9_M_insertIlEERSoT_
 479              	.LVL36:
 167:/usr/include/c++/10/ostream **** 
 480              		.loc 2 167 25 view .LVU115
 481 01dc F4230239 		strb	w20, [sp, 136]
 482              	.LVL37:
 167:/usr/include/c++/10/ostream **** 
 483              		.loc 2 167 25 view .LVU116
 484              	.LBE198:
 485              	.LBE197:
 486              	.LBB199:
 487              	.LBI199:
 517:/usr/include/c++/10/ostream ****     { return __ostream_insert(__out, &__c, 1); }
 488              		.loc 2 517 5 is_stmt 1 view .LVU117
 489              	.LBB200:
 518:/usr/include/c++/10/ostream **** 
 490              		.loc 2 518 30 is_stmt 0 view .LVU118
 491 01e0 E10315AA 		mov	x1, x21
 492 01e4 220080D2 		mov	x2, 1
 493 01e8 00000094 		bl	_ZSt16__ostream_insertIcSt11char_traitsIcEERSt13basic_ostreamIT_T0_ES6_PKS3_l
 494              	.LVL38:
 518:/usr/include/c++/10/ostream **** 
 495              		.loc 2 518 30 view .LVU119
 496              	.LBE200:
 497              	.LBE199:
AARCH64 GAS  obj/Ch11_05.s 			page 30


  33:Ch11_05.cpp   ****     cout << "b3 = " << b3 << nl;
 498              		.loc 1 33 5 is_stmt 1 view .LVU120
 499              	.LBB201:
 500              	.LBI201:
 606:/usr/include/c++/10/ostream ****     {
 501              		.loc 2 606 5 view .LVU121
 606:/usr/include/c++/10/ostream ****     {
 502              		.loc 2 606 5 is_stmt 0 view .LVU122
 503              	.LBE201:
 504              		.loc 3 364 2 is_stmt 1 view .LVU123
 505              	.LBB203:
 506              	.LBB202:
 507              		.loc 2 611 18 is_stmt 0 view .LVU124
 508 01ec A20080D2 		mov	x2, 5
 509 01f0 E00313AA 		mov	x0, x19
 510 01f4 01000090 		adrp	x1, .LC9
 511 01f8 21000091 		add	x1, x1, :lo12:.LC9
 512 01fc 00000094 		bl	_ZSt16__ostream_insertIcSt11char_traitsIcEERSt13basic_ostreamIT_T0_ES6_PKS3_l
 513              	.LVL39:
 514              		.loc 2 611 18 view .LVU125
 515              	.LBE202:
 516              	.LBE203:
 517              	.LBB204:
 518              	.LBI204:
 166:/usr/include/c++/10/ostream ****       { return _M_insert(__n); }
 519              		.loc 2 166 7 is_stmt 1 view .LVU126
 520              	.LBB205:
 167:/usr/include/c++/10/ostream **** 
 521              		.loc 2 167 25 is_stmt 0 view .LVU127
 522 0200 E13B40F9 		ldr	x1, [sp, 112]
 523 0204 E00313AA 		mov	x0, x19
 524 0208 00000094 		bl	_ZNSo9_M_insertIlEERSoT_
 525              	.LVL40:
 167:/usr/include/c++/10/ostream **** 
 526              		.loc 2 167 25 view .LVU128
 527 020c F4230239 		strb	w20, [sp, 136]
 528              	.LVL41:
 167:/usr/include/c++/10/ostream **** 
 529              		.loc 2 167 25 view .LVU129
 530              	.LBE205:
 531              	.LBE204:
 532              	.LBB206:
 533              	.LBI206:
 517:/usr/include/c++/10/ostream ****     { return __ostream_insert(__out, &__c, 1); }
 534              		.loc 2 517 5 is_stmt 1 view .LVU130
 535              	.LBB207:
 518:/usr/include/c++/10/ostream **** 
 536              		.loc 2 518 30 is_stmt 0 view .LVU131
 537 0210 220080D2 		mov	x2, 1
 538 0214 E10315AA 		mov	x1, x21
 539 0218 00000094 		bl	_ZSt16__ostream_insertIcSt11char_traitsIcEERSt13basic_ostreamIT_T0_ES6_PKS3_l
 540              	.LVL42:
 518:/usr/include/c++/10/ostream **** 
 541              		.loc 2 518 30 view .LVU132
 542              	.LBE207:
 543              	.LBE206:
  34:Ch11_05.cpp   **** 
AARCH64 GAS  obj/Ch11_05.s 			page 31


  35:Ch11_05.cpp   ****     int32_t c0, c1;
 544              		.loc 1 35 5 is_stmt 1 view .LVU133
  36:Ch11_05.cpp   ****     MoveC_(c0, c1);
 545              		.loc 1 36 5 view .LVU134
 546              		.loc 1 36 11 is_stmt 0 view .LVU135
 547 021c E1530191 		add	x1, sp, 84
 548 0220 E0430191 		add	x0, sp, 80
 549 0224 00000094 		bl	MoveC_
 550              	.LVL43:
  37:Ch11_05.cpp   ****     cout << "\nResults for MoveC_" << nl;
 551              		.loc 1 37 5 is_stmt 1 view .LVU136
 552              	.LBB208:
 553              	.LBI208:
 606:/usr/include/c++/10/ostream ****     {
 554              		.loc 2 606 5 view .LVU137
 606:/usr/include/c++/10/ostream ****     {
 555              		.loc 2 606 5 is_stmt 0 view .LVU138
 556              	.LBE208:
 557              		.loc 3 364 2 is_stmt 1 view .LVU139
 558              	.LBB210:
 559              	.LBB209:
 560              		.loc 2 611 18 is_stmt 0 view .LVU140
 561 0228 E00313AA 		mov	x0, x19
 562 022c 620280D2 		mov	x2, 19
 563 0230 01000090 		adrp	x1, .LC10
 564 0234 21000091 		add	x1, x1, :lo12:.LC10
 565 0238 00000094 		bl	_ZSt16__ostream_insertIcSt11char_traitsIcEERSt13basic_ostreamIT_T0_ES6_PKS3_l
 566              	.LVL44:
 567              		.loc 2 611 18 view .LVU141
 568 023c F4230239 		strb	w20, [sp, 136]
 569              	.LVL45:
 570              		.loc 2 611 18 view .LVU142
 571              	.LBE209:
 572              	.LBE210:
 573              	.LBB211:
 574              	.LBI211:
 517:/usr/include/c++/10/ostream ****     { return __ostream_insert(__out, &__c, 1); }
 575              		.loc 2 517 5 is_stmt 1 view .LVU143
 576              	.LBB212:
 518:/usr/include/c++/10/ostream **** 
 577              		.loc 2 518 30 is_stmt 0 view .LVU144
 578 0240 E10315AA 		mov	x1, x21
 579 0244 E00313AA 		mov	x0, x19
 580 0248 220080D2 		mov	x2, 1
 581 024c 00000094 		bl	_ZSt16__ostream_insertIcSt11char_traitsIcEERSt13basic_ostreamIT_T0_ES6_PKS3_l
 582              	.LVL46:
 518:/usr/include/c++/10/ostream **** 
 583              		.loc 2 518 30 view .LVU145
 584              	.LBE212:
 585              	.LBE211:
  38:Ch11_05.cpp   ****     cout << "c0 = " << c0 << nl;
 586              		.loc 1 38 5 is_stmt 1 view .LVU146
 587              	.LBB213:
 588              	.LBI213:
 606:/usr/include/c++/10/ostream ****     {
 589              		.loc 2 606 5 view .LVU147
 606:/usr/include/c++/10/ostream ****     {
AARCH64 GAS  obj/Ch11_05.s 			page 32


 590              		.loc 2 606 5 is_stmt 0 view .LVU148
 591              	.LBE213:
 592              		.loc 3 364 2 is_stmt 1 view .LVU149
 593              	.LBB215:
 594              	.LBB214:
 595              		.loc 2 611 18 is_stmt 0 view .LVU150
 596 0250 A20080D2 		mov	x2, 5
 597 0254 E00313AA 		mov	x0, x19
 598 0258 01000090 		adrp	x1, .LC11
 599 025c 21000091 		add	x1, x1, :lo12:.LC11
 600 0260 00000094 		bl	_ZSt16__ostream_insertIcSt11char_traitsIcEERSt13basic_ostreamIT_T0_ES6_PKS3_l
 601              	.LVL47:
 602              		.loc 2 611 18 view .LVU151
 603              	.LBE214:
 604              	.LBE215:
 605              		.loc 1 38 30 view .LVU152
 606 0264 E15340B9 		ldr	w1, [sp, 80]
 607 0268 E00313AA 		mov	x0, x19
 608 026c 00000094 		bl	_ZNSolsEi
 609              	.LVL48:
 610              		.loc 1 38 30 view .LVU153
 611 0270 F4230239 		strb	w20, [sp, 136]
 612              	.LVL49:
 613              	.LBB216:
 614              	.LBI216:
 517:/usr/include/c++/10/ostream ****     { return __ostream_insert(__out, &__c, 1); }
 615              		.loc 2 517 5 is_stmt 1 view .LVU154
 616              	.LBB217:
 518:/usr/include/c++/10/ostream **** 
 617              		.loc 2 518 30 is_stmt 0 view .LVU155
 618 0274 E10315AA 		mov	x1, x21
 619 0278 220080D2 		mov	x2, 1
 620 027c 00000094 		bl	_ZSt16__ostream_insertIcSt11char_traitsIcEERSt13basic_ostreamIT_T0_ES6_PKS3_l
 621              	.LVL50:
 518:/usr/include/c++/10/ostream **** 
 622              		.loc 2 518 30 view .LVU156
 623              	.LBE217:
 624              	.LBE216:
  39:Ch11_05.cpp   ****     cout << "c1 = " << c1 << nl;
 625              		.loc 1 39 5 is_stmt 1 view .LVU157
 626              	.LBB218:
 627              	.LBI218:
 606:/usr/include/c++/10/ostream ****     {
 628              		.loc 2 606 5 view .LVU158
 606:/usr/include/c++/10/ostream ****     {
 629              		.loc 2 606 5 is_stmt 0 view .LVU159
 630              	.LBE218:
 631              		.loc 3 364 2 is_stmt 1 view .LVU160
 632              	.LBB220:
 633              	.LBB219:
 634              		.loc 2 611 18 is_stmt 0 view .LVU161
 635 0280 A20080D2 		mov	x2, 5
 636 0284 E00313AA 		mov	x0, x19
 637 0288 01000090 		adrp	x1, .LC12
 638 028c 21000091 		add	x1, x1, :lo12:.LC12
 639 0290 00000094 		bl	_ZSt16__ostream_insertIcSt11char_traitsIcEERSt13basic_ostreamIT_T0_ES6_PKS3_l
 640              	.LVL51:
AARCH64 GAS  obj/Ch11_05.s 			page 33


 641              		.loc 2 611 18 view .LVU162
 642              	.LBE219:
 643              	.LBE220:
 644              		.loc 1 39 30 view .LVU163
 645 0294 E15740B9 		ldr	w1, [sp, 84]
 646 0298 E00313AA 		mov	x0, x19
 647 029c 00000094 		bl	_ZNSolsEi
 648              	.LVL52:
 649              		.loc 1 39 30 view .LVU164
 650 02a0 F4230239 		strb	w20, [sp, 136]
 651              	.LVL53:
 652              	.LBB221:
 653              	.LBI221:
 517:/usr/include/c++/10/ostream ****     { return __ostream_insert(__out, &__c, 1); }
 654              		.loc 2 517 5 is_stmt 1 view .LVU165
 655              	.LBB222:
 518:/usr/include/c++/10/ostream **** 
 656              		.loc 2 518 30 is_stmt 0 view .LVU166
 657 02a4 E10315AA 		mov	x1, x21
 658 02a8 220080D2 		mov	x2, 1
 659 02ac 00000094 		bl	_ZSt16__ostream_insertIcSt11char_traitsIcEERSt13basic_ostreamIT_T0_ES6_PKS3_l
 660              	.LVL54:
 518:/usr/include/c++/10/ostream **** 
 661              		.loc 2 518 30 view .LVU167
 662              	.LBE222:
 663              	.LBE221:
  40:Ch11_05.cpp   **** 
  41:Ch11_05.cpp   ****     int64_t d0, d1, d2;
 664              		.loc 1 41 5 is_stmt 1 view .LVU168
  42:Ch11_05.cpp   ****     MoveD_(d0, d1, d2);
 665              		.loc 1 42 5 view .LVU169
 666              		.loc 1 42 11 is_stmt 0 view .LVU170
 667 02b0 E20315AA 		mov	x2, x21
 668 02b4 E1030291 		add	x1, sp, 128
 669 02b8 E0E30191 		add	x0, sp, 120
 670 02bc 00000094 		bl	MoveD_
 671              	.LVL55:
  43:Ch11_05.cpp   ****     cout << "\nResults for MoveD_" << nl;
 672              		.loc 1 43 5 is_stmt 1 view .LVU171
 673              	.LBB223:
 674              	.LBI223:
 606:/usr/include/c++/10/ostream ****     {
 675              		.loc 2 606 5 view .LVU172
 606:/usr/include/c++/10/ostream ****     {
 676              		.loc 2 606 5 is_stmt 0 view .LVU173
 677              	.LBE223:
 678              		.loc 3 364 2 is_stmt 1 view .LVU174
 679              	.LBB225:
 680              	.LBB224:
 681              		.loc 2 611 18 is_stmt 0 view .LVU175
 682 02c0 E00313AA 		mov	x0, x19
 683 02c4 620280D2 		mov	x2, 19
 684 02c8 01000090 		adrp	x1, .LC13
 685 02cc 21000091 		add	x1, x1, :lo12:.LC13
 686 02d0 00000094 		bl	_ZSt16__ostream_insertIcSt11char_traitsIcEERSt13basic_ostreamIT_T0_ES6_PKS3_l
 687              	.LVL56:
 688              		.loc 2 611 18 view .LVU176
AARCH64 GAS  obj/Ch11_05.s 			page 34


 689 02d4 F4FF0039 		strb	w20, [sp, 63]
 690              	.LVL57:
 691              		.loc 2 611 18 view .LVU177
 692              	.LBE224:
 693              	.LBE225:
 694              	.LBB226:
 695              	.LBI154:
 517:/usr/include/c++/10/ostream ****     { return __ostream_insert(__out, &__c, 1); }
 696              		.loc 2 517 5 is_stmt 1 view .LVU178
 697              	.LBB156:
 518:/usr/include/c++/10/ostream **** 
 698              		.loc 2 518 30 is_stmt 0 view .LVU179
 699 02d8 E10316AA 		mov	x1, x22
 700 02dc E00313AA 		mov	x0, x19
 701 02e0 220080D2 		mov	x2, 1
 702 02e4 00000094 		bl	_ZSt16__ostream_insertIcSt11char_traitsIcEERSt13basic_ostreamIT_T0_ES6_PKS3_l
 703              	.LVL58:
 518:/usr/include/c++/10/ostream **** 
 704              		.loc 2 518 30 view .LVU180
 705              	.LBE156:
 706              	.LBE226:
  44:Ch11_05.cpp   ****     cout << "d0 = " << d0 << nl;
 707              		.loc 1 44 5 is_stmt 1 view .LVU181
 708              	.LBB227:
 709              	.LBI227:
 606:/usr/include/c++/10/ostream ****     {
 710              		.loc 2 606 5 view .LVU182
 606:/usr/include/c++/10/ostream ****     {
 711              		.loc 2 606 5 is_stmt 0 view .LVU183
 712              	.LBE227:
 713              		.loc 3 364 2 is_stmt 1 view .LVU184
 714              	.LBB229:
 715              	.LBB228:
 716              		.loc 2 611 18 is_stmt 0 view .LVU185
 717 02e8 A20080D2 		mov	x2, 5
 718 02ec E00313AA 		mov	x0, x19
 719 02f0 01000090 		adrp	x1, .LC14
 720 02f4 21000091 		add	x1, x1, :lo12:.LC14
 721 02f8 00000094 		bl	_ZSt16__ostream_insertIcSt11char_traitsIcEERSt13basic_ostreamIT_T0_ES6_PKS3_l
 722              	.LVL59:
 723              		.loc 2 611 18 view .LVU186
 724              	.LBE228:
 725              	.LBE229:
 726              	.LBB230:
 727              	.LBI230:
 166:/usr/include/c++/10/ostream ****       { return _M_insert(__n); }
 728              		.loc 2 166 7 is_stmt 1 view .LVU187
 729              	.LBB231:
 167:/usr/include/c++/10/ostream **** 
 730              		.loc 2 167 25 is_stmt 0 view .LVU188
 731 02fc E13F40F9 		ldr	x1, [sp, 120]
 732 0300 E00313AA 		mov	x0, x19
 733 0304 00000094 		bl	_ZNSo9_M_insertIlEERSoT_
 734              	.LVL60:
 167:/usr/include/c++/10/ostream **** 
 735              		.loc 2 167 25 view .LVU189
 736 0308 F4FF0039 		strb	w20, [sp, 63]
AARCH64 GAS  obj/Ch11_05.s 			page 35


 737              	.LVL61:
 167:/usr/include/c++/10/ostream **** 
 738              		.loc 2 167 25 view .LVU190
 739              	.LBE231:
 740              	.LBE230:
 741              	.LBB232:
 742              	.LBI232:
 517:/usr/include/c++/10/ostream ****     { return __ostream_insert(__out, &__c, 1); }
 743              		.loc 2 517 5 is_stmt 1 view .LVU191
 744              	.LBB233:
 518:/usr/include/c++/10/ostream **** 
 745              		.loc 2 518 30 is_stmt 0 view .LVU192
 746 030c E10316AA 		mov	x1, x22
 747 0310 220080D2 		mov	x2, 1
 748 0314 00000094 		bl	_ZSt16__ostream_insertIcSt11char_traitsIcEERSt13basic_ostreamIT_T0_ES6_PKS3_l
 749              	.LVL62:
 518:/usr/include/c++/10/ostream **** 
 750              		.loc 2 518 30 view .LVU193
 751              	.LBE233:
 752              	.LBE232:
  45:Ch11_05.cpp   ****     cout << "d1 = " << d1 << nl;
 753              		.loc 1 45 5 is_stmt 1 view .LVU194
 754              	.LBB234:
 755              	.LBI234:
 606:/usr/include/c++/10/ostream ****     {
 756              		.loc 2 606 5 view .LVU195
 606:/usr/include/c++/10/ostream ****     {
 757              		.loc 2 606 5 is_stmt 0 view .LVU196
 758              	.LBE234:
 759              		.loc 3 364 2 is_stmt 1 view .LVU197
 760              	.LBB236:
 761              	.LBB235:
 762              		.loc 2 611 18 is_stmt 0 view .LVU198
 763 0318 A20080D2 		mov	x2, 5
 764 031c E00313AA 		mov	x0, x19
 765 0320 01000090 		adrp	x1, .LC15
 766 0324 21000091 		add	x1, x1, :lo12:.LC15
 767 0328 00000094 		bl	_ZSt16__ostream_insertIcSt11char_traitsIcEERSt13basic_ostreamIT_T0_ES6_PKS3_l
 768              	.LVL63:
 769              		.loc 2 611 18 view .LVU199
 770              	.LBE235:
 771              	.LBE236:
 772              	.LBB237:
 773              	.LBI237:
 166:/usr/include/c++/10/ostream ****       { return _M_insert(__n); }
 774              		.loc 2 166 7 is_stmt 1 view .LVU200
 775              	.LBB238:
 167:/usr/include/c++/10/ostream **** 
 776              		.loc 2 167 25 is_stmt 0 view .LVU201
 777 032c E14340F9 		ldr	x1, [sp, 128]
 778 0330 E00313AA 		mov	x0, x19
 779 0334 00000094 		bl	_ZNSo9_M_insertIlEERSoT_
 780              	.LVL64:
 167:/usr/include/c++/10/ostream **** 
 781              		.loc 2 167 25 view .LVU202
 782 0338 F4FF0039 		strb	w20, [sp, 63]
 783              	.LVL65:
AARCH64 GAS  obj/Ch11_05.s 			page 36


 167:/usr/include/c++/10/ostream **** 
 784              		.loc 2 167 25 view .LVU203
 785              	.LBE238:
 786              	.LBE237:
 787              	.LBB239:
 788              	.LBI239:
 517:/usr/include/c++/10/ostream ****     { return __ostream_insert(__out, &__c, 1); }
 789              		.loc 2 517 5 is_stmt 1 view .LVU204
 790              	.LBB240:
 518:/usr/include/c++/10/ostream **** 
 791              		.loc 2 518 30 is_stmt 0 view .LVU205
 792 033c E10316AA 		mov	x1, x22
 793 0340 220080D2 		mov	x2, 1
 794 0344 00000094 		bl	_ZSt16__ostream_insertIcSt11char_traitsIcEERSt13basic_ostreamIT_T0_ES6_PKS3_l
 795              	.LVL66:
 518:/usr/include/c++/10/ostream **** 
 796              		.loc 2 518 30 view .LVU206
 797              	.LBE240:
 798              	.LBE239:
  46:Ch11_05.cpp   ****     cout << "d2 = " << d2 << nl;
 799              		.loc 1 46 5 is_stmt 1 view .LVU207
 800              	.LBB241:
 801              	.LBI241:
 606:/usr/include/c++/10/ostream ****     {
 802              		.loc 2 606 5 view .LVU208
 606:/usr/include/c++/10/ostream ****     {
 803              		.loc 2 606 5 is_stmt 0 view .LVU209
 804              	.LBE241:
 805              		.loc 3 364 2 is_stmt 1 view .LVU210
 806              	.LBB243:
 807              	.LBB242:
 808              		.loc 2 611 18 is_stmt 0 view .LVU211
 809 0348 A20080D2 		mov	x2, 5
 810 034c E00313AA 		mov	x0, x19
 811 0350 01000090 		adrp	x1, .LC16
 812 0354 21000091 		add	x1, x1, :lo12:.LC16
 813 0358 00000094 		bl	_ZSt16__ostream_insertIcSt11char_traitsIcEERSt13basic_ostreamIT_T0_ES6_PKS3_l
 814              	.LVL67:
 815              		.loc 2 611 18 view .LVU212
 816              	.LBE242:
 817              	.LBE243:
 818              	.LBB244:
 819              	.LBI244:
 166:/usr/include/c++/10/ostream ****       { return _M_insert(__n); }
 820              		.loc 2 166 7 is_stmt 1 view .LVU213
 821              	.LBB245:
 167:/usr/include/c++/10/ostream **** 
 822              		.loc 2 167 25 is_stmt 0 view .LVU214
 823 035c E14740F9 		ldr	x1, [sp, 136]
 824 0360 E00313AA 		mov	x0, x19
 825 0364 00000094 		bl	_ZNSo9_M_insertIlEERSoT_
 826              	.LVL68:
 167:/usr/include/c++/10/ostream **** 
 827              		.loc 2 167 25 view .LVU215
 828 0368 F4FF0039 		strb	w20, [sp, 63]
 829              	.LVL69:
 167:/usr/include/c++/10/ostream **** 
AARCH64 GAS  obj/Ch11_05.s 			page 37


 830              		.loc 2 167 25 view .LVU216
 831              	.LBE245:
 832              	.LBE244:
 833              	.LBB246:
 834              	.LBI246:
 517:/usr/include/c++/10/ostream ****     { return __ostream_insert(__out, &__c, 1); }
 835              		.loc 2 517 5 is_stmt 1 view .LVU217
 836              	.LBB247:
 518:/usr/include/c++/10/ostream **** 
 837              		.loc 2 518 30 is_stmt 0 view .LVU218
 838 036c E10316AA 		mov	x1, x22
 839 0370 220080D2 		mov	x2, 1
 840 0374 00000094 		bl	_ZSt16__ostream_insertIcSt11char_traitsIcEERSt13basic_ostreamIT_T0_ES6_PKS3_l
 841              	.LVL70:
 518:/usr/include/c++/10/ostream **** 
 842              		.loc 2 518 30 view .LVU219
 843              	.LBE247:
 844              	.LBE246:
  47:Ch11_05.cpp   **** 
  48:Ch11_05.cpp   ****     return 0;
 845              		.loc 1 48 5 is_stmt 1 view .LVU220
  49:Ch11_05.cpp   **** }
 846              		.loc 1 49 1 is_stmt 0 view .LVU221
 847 0378 00008052 		mov	w0, 0
 848 037c F35341A9 		ldp	x19, x20, [sp, 16]
 849 0380 F55B42A9 		ldp	x21, x22, [sp, 32]
 850 0384 FD7BC9A8 		ldp	x29, x30, [sp], 144
 851              		.cfi_restore 30
 852              		.cfi_restore 29
 853              		.cfi_restore 21
 854              		.cfi_restore 22
 855              		.cfi_restore 19
 856              		.cfi_restore 20
 857              		.cfi_def_cfa_offset 0
 858 0388 C0035FD6 		ret
 859              		.cfi_endproc
 860              	.LFE1587:
 861              		.size	main, .-main
 862              		.align	2
 863 038c 1F2003D5 		.p2align 4,,11
 864              		.type	_GLOBAL__sub_I_main, %function
 865              	_GLOBAL__sub_I_main:
 866              	.LFB2085:
 867              		.loc 1 49 1 is_stmt 1 view -0
 868              		.cfi_startproc
 869              	.LVL71:
 870              	.LBB248:
 871              	.LBI248:
 872              		.loc 1 49 1 view .LVU223
 873              	.LBE248:
 874 0390 FD7BBEA9 		stp	x29, x30, [sp, -32]!
 875              		.cfi_def_cfa_offset 32
 876              		.cfi_offset 29, -32
 877              		.cfi_offset 30, -24
 878 0394 FD030091 		mov	x29, sp
 879 0398 F30B00F9 		str	x19, [sp, 16]
 880              		.cfi_offset 19, -16
AARCH64 GAS  obj/Ch11_05.s 			page 38


 881              	.LBB252:
 882              	.LBB249:
 883              		.file 4 "/usr/include/c++/10/iostream"
   1:/usr/include/c++/10/iostream **** // Standard iostream objects -*- C++ -*-
   2:/usr/include/c++/10/iostream **** 
   3:/usr/include/c++/10/iostream **** // Copyright (C) 1997-2020 Free Software Foundation, Inc.
   4:/usr/include/c++/10/iostream **** //
   5:/usr/include/c++/10/iostream **** // This file is part of the GNU ISO C++ Library.  This library is free
   6:/usr/include/c++/10/iostream **** // software; you can redistribute it and/or modify it under the
   7:/usr/include/c++/10/iostream **** // terms of the GNU General Public License as published by the
   8:/usr/include/c++/10/iostream **** // Free Software Foundation; either version 3, or (at your option)
   9:/usr/include/c++/10/iostream **** // any later version.
  10:/usr/include/c++/10/iostream **** 
  11:/usr/include/c++/10/iostream **** // This library is distributed in the hope that it will be useful,
  12:/usr/include/c++/10/iostream **** // but WITHOUT ANY WARRANTY; without even the implied warranty of
  13:/usr/include/c++/10/iostream **** // MERCHANTABILITY or FITNESS FOR A PARTICULAR PURPOSE.  See the
  14:/usr/include/c++/10/iostream **** // GNU General Public License for more details.
  15:/usr/include/c++/10/iostream **** 
  16:/usr/include/c++/10/iostream **** // Under Section 7 of GPL version 3, you are granted additional
  17:/usr/include/c++/10/iostream **** // permissions described in the GCC Runtime Library Exception, version
  18:/usr/include/c++/10/iostream **** // 3.1, as published by the Free Software Foundation.
  19:/usr/include/c++/10/iostream **** 
  20:/usr/include/c++/10/iostream **** // You should have received a copy of the GNU General Public License and
  21:/usr/include/c++/10/iostream **** // a copy of the GCC Runtime Library Exception along with this program;
  22:/usr/include/c++/10/iostream **** // see the files COPYING3 and COPYING.RUNTIME respectively.  If not, see
  23:/usr/include/c++/10/iostream **** // <http://www.gnu.org/licenses/>.
  24:/usr/include/c++/10/iostream **** 
  25:/usr/include/c++/10/iostream **** /** @file include/iostream
  26:/usr/include/c++/10/iostream ****  *  This is a Standard C++ Library header.
  27:/usr/include/c++/10/iostream ****  */
  28:/usr/include/c++/10/iostream **** 
  29:/usr/include/c++/10/iostream **** //
  30:/usr/include/c++/10/iostream **** // ISO C++ 14882: 27.3  Standard iostream objects
  31:/usr/include/c++/10/iostream **** //
  32:/usr/include/c++/10/iostream **** 
  33:/usr/include/c++/10/iostream **** #ifndef _GLIBCXX_IOSTREAM
  34:/usr/include/c++/10/iostream **** #define _GLIBCXX_IOSTREAM 1
  35:/usr/include/c++/10/iostream **** 
  36:/usr/include/c++/10/iostream **** #pragma GCC system_header
  37:/usr/include/c++/10/iostream **** 
  38:/usr/include/c++/10/iostream **** #include <bits/c++config.h>
  39:/usr/include/c++/10/iostream **** #include <ostream>
  40:/usr/include/c++/10/iostream **** #include <istream>
  41:/usr/include/c++/10/iostream **** 
  42:/usr/include/c++/10/iostream **** namespace std _GLIBCXX_VISIBILITY(default)
  43:/usr/include/c++/10/iostream **** {
  44:/usr/include/c++/10/iostream **** _GLIBCXX_BEGIN_NAMESPACE_VERSION
  45:/usr/include/c++/10/iostream **** 
  46:/usr/include/c++/10/iostream ****   /**
  47:/usr/include/c++/10/iostream ****    *  @name Standard Stream Objects
  48:/usr/include/c++/10/iostream ****    *
  49:/usr/include/c++/10/iostream ****    *  The &lt;iostream&gt; header declares the eight <em>standard stream
  50:/usr/include/c++/10/iostream ****    *  objects</em>.  For other declarations, see
  51:/usr/include/c++/10/iostream ****    *  http://gcc.gnu.org/onlinedocs/libstdc++/manual/io.html
  52:/usr/include/c++/10/iostream ****    *  and the @link iosfwd I/O forward declarations @endlink
  53:/usr/include/c++/10/iostream ****    *
  54:/usr/include/c++/10/iostream ****    *  They are required by default to cooperate with the global C
AARCH64 GAS  obj/Ch11_05.s 			page 39


  55:/usr/include/c++/10/iostream ****    *  library's @c FILE streams, and to be available during program
  56:/usr/include/c++/10/iostream ****    *  startup and termination. For more information, see the section of the
  57:/usr/include/c++/10/iostream ****    *  manual linked to above.
  58:/usr/include/c++/10/iostream ****   */
  59:/usr/include/c++/10/iostream ****   //@{
  60:/usr/include/c++/10/iostream ****   extern istream cin;		/// Linked to standard input
  61:/usr/include/c++/10/iostream ****   extern ostream cout;		/// Linked to standard output
  62:/usr/include/c++/10/iostream ****   extern ostream cerr;		/// Linked to standard error (unbuffered)
  63:/usr/include/c++/10/iostream ****   extern ostream clog;		/// Linked to standard error (buffered)
  64:/usr/include/c++/10/iostream **** 
  65:/usr/include/c++/10/iostream **** #ifdef _GLIBCXX_USE_WCHAR_T
  66:/usr/include/c++/10/iostream ****   extern wistream wcin;		/// Linked to standard input
  67:/usr/include/c++/10/iostream ****   extern wostream wcout;	/// Linked to standard output
  68:/usr/include/c++/10/iostream ****   extern wostream wcerr;	/// Linked to standard error (unbuffered)
  69:/usr/include/c++/10/iostream ****   extern wostream wclog;	/// Linked to standard error (buffered)
  70:/usr/include/c++/10/iostream **** #endif
  71:/usr/include/c++/10/iostream ****   //@}
  72:/usr/include/c++/10/iostream **** 
  73:/usr/include/c++/10/iostream ****   // For construction of filebuffers for cout, cin, cerr, clog et. al.
  74:/usr/include/c++/10/iostream ****   static ios_base::Init __ioinit;
 884              		.loc 4 74 25 is_stmt 0 view .LVU224
 885 039c 13000090 		adrp	x19, .LANCHOR0
 886 03a0 73020091 		add	x19, x19, :lo12:.LANCHOR0
 887 03a4 E00313AA 		mov	x0, x19
 888 03a8 00000094 		bl	_ZNSt8ios_base4InitC1Ev
 889              	.LVL72:
 890 03ac E10313AA 		mov	x1, x19
 891 03b0 00000090 		adrp	x0, :got:_ZNSt8ios_base4InitD1Ev
 892              	.LBE249:
 893              	.LBE252:
 894              		.loc 1 49 1 view .LVU225
 895 03b4 F30B40F9 		ldr	x19, [sp, 16]
 896              	.LBB253:
 897              	.LBB250:
 898              		.loc 4 74 25 view .LVU226
 899 03b8 02000090 		adrp	x2, __dso_handle
 900              	.LBE250:
 901              	.LBE253:
 902              		.loc 1 49 1 view .LVU227
 903 03bc FD7BC2A8 		ldp	x29, x30, [sp], 32
 904              		.cfi_restore 30
 905              		.cfi_restore 29
 906              		.cfi_restore 19
 907              		.cfi_def_cfa_offset 0
 908              	.LBB254:
 909              	.LBB251:
 910              		.loc 4 74 25 view .LVU228
 911 03c0 42000091 		add	x2, x2, :lo12:__dso_handle
 912 03c4 000040F9 		ldr	x0, [x0, #:got_lo12:_ZNSt8ios_base4InitD1Ev]
 913 03c8 00000014 		b	__cxa_atexit
 914              	.LVL73:
 915              	.LBE251:
 916              	.LBE254:
 917              		.cfi_endproc
 918              	.LFE2085:
 919              		.size	_GLOBAL__sub_I_main, .-_GLOBAL__sub_I_main
 920              		.section	.init_array,"aw"
AARCH64 GAS  obj/Ch11_05.s 			page 40


 921              		.align	3
 922 0000 00000000 		.xword	_GLOBAL__sub_I_main
 922      00000000 
 923              		.bss
 924              		.align	3
 925              		.set	.LANCHOR0,. + 0
 926              		.type	_ZStL8__ioinit, %object
 927              		.size	_ZStL8__ioinit, 1
 928              	_ZStL8__ioinit:
 929 0000 00       		.zero	1
 930              		.text
 931              	.Letext0:
 932              		.file 5 "/usr/include/c++/10/cwchar"
 933              		.file 6 "/usr/include/c++/10/bits/exception_ptr.h"
 934              		.file 7 "/usr/include/aarch64-linux-gnu/c++/10/bits/c++config.h"
 935              		.file 8 "/usr/include/c++/10/bits/stl_pair.h"
 936              		.file 9 "/usr/include/c++/10/type_traits"
 937              		.file 10 "/usr/include/c++/10/debug/debug.h"
 938              		.file 11 "/usr/include/c++/10/cstdint"
 939              		.file 12 "/usr/include/c++/10/clocale"
 940              		.file 13 "/usr/include/c++/10/cstdlib"
 941              		.file 14 "/usr/include/c++/10/cstdio"
 942              		.file 15 "/usr/include/c++/10/bits/basic_string.h"
 943              		.file 16 "/usr/include/c++/10/system_error"
 944              		.file 17 "/usr/include/c++/10/bits/ios_base.h"
 945              		.file 18 "/usr/include/c++/10/cwctype"
 946              		.file 19 "/usr/include/c++/10/bits/ostream.tcc"
 947              		.file 20 "/usr/include/c++/10/iosfwd"
 948              		.file 21 "/usr/include/c++/10/bits/basic_ios.h"
 949              		.file 22 "/usr/include/c++/10/bits/ostream_insert.h"
 950              		.file 23 "/usr/include/c++/10/bits/predefined_ops.h"
 951              		.file 24 "/usr/lib/gcc/aarch64-linux-gnu/10/include/stddef.h"
 952              		.file 25 "/usr/lib/gcc/aarch64-linux-gnu/10/include/stdarg.h"
 953              		.file 26 "/usr/include/aarch64-linux-gnu/bits/types/wint_t.h"
 954              		.file 27 "/usr/include/aarch64-linux-gnu/bits/types/__mbstate_t.h"
 955              		.file 28 "/usr/include/aarch64-linux-gnu/bits/types/mbstate_t.h"
 956              		.file 29 "/usr/include/aarch64-linux-gnu/bits/types/__FILE.h"
 957              		.file 30 "/usr/include/aarch64-linux-gnu/bits/types/struct_FILE.h"
 958              		.file 31 "/usr/include/aarch64-linux-gnu/bits/types/FILE.h"
 959              		.file 32 "/usr/include/wchar.h"
 960              		.file 33 "/usr/include/aarch64-linux-gnu/bits/types/struct_tm.h"
 961              		.file 34 "/usr/include/aarch64-linux-gnu/bits/types.h"
 962              		.file 35 "/usr/include/aarch64-linux-gnu/bits/stdint-intn.h"
 963              		.file 36 "/usr/include/aarch64-linux-gnu/bits/stdint-uintn.h"
 964              		.file 37 "/usr/include/stdint.h"
 965              		.file 38 "/usr/include/locale.h"
 966              		.file 39 "/usr/include/aarch64-linux-gnu/c++/10/bits/atomic_word.h"
 967              		.file 40 "/usr/include/stdlib.h"
 968              		.file 41 "/usr/include/aarch64-linux-gnu/bits/stdlib-float.h"
 969              		.file 42 "/usr/include/aarch64-linux-gnu/bits/stdlib-bsearch.h"
 970              		.file 43 "/usr/include/aarch64-linux-gnu/bits/types/__fpos_t.h"
 971              		.file 44 "/usr/include/stdio.h"
 972              		.file 45 "/usr/include/aarch64-linux-gnu/bits/stdio.h"
 973              		.file 46 "/usr/include/aarch64-linux-gnu/bits/wctype-wchar.h"
 974              		.file 47 "/usr/include/wctype.h"
 975              		.file 48 "<built-in>"
 10885              		.section	.note.GNU-stack,"",@progbits
