AARCH64 GAS  obj/Ch11_01.s 			page 1


 GNU assembler version 2.35.2 (aarch64-linux-gnu)
	 using BFD version (GNU Binutils for Debian) 2.35.2.
 options passed	: -I -I -EL -march=armv8-a+simd -mabi=lp64 -aghl=obj/Ch11_01.lst 
 input file    	: obj/Ch11_01.s
 output file   	: obj/Ch11_01.o
 target        	: aarch64-unknown-linux-gnu
 time stamp    	: 2022-07-19T02:08:41.000-0400

AARCH64 GAS  obj/Ch11_01.s 			page 2


   1              		.arch armv8-a
   2              		.file	"Ch11_01.cpp"
   3              		.text
   4              	.Ltext0:
   5              		.section	.rodata.str1.8,"aMS",@progbits,1
   6              		.align	3
   7              	.LC0:
   8 0000 496E7465 		.string	"IntegerAddSubA_"
   8      67657241 
   8      64645375 
   8      62415F00 
   9              		.align	3
  10              	.LC1:
  11 0010 61203D20 		.string	"a = "
  11      00
  12 0015 000000   		.align	3
  13              	.LC2:
  14 0018 62203D20 		.string	"b = "
  14      00
  15 001d 000000   		.align	3
  16              	.LC3:
  17 0020 63203D20 		.string	"c = "
  17      00
  18 0025 000000   		.align	3
  19              	.LC4:
  20 0028 72657375 		.string	"result (a + b - c) = "
  20      6C742028 
  20      61202B20 
  20      62202D20 
  20      6329203D 
  21 003e 0000     		.align	3
  22              	.LC5:
  23 0040 496E7465 		.string	"IntegerAddSubB_"
  23      67657241 
  23      64645375 
  23      62425F00 
  24              		.section	.text.startup,"ax",@progbits
  25              		.align	2
  26              		.p2align 4,,11
  27              		.global	main
  28              		.type	main, %function
  29              	main:
  30              	.LVL0:
  31              	.LFB1588:
  32              		.file 1 "Ch11_01.cpp"
   1:Ch11_01.cpp   **** //-------------------------------------------------
   2:Ch11_01.cpp   **** //               Ch11_01.cpp
   3:Ch11_01.cpp   **** //-------------------------------------------------
   4:Ch11_01.cpp   **** 
   5:Ch11_01.cpp   **** #include <iostream>
   6:Ch11_01.cpp   **** 
   7:Ch11_01.cpp   **** using namespace std;
   8:Ch11_01.cpp   **** 
   9:Ch11_01.cpp   **** extern "C" int IntegerAddSubA_(int a, int b, int c);
  10:Ch11_01.cpp   **** extern "C" long IntegerAddSubB_(long a, long b, long c);
  11:Ch11_01.cpp   **** 
  12:Ch11_01.cpp   **** template <typename T>
AARCH64 GAS  obj/Ch11_01.s 			page 3


  13:Ch11_01.cpp   **** void PrintResult(const char* msg, T a, T b, T c, T result)
  14:Ch11_01.cpp   **** {
  15:Ch11_01.cpp   ****     const char nl = '\n';
  16:Ch11_01.cpp   **** 
  17:Ch11_01.cpp   ****     cout << msg << nl;
  18:Ch11_01.cpp   ****     cout << "a = " << a << nl;
  19:Ch11_01.cpp   ****     cout << "b = " << b << nl;
  20:Ch11_01.cpp   ****     cout << "c = " << c << nl;
  21:Ch11_01.cpp   ****     cout << "result (a + b - c) = " << result << nl;
  22:Ch11_01.cpp   ****     cout << nl;
  23:Ch11_01.cpp   **** }
  24:Ch11_01.cpp   **** 
  25:Ch11_01.cpp   **** int main(int argc, char** argv)
  26:Ch11_01.cpp   **** {
  33              		.loc 1 26 1 view -0
  34              		.cfi_startproc
  27:Ch11_01.cpp   ****     int a1 = 100, b1 = 200, c1 = -50, result1;
  35              		.loc 1 27 5 view .LVU1
  28:Ch11_01.cpp   ****     result1 = IntegerAddSubA_(a1, b1, c1);
  36              		.loc 1 28 5 view .LVU2
  26:Ch11_01.cpp   ****     int a1 = 100, b1 = 200, c1 = -50, result1;
  37              		.loc 1 26 1 is_stmt 0 view .LVU3
  38 0000 FD7BBAA9 		stp	x29, x30, [sp, -96]!
  39              		.cfi_def_cfa_offset 96
  40              		.cfi_offset 29, -96
  41              		.cfi_offset 30, -88
  42              		.loc 1 28 30 view .LVU4
  43 0004 22068012 		mov	w2, -50
  44 0008 01198052 		mov	w1, 200
  45              	.LVL1:
  26:Ch11_01.cpp   ****     int a1 = 100, b1 = 200, c1 = -50, result1;
  46              		.loc 1 26 1 view .LVU5
  47 000c FD030091 		mov	x29, sp
  48 0010 F35301A9 		stp	x19, x20, [sp, 16]
  49              		.cfi_offset 19, -80
  50              		.cfi_offset 20, -72
  51              	.LBB168:
  52              	.LBB169:
  53              	.LBB170:
  54              	.LBB171:
  55              		.file 2 "/usr/include/c++/10/ostream"
   1:/usr/include/c++/10/ostream **** // Output streams -*- C++ -*-
   2:/usr/include/c++/10/ostream **** 
   3:/usr/include/c++/10/ostream **** // Copyright (C) 1997-2020 Free Software Foundation, Inc.
   4:/usr/include/c++/10/ostream **** //
   5:/usr/include/c++/10/ostream **** // This file is part of the GNU ISO C++ Library.  This library is free
   6:/usr/include/c++/10/ostream **** // software; you can redistribute it and/or modify it under the
   7:/usr/include/c++/10/ostream **** // terms of the GNU General Public License as published by the
   8:/usr/include/c++/10/ostream **** // Free Software Foundation; either version 3, or (at your option)
   9:/usr/include/c++/10/ostream **** // any later version.
  10:/usr/include/c++/10/ostream **** 
  11:/usr/include/c++/10/ostream **** // This library is distributed in the hope that it will be useful,
  12:/usr/include/c++/10/ostream **** // but WITHOUT ANY WARRANTY; without even the implied warranty of
  13:/usr/include/c++/10/ostream **** // MERCHANTABILITY or FITNESS FOR A PARTICULAR PURPOSE.  See the
  14:/usr/include/c++/10/ostream **** // GNU General Public License for more details.
  15:/usr/include/c++/10/ostream **** 
  16:/usr/include/c++/10/ostream **** // Under Section 7 of GPL version 3, you are granted additional
AARCH64 GAS  obj/Ch11_01.s 			page 4


  17:/usr/include/c++/10/ostream **** // permissions described in the GCC Runtime Library Exception, version
  18:/usr/include/c++/10/ostream **** // 3.1, as published by the Free Software Foundation.
  19:/usr/include/c++/10/ostream **** 
  20:/usr/include/c++/10/ostream **** // You should have received a copy of the GNU General Public License and
  21:/usr/include/c++/10/ostream **** // a copy of the GCC Runtime Library Exception along with this program;
  22:/usr/include/c++/10/ostream **** // see the files COPYING3 and COPYING.RUNTIME respectively.  If not, see
  23:/usr/include/c++/10/ostream **** // <http://www.gnu.org/licenses/>.
  24:/usr/include/c++/10/ostream **** 
  25:/usr/include/c++/10/ostream **** /** @file include/ostream
  26:/usr/include/c++/10/ostream ****  *  This is a Standard C++ Library header.
  27:/usr/include/c++/10/ostream ****  */
  28:/usr/include/c++/10/ostream **** 
  29:/usr/include/c++/10/ostream **** //
  30:/usr/include/c++/10/ostream **** // ISO C++ 14882: 27.6.2  Output streams
  31:/usr/include/c++/10/ostream **** //
  32:/usr/include/c++/10/ostream **** 
  33:/usr/include/c++/10/ostream **** #ifndef _GLIBCXX_OSTREAM
  34:/usr/include/c++/10/ostream **** #define _GLIBCXX_OSTREAM 1
  35:/usr/include/c++/10/ostream **** 
  36:/usr/include/c++/10/ostream **** #pragma GCC system_header
  37:/usr/include/c++/10/ostream **** 
  38:/usr/include/c++/10/ostream **** #include <ios>
  39:/usr/include/c++/10/ostream **** #include <bits/ostream_insert.h>
  40:/usr/include/c++/10/ostream **** 
  41:/usr/include/c++/10/ostream **** namespace std _GLIBCXX_VISIBILITY(default)
  42:/usr/include/c++/10/ostream **** {
  43:/usr/include/c++/10/ostream **** _GLIBCXX_BEGIN_NAMESPACE_VERSION
  44:/usr/include/c++/10/ostream **** 
  45:/usr/include/c++/10/ostream ****   /**
  46:/usr/include/c++/10/ostream ****    *  @brief  Template class basic_ostream.
  47:/usr/include/c++/10/ostream ****    *  @ingroup io
  48:/usr/include/c++/10/ostream ****    *
  49:/usr/include/c++/10/ostream ****    *  @tparam _CharT  Type of character stream.
  50:/usr/include/c++/10/ostream ****    *  @tparam _Traits  Traits for character type, defaults to
  51:/usr/include/c++/10/ostream ****    *                   char_traits<_CharT>.
  52:/usr/include/c++/10/ostream ****    *
  53:/usr/include/c++/10/ostream ****    *  This is the base class for all output streams.  It provides text
  54:/usr/include/c++/10/ostream ****    *  formatting of all builtin types, and communicates with any class
  55:/usr/include/c++/10/ostream ****    *  derived from basic_streambuf to do the actual output.
  56:/usr/include/c++/10/ostream ****   */
  57:/usr/include/c++/10/ostream ****   template<typename _CharT, typename _Traits>
  58:/usr/include/c++/10/ostream ****     class basic_ostream : virtual public basic_ios<_CharT, _Traits>
  59:/usr/include/c++/10/ostream ****     {
  60:/usr/include/c++/10/ostream ****     public:
  61:/usr/include/c++/10/ostream ****       // Types (inherited from basic_ios):
  62:/usr/include/c++/10/ostream ****       typedef _CharT			 		char_type;
  63:/usr/include/c++/10/ostream ****       typedef typename _Traits::int_type 		int_type;
  64:/usr/include/c++/10/ostream ****       typedef typename _Traits::pos_type 		pos_type;
  65:/usr/include/c++/10/ostream ****       typedef typename _Traits::off_type 		off_type;
  66:/usr/include/c++/10/ostream ****       typedef _Traits			 		traits_type;
  67:/usr/include/c++/10/ostream **** 
  68:/usr/include/c++/10/ostream ****       // Non-standard Types:
  69:/usr/include/c++/10/ostream ****       typedef basic_streambuf<_CharT, _Traits> 		__streambuf_type;
  70:/usr/include/c++/10/ostream ****       typedef basic_ios<_CharT, _Traits>		__ios_type;
  71:/usr/include/c++/10/ostream ****       typedef basic_ostream<_CharT, _Traits>		__ostream_type;
  72:/usr/include/c++/10/ostream ****       typedef num_put<_CharT, ostreambuf_iterator<_CharT, _Traits> >
  73:/usr/include/c++/10/ostream ****       							__num_put_type;
AARCH64 GAS  obj/Ch11_01.s 			page 5


  74:/usr/include/c++/10/ostream ****       typedef ctype<_CharT>	      			__ctype_type;
  75:/usr/include/c++/10/ostream **** 
  76:/usr/include/c++/10/ostream ****       /**
  77:/usr/include/c++/10/ostream ****        *  @brief  Base constructor.
  78:/usr/include/c++/10/ostream ****        *
  79:/usr/include/c++/10/ostream ****        *  This ctor is almost never called by the user directly, rather from
  80:/usr/include/c++/10/ostream ****        *  derived classes' initialization lists, which pass a pointer to
  81:/usr/include/c++/10/ostream ****        *  their own stream buffer.
  82:/usr/include/c++/10/ostream ****       */
  83:/usr/include/c++/10/ostream ****       explicit
  84:/usr/include/c++/10/ostream ****       basic_ostream(__streambuf_type* __sb)
  85:/usr/include/c++/10/ostream ****       { this->init(__sb); }
  86:/usr/include/c++/10/ostream **** 
  87:/usr/include/c++/10/ostream ****       /**
  88:/usr/include/c++/10/ostream ****        *  @brief  Base destructor.
  89:/usr/include/c++/10/ostream ****        *
  90:/usr/include/c++/10/ostream ****        *  This does very little apart from providing a virtual base dtor.
  91:/usr/include/c++/10/ostream ****       */
  92:/usr/include/c++/10/ostream ****       virtual
  93:/usr/include/c++/10/ostream ****       ~basic_ostream() { }
  94:/usr/include/c++/10/ostream **** 
  95:/usr/include/c++/10/ostream ****       /// Safe prefix/suffix operations.
  96:/usr/include/c++/10/ostream ****       class sentry;
  97:/usr/include/c++/10/ostream ****       friend class sentry;
  98:/usr/include/c++/10/ostream **** 
  99:/usr/include/c++/10/ostream ****       //@{
 100:/usr/include/c++/10/ostream ****       /**
 101:/usr/include/c++/10/ostream ****        *  @brief  Interface for manipulators.
 102:/usr/include/c++/10/ostream ****        *
 103:/usr/include/c++/10/ostream ****        *  Manipulators such as @c std::endl and @c std::hex use these
 104:/usr/include/c++/10/ostream ****        *  functions in constructs like "std::cout << std::endl".  For more
 105:/usr/include/c++/10/ostream ****        *  information, see the iomanip header.
 106:/usr/include/c++/10/ostream ****       */
 107:/usr/include/c++/10/ostream ****       __ostream_type&
 108:/usr/include/c++/10/ostream ****       operator<<(__ostream_type& (*__pf)(__ostream_type&))
 109:/usr/include/c++/10/ostream ****       {
 110:/usr/include/c++/10/ostream **** 	// _GLIBCXX_RESOLVE_LIB_DEFECTS
 111:/usr/include/c++/10/ostream **** 	// DR 60. What is a formatted input function?
 112:/usr/include/c++/10/ostream **** 	// The inserters for manipulators are *not* formatted output functions.
 113:/usr/include/c++/10/ostream **** 	return __pf(*this);
 114:/usr/include/c++/10/ostream ****       }
 115:/usr/include/c++/10/ostream **** 
 116:/usr/include/c++/10/ostream ****       __ostream_type&
 117:/usr/include/c++/10/ostream ****       operator<<(__ios_type& (*__pf)(__ios_type&))
 118:/usr/include/c++/10/ostream ****       {
 119:/usr/include/c++/10/ostream **** 	// _GLIBCXX_RESOLVE_LIB_DEFECTS
 120:/usr/include/c++/10/ostream **** 	// DR 60. What is a formatted input function?
 121:/usr/include/c++/10/ostream **** 	// The inserters for manipulators are *not* formatted output functions.
 122:/usr/include/c++/10/ostream **** 	__pf(*this);
 123:/usr/include/c++/10/ostream **** 	return *this;
 124:/usr/include/c++/10/ostream ****       }
 125:/usr/include/c++/10/ostream **** 
 126:/usr/include/c++/10/ostream ****       __ostream_type&
 127:/usr/include/c++/10/ostream ****       operator<<(ios_base& (*__pf) (ios_base&))
 128:/usr/include/c++/10/ostream ****       {
 129:/usr/include/c++/10/ostream **** 	// _GLIBCXX_RESOLVE_LIB_DEFECTS
 130:/usr/include/c++/10/ostream **** 	// DR 60. What is a formatted input function?
AARCH64 GAS  obj/Ch11_01.s 			page 6


 131:/usr/include/c++/10/ostream **** 	// The inserters for manipulators are *not* formatted output functions.
 132:/usr/include/c++/10/ostream **** 	__pf(*this);
 133:/usr/include/c++/10/ostream **** 	return *this;
 134:/usr/include/c++/10/ostream ****       }
 135:/usr/include/c++/10/ostream ****       //@}
 136:/usr/include/c++/10/ostream **** 
 137:/usr/include/c++/10/ostream ****       //@{
 138:/usr/include/c++/10/ostream ****       /**
 139:/usr/include/c++/10/ostream ****        *  @name Inserters
 140:/usr/include/c++/10/ostream ****        *
 141:/usr/include/c++/10/ostream ****        *  All the @c operator<< functions (aka <em>formatted output
 142:/usr/include/c++/10/ostream ****        *  functions</em>) have some common behavior.  Each starts by
 143:/usr/include/c++/10/ostream ****        *  constructing a temporary object of type std::basic_ostream::sentry.
 144:/usr/include/c++/10/ostream ****        *  This can have several effects, concluding with the setting of a
 145:/usr/include/c++/10/ostream ****        *  status flag; see the sentry documentation for more.
 146:/usr/include/c++/10/ostream ****        *
 147:/usr/include/c++/10/ostream ****        *  If the sentry status is good, the function tries to generate
 148:/usr/include/c++/10/ostream ****        *  whatever data is appropriate for the type of the argument.
 149:/usr/include/c++/10/ostream ****        *
 150:/usr/include/c++/10/ostream ****        *  If an exception is thrown during insertion, ios_base::badbit
 151:/usr/include/c++/10/ostream ****        *  will be turned on in the stream's error state without causing an
 152:/usr/include/c++/10/ostream ****        *  ios_base::failure to be thrown.  The original exception will then
 153:/usr/include/c++/10/ostream ****        *  be rethrown.
 154:/usr/include/c++/10/ostream ****       */
 155:/usr/include/c++/10/ostream **** 
 156:/usr/include/c++/10/ostream ****       //@{
 157:/usr/include/c++/10/ostream ****       /**
 158:/usr/include/c++/10/ostream ****        *  @brief Integer arithmetic inserters
 159:/usr/include/c++/10/ostream ****        *  @param  __n A variable of builtin integral type.
 160:/usr/include/c++/10/ostream ****        *  @return  @c *this if successful
 161:/usr/include/c++/10/ostream ****        *
 162:/usr/include/c++/10/ostream ****        *  These functions use the stream's current locale (specifically, the
 163:/usr/include/c++/10/ostream ****        *  @c num_get facet) to perform numeric formatting.
 164:/usr/include/c++/10/ostream ****       */
 165:/usr/include/c++/10/ostream ****       __ostream_type&
 166:/usr/include/c++/10/ostream ****       operator<<(long __n)
 167:/usr/include/c++/10/ostream ****       { return _M_insert(__n); }
 168:/usr/include/c++/10/ostream **** 
 169:/usr/include/c++/10/ostream ****       __ostream_type&
 170:/usr/include/c++/10/ostream ****       operator<<(unsigned long __n)
 171:/usr/include/c++/10/ostream ****       { return _M_insert(__n); }
 172:/usr/include/c++/10/ostream **** 
 173:/usr/include/c++/10/ostream ****       __ostream_type&
 174:/usr/include/c++/10/ostream ****       operator<<(bool __n)
 175:/usr/include/c++/10/ostream ****       { return _M_insert(__n); }
 176:/usr/include/c++/10/ostream **** 
 177:/usr/include/c++/10/ostream ****       __ostream_type&
 178:/usr/include/c++/10/ostream ****       operator<<(short __n);
 179:/usr/include/c++/10/ostream **** 
 180:/usr/include/c++/10/ostream ****       __ostream_type&
 181:/usr/include/c++/10/ostream ****       operator<<(unsigned short __n)
 182:/usr/include/c++/10/ostream ****       {
 183:/usr/include/c++/10/ostream **** 	// _GLIBCXX_RESOLVE_LIB_DEFECTS
 184:/usr/include/c++/10/ostream **** 	// 117. basic_ostream uses nonexistent num_put member functions.
 185:/usr/include/c++/10/ostream **** 	return _M_insert(static_cast<unsigned long>(__n));
 186:/usr/include/c++/10/ostream ****       }
 187:/usr/include/c++/10/ostream **** 
AARCH64 GAS  obj/Ch11_01.s 			page 7


 188:/usr/include/c++/10/ostream ****       __ostream_type&
 189:/usr/include/c++/10/ostream ****       operator<<(int __n);
 190:/usr/include/c++/10/ostream **** 
 191:/usr/include/c++/10/ostream ****       __ostream_type&
 192:/usr/include/c++/10/ostream ****       operator<<(unsigned int __n)
 193:/usr/include/c++/10/ostream ****       {
 194:/usr/include/c++/10/ostream **** 	// _GLIBCXX_RESOLVE_LIB_DEFECTS
 195:/usr/include/c++/10/ostream **** 	// 117. basic_ostream uses nonexistent num_put member functions.
 196:/usr/include/c++/10/ostream **** 	return _M_insert(static_cast<unsigned long>(__n));
 197:/usr/include/c++/10/ostream ****       }
 198:/usr/include/c++/10/ostream **** 
 199:/usr/include/c++/10/ostream **** #ifdef _GLIBCXX_USE_LONG_LONG
 200:/usr/include/c++/10/ostream ****       __ostream_type&
 201:/usr/include/c++/10/ostream ****       operator<<(long long __n)
 202:/usr/include/c++/10/ostream ****       { return _M_insert(__n); }
 203:/usr/include/c++/10/ostream **** 
 204:/usr/include/c++/10/ostream ****       __ostream_type&
 205:/usr/include/c++/10/ostream ****       operator<<(unsigned long long __n)
 206:/usr/include/c++/10/ostream ****       { return _M_insert(__n); }
 207:/usr/include/c++/10/ostream **** #endif
 208:/usr/include/c++/10/ostream ****       //@}
 209:/usr/include/c++/10/ostream **** 
 210:/usr/include/c++/10/ostream ****       //@{
 211:/usr/include/c++/10/ostream ****       /**
 212:/usr/include/c++/10/ostream ****        *  @brief  Floating point arithmetic inserters
 213:/usr/include/c++/10/ostream ****        *  @param  __f A variable of builtin floating point type.
 214:/usr/include/c++/10/ostream ****        *  @return  @c *this if successful
 215:/usr/include/c++/10/ostream ****        *
 216:/usr/include/c++/10/ostream ****        *  These functions use the stream's current locale (specifically, the
 217:/usr/include/c++/10/ostream ****        *  @c num_get facet) to perform numeric formatting.
 218:/usr/include/c++/10/ostream ****       */
 219:/usr/include/c++/10/ostream ****       __ostream_type&
 220:/usr/include/c++/10/ostream ****       operator<<(double __f)
 221:/usr/include/c++/10/ostream ****       { return _M_insert(__f); }
 222:/usr/include/c++/10/ostream **** 
 223:/usr/include/c++/10/ostream ****       __ostream_type&
 224:/usr/include/c++/10/ostream ****       operator<<(float __f)
 225:/usr/include/c++/10/ostream ****       {
 226:/usr/include/c++/10/ostream **** 	// _GLIBCXX_RESOLVE_LIB_DEFECTS
 227:/usr/include/c++/10/ostream **** 	// 117. basic_ostream uses nonexistent num_put member functions.
 228:/usr/include/c++/10/ostream **** 	return _M_insert(static_cast<double>(__f));
 229:/usr/include/c++/10/ostream ****       }
 230:/usr/include/c++/10/ostream **** 
 231:/usr/include/c++/10/ostream ****       __ostream_type&
 232:/usr/include/c++/10/ostream ****       operator<<(long double __f)
 233:/usr/include/c++/10/ostream ****       { return _M_insert(__f); }
 234:/usr/include/c++/10/ostream ****       //@}
 235:/usr/include/c++/10/ostream **** 
 236:/usr/include/c++/10/ostream ****       /**
 237:/usr/include/c++/10/ostream ****        *  @brief  Pointer arithmetic inserters
 238:/usr/include/c++/10/ostream ****        *  @param  __p A variable of pointer type.
 239:/usr/include/c++/10/ostream ****        *  @return  @c *this if successful
 240:/usr/include/c++/10/ostream ****        *
 241:/usr/include/c++/10/ostream ****        *  These functions use the stream's current locale (specifically, the
 242:/usr/include/c++/10/ostream ****        *  @c num_get facet) to perform numeric formatting.
 243:/usr/include/c++/10/ostream ****       */
 244:/usr/include/c++/10/ostream ****       __ostream_type&
AARCH64 GAS  obj/Ch11_01.s 			page 8


 245:/usr/include/c++/10/ostream ****       operator<<(const void* __p)
 246:/usr/include/c++/10/ostream ****       { return _M_insert(__p); }
 247:/usr/include/c++/10/ostream **** 
 248:/usr/include/c++/10/ostream **** #if __cplusplus >= 201703L
 249:/usr/include/c++/10/ostream ****       __ostream_type&
 250:/usr/include/c++/10/ostream ****       operator<<(nullptr_t)
 251:/usr/include/c++/10/ostream ****       { return *this << "nullptr"; }
 252:/usr/include/c++/10/ostream **** #endif
 253:/usr/include/c++/10/ostream **** 
 254:/usr/include/c++/10/ostream ****       /**
 255:/usr/include/c++/10/ostream ****        *  @brief  Extracting from another streambuf.
 256:/usr/include/c++/10/ostream ****        *  @param  __sb  A pointer to a streambuf
 257:/usr/include/c++/10/ostream ****        *
 258:/usr/include/c++/10/ostream ****        *  This function behaves like one of the basic arithmetic extractors,
 259:/usr/include/c++/10/ostream ****        *  in that it also constructs a sentry object and has the same error
 260:/usr/include/c++/10/ostream ****        *  handling behavior.
 261:/usr/include/c++/10/ostream ****        *
 262:/usr/include/c++/10/ostream ****        *  If @p __sb is NULL, the stream will set failbit in its error state.
 263:/usr/include/c++/10/ostream ****        *
 264:/usr/include/c++/10/ostream ****        *  Characters are extracted from @p __sb and inserted into @c *this
 265:/usr/include/c++/10/ostream ****        *  until one of the following occurs:
 266:/usr/include/c++/10/ostream ****        *
 267:/usr/include/c++/10/ostream ****        *  - the input stream reaches end-of-file,
 268:/usr/include/c++/10/ostream ****        *  - insertion into the output sequence fails (in this case, the
 269:/usr/include/c++/10/ostream ****        *    character that would have been inserted is not extracted), or
 270:/usr/include/c++/10/ostream ****        *  - an exception occurs while getting a character from @p __sb, which
 271:/usr/include/c++/10/ostream ****        *    sets failbit in the error state
 272:/usr/include/c++/10/ostream ****        *
 273:/usr/include/c++/10/ostream ****        *  If the function inserts no characters, failbit is set.
 274:/usr/include/c++/10/ostream ****       */
 275:/usr/include/c++/10/ostream ****       __ostream_type&
 276:/usr/include/c++/10/ostream ****       operator<<(__streambuf_type* __sb);
 277:/usr/include/c++/10/ostream ****       //@}
 278:/usr/include/c++/10/ostream **** 
 279:/usr/include/c++/10/ostream ****       //@{
 280:/usr/include/c++/10/ostream ****       /**
 281:/usr/include/c++/10/ostream ****        *  @name Unformatted Output Functions
 282:/usr/include/c++/10/ostream ****        *
 283:/usr/include/c++/10/ostream ****        *  All the unformatted output functions have some common behavior.
 284:/usr/include/c++/10/ostream ****        *  Each starts by constructing a temporary object of type
 285:/usr/include/c++/10/ostream ****        *  std::basic_ostream::sentry.  This has several effects, concluding
 286:/usr/include/c++/10/ostream ****        *  with the setting of a status flag; see the sentry documentation
 287:/usr/include/c++/10/ostream ****        *  for more.
 288:/usr/include/c++/10/ostream ****        *
 289:/usr/include/c++/10/ostream ****        *  If the sentry status is good, the function tries to generate
 290:/usr/include/c++/10/ostream ****        *  whatever data is appropriate for the type of the argument.
 291:/usr/include/c++/10/ostream ****        *
 292:/usr/include/c++/10/ostream ****        *  If an exception is thrown during insertion, ios_base::badbit
 293:/usr/include/c++/10/ostream ****        *  will be turned on in the stream's error state.  If badbit is on in
 294:/usr/include/c++/10/ostream ****        *  the stream's exceptions mask, the exception will be rethrown
 295:/usr/include/c++/10/ostream ****        *  without completing its actions.
 296:/usr/include/c++/10/ostream ****       */
 297:/usr/include/c++/10/ostream **** 
 298:/usr/include/c++/10/ostream ****       /**
 299:/usr/include/c++/10/ostream ****        *  @brief  Simple insertion.
 300:/usr/include/c++/10/ostream ****        *  @param  __c  The character to insert.
 301:/usr/include/c++/10/ostream ****        *  @return  *this
AARCH64 GAS  obj/Ch11_01.s 			page 9


 302:/usr/include/c++/10/ostream ****        *
 303:/usr/include/c++/10/ostream ****        *  Tries to insert @p __c.
 304:/usr/include/c++/10/ostream ****        *
 305:/usr/include/c++/10/ostream ****        *  @note  This function is not overloaded on signed char and
 306:/usr/include/c++/10/ostream ****        *         unsigned char.
 307:/usr/include/c++/10/ostream ****       */
 308:/usr/include/c++/10/ostream ****       __ostream_type&
 309:/usr/include/c++/10/ostream ****       put(char_type __c);
 310:/usr/include/c++/10/ostream **** 
 311:/usr/include/c++/10/ostream ****       /**
 312:/usr/include/c++/10/ostream ****        *  @brief  Core write functionality, without sentry.
 313:/usr/include/c++/10/ostream ****        *  @param  __s  The array to insert.
 314:/usr/include/c++/10/ostream ****        *  @param  __n  Maximum number of characters to insert.
 315:/usr/include/c++/10/ostream ****       */
 316:/usr/include/c++/10/ostream ****       void
 317:/usr/include/c++/10/ostream ****       _M_write(const char_type* __s, streamsize __n)
 318:/usr/include/c++/10/ostream ****       {
 319:/usr/include/c++/10/ostream **** 	const streamsize __put = this->rdbuf()->sputn(__s, __n);
 320:/usr/include/c++/10/ostream **** 	if (__put != __n)
 321:/usr/include/c++/10/ostream **** 	  this->setstate(ios_base::badbit);
 322:/usr/include/c++/10/ostream ****       }
 323:/usr/include/c++/10/ostream **** 
 324:/usr/include/c++/10/ostream ****       /**
 325:/usr/include/c++/10/ostream ****        *  @brief  Character string insertion.
 326:/usr/include/c++/10/ostream ****        *  @param  __s  The array to insert.
 327:/usr/include/c++/10/ostream ****        *  @param  __n  Maximum number of characters to insert.
 328:/usr/include/c++/10/ostream ****        *  @return  *this
 329:/usr/include/c++/10/ostream ****        *
 330:/usr/include/c++/10/ostream ****        *  Characters are copied from @p __s and inserted into the stream until
 331:/usr/include/c++/10/ostream ****        *  one of the following happens:
 332:/usr/include/c++/10/ostream ****        *
 333:/usr/include/c++/10/ostream ****        *  - @p __n characters are inserted
 334:/usr/include/c++/10/ostream ****        *  - inserting into the output sequence fails (in this case, badbit
 335:/usr/include/c++/10/ostream ****        *    will be set in the stream's error state)
 336:/usr/include/c++/10/ostream ****        *
 337:/usr/include/c++/10/ostream ****        *  @note  This function is not overloaded on signed char and
 338:/usr/include/c++/10/ostream ****        *         unsigned char.
 339:/usr/include/c++/10/ostream ****       */
 340:/usr/include/c++/10/ostream ****       __ostream_type&
 341:/usr/include/c++/10/ostream ****       write(const char_type* __s, streamsize __n);
 342:/usr/include/c++/10/ostream ****       //@}
 343:/usr/include/c++/10/ostream **** 
 344:/usr/include/c++/10/ostream ****       /**
 345:/usr/include/c++/10/ostream ****        *  @brief  Synchronizing the stream buffer.
 346:/usr/include/c++/10/ostream ****        *  @return  *this
 347:/usr/include/c++/10/ostream ****        *
 348:/usr/include/c++/10/ostream ****        *  If @c rdbuf() is a null pointer, changes nothing.
 349:/usr/include/c++/10/ostream ****        *
 350:/usr/include/c++/10/ostream ****        *  Otherwise, calls @c rdbuf()->pubsync(), and if that returns -1,
 351:/usr/include/c++/10/ostream ****        *  sets badbit.
 352:/usr/include/c++/10/ostream ****       */
 353:/usr/include/c++/10/ostream ****       __ostream_type&
 354:/usr/include/c++/10/ostream ****       flush();
 355:/usr/include/c++/10/ostream **** 
 356:/usr/include/c++/10/ostream ****       /**
 357:/usr/include/c++/10/ostream ****        *  @brief  Getting the current write position.
 358:/usr/include/c++/10/ostream ****        *  @return  A file position object.
AARCH64 GAS  obj/Ch11_01.s 			page 10


 359:/usr/include/c++/10/ostream ****        *
 360:/usr/include/c++/10/ostream ****        *  If @c fail() is not false, returns @c pos_type(-1) to indicate
 361:/usr/include/c++/10/ostream ****        *  failure.  Otherwise returns @c rdbuf()->pubseekoff(0,cur,out).
 362:/usr/include/c++/10/ostream ****       */
 363:/usr/include/c++/10/ostream ****       pos_type
 364:/usr/include/c++/10/ostream ****       tellp();
 365:/usr/include/c++/10/ostream **** 
 366:/usr/include/c++/10/ostream ****       /**
 367:/usr/include/c++/10/ostream ****        *  @brief  Changing the current write position.
 368:/usr/include/c++/10/ostream ****        *  @param  __pos  A file position object.
 369:/usr/include/c++/10/ostream ****        *  @return  *this
 370:/usr/include/c++/10/ostream ****        *
 371:/usr/include/c++/10/ostream ****        *  If @c fail() is not true, calls @c rdbuf()->pubseekpos(pos).  If
 372:/usr/include/c++/10/ostream ****        *  that function fails, sets failbit.
 373:/usr/include/c++/10/ostream ****       */
 374:/usr/include/c++/10/ostream ****       __ostream_type&
 375:/usr/include/c++/10/ostream ****       seekp(pos_type);
 376:/usr/include/c++/10/ostream **** 
 377:/usr/include/c++/10/ostream ****       /**
 378:/usr/include/c++/10/ostream ****        *  @brief  Changing the current write position.
 379:/usr/include/c++/10/ostream ****        *  @param  __off  A file offset object.
 380:/usr/include/c++/10/ostream ****        *  @param  __dir  The direction in which to seek.
 381:/usr/include/c++/10/ostream ****        *  @return  *this
 382:/usr/include/c++/10/ostream ****        *
 383:/usr/include/c++/10/ostream ****        *  If @c fail() is not true, calls @c rdbuf()->pubseekoff(off,dir).
 384:/usr/include/c++/10/ostream ****        *  If that function fails, sets failbit.
 385:/usr/include/c++/10/ostream ****       */
 386:/usr/include/c++/10/ostream ****        __ostream_type&
 387:/usr/include/c++/10/ostream ****       seekp(off_type, ios_base::seekdir);
 388:/usr/include/c++/10/ostream **** 
 389:/usr/include/c++/10/ostream ****     protected:
 390:/usr/include/c++/10/ostream ****       basic_ostream()
 391:/usr/include/c++/10/ostream ****       { this->init(0); }
 392:/usr/include/c++/10/ostream **** 
 393:/usr/include/c++/10/ostream **** #if __cplusplus >= 201103L
 394:/usr/include/c++/10/ostream ****       // Non-standard constructor that does not call init()
 395:/usr/include/c++/10/ostream ****       basic_ostream(basic_iostream<_CharT, _Traits>&) { }
 396:/usr/include/c++/10/ostream **** 
 397:/usr/include/c++/10/ostream ****       basic_ostream(const basic_ostream&) = delete;
 398:/usr/include/c++/10/ostream **** 
 399:/usr/include/c++/10/ostream ****       basic_ostream(basic_ostream&& __rhs)
 400:/usr/include/c++/10/ostream ****       : __ios_type()
 401:/usr/include/c++/10/ostream ****       { __ios_type::move(__rhs); }
 402:/usr/include/c++/10/ostream **** 
 403:/usr/include/c++/10/ostream ****       // 27.7.3.3 Assign/swap
 404:/usr/include/c++/10/ostream **** 
 405:/usr/include/c++/10/ostream ****       basic_ostream& operator=(const basic_ostream&) = delete;
 406:/usr/include/c++/10/ostream **** 
 407:/usr/include/c++/10/ostream ****       basic_ostream&
 408:/usr/include/c++/10/ostream ****       operator=(basic_ostream&& __rhs)
 409:/usr/include/c++/10/ostream ****       {
 410:/usr/include/c++/10/ostream **** 	swap(__rhs);
 411:/usr/include/c++/10/ostream **** 	return *this;
 412:/usr/include/c++/10/ostream ****       }
 413:/usr/include/c++/10/ostream **** 
 414:/usr/include/c++/10/ostream ****       void
 415:/usr/include/c++/10/ostream ****       swap(basic_ostream& __rhs)
AARCH64 GAS  obj/Ch11_01.s 			page 11


 416:/usr/include/c++/10/ostream ****       { __ios_type::swap(__rhs); }
 417:/usr/include/c++/10/ostream **** #endif
 418:/usr/include/c++/10/ostream **** 
 419:/usr/include/c++/10/ostream ****       template<typename _ValueT>
 420:/usr/include/c++/10/ostream **** 	__ostream_type&
 421:/usr/include/c++/10/ostream **** 	_M_insert(_ValueT __v);
 422:/usr/include/c++/10/ostream ****     };
 423:/usr/include/c++/10/ostream **** 
 424:/usr/include/c++/10/ostream ****   /**
 425:/usr/include/c++/10/ostream ****    *  @brief  Performs setup work for output streams.
 426:/usr/include/c++/10/ostream ****    *
 427:/usr/include/c++/10/ostream ****    *  Objects of this class are created before all of the standard
 428:/usr/include/c++/10/ostream ****    *  inserters are run.  It is responsible for <em>exception-safe prefix and
 429:/usr/include/c++/10/ostream ****    *  suffix operations</em>.
 430:/usr/include/c++/10/ostream ****   */
 431:/usr/include/c++/10/ostream ****   template <typename _CharT, typename _Traits>
 432:/usr/include/c++/10/ostream ****     class basic_ostream<_CharT, _Traits>::sentry
 433:/usr/include/c++/10/ostream ****     {
 434:/usr/include/c++/10/ostream ****       // Data Members.
 435:/usr/include/c++/10/ostream ****       bool 				_M_ok;
 436:/usr/include/c++/10/ostream ****       basic_ostream<_CharT, _Traits>& 	_M_os;
 437:/usr/include/c++/10/ostream **** 
 438:/usr/include/c++/10/ostream ****     public:
 439:/usr/include/c++/10/ostream ****       /**
 440:/usr/include/c++/10/ostream ****        *  @brief  The constructor performs preparatory work.
 441:/usr/include/c++/10/ostream ****        *  @param  __os  The output stream to guard.
 442:/usr/include/c++/10/ostream ****        *
 443:/usr/include/c++/10/ostream ****        *  If the stream state is good (@a __os.good() is true), then if the
 444:/usr/include/c++/10/ostream ****        *  stream is tied to another output stream, @c is.tie()->flush()
 445:/usr/include/c++/10/ostream ****        *  is called to synchronize the output sequences.
 446:/usr/include/c++/10/ostream ****        *
 447:/usr/include/c++/10/ostream ****        *  If the stream state is still good, then the sentry state becomes
 448:/usr/include/c++/10/ostream ****        *  true (@a okay).
 449:/usr/include/c++/10/ostream ****       */
 450:/usr/include/c++/10/ostream ****       explicit
 451:/usr/include/c++/10/ostream ****       sentry(basic_ostream<_CharT, _Traits>& __os);
 452:/usr/include/c++/10/ostream **** 
 453:/usr/include/c++/10/ostream **** #pragma GCC diagnostic push
 454:/usr/include/c++/10/ostream **** #pragma GCC diagnostic ignored "-Wdeprecated-declarations"
 455:/usr/include/c++/10/ostream ****       /**
 456:/usr/include/c++/10/ostream ****        *  @brief  Possibly flushes the stream.
 457:/usr/include/c++/10/ostream ****        *
 458:/usr/include/c++/10/ostream ****        *  If @c ios_base::unitbuf is set in @c os.flags(), and
 459:/usr/include/c++/10/ostream ****        *  @c std::uncaught_exception() is true, the sentry destructor calls
 460:/usr/include/c++/10/ostream ****        *  @c flush() on the output stream.
 461:/usr/include/c++/10/ostream ****       */
 462:/usr/include/c++/10/ostream ****       ~sentry()
 463:/usr/include/c++/10/ostream ****       {
 464:/usr/include/c++/10/ostream **** 	// XXX MT
 465:/usr/include/c++/10/ostream **** 	if (bool(_M_os.flags() & ios_base::unitbuf) && !uncaught_exception())
 466:/usr/include/c++/10/ostream **** 	  {
 467:/usr/include/c++/10/ostream **** 	    // Can't call flush directly or else will get into recursive lock.
 468:/usr/include/c++/10/ostream **** 	    if (_M_os.rdbuf() && _M_os.rdbuf()->pubsync() == -1)
 469:/usr/include/c++/10/ostream **** 	      _M_os.setstate(ios_base::badbit);
 470:/usr/include/c++/10/ostream **** 	  }
 471:/usr/include/c++/10/ostream ****       }
 472:/usr/include/c++/10/ostream **** #pragma GCC diagnostic pop
AARCH64 GAS  obj/Ch11_01.s 			page 12


 473:/usr/include/c++/10/ostream **** 
 474:/usr/include/c++/10/ostream ****       /**
 475:/usr/include/c++/10/ostream ****        *  @brief  Quick status checking.
 476:/usr/include/c++/10/ostream ****        *  @return  The sentry state.
 477:/usr/include/c++/10/ostream ****        *
 478:/usr/include/c++/10/ostream ****        *  For ease of use, sentries may be converted to booleans.  The
 479:/usr/include/c++/10/ostream ****        *  return value is that of the sentry state (true == okay).
 480:/usr/include/c++/10/ostream ****       */
 481:/usr/include/c++/10/ostream **** #if __cplusplus >= 201103L
 482:/usr/include/c++/10/ostream ****       explicit
 483:/usr/include/c++/10/ostream **** #endif
 484:/usr/include/c++/10/ostream ****       operator bool() const
 485:/usr/include/c++/10/ostream ****       { return _M_ok; }
 486:/usr/include/c++/10/ostream ****     };
 487:/usr/include/c++/10/ostream **** 
 488:/usr/include/c++/10/ostream ****   //@{
 489:/usr/include/c++/10/ostream ****   /**
 490:/usr/include/c++/10/ostream ****    *  @brief  Character inserters
 491:/usr/include/c++/10/ostream ****    *  @param  __out  An output stream.
 492:/usr/include/c++/10/ostream ****    *  @param  __c  A character.
 493:/usr/include/c++/10/ostream ****    *  @return  out
 494:/usr/include/c++/10/ostream ****    *
 495:/usr/include/c++/10/ostream ****    *  Behaves like one of the formatted arithmetic inserters described in
 496:/usr/include/c++/10/ostream ****    *  std::basic_ostream.  After constructing a sentry object with good
 497:/usr/include/c++/10/ostream ****    *  status, this function inserts a single character and any required
 498:/usr/include/c++/10/ostream ****    *  padding (as determined by [22.2.2.2.2]).  @c __out.width(0) is then
 499:/usr/include/c++/10/ostream ****    *  called.
 500:/usr/include/c++/10/ostream ****    *
 501:/usr/include/c++/10/ostream ****    *  If @p __c is of type @c char and the character type of the stream is not
 502:/usr/include/c++/10/ostream ****    *  @c char, the character is widened before insertion.
 503:/usr/include/c++/10/ostream ****   */
 504:/usr/include/c++/10/ostream ****   template<typename _CharT, typename _Traits>
 505:/usr/include/c++/10/ostream ****     inline basic_ostream<_CharT, _Traits>&
 506:/usr/include/c++/10/ostream ****     operator<<(basic_ostream<_CharT, _Traits>& __out, _CharT __c)
 507:/usr/include/c++/10/ostream ****     { return __ostream_insert(__out, &__c, 1); }
 508:/usr/include/c++/10/ostream **** 
 509:/usr/include/c++/10/ostream ****   template<typename _CharT, typename _Traits>
 510:/usr/include/c++/10/ostream ****     inline basic_ostream<_CharT, _Traits>&
 511:/usr/include/c++/10/ostream ****     operator<<(basic_ostream<_CharT, _Traits>& __out, char __c)
 512:/usr/include/c++/10/ostream ****     { return (__out << __out.widen(__c)); }
 513:/usr/include/c++/10/ostream **** 
 514:/usr/include/c++/10/ostream ****   // Specialization
 515:/usr/include/c++/10/ostream ****   template<typename _Traits>
 516:/usr/include/c++/10/ostream ****     inline basic_ostream<char, _Traits>&
 517:/usr/include/c++/10/ostream ****     operator<<(basic_ostream<char, _Traits>& __out, char __c)
 518:/usr/include/c++/10/ostream ****     { return __ostream_insert(__out, &__c, 1); }
 519:/usr/include/c++/10/ostream **** 
 520:/usr/include/c++/10/ostream ****   // Signed and unsigned
 521:/usr/include/c++/10/ostream ****   template<typename _Traits>
 522:/usr/include/c++/10/ostream ****     inline basic_ostream<char, _Traits>&
 523:/usr/include/c++/10/ostream ****     operator<<(basic_ostream<char, _Traits>& __out, signed char __c)
 524:/usr/include/c++/10/ostream ****     { return (__out << static_cast<char>(__c)); }
 525:/usr/include/c++/10/ostream **** 
 526:/usr/include/c++/10/ostream ****   template<typename _Traits>
 527:/usr/include/c++/10/ostream ****     inline basic_ostream<char, _Traits>&
 528:/usr/include/c++/10/ostream ****     operator<<(basic_ostream<char, _Traits>& __out, unsigned char __c)
 529:/usr/include/c++/10/ostream ****     { return (__out << static_cast<char>(__c)); }
AARCH64 GAS  obj/Ch11_01.s 			page 13


 530:/usr/include/c++/10/ostream **** 
 531:/usr/include/c++/10/ostream **** #if __cplusplus > 201703L
 532:/usr/include/c++/10/ostream ****   // The following deleted overloads prevent formatting character values as
 533:/usr/include/c++/10/ostream ****   // numeric values.
 534:/usr/include/c++/10/ostream **** 
 535:/usr/include/c++/10/ostream **** #ifdef _GLIBCXX_USE_WCHAR_T
 536:/usr/include/c++/10/ostream ****   template<typename _Traits>
 537:/usr/include/c++/10/ostream ****     basic_ostream<char, _Traits>&
 538:/usr/include/c++/10/ostream ****     operator<<(basic_ostream<char, _Traits>&, wchar_t) = delete;
 539:/usr/include/c++/10/ostream **** #endif // _GLIBCXX_USE_WCHAR_T
 540:/usr/include/c++/10/ostream **** 
 541:/usr/include/c++/10/ostream **** #ifdef _GLIBCXX_USE_CHAR8_T
 542:/usr/include/c++/10/ostream ****   template<typename _Traits>
 543:/usr/include/c++/10/ostream ****     basic_ostream<char, _Traits>&
 544:/usr/include/c++/10/ostream ****     operator<<(basic_ostream<char, _Traits>&, char8_t) = delete;
 545:/usr/include/c++/10/ostream **** #endif
 546:/usr/include/c++/10/ostream **** 
 547:/usr/include/c++/10/ostream ****   template<typename _Traits>
 548:/usr/include/c++/10/ostream ****     basic_ostream<char, _Traits>&
 549:/usr/include/c++/10/ostream ****     operator<<(basic_ostream<char, _Traits>&, char16_t) = delete;
 550:/usr/include/c++/10/ostream **** 
 551:/usr/include/c++/10/ostream ****   template<typename _Traits>
 552:/usr/include/c++/10/ostream ****     basic_ostream<char, _Traits>&
 553:/usr/include/c++/10/ostream ****     operator<<(basic_ostream<char, _Traits>&, char32_t) = delete;
 554:/usr/include/c++/10/ostream **** 
 555:/usr/include/c++/10/ostream **** #ifdef _GLIBCXX_USE_WCHAR_T
 556:/usr/include/c++/10/ostream **** #ifdef _GLIBCXX_USE_CHAR8_T
 557:/usr/include/c++/10/ostream ****   template<typename _Traits>
 558:/usr/include/c++/10/ostream ****     basic_ostream<wchar_t, _Traits>&
 559:/usr/include/c++/10/ostream ****     operator<<(basic_ostream<wchar_t, _Traits>&, char8_t) = delete;
 560:/usr/include/c++/10/ostream **** #endif // _GLIBCXX_USE_CHAR8_T
 561:/usr/include/c++/10/ostream **** 
 562:/usr/include/c++/10/ostream ****   template<typename _Traits>
 563:/usr/include/c++/10/ostream ****     basic_ostream<wchar_t, _Traits>&
 564:/usr/include/c++/10/ostream ****     operator<<(basic_ostream<wchar_t, _Traits>&, char16_t) = delete;
 565:/usr/include/c++/10/ostream **** 
 566:/usr/include/c++/10/ostream ****   template<typename _Traits>
 567:/usr/include/c++/10/ostream ****     basic_ostream<wchar_t, _Traits>&
 568:/usr/include/c++/10/ostream ****     operator<<(basic_ostream<wchar_t, _Traits>&, char32_t) = delete;
 569:/usr/include/c++/10/ostream **** #endif // _GLIBCXX_USE_WCHAR_T
 570:/usr/include/c++/10/ostream **** #endif // C++20
 571:/usr/include/c++/10/ostream ****   //@}
 572:/usr/include/c++/10/ostream **** 
 573:/usr/include/c++/10/ostream ****   //@{
 574:/usr/include/c++/10/ostream ****   /**
 575:/usr/include/c++/10/ostream ****    *  @brief  String inserters
 576:/usr/include/c++/10/ostream ****    *  @param  __out  An output stream.
 577:/usr/include/c++/10/ostream ****    *  @param  __s  A character string.
 578:/usr/include/c++/10/ostream ****    *  @return  out
 579:/usr/include/c++/10/ostream ****    *  @pre  @p __s must be a non-NULL pointer
 580:/usr/include/c++/10/ostream ****    *
 581:/usr/include/c++/10/ostream ****    *  Behaves like one of the formatted arithmetic inserters described in
 582:/usr/include/c++/10/ostream ****    *  std::basic_ostream.  After constructing a sentry object with good
 583:/usr/include/c++/10/ostream ****    *  status, this function inserts @c traits::length(__s) characters starting
 584:/usr/include/c++/10/ostream ****    *  at @p __s, widened if necessary, followed by any required padding (as
 585:/usr/include/c++/10/ostream ****    *  determined by [22.2.2.2.2]).  @c __out.width(0) is then called.
 586:/usr/include/c++/10/ostream ****   */
AARCH64 GAS  obj/Ch11_01.s 			page 14


 587:/usr/include/c++/10/ostream ****   template<typename _CharT, typename _Traits>
 588:/usr/include/c++/10/ostream ****     inline basic_ostream<_CharT, _Traits>&
 589:/usr/include/c++/10/ostream ****     operator<<(basic_ostream<_CharT, _Traits>& __out, const _CharT* __s)
 590:/usr/include/c++/10/ostream ****     {
 591:/usr/include/c++/10/ostream ****       if (!__s)
 592:/usr/include/c++/10/ostream **** 	__out.setstate(ios_base::badbit);
 593:/usr/include/c++/10/ostream ****       else
 594:/usr/include/c++/10/ostream **** 	__ostream_insert(__out, __s,
 595:/usr/include/c++/10/ostream **** 			 static_cast<streamsize>(_Traits::length(__s)));
 596:/usr/include/c++/10/ostream ****       return __out;
 597:/usr/include/c++/10/ostream ****     }
 598:/usr/include/c++/10/ostream **** 
 599:/usr/include/c++/10/ostream ****   template<typename _CharT, typename _Traits>
 600:/usr/include/c++/10/ostream ****     basic_ostream<_CharT, _Traits> &
 601:/usr/include/c++/10/ostream ****     operator<<(basic_ostream<_CharT, _Traits>& __out, const char* __s);
 602:/usr/include/c++/10/ostream **** 
 603:/usr/include/c++/10/ostream ****   // Partial specializations
 604:/usr/include/c++/10/ostream ****   template<typename _Traits>
 605:/usr/include/c++/10/ostream ****     inline basic_ostream<char, _Traits>&
 606:/usr/include/c++/10/ostream ****     operator<<(basic_ostream<char, _Traits>& __out, const char* __s)
 607:/usr/include/c++/10/ostream ****     {
 608:/usr/include/c++/10/ostream ****       if (!__s)
 609:/usr/include/c++/10/ostream **** 	__out.setstate(ios_base::badbit);
 610:/usr/include/c++/10/ostream ****       else
 611:/usr/include/c++/10/ostream **** 	__ostream_insert(__out, __s,
  56              		.loc 2 611 18 view .LVU6
  57 0014 13000090 		adrp	x19, :got:_ZSt4cout
  58              	.LBE171:
  59              	.LBE170:
  60              	.LBE169:
  61              	.LBE168:
  62              		.loc 1 28 30 view .LVU7
  63 0018 800C8052 		mov	w0, 100
  64              	.LVL2:
  26:Ch11_01.cpp   ****     int a1 = 100, b1 = 200, c1 = -50, result1;
  65              		.loc 1 26 1 view .LVU8
  66 001c F55B02A9 		stp	x21, x22, [sp, 32]
  67              	.LBB221:
  68              	.LBB212:
  69              	.LBB174:
  70              	.LBB175:
 518:/usr/include/c++/10/ostream **** 
  71              		.loc 2 518 30 view .LVU9
  72 0020 F47F0191 		add	x20, sp, 95
  73              		.cfi_offset 21, -64
  74              		.cfi_offset 22, -56
  75 0024 55018052 		mov	w21, 10
  76              	.LBE175:
  77              	.LBE174:
  78              	.LBE212:
  79              	.LBE221:
  26:Ch11_01.cpp   ****     int a1 = 100, b1 = 200, c1 = -50, result1;
  80              		.loc 1 26 1 view .LVU10
  81 0028 F76303A9 		stp	x23, x24, [sp, 48]
  82              		.cfi_offset 23, -48
  83              		.cfi_offset 24, -40
  84              	.LBB222:
AARCH64 GAS  obj/Ch11_01.s 			page 15


  85              	.LBB213:
  86              	.LBB178:
  87              	.LBB179:
  88              		.loc 2 611 18 view .LVU11
  89 002c 18000090 		adrp	x24, .LC2
  90 0030 18030091 		add	x24, x24, :lo12:.LC2
  91              	.LBE179:
  92              	.LBE178:
  93              	.LBE213:
  94              	.LBE222:
  26:Ch11_01.cpp   ****     int a1 = 100, b1 = 200, c1 = -50, result1;
  95              		.loc 1 26 1 view .LVU12
  96 0034 F96B04A9 		stp	x25, x26, [sp, 64]
  97              		.cfi_offset 25, -32
  98              		.cfi_offset 26, -24
  99              		.loc 1 28 30 view .LVU13
 100 0038 00000094 		bl	IntegerAddSubA_
 101              	.LVL3:
 102              	.LBB223:
 103              	.LBB214:
 104              	.LBB181:
 105              	.LBB172:
 106              		.loc 2 611 18 view .LVU14
 107 003c E20180D2 		mov	x2, 15
 108 0040 730240F9 		ldr	x19, [x19, #:got_lo12:_ZSt4cout]
 109              	.LBE172:
 110              	.LBE181:
 111              	.LBE214:
 112              	.LBE223:
 113              		.loc 1 28 30 view .LVU15
 114 0044 FA03002A 		mov	w26, w0
 115              	.LVL4:
  29:Ch11_01.cpp   ****     PrintResult("IntegerAddSubA_", a1, b1, c1, result1);
 116              		.loc 1 29 5 is_stmt 1 view .LVU16
 117              	.LBB224:
 118              	.LBI168:
  13:Ch11_01.cpp   **** {
 119              		.loc 1 13 6 view .LVU17
 120              	.LBB215:
 121              	.LBB182:
 122              	.LBI170:
 606:/usr/include/c++/10/ostream ****     {
 123              		.loc 2 606 5 view .LVU18
 606:/usr/include/c++/10/ostream ****     {
 124              		.loc 2 606 5 is_stmt 0 view .LVU19
 125              	.LBE182:
 126              	.LBE215:
 127              	.LBE224:
 128              		.file 3 "/usr/include/c++/10/bits/char_traits.h"
   1:/usr/include/c++/10/bits/char_traits.h **** // Character Traits for use by standard string and iostream -*- C++ -*-
   2:/usr/include/c++/10/bits/char_traits.h **** 
   3:/usr/include/c++/10/bits/char_traits.h **** // Copyright (C) 1997-2020 Free Software Foundation, Inc.
   4:/usr/include/c++/10/bits/char_traits.h **** //
   5:/usr/include/c++/10/bits/char_traits.h **** // This file is part of the GNU ISO C++ Library.  This library is free
   6:/usr/include/c++/10/bits/char_traits.h **** // software; you can redistribute it and/or modify it under the
   7:/usr/include/c++/10/bits/char_traits.h **** // terms of the GNU General Public License as published by the
   8:/usr/include/c++/10/bits/char_traits.h **** // Free Software Foundation; either version 3, or (at your option)
AARCH64 GAS  obj/Ch11_01.s 			page 16


   9:/usr/include/c++/10/bits/char_traits.h **** // any later version.
  10:/usr/include/c++/10/bits/char_traits.h **** 
  11:/usr/include/c++/10/bits/char_traits.h **** // This library is distributed in the hope that it will be useful,
  12:/usr/include/c++/10/bits/char_traits.h **** // but WITHOUT ANY WARRANTY; without even the implied warranty of
  13:/usr/include/c++/10/bits/char_traits.h **** // MERCHANTABILITY or FITNESS FOR A PARTICULAR PURPOSE.  See the
  14:/usr/include/c++/10/bits/char_traits.h **** // GNU General Public License for more details.
  15:/usr/include/c++/10/bits/char_traits.h **** 
  16:/usr/include/c++/10/bits/char_traits.h **** // Under Section 7 of GPL version 3, you are granted additional
  17:/usr/include/c++/10/bits/char_traits.h **** // permissions described in the GCC Runtime Library Exception, version
  18:/usr/include/c++/10/bits/char_traits.h **** // 3.1, as published by the Free Software Foundation.
  19:/usr/include/c++/10/bits/char_traits.h **** 
  20:/usr/include/c++/10/bits/char_traits.h **** // You should have received a copy of the GNU General Public License and
  21:/usr/include/c++/10/bits/char_traits.h **** // a copy of the GCC Runtime Library Exception along with this program;
  22:/usr/include/c++/10/bits/char_traits.h **** // see the files COPYING3 and COPYING.RUNTIME respectively.  If not, see
  23:/usr/include/c++/10/bits/char_traits.h **** // <http://www.gnu.org/licenses/>.
  24:/usr/include/c++/10/bits/char_traits.h **** 
  25:/usr/include/c++/10/bits/char_traits.h **** /** @file bits/char_traits.h
  26:/usr/include/c++/10/bits/char_traits.h ****  *  This is an internal header file, included by other library headers.
  27:/usr/include/c++/10/bits/char_traits.h ****  *  Do not attempt to use it directly. @headername{string}
  28:/usr/include/c++/10/bits/char_traits.h ****  */
  29:/usr/include/c++/10/bits/char_traits.h **** 
  30:/usr/include/c++/10/bits/char_traits.h **** //
  31:/usr/include/c++/10/bits/char_traits.h **** // ISO C++ 14882: 21  Strings library
  32:/usr/include/c++/10/bits/char_traits.h **** //
  33:/usr/include/c++/10/bits/char_traits.h **** 
  34:/usr/include/c++/10/bits/char_traits.h **** #ifndef _CHAR_TRAITS_H
  35:/usr/include/c++/10/bits/char_traits.h **** #define _CHAR_TRAITS_H 1
  36:/usr/include/c++/10/bits/char_traits.h **** 
  37:/usr/include/c++/10/bits/char_traits.h **** #pragma GCC system_header
  38:/usr/include/c++/10/bits/char_traits.h **** 
  39:/usr/include/c++/10/bits/char_traits.h **** #include <bits/stl_algobase.h>  // std::copy, std::fill_n
  40:/usr/include/c++/10/bits/char_traits.h **** #include <bits/postypes.h>      // For streampos
  41:/usr/include/c++/10/bits/char_traits.h **** #include <cwchar>               // For WEOF, wmemmove, wmemset, etc.
  42:/usr/include/c++/10/bits/char_traits.h **** #if __cplusplus > 201703L
  43:/usr/include/c++/10/bits/char_traits.h **** # include <compare>
  44:/usr/include/c++/10/bits/char_traits.h **** #endif
  45:/usr/include/c++/10/bits/char_traits.h **** 
  46:/usr/include/c++/10/bits/char_traits.h **** #ifndef _GLIBCXX_ALWAYS_INLINE
  47:/usr/include/c++/10/bits/char_traits.h **** # define _GLIBCXX_ALWAYS_INLINE inline __attribute__((__always_inline__))
  48:/usr/include/c++/10/bits/char_traits.h **** #endif
  49:/usr/include/c++/10/bits/char_traits.h **** 
  50:/usr/include/c++/10/bits/char_traits.h **** namespace __gnu_cxx _GLIBCXX_VISIBILITY(default)
  51:/usr/include/c++/10/bits/char_traits.h **** {
  52:/usr/include/c++/10/bits/char_traits.h **** _GLIBCXX_BEGIN_NAMESPACE_VERSION
  53:/usr/include/c++/10/bits/char_traits.h **** 
  54:/usr/include/c++/10/bits/char_traits.h ****   /**
  55:/usr/include/c++/10/bits/char_traits.h ****    *  @brief  Mapping from character type to associated types.
  56:/usr/include/c++/10/bits/char_traits.h ****    *
  57:/usr/include/c++/10/bits/char_traits.h ****    *  @note This is an implementation class for the generic version
  58:/usr/include/c++/10/bits/char_traits.h ****    *  of char_traits.  It defines int_type, off_type, pos_type, and
  59:/usr/include/c++/10/bits/char_traits.h ****    *  state_type.  By default these are unsigned long, streamoff,
  60:/usr/include/c++/10/bits/char_traits.h ****    *  streampos, and mbstate_t.  Users who need a different set of
  61:/usr/include/c++/10/bits/char_traits.h ****    *  types, but who don't need to change the definitions of any function
  62:/usr/include/c++/10/bits/char_traits.h ****    *  defined in char_traits, can specialize __gnu_cxx::_Char_types
  63:/usr/include/c++/10/bits/char_traits.h ****    *  while leaving __gnu_cxx::char_traits alone. */
  64:/usr/include/c++/10/bits/char_traits.h ****   template<typename _CharT>
  65:/usr/include/c++/10/bits/char_traits.h ****     struct _Char_types
AARCH64 GAS  obj/Ch11_01.s 			page 17


  66:/usr/include/c++/10/bits/char_traits.h ****     {
  67:/usr/include/c++/10/bits/char_traits.h ****       typedef unsigned long   int_type;
  68:/usr/include/c++/10/bits/char_traits.h ****       typedef std::streampos  pos_type;
  69:/usr/include/c++/10/bits/char_traits.h ****       typedef std::streamoff  off_type;
  70:/usr/include/c++/10/bits/char_traits.h ****       typedef std::mbstate_t  state_type;
  71:/usr/include/c++/10/bits/char_traits.h ****     };
  72:/usr/include/c++/10/bits/char_traits.h **** 
  73:/usr/include/c++/10/bits/char_traits.h **** 
  74:/usr/include/c++/10/bits/char_traits.h ****   /**
  75:/usr/include/c++/10/bits/char_traits.h ****    *  @brief  Base class used to implement std::char_traits.
  76:/usr/include/c++/10/bits/char_traits.h ****    *
  77:/usr/include/c++/10/bits/char_traits.h ****    *  @note For any given actual character type, this definition is
  78:/usr/include/c++/10/bits/char_traits.h ****    *  probably wrong.  (Most of the member functions are likely to be
  79:/usr/include/c++/10/bits/char_traits.h ****    *  right, but the int_type and state_type typedefs, and the eof()
  80:/usr/include/c++/10/bits/char_traits.h ****    *  member function, are likely to be wrong.)  The reason this class
  81:/usr/include/c++/10/bits/char_traits.h ****    *  exists is so users can specialize it.  Classes in namespace std
  82:/usr/include/c++/10/bits/char_traits.h ****    *  may not be specialized for fundamental types, but classes in
  83:/usr/include/c++/10/bits/char_traits.h ****    *  namespace __gnu_cxx may be.
  84:/usr/include/c++/10/bits/char_traits.h ****    *
  85:/usr/include/c++/10/bits/char_traits.h ****    *  See https://gcc.gnu.org/onlinedocs/libstdc++/manual/strings.html#strings.string.character_typ
  86:/usr/include/c++/10/bits/char_traits.h ****    *  for advice on how to make use of this class for @a unusual character
  87:/usr/include/c++/10/bits/char_traits.h ****    *  types. Also, check out include/ext/pod_char_traits.h.  
  88:/usr/include/c++/10/bits/char_traits.h ****    */
  89:/usr/include/c++/10/bits/char_traits.h ****   template<typename _CharT>
  90:/usr/include/c++/10/bits/char_traits.h ****     struct char_traits
  91:/usr/include/c++/10/bits/char_traits.h ****     {
  92:/usr/include/c++/10/bits/char_traits.h ****       typedef _CharT                                    char_type;
  93:/usr/include/c++/10/bits/char_traits.h ****       typedef typename _Char_types<_CharT>::int_type    int_type;
  94:/usr/include/c++/10/bits/char_traits.h ****       typedef typename _Char_types<_CharT>::pos_type    pos_type;
  95:/usr/include/c++/10/bits/char_traits.h ****       typedef typename _Char_types<_CharT>::off_type    off_type;
  96:/usr/include/c++/10/bits/char_traits.h ****       typedef typename _Char_types<_CharT>::state_type  state_type;
  97:/usr/include/c++/10/bits/char_traits.h **** #if __cpp_lib_three_way_comparison
  98:/usr/include/c++/10/bits/char_traits.h ****       using comparison_category = std::strong_ordering;
  99:/usr/include/c++/10/bits/char_traits.h **** #endif
 100:/usr/include/c++/10/bits/char_traits.h **** 
 101:/usr/include/c++/10/bits/char_traits.h ****       static _GLIBCXX14_CONSTEXPR void
 102:/usr/include/c++/10/bits/char_traits.h ****       assign(char_type& __c1, const char_type& __c2)
 103:/usr/include/c++/10/bits/char_traits.h ****       { __c1 = __c2; }
 104:/usr/include/c++/10/bits/char_traits.h **** 
 105:/usr/include/c++/10/bits/char_traits.h ****       static _GLIBCXX_CONSTEXPR bool
 106:/usr/include/c++/10/bits/char_traits.h ****       eq(const char_type& __c1, const char_type& __c2)
 107:/usr/include/c++/10/bits/char_traits.h ****       { return __c1 == __c2; }
 108:/usr/include/c++/10/bits/char_traits.h **** 
 109:/usr/include/c++/10/bits/char_traits.h ****       static _GLIBCXX_CONSTEXPR bool
 110:/usr/include/c++/10/bits/char_traits.h ****       lt(const char_type& __c1, const char_type& __c2)
 111:/usr/include/c++/10/bits/char_traits.h ****       { return __c1 < __c2; }
 112:/usr/include/c++/10/bits/char_traits.h **** 
 113:/usr/include/c++/10/bits/char_traits.h ****       static _GLIBCXX14_CONSTEXPR int
 114:/usr/include/c++/10/bits/char_traits.h ****       compare(const char_type* __s1, const char_type* __s2, std::size_t __n);
 115:/usr/include/c++/10/bits/char_traits.h **** 
 116:/usr/include/c++/10/bits/char_traits.h ****       static _GLIBCXX14_CONSTEXPR std::size_t
 117:/usr/include/c++/10/bits/char_traits.h ****       length(const char_type* __s);
 118:/usr/include/c++/10/bits/char_traits.h **** 
 119:/usr/include/c++/10/bits/char_traits.h ****       static _GLIBCXX14_CONSTEXPR const char_type*
 120:/usr/include/c++/10/bits/char_traits.h ****       find(const char_type* __s, std::size_t __n, const char_type& __a);
 121:/usr/include/c++/10/bits/char_traits.h **** 
 122:/usr/include/c++/10/bits/char_traits.h ****       static _GLIBCXX20_CONSTEXPR char_type*
AARCH64 GAS  obj/Ch11_01.s 			page 18


 123:/usr/include/c++/10/bits/char_traits.h ****       move(char_type* __s1, const char_type* __s2, std::size_t __n);
 124:/usr/include/c++/10/bits/char_traits.h **** 
 125:/usr/include/c++/10/bits/char_traits.h ****       static _GLIBCXX20_CONSTEXPR char_type*
 126:/usr/include/c++/10/bits/char_traits.h ****       copy(char_type* __s1, const char_type* __s2, std::size_t __n);
 127:/usr/include/c++/10/bits/char_traits.h **** 
 128:/usr/include/c++/10/bits/char_traits.h ****       static _GLIBCXX20_CONSTEXPR char_type*
 129:/usr/include/c++/10/bits/char_traits.h ****       assign(char_type* __s, std::size_t __n, char_type __a);
 130:/usr/include/c++/10/bits/char_traits.h **** 
 131:/usr/include/c++/10/bits/char_traits.h ****       static _GLIBCXX_CONSTEXPR char_type
 132:/usr/include/c++/10/bits/char_traits.h ****       to_char_type(const int_type& __c)
 133:/usr/include/c++/10/bits/char_traits.h ****       { return static_cast<char_type>(__c); }
 134:/usr/include/c++/10/bits/char_traits.h **** 
 135:/usr/include/c++/10/bits/char_traits.h ****       static _GLIBCXX_CONSTEXPR int_type
 136:/usr/include/c++/10/bits/char_traits.h ****       to_int_type(const char_type& __c)
 137:/usr/include/c++/10/bits/char_traits.h ****       { return static_cast<int_type>(__c); }
 138:/usr/include/c++/10/bits/char_traits.h **** 
 139:/usr/include/c++/10/bits/char_traits.h ****       static _GLIBCXX_CONSTEXPR bool
 140:/usr/include/c++/10/bits/char_traits.h ****       eq_int_type(const int_type& __c1, const int_type& __c2)
 141:/usr/include/c++/10/bits/char_traits.h ****       { return __c1 == __c2; }
 142:/usr/include/c++/10/bits/char_traits.h **** 
 143:/usr/include/c++/10/bits/char_traits.h ****       static _GLIBCXX_CONSTEXPR int_type
 144:/usr/include/c++/10/bits/char_traits.h ****       eof()
 145:/usr/include/c++/10/bits/char_traits.h ****       { return static_cast<int_type>(_GLIBCXX_STDIO_EOF); }
 146:/usr/include/c++/10/bits/char_traits.h **** 
 147:/usr/include/c++/10/bits/char_traits.h ****       static _GLIBCXX_CONSTEXPR int_type
 148:/usr/include/c++/10/bits/char_traits.h ****       not_eof(const int_type& __c)
 149:/usr/include/c++/10/bits/char_traits.h ****       { return !eq_int_type(__c, eof()) ? __c : to_int_type(char_type()); }
 150:/usr/include/c++/10/bits/char_traits.h ****     };
 151:/usr/include/c++/10/bits/char_traits.h **** 
 152:/usr/include/c++/10/bits/char_traits.h ****   template<typename _CharT>
 153:/usr/include/c++/10/bits/char_traits.h ****     _GLIBCXX14_CONSTEXPR int
 154:/usr/include/c++/10/bits/char_traits.h ****     char_traits<_CharT>::
 155:/usr/include/c++/10/bits/char_traits.h ****     compare(const char_type* __s1, const char_type* __s2, std::size_t __n)
 156:/usr/include/c++/10/bits/char_traits.h ****     {
 157:/usr/include/c++/10/bits/char_traits.h ****       for (std::size_t __i = 0; __i < __n; ++__i)
 158:/usr/include/c++/10/bits/char_traits.h **** 	if (lt(__s1[__i], __s2[__i]))
 159:/usr/include/c++/10/bits/char_traits.h **** 	  return -1;
 160:/usr/include/c++/10/bits/char_traits.h **** 	else if (lt(__s2[__i], __s1[__i]))
 161:/usr/include/c++/10/bits/char_traits.h **** 	  return 1;
 162:/usr/include/c++/10/bits/char_traits.h ****       return 0;
 163:/usr/include/c++/10/bits/char_traits.h ****     }
 164:/usr/include/c++/10/bits/char_traits.h **** 
 165:/usr/include/c++/10/bits/char_traits.h ****   template<typename _CharT>
 166:/usr/include/c++/10/bits/char_traits.h ****     _GLIBCXX14_CONSTEXPR std::size_t
 167:/usr/include/c++/10/bits/char_traits.h ****     char_traits<_CharT>::
 168:/usr/include/c++/10/bits/char_traits.h ****     length(const char_type* __p)
 169:/usr/include/c++/10/bits/char_traits.h ****     {
 170:/usr/include/c++/10/bits/char_traits.h ****       std::size_t __i = 0;
 171:/usr/include/c++/10/bits/char_traits.h ****       while (!eq(__p[__i], char_type()))
 172:/usr/include/c++/10/bits/char_traits.h ****         ++__i;
 173:/usr/include/c++/10/bits/char_traits.h ****       return __i;
 174:/usr/include/c++/10/bits/char_traits.h ****     }
 175:/usr/include/c++/10/bits/char_traits.h **** 
 176:/usr/include/c++/10/bits/char_traits.h ****   template<typename _CharT>
 177:/usr/include/c++/10/bits/char_traits.h ****     _GLIBCXX14_CONSTEXPR const typename char_traits<_CharT>::char_type*
 178:/usr/include/c++/10/bits/char_traits.h ****     char_traits<_CharT>::
 179:/usr/include/c++/10/bits/char_traits.h ****     find(const char_type* __s, std::size_t __n, const char_type& __a)
AARCH64 GAS  obj/Ch11_01.s 			page 19


 180:/usr/include/c++/10/bits/char_traits.h ****     {
 181:/usr/include/c++/10/bits/char_traits.h ****       for (std::size_t __i = 0; __i < __n; ++__i)
 182:/usr/include/c++/10/bits/char_traits.h ****         if (eq(__s[__i], __a))
 183:/usr/include/c++/10/bits/char_traits.h ****           return __s + __i;
 184:/usr/include/c++/10/bits/char_traits.h ****       return 0;
 185:/usr/include/c++/10/bits/char_traits.h ****     }
 186:/usr/include/c++/10/bits/char_traits.h **** 
 187:/usr/include/c++/10/bits/char_traits.h ****   template<typename _CharT>
 188:/usr/include/c++/10/bits/char_traits.h ****     _GLIBCXX20_CONSTEXPR
 189:/usr/include/c++/10/bits/char_traits.h ****     typename char_traits<_CharT>::char_type*
 190:/usr/include/c++/10/bits/char_traits.h ****     char_traits<_CharT>::
 191:/usr/include/c++/10/bits/char_traits.h ****     move(char_type* __s1, const char_type* __s2, std::size_t __n)
 192:/usr/include/c++/10/bits/char_traits.h ****     {
 193:/usr/include/c++/10/bits/char_traits.h ****       if (__n == 0)
 194:/usr/include/c++/10/bits/char_traits.h **** 	return __s1;
 195:/usr/include/c++/10/bits/char_traits.h **** #ifdef __cpp_lib_is_constant_evaluated
 196:/usr/include/c++/10/bits/char_traits.h ****       if (std::is_constant_evaluated())
 197:/usr/include/c++/10/bits/char_traits.h **** 	{
 198:/usr/include/c++/10/bits/char_traits.h **** 	  if (__s1 > __s2 && __s1 < __s2 + __n)
 199:/usr/include/c++/10/bits/char_traits.h **** 	    std::copy_backward(__s2, __s2 + __n, __s1);
 200:/usr/include/c++/10/bits/char_traits.h **** 	  else
 201:/usr/include/c++/10/bits/char_traits.h **** 	    std::copy(__s2, __s2 + __n, __s1);
 202:/usr/include/c++/10/bits/char_traits.h **** 	  return __s1;
 203:/usr/include/c++/10/bits/char_traits.h **** 	}
 204:/usr/include/c++/10/bits/char_traits.h **** #endif
 205:/usr/include/c++/10/bits/char_traits.h ****       return static_cast<_CharT*>(__builtin_memmove(__s1, __s2,
 206:/usr/include/c++/10/bits/char_traits.h **** 						    __n * sizeof(char_type)));
 207:/usr/include/c++/10/bits/char_traits.h ****     }
 208:/usr/include/c++/10/bits/char_traits.h **** 
 209:/usr/include/c++/10/bits/char_traits.h ****   template<typename _CharT>
 210:/usr/include/c++/10/bits/char_traits.h ****     _GLIBCXX20_CONSTEXPR
 211:/usr/include/c++/10/bits/char_traits.h ****     typename char_traits<_CharT>::char_type*
 212:/usr/include/c++/10/bits/char_traits.h ****     char_traits<_CharT>::
 213:/usr/include/c++/10/bits/char_traits.h ****     copy(char_type* __s1, const char_type* __s2, std::size_t __n)
 214:/usr/include/c++/10/bits/char_traits.h ****     {
 215:/usr/include/c++/10/bits/char_traits.h ****       // NB: Inline std::copy so no recursive dependencies.
 216:/usr/include/c++/10/bits/char_traits.h ****       std::copy(__s2, __s2 + __n, __s1);
 217:/usr/include/c++/10/bits/char_traits.h ****       return __s1;
 218:/usr/include/c++/10/bits/char_traits.h ****     }
 219:/usr/include/c++/10/bits/char_traits.h **** 
 220:/usr/include/c++/10/bits/char_traits.h ****   template<typename _CharT>
 221:/usr/include/c++/10/bits/char_traits.h ****     _GLIBCXX20_CONSTEXPR
 222:/usr/include/c++/10/bits/char_traits.h ****     typename char_traits<_CharT>::char_type*
 223:/usr/include/c++/10/bits/char_traits.h ****     char_traits<_CharT>::
 224:/usr/include/c++/10/bits/char_traits.h ****     assign(char_type* __s, std::size_t __n, char_type __a)
 225:/usr/include/c++/10/bits/char_traits.h ****     {
 226:/usr/include/c++/10/bits/char_traits.h ****       // NB: Inline std::fill_n so no recursive dependencies.
 227:/usr/include/c++/10/bits/char_traits.h ****       std::fill_n(__s, __n, __a);
 228:/usr/include/c++/10/bits/char_traits.h ****       return __s;
 229:/usr/include/c++/10/bits/char_traits.h ****     }
 230:/usr/include/c++/10/bits/char_traits.h **** 
 231:/usr/include/c++/10/bits/char_traits.h **** _GLIBCXX_END_NAMESPACE_VERSION
 232:/usr/include/c++/10/bits/char_traits.h **** } // namespace
 233:/usr/include/c++/10/bits/char_traits.h **** 
 234:/usr/include/c++/10/bits/char_traits.h **** namespace std _GLIBCXX_VISIBILITY(default)
 235:/usr/include/c++/10/bits/char_traits.h **** {
 236:/usr/include/c++/10/bits/char_traits.h **** _GLIBCXX_BEGIN_NAMESPACE_VERSION
AARCH64 GAS  obj/Ch11_01.s 			page 20


 237:/usr/include/c++/10/bits/char_traits.h **** 
 238:/usr/include/c++/10/bits/char_traits.h **** #if __cplusplus >= 201703L
 239:/usr/include/c++/10/bits/char_traits.h **** 
 240:/usr/include/c++/10/bits/char_traits.h **** #if __cplusplus == 201703L
 241:/usr/include/c++/10/bits/char_traits.h **** // Unofficial macro indicating P0426R1 support
 242:/usr/include/c++/10/bits/char_traits.h **** # define __cpp_lib_constexpr_char_traits 201611L
 243:/usr/include/c++/10/bits/char_traits.h **** #else
 244:/usr/include/c++/10/bits/char_traits.h **** // Also support P1032R1 in C++20
 245:/usr/include/c++/10/bits/char_traits.h **** # define __cpp_lib_constexpr_char_traits 201811L
 246:/usr/include/c++/10/bits/char_traits.h **** #endif
 247:/usr/include/c++/10/bits/char_traits.h **** 
 248:/usr/include/c++/10/bits/char_traits.h ****   /**
 249:/usr/include/c++/10/bits/char_traits.h ****    *  @brief Determine whether the characters of a NULL-terminated
 250:/usr/include/c++/10/bits/char_traits.h ****    *  string are known at compile time.
 251:/usr/include/c++/10/bits/char_traits.h ****    *  @param  __s  The string.
 252:/usr/include/c++/10/bits/char_traits.h ****    *
 253:/usr/include/c++/10/bits/char_traits.h ****    *  Assumes that _CharT is a built-in character type.
 254:/usr/include/c++/10/bits/char_traits.h ****    */
 255:/usr/include/c++/10/bits/char_traits.h ****   template<typename _CharT>
 256:/usr/include/c++/10/bits/char_traits.h ****     static _GLIBCXX_ALWAYS_INLINE constexpr bool
 257:/usr/include/c++/10/bits/char_traits.h ****     __constant_string_p(const _CharT* __s)
 258:/usr/include/c++/10/bits/char_traits.h ****     {
 259:/usr/include/c++/10/bits/char_traits.h **** #ifdef _GLIBCXX_HAVE_BUILTIN_IS_CONSTANT_EVALUATED
 260:/usr/include/c++/10/bits/char_traits.h ****       (void) __s;
 261:/usr/include/c++/10/bits/char_traits.h ****       // In constexpr contexts all strings should be constant.
 262:/usr/include/c++/10/bits/char_traits.h ****       return __builtin_is_constant_evaluated();
 263:/usr/include/c++/10/bits/char_traits.h **** #else
 264:/usr/include/c++/10/bits/char_traits.h ****       while (__builtin_constant_p(*__s) && *__s)
 265:/usr/include/c++/10/bits/char_traits.h **** 	__s++;
 266:/usr/include/c++/10/bits/char_traits.h ****       return __builtin_constant_p(*__s);
 267:/usr/include/c++/10/bits/char_traits.h **** #endif
 268:/usr/include/c++/10/bits/char_traits.h ****     }
 269:/usr/include/c++/10/bits/char_traits.h **** 
 270:/usr/include/c++/10/bits/char_traits.h ****   /**
 271:/usr/include/c++/10/bits/char_traits.h ****    *  @brief Determine whether the characters of a character array are
 272:/usr/include/c++/10/bits/char_traits.h ****    *  known at compile time.
 273:/usr/include/c++/10/bits/char_traits.h ****    *  @param  __a  The character array.
 274:/usr/include/c++/10/bits/char_traits.h ****    *  @param  __n  Number of characters.
 275:/usr/include/c++/10/bits/char_traits.h ****    *
 276:/usr/include/c++/10/bits/char_traits.h ****    *  Assumes that _CharT is a built-in character type.
 277:/usr/include/c++/10/bits/char_traits.h ****    */
 278:/usr/include/c++/10/bits/char_traits.h ****   template<typename _CharT>
 279:/usr/include/c++/10/bits/char_traits.h ****     static _GLIBCXX_ALWAYS_INLINE constexpr bool
 280:/usr/include/c++/10/bits/char_traits.h ****     __constant_char_array_p(const _CharT* __a, size_t __n)
 281:/usr/include/c++/10/bits/char_traits.h ****     {
 282:/usr/include/c++/10/bits/char_traits.h **** #ifdef _GLIBCXX_HAVE_BUILTIN_IS_CONSTANT_EVALUATED
 283:/usr/include/c++/10/bits/char_traits.h ****       (void) __a;
 284:/usr/include/c++/10/bits/char_traits.h ****       (void) __n;
 285:/usr/include/c++/10/bits/char_traits.h ****       // In constexpr contexts all character arrays should be constant.
 286:/usr/include/c++/10/bits/char_traits.h ****       return __builtin_is_constant_evaluated();
 287:/usr/include/c++/10/bits/char_traits.h **** #else
 288:/usr/include/c++/10/bits/char_traits.h ****       size_t __i = 0;
 289:/usr/include/c++/10/bits/char_traits.h ****       while (__i < __n && __builtin_constant_p(__a[__i]))
 290:/usr/include/c++/10/bits/char_traits.h **** 	__i++;
 291:/usr/include/c++/10/bits/char_traits.h ****       return __i == __n;
 292:/usr/include/c++/10/bits/char_traits.h **** #endif
 293:/usr/include/c++/10/bits/char_traits.h ****     }
AARCH64 GAS  obj/Ch11_01.s 			page 21


 294:/usr/include/c++/10/bits/char_traits.h **** #endif
 295:/usr/include/c++/10/bits/char_traits.h **** 
 296:/usr/include/c++/10/bits/char_traits.h ****   // 21.1
 297:/usr/include/c++/10/bits/char_traits.h ****   /**
 298:/usr/include/c++/10/bits/char_traits.h ****    *  @brief  Basis for explicit traits specializations.
 299:/usr/include/c++/10/bits/char_traits.h ****    *
 300:/usr/include/c++/10/bits/char_traits.h ****    *  @note  For any given actual character type, this definition is
 301:/usr/include/c++/10/bits/char_traits.h ****    *  probably wrong.  Since this is just a thin wrapper around
 302:/usr/include/c++/10/bits/char_traits.h ****    *  __gnu_cxx::char_traits, it is possible to achieve a more
 303:/usr/include/c++/10/bits/char_traits.h ****    *  appropriate definition by specializing __gnu_cxx::char_traits.
 304:/usr/include/c++/10/bits/char_traits.h ****    *
 305:/usr/include/c++/10/bits/char_traits.h ****    *  See https://gcc.gnu.org/onlinedocs/libstdc++/manual/strings.html#strings.string.character_typ
 306:/usr/include/c++/10/bits/char_traits.h ****    *  for advice on how to make use of this class for @a unusual character
 307:/usr/include/c++/10/bits/char_traits.h ****    *  types. Also, check out include/ext/pod_char_traits.h.
 308:/usr/include/c++/10/bits/char_traits.h ****   */
 309:/usr/include/c++/10/bits/char_traits.h ****   template<class _CharT>
 310:/usr/include/c++/10/bits/char_traits.h ****     struct char_traits : public __gnu_cxx::char_traits<_CharT>
 311:/usr/include/c++/10/bits/char_traits.h ****     { };
 312:/usr/include/c++/10/bits/char_traits.h **** 
 313:/usr/include/c++/10/bits/char_traits.h **** 
 314:/usr/include/c++/10/bits/char_traits.h ****   /// 21.1.3.1  char_traits specializations
 315:/usr/include/c++/10/bits/char_traits.h ****   template<>
 316:/usr/include/c++/10/bits/char_traits.h ****     struct char_traits<char>
 317:/usr/include/c++/10/bits/char_traits.h ****     {
 318:/usr/include/c++/10/bits/char_traits.h ****       typedef char              char_type;
 319:/usr/include/c++/10/bits/char_traits.h ****       typedef int               int_type;
 320:/usr/include/c++/10/bits/char_traits.h ****       typedef streampos         pos_type;
 321:/usr/include/c++/10/bits/char_traits.h ****       typedef streamoff         off_type;
 322:/usr/include/c++/10/bits/char_traits.h ****       typedef mbstate_t         state_type;
 323:/usr/include/c++/10/bits/char_traits.h **** #if __cpp_lib_three_way_comparison
 324:/usr/include/c++/10/bits/char_traits.h ****       using comparison_category = strong_ordering;
 325:/usr/include/c++/10/bits/char_traits.h **** #endif
 326:/usr/include/c++/10/bits/char_traits.h **** 
 327:/usr/include/c++/10/bits/char_traits.h ****       static _GLIBCXX17_CONSTEXPR void
 328:/usr/include/c++/10/bits/char_traits.h ****       assign(char_type& __c1, const char_type& __c2) _GLIBCXX_NOEXCEPT
 329:/usr/include/c++/10/bits/char_traits.h ****       { __c1 = __c2; }
 330:/usr/include/c++/10/bits/char_traits.h **** 
 331:/usr/include/c++/10/bits/char_traits.h ****       static _GLIBCXX_CONSTEXPR bool
 332:/usr/include/c++/10/bits/char_traits.h ****       eq(const char_type& __c1, const char_type& __c2) _GLIBCXX_NOEXCEPT
 333:/usr/include/c++/10/bits/char_traits.h ****       { return __c1 == __c2; }
 334:/usr/include/c++/10/bits/char_traits.h **** 
 335:/usr/include/c++/10/bits/char_traits.h ****       static _GLIBCXX_CONSTEXPR bool
 336:/usr/include/c++/10/bits/char_traits.h ****       lt(const char_type& __c1, const char_type& __c2) _GLIBCXX_NOEXCEPT
 337:/usr/include/c++/10/bits/char_traits.h ****       {
 338:/usr/include/c++/10/bits/char_traits.h **** 	// LWG 467.
 339:/usr/include/c++/10/bits/char_traits.h **** 	return (static_cast<unsigned char>(__c1)
 340:/usr/include/c++/10/bits/char_traits.h **** 		< static_cast<unsigned char>(__c2));
 341:/usr/include/c++/10/bits/char_traits.h ****       }
 342:/usr/include/c++/10/bits/char_traits.h **** 
 343:/usr/include/c++/10/bits/char_traits.h ****       static _GLIBCXX17_CONSTEXPR int
 344:/usr/include/c++/10/bits/char_traits.h ****       compare(const char_type* __s1, const char_type* __s2, size_t __n)
 345:/usr/include/c++/10/bits/char_traits.h ****       {
 346:/usr/include/c++/10/bits/char_traits.h **** 	if (__n == 0)
 347:/usr/include/c++/10/bits/char_traits.h **** 	  return 0;
 348:/usr/include/c++/10/bits/char_traits.h **** #if __cplusplus >= 201703L
 349:/usr/include/c++/10/bits/char_traits.h **** 	if (__builtin_constant_p(__n)
 350:/usr/include/c++/10/bits/char_traits.h **** 	    && __constant_char_array_p(__s1, __n)
AARCH64 GAS  obj/Ch11_01.s 			page 22


 351:/usr/include/c++/10/bits/char_traits.h **** 	    && __constant_char_array_p(__s2, __n))
 352:/usr/include/c++/10/bits/char_traits.h **** 	  return __gnu_cxx::char_traits<char_type>::compare(__s1, __s2, __n);
 353:/usr/include/c++/10/bits/char_traits.h **** #endif
 354:/usr/include/c++/10/bits/char_traits.h **** 	return __builtin_memcmp(__s1, __s2, __n);
 355:/usr/include/c++/10/bits/char_traits.h ****       }
 356:/usr/include/c++/10/bits/char_traits.h **** 
 357:/usr/include/c++/10/bits/char_traits.h ****       static _GLIBCXX17_CONSTEXPR size_t
 358:/usr/include/c++/10/bits/char_traits.h ****       length(const char_type* __s)
 359:/usr/include/c++/10/bits/char_traits.h ****       {
 360:/usr/include/c++/10/bits/char_traits.h **** #if __cplusplus >= 201703L
 361:/usr/include/c++/10/bits/char_traits.h **** 	if (__constant_string_p(__s))
 362:/usr/include/c++/10/bits/char_traits.h **** 	  return __gnu_cxx::char_traits<char_type>::length(__s);
 363:/usr/include/c++/10/bits/char_traits.h **** #endif
 364:/usr/include/c++/10/bits/char_traits.h **** 	return __builtin_strlen(__s);
 129              		.loc 3 364 2 is_stmt 1 view .LVU20
 130              	.LBB225:
 131              	.LBB216:
 132              	.LBB183:
 133              	.LBB173:
 134              		.loc 2 611 18 is_stmt 0 view .LVU21
 135 0048 01000090 		adrp	x1, .LC0
 136 004c 21000091 		add	x1, x1, :lo12:.LC0
 137 0050 E00313AA 		mov	x0, x19
 138              	.LVL5:
 139              		.loc 2 611 18 view .LVU22
 140 0054 00000094 		bl	_ZSt16__ostream_insertIcSt11char_traitsIcEERSt13basic_ostreamIT_T0_ES6_PKS3_l
 141              	.LVL6:
 142              		.loc 2 611 18 view .LVU23
 143              	.LBE173:
 144              	.LBE183:
 145              	.LBB184:
 146              	.LBB176:
 518:/usr/include/c++/10/ostream **** 
 147              		.loc 2 518 30 view .LVU24
 148 0058 E10314AA 		mov	x1, x20
 149 005c E00313AA 		mov	x0, x19
 150 0060 220080D2 		mov	x2, 1
 151 0064 F57F0139 		strb	w21, [sp, 95]
 152              	.LVL7:
 518:/usr/include/c++/10/ostream **** 
 153              		.loc 2 518 30 view .LVU25
 154              	.LBE176:
 155              	.LBI174:
 517:/usr/include/c++/10/ostream ****     { return __ostream_insert(__out, &__c, 1); }
 156              		.loc 2 517 5 is_stmt 1 view .LVU26
 157              	.LBB177:
 518:/usr/include/c++/10/ostream **** 
 158              		.loc 2 518 30 is_stmt 0 view .LVU27
 159 0068 00000094 		bl	_ZSt16__ostream_insertIcSt11char_traitsIcEERSt13basic_ostreamIT_T0_ES6_PKS3_l
 160              	.LVL8:
 518:/usr/include/c++/10/ostream **** 
 161              		.loc 2 518 30 view .LVU28
 162              	.LBE177:
 163              	.LBE184:
 164              	.LBB185:
 165              	.LBI185:
 606:/usr/include/c++/10/ostream ****     {
AARCH64 GAS  obj/Ch11_01.s 			page 23


 166              		.loc 2 606 5 is_stmt 1 view .LVU29
 606:/usr/include/c++/10/ostream ****     {
 167              		.loc 2 606 5 is_stmt 0 view .LVU30
 168              	.LBE185:
 169              	.LBE216:
 170              	.LBE225:
 171              		.loc 3 364 2 is_stmt 1 view .LVU31
 172              	.LBB226:
 173              	.LBB217:
 174              	.LBB187:
 175              	.LBB186:
 176              		.loc 2 611 18 is_stmt 0 view .LVU32
 177 006c 19000090 		adrp	x25, .LC1
 178 0070 820080D2 		mov	x2, 4
 179 0074 39030091 		add	x25, x25, :lo12:.LC1
 180 0078 E10319AA 		mov	x1, x25
 181 007c E00313AA 		mov	x0, x19
 182 0080 00000094 		bl	_ZSt16__ostream_insertIcSt11char_traitsIcEERSt13basic_ostreamIT_T0_ES6_PKS3_l
 183              	.LVL9:
 184              		.loc 2 611 18 view .LVU33
 185              	.LBE186:
 186              	.LBE187:
 187              	.LBB188:
 188              	.LBB189:
 189 0084 17000090 		adrp	x23, .LC3
 190              	.LBE189:
 191              	.LBE188:
  18:Ch11_01.cpp   ****     cout << "b = " << b << nl;
 192              		.loc 1 18 25 view .LVU34
 193 0088 E00313AA 		mov	x0, x19
 194 008c 810C8052 		mov	w1, 100
 195 0090 00000094 		bl	_ZNSolsEi
 196              	.LVL10:
  18:Ch11_01.cpp   ****     cout << "b = " << b << nl;
 197              		.loc 1 18 25 view .LVU35
 198 0094 F57F0139 		strb	w21, [sp, 95]
 199              	.LVL11:
 200              	.LBB192:
 201              	.LBI192:
 517:/usr/include/c++/10/ostream ****     { return __ostream_insert(__out, &__c, 1); }
 202              		.loc 2 517 5 is_stmt 1 view .LVU36
 203              	.LBB193:
 518:/usr/include/c++/10/ostream **** 
 204              		.loc 2 518 30 is_stmt 0 view .LVU37
 205 0098 E10314AA 		mov	x1, x20
 206 009c 220080D2 		mov	x2, 1
 207 00a0 00000094 		bl	_ZSt16__ostream_insertIcSt11char_traitsIcEERSt13basic_ostreamIT_T0_ES6_PKS3_l
 208              	.LVL12:
 518:/usr/include/c++/10/ostream **** 
 209              		.loc 2 518 30 view .LVU38
 210              	.LBE193:
 211              	.LBE192:
 212              	.LBB194:
 213              	.LBI178:
 606:/usr/include/c++/10/ostream ****     {
 214              		.loc 2 606 5 is_stmt 1 view .LVU39
 606:/usr/include/c++/10/ostream ****     {
AARCH64 GAS  obj/Ch11_01.s 			page 24


 215              		.loc 2 606 5 is_stmt 0 view .LVU40
 216              	.LBE194:
 217              	.LBE217:
 218              	.LBE226:
 219              		.loc 3 364 2 is_stmt 1 view .LVU41
 220              	.LBB227:
 221              	.LBB218:
 222              	.LBB195:
 223              	.LBB190:
 224              		.loc 2 611 18 is_stmt 0 view .LVU42
 225 00a4 F7020091 		add	x23, x23, :lo12:.LC3
 226              	.LBE190:
 227              	.LBE195:
 228              	.LBB196:
 229              	.LBB180:
 230 00a8 820080D2 		mov	x2, 4
 231 00ac E10318AA 		mov	x1, x24
 232 00b0 E00313AA 		mov	x0, x19
 233 00b4 00000094 		bl	_ZSt16__ostream_insertIcSt11char_traitsIcEERSt13basic_ostreamIT_T0_ES6_PKS3_l
 234              	.LVL13:
 235              		.loc 2 611 18 view .LVU43
 236              	.LBE180:
 237              	.LBE196:
  19:Ch11_01.cpp   ****     cout << "c = " << c << nl;
 238              		.loc 1 19 25 view .LVU44
 239 00b8 E00313AA 		mov	x0, x19
 240 00bc 01198052 		mov	w1, 200
 241 00c0 00000094 		bl	_ZNSolsEi
 242              	.LVL14:
  19:Ch11_01.cpp   ****     cout << "c = " << c << nl;
 243              		.loc 1 19 25 view .LVU45
 244 00c4 F57F0139 		strb	w21, [sp, 95]
 245              	.LVL15:
 246              	.LBB197:
 247              	.LBI197:
 517:/usr/include/c++/10/ostream ****     { return __ostream_insert(__out, &__c, 1); }
 248              		.loc 2 517 5 is_stmt 1 view .LVU46
 249              	.LBB198:
 518:/usr/include/c++/10/ostream **** 
 250              		.loc 2 518 30 is_stmt 0 view .LVU47
 251 00c8 E10314AA 		mov	x1, x20
 252 00cc 220080D2 		mov	x2, 1
 253 00d0 00000094 		bl	_ZSt16__ostream_insertIcSt11char_traitsIcEERSt13basic_ostreamIT_T0_ES6_PKS3_l
 254              	.LVL16:
 518:/usr/include/c++/10/ostream **** 
 255              		.loc 2 518 30 view .LVU48
 256              	.LBE198:
 257              	.LBE197:
 258              	.LBB199:
 259              	.LBI188:
 606:/usr/include/c++/10/ostream ****     {
 260              		.loc 2 606 5 is_stmt 1 view .LVU49
 606:/usr/include/c++/10/ostream ****     {
 261              		.loc 2 606 5 is_stmt 0 view .LVU50
 262              	.LBE199:
 263              	.LBE218:
 264              	.LBE227:
AARCH64 GAS  obj/Ch11_01.s 			page 25


 265              		.loc 3 364 2 is_stmt 1 view .LVU51
 266              	.LBB228:
 267              	.LBB219:
 268              	.LBB200:
 269              	.LBB201:
 270              		.loc 2 611 18 is_stmt 0 view .LVU52
 271 00d4 16000090 		adrp	x22, .LC4
 272              	.LBE201:
 273              	.LBE200:
 274              	.LBB203:
 275              	.LBB191:
 276 00d8 820080D2 		mov	x2, 4
 277 00dc E10317AA 		mov	x1, x23
 278 00e0 E00313AA 		mov	x0, x19
 279 00e4 00000094 		bl	_ZSt16__ostream_insertIcSt11char_traitsIcEERSt13basic_ostreamIT_T0_ES6_PKS3_l
 280              	.LVL17:
 281              		.loc 2 611 18 view .LVU53
 282              	.LBE191:
 283              	.LBE203:
  20:Ch11_01.cpp   ****     cout << "result (a + b - c) = " << result << nl;
 284              		.loc 1 20 25 view .LVU54
 285 00e8 E00313AA 		mov	x0, x19
 286 00ec 21068012 		mov	w1, -50
 287 00f0 00000094 		bl	_ZNSolsEi
 288              	.LVL18:
  20:Ch11_01.cpp   ****     cout << "result (a + b - c) = " << result << nl;
 289              		.loc 1 20 25 view .LVU55
 290 00f4 F57F0139 		strb	w21, [sp, 95]
 291              	.LVL19:
 292              	.LBB204:
 293              	.LBI204:
 517:/usr/include/c++/10/ostream ****     { return __ostream_insert(__out, &__c, 1); }
 294              		.loc 2 517 5 is_stmt 1 view .LVU56
 295              	.LBB205:
 518:/usr/include/c++/10/ostream **** 
 296              		.loc 2 518 30 is_stmt 0 view .LVU57
 297 00f8 E10314AA 		mov	x1, x20
 298 00fc 220080D2 		mov	x2, 1
 299 0100 00000094 		bl	_ZSt16__ostream_insertIcSt11char_traitsIcEERSt13basic_ostreamIT_T0_ES6_PKS3_l
 300              	.LVL20:
 518:/usr/include/c++/10/ostream **** 
 301              		.loc 2 518 30 view .LVU58
 302              	.LBE205:
 303              	.LBE204:
 304              	.LBB206:
 305              	.LBI200:
 606:/usr/include/c++/10/ostream ****     {
 306              		.loc 2 606 5 is_stmt 1 view .LVU59
 606:/usr/include/c++/10/ostream ****     {
 307              		.loc 2 606 5 is_stmt 0 view .LVU60
 308              	.LBE206:
 309              	.LBE219:
 310              	.LBE228:
 311              		.loc 3 364 2 is_stmt 1 view .LVU61
 312              	.LBB229:
 313              	.LBB220:
 314              	.LBB207:
AARCH64 GAS  obj/Ch11_01.s 			page 26


 315              	.LBB202:
 316              		.loc 2 611 18 is_stmt 0 view .LVU62
 317 0104 D6020091 		add	x22, x22, :lo12:.LC4
 318 0108 A20280D2 		mov	x2, 21
 319 010c E10316AA 		mov	x1, x22
 320 0110 E00313AA 		mov	x0, x19
 321 0114 00000094 		bl	_ZSt16__ostream_insertIcSt11char_traitsIcEERSt13basic_ostreamIT_T0_ES6_PKS3_l
 322              	.LVL21:
 323              		.loc 2 611 18 view .LVU63
 324              	.LBE202:
 325              	.LBE207:
  21:Ch11_01.cpp   ****     cout << nl;
 326              		.loc 1 21 47 view .LVU64
 327 0118 E1031A2A 		mov	w1, w26
 328 011c E00313AA 		mov	x0, x19
 329 0120 00000094 		bl	_ZNSolsEi
 330              	.LVL22:
  21:Ch11_01.cpp   ****     cout << nl;
 331              		.loc 1 21 47 view .LVU65
 332 0124 F57F0139 		strb	w21, [sp, 95]
 333              	.LVL23:
 334              	.LBB208:
 335              	.LBI208:
 517:/usr/include/c++/10/ostream ****     { return __ostream_insert(__out, &__c, 1); }
 336              		.loc 2 517 5 is_stmt 1 view .LVU66
 337              	.LBB209:
 518:/usr/include/c++/10/ostream **** 
 338              		.loc 2 518 30 is_stmt 0 view .LVU67
 339 0128 E10314AA 		mov	x1, x20
 340 012c 220080D2 		mov	x2, 1
 341 0130 00000094 		bl	_ZSt16__ostream_insertIcSt11char_traitsIcEERSt13basic_ostreamIT_T0_ES6_PKS3_l
 342              	.LVL24:
 518:/usr/include/c++/10/ostream **** 
 343              		.loc 2 518 30 view .LVU68
 344 0134 F57F0139 		strb	w21, [sp, 95]
 345              	.LVL25:
 518:/usr/include/c++/10/ostream **** 
 346              		.loc 2 518 30 view .LVU69
 347              	.LBE209:
 348              	.LBE208:
 349              	.LBB210:
 350              	.LBI210:
 517:/usr/include/c++/10/ostream ****     { return __ostream_insert(__out, &__c, 1); }
 351              		.loc 2 517 5 is_stmt 1 view .LVU70
 352              	.LBB211:
 518:/usr/include/c++/10/ostream **** 
 353              		.loc 2 518 30 is_stmt 0 view .LVU71
 354 0138 E10314AA 		mov	x1, x20
 355 013c E00313AA 		mov	x0, x19
 356 0140 220080D2 		mov	x2, 1
 357 0144 00000094 		bl	_ZSt16__ostream_insertIcSt11char_traitsIcEERSt13basic_ostreamIT_T0_ES6_PKS3_l
 358              	.LVL26:
 518:/usr/include/c++/10/ostream **** 
 359              		.loc 2 518 30 view .LVU72
 360              	.LBE211:
 361              	.LBE210:
 362              	.LBE220:
AARCH64 GAS  obj/Ch11_01.s 			page 27


 363              	.LBE229:
  30:Ch11_01.cpp   **** 
  31:Ch11_01.cpp   ****     long a2 = 1000, b2 = -2000, c2 = 500, result2;
 364              		.loc 1 31 5 is_stmt 1 view .LVU73
  32:Ch11_01.cpp   ****     result2 = IntegerAddSubB_(a2, b2, c2);
 365              		.loc 1 32 5 view .LVU74
 366              		.loc 1 32 30 is_stmt 0 view .LVU75
 367 0148 823E80D2 		mov	x2, 500
 368 014c E1F98092 		mov	x1, -2000
 369 0150 007D80D2 		mov	x0, 1000
 370 0154 00000094 		bl	IntegerAddSubB_
 371              	.LVL27:
 372              	.LBB230:
 373              	.LBB231:
 374              	.LBB232:
 375              	.LBB233:
 376              		.loc 2 611 18 view .LVU76
 377 0158 E20180D2 		mov	x2, 15
 378              	.LBE233:
 379              	.LBE232:
 380              	.LBE231:
 381              	.LBE230:
 382              		.loc 1 32 30 view .LVU77
 383 015c FA0300AA 		mov	x26, x0
 384              	.LVL28:
  33:Ch11_01.cpp   ****     PrintResult("IntegerAddSubB_", a2, b2, c2, result2);
 385              		.loc 1 33 5 is_stmt 1 view .LVU78
 386              	.LBB276:
 387              	.LBI230:
  13:Ch11_01.cpp   **** {
 388              		.loc 1 13 6 view .LVU79
 389              	.LBB270:
 390              	.LBB235:
 391              	.LBI232:
 606:/usr/include/c++/10/ostream ****     {
 392              		.loc 2 606 5 view .LVU80
 606:/usr/include/c++/10/ostream ****     {
 393              		.loc 2 606 5 is_stmt 0 view .LVU81
 394              	.LBE235:
 395              	.LBE270:
 396              	.LBE276:
 397              		.loc 3 364 2 is_stmt 1 view .LVU82
 398              	.LBB277:
 399              	.LBB271:
 400              	.LBB236:
 401              	.LBB234:
 402              		.loc 2 611 18 is_stmt 0 view .LVU83
 403 0160 01000090 		adrp	x1, .LC5
 404 0164 E00313AA 		mov	x0, x19
 405              	.LVL29:
 406              		.loc 2 611 18 view .LVU84
 407 0168 21000091 		add	x1, x1, :lo12:.LC5
 408 016c 00000094 		bl	_ZSt16__ostream_insertIcSt11char_traitsIcEERSt13basic_ostreamIT_T0_ES6_PKS3_l
 409              	.LVL30:
 410              		.loc 2 611 18 view .LVU85
 411              	.LBE234:
 412              	.LBE236:
AARCH64 GAS  obj/Ch11_01.s 			page 28


 413              	.LBB237:
 414              	.LBB238:
 518:/usr/include/c++/10/ostream **** 
 415              		.loc 2 518 30 view .LVU86
 416 0170 E10314AA 		mov	x1, x20
 417 0174 E00313AA 		mov	x0, x19
 418 0178 220080D2 		mov	x2, 1
 419 017c F57F0139 		strb	w21, [sp, 95]
 420              	.LVL31:
 518:/usr/include/c++/10/ostream **** 
 421              		.loc 2 518 30 view .LVU87
 422              	.LBE238:
 423              	.LBI237:
 517:/usr/include/c++/10/ostream ****     { return __ostream_insert(__out, &__c, 1); }
 424              		.loc 2 517 5 is_stmt 1 view .LVU88
 425              	.LBB239:
 518:/usr/include/c++/10/ostream **** 
 426              		.loc 2 518 30 is_stmt 0 view .LVU89
 427 0180 00000094 		bl	_ZSt16__ostream_insertIcSt11char_traitsIcEERSt13basic_ostreamIT_T0_ES6_PKS3_l
 428              	.LVL32:
 518:/usr/include/c++/10/ostream **** 
 429              		.loc 2 518 30 view .LVU90
 430              	.LBE239:
 431              	.LBE237:
 432              	.LBB240:
 433              	.LBI240:
 606:/usr/include/c++/10/ostream ****     {
 434              		.loc 2 606 5 is_stmt 1 view .LVU91
 606:/usr/include/c++/10/ostream ****     {
 435              		.loc 2 606 5 is_stmt 0 view .LVU92
 436              	.LBE240:
 437              	.LBE271:
 438              	.LBE277:
 439              		.loc 3 364 2 is_stmt 1 view .LVU93
 440              	.LBB278:
 441              	.LBB272:
 442              	.LBB242:
 443              	.LBB241:
 444              		.loc 2 611 18 is_stmt 0 view .LVU94
 445 0184 820080D2 		mov	x2, 4
 446 0188 E10319AA 		mov	x1, x25
 447 018c E00313AA 		mov	x0, x19
 448 0190 00000094 		bl	_ZSt16__ostream_insertIcSt11char_traitsIcEERSt13basic_ostreamIT_T0_ES6_PKS3_l
 449              	.LVL33:
 450              		.loc 2 611 18 view .LVU95
 451              	.LBE241:
 452              	.LBE242:
 453              	.LBB243:
 454              	.LBI243:
 166:/usr/include/c++/10/ostream ****       { return _M_insert(__n); }
 455              		.loc 2 166 7 is_stmt 1 view .LVU96
 456              	.LBB244:
 167:/usr/include/c++/10/ostream **** 
 457              		.loc 2 167 25 is_stmt 0 view .LVU97
 458 0194 E00313AA 		mov	x0, x19
 459 0198 017D80D2 		mov	x1, 1000
 460 019c 00000094 		bl	_ZNSo9_M_insertIlEERSoT_
AARCH64 GAS  obj/Ch11_01.s 			page 29


 461              	.LVL34:
 167:/usr/include/c++/10/ostream **** 
 462              		.loc 2 167 25 view .LVU98
 463 01a0 F57F0139 		strb	w21, [sp, 95]
 464              	.LVL35:
 167:/usr/include/c++/10/ostream **** 
 465              		.loc 2 167 25 view .LVU99
 466              	.LBE244:
 467              	.LBE243:
 468              	.LBB245:
 469              	.LBI245:
 517:/usr/include/c++/10/ostream ****     { return __ostream_insert(__out, &__c, 1); }
 470              		.loc 2 517 5 is_stmt 1 view .LVU100
 471              	.LBB246:
 518:/usr/include/c++/10/ostream **** 
 472              		.loc 2 518 30 is_stmt 0 view .LVU101
 473 01a4 E10314AA 		mov	x1, x20
 474 01a8 220080D2 		mov	x2, 1
 475 01ac 00000094 		bl	_ZSt16__ostream_insertIcSt11char_traitsIcEERSt13basic_ostreamIT_T0_ES6_PKS3_l
 476              	.LVL36:
 518:/usr/include/c++/10/ostream **** 
 477              		.loc 2 518 30 view .LVU102
 478              	.LBE246:
 479              	.LBE245:
 480              	.LBB247:
 481              	.LBI247:
 606:/usr/include/c++/10/ostream ****     {
 482              		.loc 2 606 5 is_stmt 1 view .LVU103
 606:/usr/include/c++/10/ostream ****     {
 483              		.loc 2 606 5 is_stmt 0 view .LVU104
 484              	.LBE247:
 485              	.LBE272:
 486              	.LBE278:
 487              		.loc 3 364 2 is_stmt 1 view .LVU105
 488              	.LBB279:
 489              	.LBB273:
 490              	.LBB249:
 491              	.LBB248:
 492              		.loc 2 611 18 is_stmt 0 view .LVU106
 493 01b0 820080D2 		mov	x2, 4
 494 01b4 E10318AA 		mov	x1, x24
 495 01b8 E00313AA 		mov	x0, x19
 496 01bc 00000094 		bl	_ZSt16__ostream_insertIcSt11char_traitsIcEERSt13basic_ostreamIT_T0_ES6_PKS3_l
 497              	.LVL37:
 498              		.loc 2 611 18 view .LVU107
 499              	.LBE248:
 500              	.LBE249:
 501              	.LBB250:
 502              	.LBI250:
 166:/usr/include/c++/10/ostream ****       { return _M_insert(__n); }
 503              		.loc 2 166 7 is_stmt 1 view .LVU108
 504              	.LBB251:
 167:/usr/include/c++/10/ostream **** 
 505              		.loc 2 167 25 is_stmt 0 view .LVU109
 506 01c0 E00313AA 		mov	x0, x19
 507 01c4 E1F98092 		mov	x1, -2000
 508 01c8 00000094 		bl	_ZNSo9_M_insertIlEERSoT_
AARCH64 GAS  obj/Ch11_01.s 			page 30


 509              	.LVL38:
 167:/usr/include/c++/10/ostream **** 
 510              		.loc 2 167 25 view .LVU110
 511 01cc F57F0139 		strb	w21, [sp, 95]
 512              	.LVL39:
 167:/usr/include/c++/10/ostream **** 
 513              		.loc 2 167 25 view .LVU111
 514              	.LBE251:
 515              	.LBE250:
 516              	.LBB252:
 517              	.LBI252:
 517:/usr/include/c++/10/ostream ****     { return __ostream_insert(__out, &__c, 1); }
 518              		.loc 2 517 5 is_stmt 1 view .LVU112
 519              	.LBB253:
 518:/usr/include/c++/10/ostream **** 
 520              		.loc 2 518 30 is_stmt 0 view .LVU113
 521 01d0 E10314AA 		mov	x1, x20
 522 01d4 220080D2 		mov	x2, 1
 523 01d8 00000094 		bl	_ZSt16__ostream_insertIcSt11char_traitsIcEERSt13basic_ostreamIT_T0_ES6_PKS3_l
 524              	.LVL40:
 518:/usr/include/c++/10/ostream **** 
 525              		.loc 2 518 30 view .LVU114
 526              	.LBE253:
 527              	.LBE252:
 528              	.LBB254:
 529              	.LBI254:
 606:/usr/include/c++/10/ostream ****     {
 530              		.loc 2 606 5 is_stmt 1 view .LVU115
 606:/usr/include/c++/10/ostream ****     {
 531              		.loc 2 606 5 is_stmt 0 view .LVU116
 532              	.LBE254:
 533              	.LBE273:
 534              	.LBE279:
 535              		.loc 3 364 2 is_stmt 1 view .LVU117
 536              	.LBB280:
 537              	.LBB274:
 538              	.LBB256:
 539              	.LBB255:
 540              		.loc 2 611 18 is_stmt 0 view .LVU118
 541 01dc 820080D2 		mov	x2, 4
 542 01e0 E10317AA 		mov	x1, x23
 543 01e4 E00313AA 		mov	x0, x19
 544 01e8 00000094 		bl	_ZSt16__ostream_insertIcSt11char_traitsIcEERSt13basic_ostreamIT_T0_ES6_PKS3_l
 545              	.LVL41:
 546              		.loc 2 611 18 view .LVU119
 547              	.LBE255:
 548              	.LBE256:
 549              	.LBB257:
 550              	.LBI257:
 166:/usr/include/c++/10/ostream ****       { return _M_insert(__n); }
 551              		.loc 2 166 7 is_stmt 1 view .LVU120
 552              	.LBB258:
 167:/usr/include/c++/10/ostream **** 
 553              		.loc 2 167 25 is_stmt 0 view .LVU121
 554 01ec E00313AA 		mov	x0, x19
 555 01f0 813E80D2 		mov	x1, 500
 556 01f4 00000094 		bl	_ZNSo9_M_insertIlEERSoT_
AARCH64 GAS  obj/Ch11_01.s 			page 31


 557              	.LVL42:
 167:/usr/include/c++/10/ostream **** 
 558              		.loc 2 167 25 view .LVU122
 559 01f8 F57F0139 		strb	w21, [sp, 95]
 560              	.LVL43:
 167:/usr/include/c++/10/ostream **** 
 561              		.loc 2 167 25 view .LVU123
 562              	.LBE258:
 563              	.LBE257:
 564              	.LBB259:
 565              	.LBI259:
 517:/usr/include/c++/10/ostream ****     { return __ostream_insert(__out, &__c, 1); }
 566              		.loc 2 517 5 is_stmt 1 view .LVU124
 567              	.LBB260:
 518:/usr/include/c++/10/ostream **** 
 568              		.loc 2 518 30 is_stmt 0 view .LVU125
 569 01fc E10314AA 		mov	x1, x20
 570 0200 220080D2 		mov	x2, 1
 571 0204 00000094 		bl	_ZSt16__ostream_insertIcSt11char_traitsIcEERSt13basic_ostreamIT_T0_ES6_PKS3_l
 572              	.LVL44:
 518:/usr/include/c++/10/ostream **** 
 573              		.loc 2 518 30 view .LVU126
 574              	.LBE260:
 575              	.LBE259:
 576              	.LBB261:
 577              	.LBI261:
 606:/usr/include/c++/10/ostream ****     {
 578              		.loc 2 606 5 is_stmt 1 view .LVU127
 606:/usr/include/c++/10/ostream ****     {
 579              		.loc 2 606 5 is_stmt 0 view .LVU128
 580              	.LBE261:
 581              	.LBE274:
 582              	.LBE280:
 583              		.loc 3 364 2 is_stmt 1 view .LVU129
 584              	.LBB281:
 585              	.LBB275:
 586              	.LBB263:
 587              	.LBB262:
 588              		.loc 2 611 18 is_stmt 0 view .LVU130
 589 0208 A20280D2 		mov	x2, 21
 590 020c E10316AA 		mov	x1, x22
 591 0210 E00313AA 		mov	x0, x19
 592 0214 00000094 		bl	_ZSt16__ostream_insertIcSt11char_traitsIcEERSt13basic_ostreamIT_T0_ES6_PKS3_l
 593              	.LVL45:
 594              		.loc 2 611 18 view .LVU131
 595              	.LBE262:
 596              	.LBE263:
 597              	.LBB264:
 598              	.LBI264:
 166:/usr/include/c++/10/ostream ****       { return _M_insert(__n); }
 599              		.loc 2 166 7 is_stmt 1 view .LVU132
 600              	.LBB265:
 167:/usr/include/c++/10/ostream **** 
 601              		.loc 2 167 25 is_stmt 0 view .LVU133
 602 0218 E1031AAA 		mov	x1, x26
 603 021c E00313AA 		mov	x0, x19
 604 0220 00000094 		bl	_ZNSo9_M_insertIlEERSoT_
AARCH64 GAS  obj/Ch11_01.s 			page 32


 605              	.LVL46:
 167:/usr/include/c++/10/ostream **** 
 606              		.loc 2 167 25 view .LVU134
 607 0224 F57F0139 		strb	w21, [sp, 95]
 608              	.LVL47:
 167:/usr/include/c++/10/ostream **** 
 609              		.loc 2 167 25 view .LVU135
 610              	.LBE265:
 611              	.LBE264:
 612              	.LBB266:
 613              	.LBI266:
 517:/usr/include/c++/10/ostream ****     { return __ostream_insert(__out, &__c, 1); }
 614              		.loc 2 517 5 is_stmt 1 view .LVU136
 615              	.LBB267:
 518:/usr/include/c++/10/ostream **** 
 616              		.loc 2 518 30 is_stmt 0 view .LVU137
 617 0228 E10314AA 		mov	x1, x20
 618 022c 220080D2 		mov	x2, 1
 619 0230 00000094 		bl	_ZSt16__ostream_insertIcSt11char_traitsIcEERSt13basic_ostreamIT_T0_ES6_PKS3_l
 620              	.LVL48:
 518:/usr/include/c++/10/ostream **** 
 621              		.loc 2 518 30 view .LVU138
 622 0234 F57F0139 		strb	w21, [sp, 95]
 623              	.LVL49:
 518:/usr/include/c++/10/ostream **** 
 624              		.loc 2 518 30 view .LVU139
 625              	.LBE267:
 626              	.LBE266:
 627              	.LBB268:
 628              	.LBI268:
 517:/usr/include/c++/10/ostream ****     { return __ostream_insert(__out, &__c, 1); }
 629              		.loc 2 517 5 is_stmt 1 view .LVU140
 630              	.LBB269:
 518:/usr/include/c++/10/ostream **** 
 631              		.loc 2 518 30 is_stmt 0 view .LVU141
 632 0238 E10314AA 		mov	x1, x20
 633 023c E00313AA 		mov	x0, x19
 634 0240 220080D2 		mov	x2, 1
 635 0244 00000094 		bl	_ZSt16__ostream_insertIcSt11char_traitsIcEERSt13basic_ostreamIT_T0_ES6_PKS3_l
 636              	.LVL50:
 518:/usr/include/c++/10/ostream **** 
 637              		.loc 2 518 30 view .LVU142
 638              	.LBE269:
 639              	.LBE268:
 640              	.LBE275:
 641              	.LBE281:
  34:Ch11_01.cpp   **** }
 642              		.loc 1 34 1 view .LVU143
 643 0248 00008052 		mov	w0, 0
 644 024c F35341A9 		ldp	x19, x20, [sp, 16]
 645 0250 F55B42A9 		ldp	x21, x22, [sp, 32]
 646 0254 F76343A9 		ldp	x23, x24, [sp, 48]
 647 0258 F96B44A9 		ldp	x25, x26, [sp, 64]
 648              	.LVL51:
 649              		.loc 1 34 1 view .LVU144
 650 025c FD7BC6A8 		ldp	x29, x30, [sp], 96
 651              		.cfi_restore 30
AARCH64 GAS  obj/Ch11_01.s 			page 33


 652              		.cfi_restore 29
 653              		.cfi_restore 25
 654              		.cfi_restore 26
 655              		.cfi_restore 23
 656              		.cfi_restore 24
 657              		.cfi_restore 21
 658              		.cfi_restore 22
 659              		.cfi_restore 19
 660              		.cfi_restore 20
 661              		.cfi_def_cfa_offset 0
 662 0260 C0035FD6 		ret
 663              		.cfi_endproc
 664              	.LFE1588:
 665              		.size	main, .-main
 666              		.align	2
 667              		.p2align 4,,11
 668              		.type	_GLOBAL__sub_I_main, %function
 669              	_GLOBAL__sub_I_main:
 670              	.LFB2088:
 671              		.loc 1 34 1 is_stmt 1 view -0
 672              		.cfi_startproc
 673              	.LVL52:
 674              	.LBB282:
 675              	.LBI282:
 676              		.loc 1 34 1 view .LVU146
 677              	.LBE282:
 678 0264 FD7BBEA9 		stp	x29, x30, [sp, -32]!
 679              		.cfi_def_cfa_offset 32
 680              		.cfi_offset 29, -32
 681              		.cfi_offset 30, -24
 682 0268 FD030091 		mov	x29, sp
 683 026c F30B00F9 		str	x19, [sp, 16]
 684              		.cfi_offset 19, -16
 685              	.LBB286:
 686              	.LBB283:
 687              		.file 4 "/usr/include/c++/10/iostream"
   1:/usr/include/c++/10/iostream **** // Standard iostream objects -*- C++ -*-
   2:/usr/include/c++/10/iostream **** 
   3:/usr/include/c++/10/iostream **** // Copyright (C) 1997-2020 Free Software Foundation, Inc.
   4:/usr/include/c++/10/iostream **** //
   5:/usr/include/c++/10/iostream **** // This file is part of the GNU ISO C++ Library.  This library is free
   6:/usr/include/c++/10/iostream **** // software; you can redistribute it and/or modify it under the
   7:/usr/include/c++/10/iostream **** // terms of the GNU General Public License as published by the
   8:/usr/include/c++/10/iostream **** // Free Software Foundation; either version 3, or (at your option)
   9:/usr/include/c++/10/iostream **** // any later version.
  10:/usr/include/c++/10/iostream **** 
  11:/usr/include/c++/10/iostream **** // This library is distributed in the hope that it will be useful,
  12:/usr/include/c++/10/iostream **** // but WITHOUT ANY WARRANTY; without even the implied warranty of
  13:/usr/include/c++/10/iostream **** // MERCHANTABILITY or FITNESS FOR A PARTICULAR PURPOSE.  See the
  14:/usr/include/c++/10/iostream **** // GNU General Public License for more details.
  15:/usr/include/c++/10/iostream **** 
  16:/usr/include/c++/10/iostream **** // Under Section 7 of GPL version 3, you are granted additional
  17:/usr/include/c++/10/iostream **** // permissions described in the GCC Runtime Library Exception, version
  18:/usr/include/c++/10/iostream **** // 3.1, as published by the Free Software Foundation.
  19:/usr/include/c++/10/iostream **** 
  20:/usr/include/c++/10/iostream **** // You should have received a copy of the GNU General Public License and
  21:/usr/include/c++/10/iostream **** // a copy of the GCC Runtime Library Exception along with this program;
AARCH64 GAS  obj/Ch11_01.s 			page 34


  22:/usr/include/c++/10/iostream **** // see the files COPYING3 and COPYING.RUNTIME respectively.  If not, see
  23:/usr/include/c++/10/iostream **** // <http://www.gnu.org/licenses/>.
  24:/usr/include/c++/10/iostream **** 
  25:/usr/include/c++/10/iostream **** /** @file include/iostream
  26:/usr/include/c++/10/iostream ****  *  This is a Standard C++ Library header.
  27:/usr/include/c++/10/iostream ****  */
  28:/usr/include/c++/10/iostream **** 
  29:/usr/include/c++/10/iostream **** //
  30:/usr/include/c++/10/iostream **** // ISO C++ 14882: 27.3  Standard iostream objects
  31:/usr/include/c++/10/iostream **** //
  32:/usr/include/c++/10/iostream **** 
  33:/usr/include/c++/10/iostream **** #ifndef _GLIBCXX_IOSTREAM
  34:/usr/include/c++/10/iostream **** #define _GLIBCXX_IOSTREAM 1
  35:/usr/include/c++/10/iostream **** 
  36:/usr/include/c++/10/iostream **** #pragma GCC system_header
  37:/usr/include/c++/10/iostream **** 
  38:/usr/include/c++/10/iostream **** #include <bits/c++config.h>
  39:/usr/include/c++/10/iostream **** #include <ostream>
  40:/usr/include/c++/10/iostream **** #include <istream>
  41:/usr/include/c++/10/iostream **** 
  42:/usr/include/c++/10/iostream **** namespace std _GLIBCXX_VISIBILITY(default)
  43:/usr/include/c++/10/iostream **** {
  44:/usr/include/c++/10/iostream **** _GLIBCXX_BEGIN_NAMESPACE_VERSION
  45:/usr/include/c++/10/iostream **** 
  46:/usr/include/c++/10/iostream ****   /**
  47:/usr/include/c++/10/iostream ****    *  @name Standard Stream Objects
  48:/usr/include/c++/10/iostream ****    *
  49:/usr/include/c++/10/iostream ****    *  The &lt;iostream&gt; header declares the eight <em>standard stream
  50:/usr/include/c++/10/iostream ****    *  objects</em>.  For other declarations, see
  51:/usr/include/c++/10/iostream ****    *  http://gcc.gnu.org/onlinedocs/libstdc++/manual/io.html
  52:/usr/include/c++/10/iostream ****    *  and the @link iosfwd I/O forward declarations @endlink
  53:/usr/include/c++/10/iostream ****    *
  54:/usr/include/c++/10/iostream ****    *  They are required by default to cooperate with the global C
  55:/usr/include/c++/10/iostream ****    *  library's @c FILE streams, and to be available during program
  56:/usr/include/c++/10/iostream ****    *  startup and termination. For more information, see the section of the
  57:/usr/include/c++/10/iostream ****    *  manual linked to above.
  58:/usr/include/c++/10/iostream ****   */
  59:/usr/include/c++/10/iostream ****   //@{
  60:/usr/include/c++/10/iostream ****   extern istream cin;		/// Linked to standard input
  61:/usr/include/c++/10/iostream ****   extern ostream cout;		/// Linked to standard output
  62:/usr/include/c++/10/iostream ****   extern ostream cerr;		/// Linked to standard error (unbuffered)
  63:/usr/include/c++/10/iostream ****   extern ostream clog;		/// Linked to standard error (buffered)
  64:/usr/include/c++/10/iostream **** 
  65:/usr/include/c++/10/iostream **** #ifdef _GLIBCXX_USE_WCHAR_T
  66:/usr/include/c++/10/iostream ****   extern wistream wcin;		/// Linked to standard input
  67:/usr/include/c++/10/iostream ****   extern wostream wcout;	/// Linked to standard output
  68:/usr/include/c++/10/iostream ****   extern wostream wcerr;	/// Linked to standard error (unbuffered)
  69:/usr/include/c++/10/iostream ****   extern wostream wclog;	/// Linked to standard error (buffered)
  70:/usr/include/c++/10/iostream **** #endif
  71:/usr/include/c++/10/iostream ****   //@}
  72:/usr/include/c++/10/iostream **** 
  73:/usr/include/c++/10/iostream ****   // For construction of filebuffers for cout, cin, cerr, clog et. al.
  74:/usr/include/c++/10/iostream ****   static ios_base::Init __ioinit;
 688              		.loc 4 74 25 is_stmt 0 view .LVU147
 689 0270 13000090 		adrp	x19, .LANCHOR0
 690 0274 73020091 		add	x19, x19, :lo12:.LANCHOR0
 691 0278 E00313AA 		mov	x0, x19
AARCH64 GAS  obj/Ch11_01.s 			page 35


 692 027c 00000094 		bl	_ZNSt8ios_base4InitC1Ev
 693              	.LVL53:
 694 0280 E10313AA 		mov	x1, x19
 695 0284 00000090 		adrp	x0, :got:_ZNSt8ios_base4InitD1Ev
 696              	.LBE283:
 697              	.LBE286:
 698              		.loc 1 34 1 view .LVU148
 699 0288 F30B40F9 		ldr	x19, [sp, 16]
 700              	.LBB287:
 701              	.LBB284:
 702              		.loc 4 74 25 view .LVU149
 703 028c 02000090 		adrp	x2, __dso_handle
 704              	.LBE284:
 705              	.LBE287:
 706              		.loc 1 34 1 view .LVU150
 707 0290 FD7BC2A8 		ldp	x29, x30, [sp], 32
 708              		.cfi_restore 30
 709              		.cfi_restore 29
 710              		.cfi_restore 19
 711              		.cfi_def_cfa_offset 0
 712              	.LBB288:
 713              	.LBB285:
 714              		.loc 4 74 25 view .LVU151
 715 0294 42000091 		add	x2, x2, :lo12:__dso_handle
 716 0298 000040F9 		ldr	x0, [x0, #:got_lo12:_ZNSt8ios_base4InitD1Ev]
 717 029c 00000014 		b	__cxa_atexit
 718              	.LVL54:
 719              	.LBE285:
 720              	.LBE288:
 721              		.cfi_endproc
 722              	.LFE2088:
 723              		.size	_GLOBAL__sub_I_main, .-_GLOBAL__sub_I_main
 724              		.section	.init_array,"aw"
 725              		.align	3
 726 0000 00000000 		.xword	_GLOBAL__sub_I_main
 726      00000000 
 727              		.bss
 728              		.align	3
 729              		.set	.LANCHOR0,. + 0
 730              		.type	_ZStL8__ioinit, %object
 731              		.size	_ZStL8__ioinit, 1
 732              	_ZStL8__ioinit:
 733 0000 00       		.zero	1
 734              		.text
 735              	.Letext0:
 736              		.file 5 "/usr/include/c++/10/cwchar"
 737              		.file 6 "/usr/include/c++/10/bits/exception_ptr.h"
 738              		.file 7 "/usr/include/aarch64-linux-gnu/c++/10/bits/c++config.h"
 739              		.file 8 "/usr/include/c++/10/bits/stl_pair.h"
 740              		.file 9 "/usr/include/c++/10/type_traits"
 741              		.file 10 "/usr/include/c++/10/debug/debug.h"
 742              		.file 11 "/usr/include/c++/10/cstdint"
 743              		.file 12 "/usr/include/c++/10/clocale"
 744              		.file 13 "/usr/include/c++/10/cstdlib"
 745              		.file 14 "/usr/include/c++/10/cstdio"
 746              		.file 15 "/usr/include/c++/10/bits/basic_string.h"
 747              		.file 16 "/usr/include/c++/10/system_error"
AARCH64 GAS  obj/Ch11_01.s 			page 36


 748              		.file 17 "/usr/include/c++/10/bits/ios_base.h"
 749              		.file 18 "/usr/include/c++/10/cwctype"
 750              		.file 19 "/usr/include/c++/10/bits/ostream.tcc"
 751              		.file 20 "/usr/include/c++/10/iosfwd"
 752              		.file 21 "/usr/include/c++/10/bits/basic_ios.h"
 753              		.file 22 "/usr/include/c++/10/bits/ostream_insert.h"
 754              		.file 23 "/usr/include/c++/10/bits/predefined_ops.h"
 755              		.file 24 "/usr/lib/gcc/aarch64-linux-gnu/10/include/stddef.h"
 756              		.file 25 "/usr/lib/gcc/aarch64-linux-gnu/10/include/stdarg.h"
 757              		.file 26 "/usr/include/aarch64-linux-gnu/bits/types/wint_t.h"
 758              		.file 27 "/usr/include/aarch64-linux-gnu/bits/types/__mbstate_t.h"
 759              		.file 28 "/usr/include/aarch64-linux-gnu/bits/types/mbstate_t.h"
 760              		.file 29 "/usr/include/aarch64-linux-gnu/bits/types/__FILE.h"
 761              		.file 30 "/usr/include/aarch64-linux-gnu/bits/types/struct_FILE.h"
 762              		.file 31 "/usr/include/aarch64-linux-gnu/bits/types/FILE.h"
 763              		.file 32 "/usr/include/wchar.h"
 764              		.file 33 "/usr/include/aarch64-linux-gnu/bits/types/struct_tm.h"
 765              		.file 34 "/usr/include/aarch64-linux-gnu/bits/types.h"
 766              		.file 35 "/usr/include/aarch64-linux-gnu/bits/stdint-intn.h"
 767              		.file 36 "/usr/include/aarch64-linux-gnu/bits/stdint-uintn.h"
 768              		.file 37 "/usr/include/stdint.h"
 769              		.file 38 "/usr/include/locale.h"
 770              		.file 39 "/usr/include/aarch64-linux-gnu/c++/10/bits/atomic_word.h"
 771              		.file 40 "/usr/include/stdlib.h"
 772              		.file 41 "/usr/include/aarch64-linux-gnu/bits/stdlib-float.h"
 773              		.file 42 "/usr/include/aarch64-linux-gnu/bits/stdlib-bsearch.h"
 774              		.file 43 "/usr/include/aarch64-linux-gnu/bits/types/__fpos_t.h"
 775              		.file 44 "/usr/include/stdio.h"
 776              		.file 45 "/usr/include/aarch64-linux-gnu/bits/stdio.h"
 777              		.file 46 "/usr/include/aarch64-linux-gnu/bits/wctype-wchar.h"
 778              		.file 47 "/usr/include/wctype.h"
 779              		.file 48 "<built-in>"
 10283              		.section	.note.GNU-stack,"",@progbits
