	.arch armv8-a
	.file	"Chapter15_1.cpp"
	.text
.Ltext0:
	.align	2
	.p2align 4,,11
	.type	_ZSt4endlIcSt11char_traitsIcEERSt13basic_ostreamIT_T0_ES6_.isra.0, %function
_ZSt4endlIcSt11char_traitsIcEERSt13basic_ostreamIT_T0_ES6_.isra.0:
.LVL0:
.LFB3236:
	.file 1 "/usr/include/c++/10/ostream"
	.loc 1 681 5 view -0
	.cfi_startproc
	.loc 1 681 5 is_stmt 0 view .LVU1
	stp	x29, x30, [sp, -32]!
	.cfi_def_cfa_offset 32
	.cfi_offset 29, -32
	.cfi_offset 30, -24
	mov	x29, sp
	stp	x19, x20, [sp, 16]
	.cfi_offset 19, -16
	.cfi_offset 20, -8
	.loc 1 681 5 view .LVU2
	mov	x19, x0
	.loc 1 682 19 view .LVU3
	ldr	x0, [x0]
.LVL1:
	.loc 1 682 19 view .LVU4
	ldr	x0, [x0, -24]
	add	x0, x19, x0
	ldr	x20, [x0, 240]
.LVL2:
.LBB1693:
.LBI1693:
	.file 2 "/usr/include/c++/10/bits/basic_ios.h"
	.loc 2 449 7 is_stmt 1 view .LVU5
.LBB1694:
.LBI1694:
	.loc 2 47 5 view .LVU6
.LBB1695:
	.loc 2 49 7 is_stmt 0 view .LVU7
	cbz	x20, .L7
.LVL3:
	.loc 2 49 7 view .LVU8
.LBE1695:
.LBE1694:
.LBB1697:
.LBI1697:
	.file 3 "/usr/include/c++/10/bits/locale_facets.h"
	.loc 3 872 7 is_stmt 1 view .LVU9
.LBB1698:
	.loc 3 874 2 view .LVU10
	ldrb	w0, [x20, 56]
.LVL4:
	.loc 3 874 2 is_stmt 0 view .LVU11
	cbz	w0, .L3
	.loc 3 875 4 is_stmt 1 view .LVU12
	.loc 3 875 51 is_stmt 0 view .LVU13
	ldrb	w1, [x20, 67]
.LVL5:
.L4:
	.loc 3 875 51 view .LVU14
.LBE1698:
.LBE1697:
.LBE1693:
	.loc 1 682 19 view .LVU15
	mov	x0, x19
	bl	_ZNSo3putEc
.LVL6:
.LBB1704:
.LBI1704:
	.loc 1 703 5 is_stmt 1 view .LVU16
.LBE1704:
	.loc 1 682 49 is_stmt 0 view .LVU17
	ldp	x19, x20, [sp, 16]
.LVL7:
	.loc 1 682 49 view .LVU18
	ldp	x29, x30, [sp], 32
	.cfi_remember_state
	.cfi_restore 30
	.cfi_restore 29
	.cfi_restore 19
	.cfi_restore 20
	.cfi_def_cfa_offset 0
.LBB1706:
.LBB1705:
	.loc 1 704 24 view .LVU19
	b	_ZNSo5flushEv
.LVL8:
.L3:
	.cfi_restore_state
	.loc 1 704 24 view .LVU20
.LBE1705:
.LBE1706:
.LBB1707:
.LBB1702:
.LBB1701:
.LBB1699:
.LBI1699:
	.loc 3 872 7 is_stmt 1 view .LVU21
.LBB1700:
	.loc 3 876 2 view .LVU22
	.loc 3 876 21 is_stmt 0 view .LVU23
	mov	x0, x20
	bl	_ZNKSt5ctypeIcE13_M_widen_initEv
.LVL9:
	.loc 3 877 2 is_stmt 1 view .LVU24
	.loc 3 877 27 is_stmt 0 view .LVU25
	ldr	x2, [x20]
	.loc 3 877 23 view .LVU26
	mov	w1, 10
	mov	x0, x20
	ldr	x2, [x2, 48]
	blr	x2
.LVL10:
	and	w1, w0, 255
.LVL11:
	.loc 3 877 23 view .LVU27
	b	.L4
.LVL12:
.L7:
	.loc 3 877 23 view .LVU28
.LBE1700:
.LBE1699:
.LBE1701:
.LBE1702:
.LBB1703:
.LBB1696:
	.loc 2 50 18 view .LVU29
	bl	_ZSt16__throw_bad_castv
.LVL13:
	.loc 2 50 18 view .LVU30
.LBE1696:
.LBE1703:
.LBE1707:
	.cfi_endproc
.LFE3236:
	.size	_ZSt4endlIcSt11char_traitsIcEERSt13basic_ostreamIT_T0_ES6_.isra.0, .-_ZSt4endlIcSt11char_traitsIcEERSt13basic_ostreamIT_T0_ES6_.isra.0
	.section	.rodata.str1.8,"aMS",@progbits,1
	.align	3
.LC0:
	.string	"   |"
	.text
	.align	2
	.p2align 4,,11
	.type	_ZN6Vec12810ToStringFPIdEENSt7__cxx1112basic_stringIcSt11char_traitsIcESaIcEEEPKT_iii.isra.0, %function
_ZN6Vec12810ToStringFPIdEENSt7__cxx1112basic_stringIcSt11char_traitsIcESaIcEEEPKT_iii.isra.0:
.LVL14:
.LFB3234:
	.file 4 "../../Include/Vec128.h"
	.loc 4 82 39 is_stmt 1 view -0
	.cfi_startproc
	.cfi_personality 0x9b,DW.ref.__gxx_personality_v0
	.cfi_lsda 0x1b,.LLSDA3234
	.loc 4 82 39 is_stmt 0 view .LVU32
	stp	x29, x30, [sp, -464]!
	.cfi_def_cfa_offset 464
	.cfi_offset 29, -464
	.cfi_offset 30, -456
	mov	x29, sp
	stp	x19, x20, [sp, 16]
	.cfi_offset 19, -448
	.cfi_offset 20, -440
	.loc 4 84 28 view .LVU33
	add	x20, sp, 88
	.loc 4 82 39 view .LVU34
	sxtw	x19, w3
	stp	x21, x22, [sp, 32]
	.cfi_offset 21, -432
	.cfi_offset 22, -424
	mov	w21, w1
	sxtw	x22, w2
	stp	x23, x24, [sp, 48]
	.cfi_offset 23, -416
	.cfi_offset 24, -408
	mov	x23, x0
	.loc 4 84 28 view .LVU35
	mov	x0, x20
.LVL15:
	.loc 4 82 39 view .LVU36
	stp	x25, x26, [sp, 64]
	.cfi_offset 25, -400
	.cfi_offset 26, -392
	.loc 4 82 39 view .LVU37
	mov	x25, x8
.LVL16:
.LEHB0:
	.loc 4 84 28 view .LVU38
	bl	_ZNSt7__cxx1119basic_ostringstreamIcSt11char_traitsIcESaIcEEC1Ev
.LVL17:
.LEHE0:
.LBB1738:
.LBI1738:
	.loc 1 127 7 is_stmt 1 view .LVU39
.LBB1739:
	.loc 1 132 6 is_stmt 0 view .LVU40
	ldr	x4, [sp, 88]
.LBB1740:
.LBB1741:
.LBB1742:
.LBB1743:
.LBB1744:
.LBB1745:
	.file 5 "/usr/include/c++/10/bits/ios_base.h"
	.loc 5 84 71 view .LVU41
	mov	w0, -261
.LBE1745:
.LBE1744:
.LBE1743:
.LBE1742:
.LBE1741:
.LBE1740:
	.loc 1 132 6 view .LVU42
	ldr	x3, [x4, -24]
	add	x3, x20, x3
.LVL18:
.LBB1774:
.LBI1740:
	.loc 5 1071 3 is_stmt 1 view .LVU43
.LBE1774:
.LBE1739:
.LBE1738:
	.loc 5 1073 5 view .LVU44
.LBB1785:
.LBB1780:
.LBB1775:
.LBB1769:
.LBI1741:
	.loc 5 693 5 view .LVU45
.LBB1764:
	.loc 5 695 7 view .LVU46
	.loc 5 696 7 view .LVU47
	.loc 5 696 7 is_stmt 0 view .LVU48
.LBE1764:
.LBE1769:
.LBE1775:
.LBE1780:
.LBE1785:
	.loc 5 96 5 is_stmt 1 view .LVU49
.LBB1786:
.LBB1781:
.LBB1776:
.LBB1770:
.LBB1765:
.LBB1752:
.LBI1743:
	.loc 5 103 3 view .LVU50
.LBE1752:
.LBE1765:
.LBE1770:
.LBE1776:
.LBE1781:
.LBE1786:
	.loc 5 104 5 view .LVU51
.LBB1787:
.LBB1782:
.LBB1777:
.LBB1771:
.LBB1766:
.LBB1753:
.LBB1749:
.LBI1744:
	.loc 5 83 3 view .LVU52
.LBB1746:
	.loc 5 84 5 view .LVU53
	.loc 5 84 5 is_stmt 0 view .LVU54
.LBE1746:
.LBE1749:
.LBE1753:
	.loc 5 697 7 is_stmt 1 view .LVU55
	.loc 5 697 7 is_stmt 0 view .LVU56
.LBE1766:
.LBE1771:
.LBE1777:
.LBE1782:
.LBE1787:
	.loc 5 84 5 is_stmt 1 view .LVU57
.LBB1788:
.LBB1783:
.LBB1778:
.LBB1772:
.LBB1767:
.LBB1754:
.LBI1754:
	.loc 5 99 3 view .LVU58
.LBB1755:
	.loc 5 100 5 view .LVU59
.LBB1756:
.LBI1756:
	.loc 5 87 3 view .LVU60
.LBB1757:
	.loc 5 88 5 view .LVU61
	.loc 5 88 5 is_stmt 0 view .LVU62
.LBE1757:
.LBE1756:
.LBE1755:
.LBE1754:
.LBB1761:
.LBB1750:
.LBB1747:
	.loc 5 84 71 view .LVU63
	ldr	w5, [x3, 24]
.LBE1747:
.LBE1750:
.LBE1761:
.LBE1767:
.LBE1772:
.LBE1778:
.LBE1783:
.LBE1788:
.LBB1789:
.LBB1790:
	.file 6 "/usr/include/c++/10/iomanip"
	.loc 6 210 21 view .LVU64
	str	x19, [x3, 8]
.LBE1790:
.LBE1789:
.LBB1794:
.LBB1784:
.LBB1779:
.LBB1773:
.LBB1768:
.LBB1762:
.LBB1751:
.LBB1748:
	.loc 5 84 71 view .LVU65
	and	w5, w5, w0
.LBE1748:
.LBE1751:
.LBE1762:
.LBB1763:
.LBB1760:
.LBB1759:
.LBB1758:
	.loc 5 88 71 view .LVU66
	orr	w5, w5, 4
.LBE1758:
.LBE1759:
	.loc 5 100 16 view .LVU67
	str	w5, [x3, 24]
.LVL19:
	.loc 5 100 16 view .LVU68
.LBE1760:
.LBE1763:
	.loc 5 698 7 is_stmt 1 view .LVU69
	.loc 5 698 7 is_stmt 0 view .LVU70
.LBE1768:
.LBE1773:
.LBE1779:
.LBE1784:
.LBE1794:
	.loc 5 1074 5 is_stmt 1 view .LVU71
	.loc 6 196 5 view .LVU72
.LBB1795:
.LBI1789:
	.loc 6 208 5 view .LVU73
.LBB1793:
.LBB1791:
.LBI1791:
	.loc 5 728 5 view .LVU74
.LBB1792:
	.loc 5 730 7 view .LVU75
	.loc 5 731 7 view .LVU76
	.loc 5 732 7 view .LVU77
	.loc 5 732 7 is_stmt 0 view .LVU78
.LBE1792:
.LBE1791:
.LBE1793:
.LBE1795:
.LBB1796:
	.loc 4 88 27 is_stmt 1 view .LVU79
	cmp	w21, 0
	ble	.L9
	.loc 4 92 28 is_stmt 0 view .LVU80
	asr	w24, w21, 1
.LBB1797:
.LBB1798:
	.loc 1 611 18 view .LVU81
	adrp	x26, .LC0
	sub	x23, x23, #8
.LVL20:
	.loc 1 611 18 view .LVU82
	add	x26, x26, :lo12:.LC0
	add	w21, w21, 1
.LVL21:
	.loc 1 611 18 view .LVU83
.LBE1798:
.LBE1797:
.LBB1800:
.LBB1801:
	.loc 6 240 17 view .LVU84
	mov	x19, 1
.LVL22:
	.loc 6 240 17 view .LVU85
	b	.L10
.LVL23:
	.p2align 2,,3
.L11:
	.loc 6 240 17 view .LVU86
.LBE1801:
.LBE1800:
	.loc 4 88 27 is_stmt 1 view .LVU87
	add	x19, x19, 1
.LVL24:
	.loc 4 88 27 is_stmt 0 view .LVU88
	cmp	x19, x21
	beq	.L9
.L17:
.LBB1812:
.LBB1808:
	.loc 6 240 17 view .LVU89
	ldr	x4, [sp, 88]
.L10:
.LVL25:
	.loc 6 240 17 view .LVU90
.LBE1808:
.LBE1812:
.LBE1796:
	.loc 6 226 5 is_stmt 1 view .LVU91
.LBB1824:
.LBB1813:
.LBI1800:
	.loc 6 238 5 view .LVU92
.LBB1809:
.LBB1802:
.LBI1802:
	.loc 5 751 5 view .LVU93
.LBB1803:
	.loc 5 753 7 view .LVU94
	.loc 5 754 7 view .LVU95
.LBE1803:
.LBE1802:
.LBE1809:
.LBE1813:
.LBB1814:
.LBB1815:
	.loc 1 221 25 is_stmt 0 view .LVU96
	mov	x0, x20
.LBE1815:
.LBE1814:
.LBB1818:
.LBB1810:
.LBB1806:
.LBB1804:
	.loc 5 754 16 view .LVU97
	ldr	x1, [x4, -24]
.LBE1804:
.LBE1806:
.LBE1810:
.LBE1818:
.LBB1819:
.LBB1816:
	.loc 1 221 25 view .LVU98
	ldr	d0, [x23, x19, lsl 3]
.LBE1816:
.LBE1819:
.LBB1820:
.LBB1811:
.LBB1807:
.LBB1805:
	.loc 5 754 16 view .LVU99
	add	x1, x20, x1
	str	x22, [x1, 16]
.LVL26:
	.loc 5 755 7 is_stmt 1 view .LVU100
	.loc 5 755 7 is_stmt 0 view .LVU101
.LBE1805:
.LBE1807:
.LBE1811:
.LBE1820:
.LBB1821:
.LBI1814:
	.loc 1 220 7 is_stmt 1 view .LVU102
.LEHB1:
.LBB1817:
	.loc 1 221 25 is_stmt 0 view .LVU103
	bl	_ZNSo9_M_insertIdEERSoT_
.LVL27:
	.loc 1 221 25 view .LVU104
.LBE1817:
.LBE1821:
	.loc 4 92 13 view .LVU105
	cmp	w24, w19
	bne	.L11
.LVL28:
.LBB1822:
.LBI1797:
	.loc 1 606 5 is_stmt 1 view .LVU106
	.loc 1 606 5 is_stmt 0 view .LVU107
.LBE1822:
.LBE1824:
	.file 7 "/usr/include/c++/10/bits/char_traits.h"
	.loc 7 364 2 is_stmt 1 view .LVU108
.LBB1825:
.LBB1823:
.LBB1799:
	.loc 1 611 18 is_stmt 0 view .LVU109
	mov	x1, x26
	mov	x0, x20
	mov	x2, 4
	bl	_ZSt16__ostream_insertIcSt11char_traitsIcEERSt13basic_ostreamIT_T0_ES6_PKS3_l
.LVL29:
	.loc 1 611 18 view .LVU110
.LBE1799:
.LBE1823:
	.loc 4 88 27 is_stmt 1 view .LVU111
	add	x19, x19, 1
.LVL30:
	.loc 4 88 27 is_stmt 0 view .LVU112
	cmp	x19, x21
	bne	.L17
.LVL31:
	.p2align 3,,7
.L9:
	.loc 4 88 27 view .LVU113
.LBE1825:
.LBB1826:
.LBI1826:
	.file 8 "/usr/include/c++/10/sstream"
	.loc 8 677 7 is_stmt 1 view .LVU114
.LBB1827:
	.loc 8 678 33 is_stmt 0 view .LVU115
	mov	x8, x25
	add	x0, sp, 96
	bl	_ZNKSt7__cxx1115basic_stringbufIcSt11char_traitsIcESaIcEE3strEv
.LVL32:
.LEHE1:
	.loc 8 678 33 view .LVU116
.LBE1827:
.LBE1826:
	.loc 4 84 28 view .LVU117
	mov	x0, x20
	bl	_ZNSt7__cxx1119basic_ostringstreamIcSt11char_traitsIcESaIcEED1Ev
.LVL33:
	.loc 4 97 5 view .LVU118
	mov	x0, x25
	ldp	x19, x20, [sp, 16]
	ldp	x21, x22, [sp, 32]
.LVL34:
	.loc 4 97 5 view .LVU119
	ldp	x23, x24, [sp, 48]
	ldp	x25, x26, [sp, 64]
	ldp	x29, x30, [sp], 464
	.cfi_remember_state
	.cfi_restore 30
	.cfi_restore 29
	.cfi_restore 25
	.cfi_restore 26
	.cfi_restore 23
	.cfi_restore 24
	.cfi_restore 21
	.cfi_restore 22
	.cfi_restore 19
	.cfi_restore 20
	.cfi_def_cfa_offset 0
	ret
.L13:
	.cfi_restore_state
	.loc 4 84 28 view .LVU120
	mov	x19, x0
	mov	x0, x20
	bl	_ZNSt7__cxx1119basic_ostringstreamIcSt11char_traitsIcESaIcEED1Ev
.LVL35:
	mov	x0, x19
.LEHB2:
	bl	_Unwind_Resume
.LVL36:
.LEHE2:
	.cfi_endproc
.LFE3234:
	.global	__gxx_personality_v0
	.section	.gcc_except_table,"a",@progbits
.LLSDA3234:
	.byte	0xff
	.byte	0xff
	.byte	0x1
	.uleb128 .LLSDACSE3234-.LLSDACSB3234
.LLSDACSB3234:
	.uleb128 .LEHB0-.LFB3234
	.uleb128 .LEHE0-.LEHB0
	.uleb128 0
	.uleb128 0
	.uleb128 .LEHB1-.LFB3234
	.uleb128 .LEHE1-.LEHB1
	.uleb128 .L13-.LFB3234
	.uleb128 0
	.uleb128 .LEHB2-.LFB3234
	.uleb128 .LEHE2-.LEHB2
	.uleb128 0
	.uleb128 0
.LLSDACSE3234:
	.text
	.size	_ZN6Vec12810ToStringFPIdEENSt7__cxx1112basic_stringIcSt11char_traitsIcESaIcEEEPKT_iii.isra.0, .-_ZN6Vec12810ToStringFPIdEENSt7__cxx1112basic_stringIcSt11char_traitsIcESaIcEEEPKT_iii.isra.0
	.align	2
	.p2align 4,,11
	.type	_ZN6Vec12810ToStringFPIfEENSt7__cxx1112basic_stringIcSt11char_traitsIcESaIcEEEPKT_iii.isra.0, %function
_ZN6Vec12810ToStringFPIfEENSt7__cxx1112basic_stringIcSt11char_traitsIcESaIcEEEPKT_iii.isra.0:
.LVL37:
.LFB3233:
	.loc 4 82 39 is_stmt 1 view -0
	.cfi_startproc
	.cfi_personality 0x9b,DW.ref.__gxx_personality_v0
	.cfi_lsda 0x1b,.LLSDA3233
	.loc 4 82 39 is_stmt 0 view .LVU122
	stp	x29, x30, [sp, -464]!
	.cfi_def_cfa_offset 464
	.cfi_offset 29, -464
	.cfi_offset 30, -456
	mov	x29, sp
	stp	x19, x20, [sp, 16]
	.cfi_offset 19, -448
	.cfi_offset 20, -440
	.loc 4 84 28 view .LVU123
	add	x20, sp, 88
	.loc 4 82 39 view .LVU124
	sxtw	x19, w3
	stp	x21, x22, [sp, 32]
	.cfi_offset 21, -432
	.cfi_offset 22, -424
	mov	w21, w1
	sxtw	x22, w2
	stp	x23, x24, [sp, 48]
	.cfi_offset 23, -416
	.cfi_offset 24, -408
	mov	x23, x0
	.loc 4 84 28 view .LVU125
	mov	x0, x20
.LVL38:
	.loc 4 82 39 view .LVU126
	stp	x25, x26, [sp, 64]
	.cfi_offset 25, -400
	.cfi_offset 26, -392
	.loc 4 82 39 view .LVU127
	mov	x25, x8
.LVL39:
.LEHB3:
	.loc 4 84 28 view .LVU128
	bl	_ZNSt7__cxx1119basic_ostringstreamIcSt11char_traitsIcESaIcEEC1Ev
.LVL40:
.LEHE3:
.LBB1858:
.LBI1858:
	.loc 1 127 7 is_stmt 1 view .LVU129
.LBB1859:
	.loc 1 132 6 is_stmt 0 view .LVU130
	ldr	x4, [sp, 88]
.LBB1860:
.LBB1861:
.LBB1862:
.LBB1863:
.LBB1864:
.LBB1865:
	.loc 5 84 71 view .LVU131
	mov	w0, -261
.LBE1865:
.LBE1864:
.LBE1863:
.LBE1862:
.LBE1861:
.LBE1860:
	.loc 1 132 6 view .LVU132
	ldr	x3, [x4, -24]
	add	x3, x20, x3
.LVL41:
.LBB1894:
.LBI1860:
	.loc 5 1071 3 is_stmt 1 view .LVU133
.LBE1894:
.LBE1859:
.LBE1858:
	.loc 5 1073 5 view .LVU134
.LBB1905:
.LBB1900:
.LBB1895:
.LBB1889:
.LBI1861:
	.loc 5 693 5 view .LVU135
.LBB1884:
	.loc 5 695 7 view .LVU136
	.loc 5 696 7 view .LVU137
	.loc 5 696 7 is_stmt 0 view .LVU138
.LBE1884:
.LBE1889:
.LBE1895:
.LBE1900:
.LBE1905:
	.loc 5 96 5 is_stmt 1 view .LVU139
.LBB1906:
.LBB1901:
.LBB1896:
.LBB1890:
.LBB1885:
.LBB1872:
.LBI1863:
	.loc 5 103 3 view .LVU140
.LBE1872:
.LBE1885:
.LBE1890:
.LBE1896:
.LBE1901:
.LBE1906:
	.loc 5 104 5 view .LVU141
.LBB1907:
.LBB1902:
.LBB1897:
.LBB1891:
.LBB1886:
.LBB1873:
.LBB1869:
.LBI1864:
	.loc 5 83 3 view .LVU142
.LBB1866:
	.loc 5 84 5 view .LVU143
	.loc 5 84 5 is_stmt 0 view .LVU144
.LBE1866:
.LBE1869:
.LBE1873:
	.loc 5 697 7 is_stmt 1 view .LVU145
	.loc 5 697 7 is_stmt 0 view .LVU146
.LBE1886:
.LBE1891:
.LBE1897:
.LBE1902:
.LBE1907:
	.loc 5 84 5 is_stmt 1 view .LVU147
.LBB1908:
.LBB1903:
.LBB1898:
.LBB1892:
.LBB1887:
.LBB1874:
.LBI1874:
	.loc 5 99 3 view .LVU148
.LBB1875:
	.loc 5 100 5 view .LVU149
.LBB1876:
.LBI1876:
	.loc 5 87 3 view .LVU150
.LBB1877:
	.loc 5 88 5 view .LVU151
	.loc 5 88 5 is_stmt 0 view .LVU152
.LBE1877:
.LBE1876:
.LBE1875:
.LBE1874:
.LBB1881:
.LBB1870:
.LBB1867:
	.loc 5 84 71 view .LVU153
	ldr	w5, [x3, 24]
.LBE1867:
.LBE1870:
.LBE1881:
.LBE1887:
.LBE1892:
.LBE1898:
.LBE1903:
.LBE1908:
.LBB1909:
.LBB1910:
	.loc 6 210 21 view .LVU154
	str	x19, [x3, 8]
.LBE1910:
.LBE1909:
.LBB1914:
.LBB1904:
.LBB1899:
.LBB1893:
.LBB1888:
.LBB1882:
.LBB1871:
.LBB1868:
	.loc 5 84 71 view .LVU155
	and	w5, w5, w0
.LBE1868:
.LBE1871:
.LBE1882:
.LBB1883:
.LBB1880:
.LBB1879:
.LBB1878:
	.loc 5 88 71 view .LVU156
	orr	w5, w5, 4
.LBE1878:
.LBE1879:
	.loc 5 100 16 view .LVU157
	str	w5, [x3, 24]
.LVL42:
	.loc 5 100 16 view .LVU158
.LBE1880:
.LBE1883:
	.loc 5 698 7 is_stmt 1 view .LVU159
	.loc 5 698 7 is_stmt 0 view .LVU160
.LBE1888:
.LBE1893:
.LBE1899:
.LBE1904:
.LBE1914:
	.loc 5 1074 5 is_stmt 1 view .LVU161
	.loc 6 196 5 view .LVU162
.LBB1915:
.LBI1909:
	.loc 6 208 5 view .LVU163
.LBB1913:
.LBB1911:
.LBI1911:
	.loc 5 728 5 view .LVU164
.LBB1912:
	.loc 5 730 7 view .LVU165
	.loc 5 731 7 view .LVU166
	.loc 5 732 7 view .LVU167
	.loc 5 732 7 is_stmt 0 view .LVU168
.LBE1912:
.LBE1911:
.LBE1913:
.LBE1915:
.LBB1916:
	.loc 4 88 27 is_stmt 1 view .LVU169
	cmp	w21, 0
	ble	.L19
	.loc 4 92 28 is_stmt 0 view .LVU170
	asr	w24, w21, 1
.LBB1917:
.LBB1918:
	.loc 1 611 18 view .LVU171
	adrp	x26, .LC0
	sub	x23, x23, #4
.LVL43:
	.loc 1 611 18 view .LVU172
	add	x26, x26, :lo12:.LC0
	add	w21, w21, 1
.LVL44:
	.loc 1 611 18 view .LVU173
.LBE1918:
.LBE1917:
.LBB1920:
.LBB1921:
	.loc 6 240 17 view .LVU174
	mov	x19, 1
.LVL45:
	.loc 6 240 17 view .LVU175
	b	.L20
.LVL46:
	.p2align 2,,3
.L21:
	.loc 6 240 17 view .LVU176
.LBE1921:
.LBE1920:
	.loc 4 88 27 is_stmt 1 view .LVU177
	add	x19, x19, 1
.LVL47:
	.loc 4 88 27 is_stmt 0 view .LVU178
	cmp	x19, x21
	beq	.L19
.L27:
.LBB1935:
.LBB1930:
	.loc 6 240 17 view .LVU179
	ldr	x4, [sp, 88]
.L20:
.LVL48:
	.loc 6 240 17 view .LVU180
.LBE1930:
.LBE1935:
.LBE1916:
	.loc 6 226 5 is_stmt 1 view .LVU181
.LBB1950:
.LBB1936:
.LBI1920:
	.loc 6 238 5 view .LVU182
.LBB1931:
.LBB1922:
.LBI1922:
	.loc 5 751 5 view .LVU183
.LBB1923:
	.loc 5 753 7 view .LVU184
	.loc 5 754 7 view .LVU185
.LBE1923:
.LBE1922:
.LBE1931:
.LBE1936:
.LBB1937:
.LBB1938:
	.loc 1 228 18 is_stmt 0 view .LVU186
	mov	x0, x20
.LBE1938:
.LBE1937:
.LBB1942:
.LBB1932:
.LBB1927:
.LBB1924:
	.loc 5 754 16 view .LVU187
	ldr	x1, [x4, -24]
.LBE1924:
.LBE1927:
.LBE1932:
.LBE1942:
.LBB1943:
.LBB1939:
	.loc 1 228 18 view .LVU188
	ldr	s0, [x23, x19, lsl 2]
.LBE1939:
.LBE1943:
.LBB1944:
.LBB1933:
.LBB1928:
.LBB1925:
	.loc 5 754 16 view .LVU189
	add	x1, x20, x1
.LBE1925:
.LBE1928:
.LBE1933:
.LBE1944:
.LBB1945:
.LBB1940:
	.loc 1 228 18 view .LVU190
	fcvt	d0, s0
.LBE1940:
.LBE1945:
.LBB1946:
.LBB1934:
.LBB1929:
.LBB1926:
	.loc 5 754 16 view .LVU191
	str	x22, [x1, 16]
.LVL49:
	.loc 5 755 7 is_stmt 1 view .LVU192
	.loc 5 755 7 is_stmt 0 view .LVU193
.LBE1926:
.LBE1929:
.LBE1934:
.LBE1946:
.LBB1947:
.LBI1937:
	.loc 1 224 7 is_stmt 1 view .LVU194
.LEHB4:
.LBB1941:
	.loc 1 228 18 is_stmt 0 view .LVU195
	bl	_ZNSo9_M_insertIdEERSoT_
.LVL50:
	.loc 1 228 18 view .LVU196
.LBE1941:
.LBE1947:
	.loc 4 92 13 view .LVU197
	cmp	w24, w19
	bne	.L21
.LVL51:
.LBB1948:
.LBI1917:
	.loc 1 606 5 is_stmt 1 view .LVU198
	.loc 1 606 5 is_stmt 0 view .LVU199
.LBE1948:
.LBE1950:
	.loc 7 364 2 is_stmt 1 view .LVU200
.LBB1951:
.LBB1949:
.LBB1919:
	.loc 1 611 18 is_stmt 0 view .LVU201
	mov	x1, x26
	mov	x0, x20
	mov	x2, 4
	bl	_ZSt16__ostream_insertIcSt11char_traitsIcEERSt13basic_ostreamIT_T0_ES6_PKS3_l
.LVL52:
	.loc 1 611 18 view .LVU202
.LBE1919:
.LBE1949:
	.loc 4 88 27 is_stmt 1 view .LVU203
	add	x19, x19, 1
.LVL53:
	.loc 4 88 27 is_stmt 0 view .LVU204
	cmp	x19, x21
	bne	.L27
.LVL54:
	.p2align 3,,7
.L19:
	.loc 4 88 27 view .LVU205
.LBE1951:
.LBB1952:
.LBI1952:
	.loc 8 677 7 is_stmt 1 view .LVU206
.LBB1953:
	.loc 8 678 33 is_stmt 0 view .LVU207
	mov	x8, x25
	add	x0, sp, 96
	bl	_ZNKSt7__cxx1115basic_stringbufIcSt11char_traitsIcESaIcEE3strEv
.LVL55:
.LEHE4:
	.loc 8 678 33 view .LVU208
.LBE1953:
.LBE1952:
	.loc 4 84 28 view .LVU209
	mov	x0, x20
	bl	_ZNSt7__cxx1119basic_ostringstreamIcSt11char_traitsIcESaIcEED1Ev
.LVL56:
	.loc 4 97 5 view .LVU210
	mov	x0, x25
	ldp	x19, x20, [sp, 16]
	ldp	x21, x22, [sp, 32]
.LVL57:
	.loc 4 97 5 view .LVU211
	ldp	x23, x24, [sp, 48]
	ldp	x25, x26, [sp, 64]
	ldp	x29, x30, [sp], 464
	.cfi_remember_state
	.cfi_restore 30
	.cfi_restore 29
	.cfi_restore 25
	.cfi_restore 26
	.cfi_restore 23
	.cfi_restore 24
	.cfi_restore 21
	.cfi_restore 22
	.cfi_restore 19
	.cfi_restore 20
	.cfi_def_cfa_offset 0
	ret
.L23:
	.cfi_restore_state
	.loc 4 84 28 view .LVU212
	mov	x19, x0
	mov	x0, x20
	bl	_ZNSt7__cxx1119basic_ostringstreamIcSt11char_traitsIcESaIcEED1Ev
.LVL58:
	mov	x0, x19
.LEHB5:
	bl	_Unwind_Resume
.LVL59:
.LEHE5:
	.cfi_endproc
.LFE3233:
	.section	.gcc_except_table
.LLSDA3233:
	.byte	0xff
	.byte	0xff
	.byte	0x1
	.uleb128 .LLSDACSE3233-.LLSDACSB3233
.LLSDACSB3233:
	.uleb128 .LEHB3-.LFB3233
	.uleb128 .LEHE3-.LEHB3
	.uleb128 0
	.uleb128 0
	.uleb128 .LEHB4-.LFB3233
	.uleb128 .LEHE4-.LEHB4
	.uleb128 .L23-.LFB3233
	.uleb128 0
	.uleb128 .LEHB5-.LFB3233
	.uleb128 .LEHE5-.LEHB5
	.uleb128 0
	.uleb128 0
.LLSDACSE3233:
	.text
	.size	_ZN6Vec12810ToStringFPIfEENSt7__cxx1112basic_stringIcSt11char_traitsIcESaIcEEEPKT_iii.isra.0, .-_ZN6Vec12810ToStringFPIfEENSt7__cxx1112basic_stringIcSt11char_traitsIcESaIcEEEPKT_iii.isra.0
	.section	.rodata.str1.8
	.align	3
.LC1:
	.string	"Packed float math result:"
	.align	3
.LC2:
	.string	"a: "
	.align	3
.LC3:
	.string	"b: "
	.align	3
.LC4:
	.string	"fadd: "
	.align	3
.LC5:
	.string	"fsub: "
	.align	3
.LC6:
	.string	"fmul: "
	.align	3
.LC7:
	.string	"fdiv: "
	.align	3
.LC8:
	.string	"fabs(b): "
	.align	3
.LC9:
	.string	"fneg(a): "
	.align	3
.LC10:
	.string	"fminnm: "
	.align	3
.LC11:
	.string	"fmaxnm: "
	.align	3
.LC12:
	.string	"fsqrt: "
	.align	3
.LC13:
	.string	"Packed double math result:"
	.section	.text.startup,"ax",@progbits
	.align	2
	.p2align 4,,11
	.global	main
	.type	main, %function
main:
.LFB2614:
	.file 9 "Chapter15_1.cpp"
	.loc 9 13 1 is_stmt 1 view -0
	.cfi_startproc
	.cfi_personality 0x9b,DW.ref.__gxx_personality_v0
	.cfi_lsda 0x1b,.LLSDA2614
	.loc 9 14 2 view .LVU214
	.loc 9 16 2 view .LVU215
	.loc 9 16 23 view .LVU216
	.loc 9 17 2 view .LVU217
	.loc 9 17 24 view .LVU218
	.loc 9 18 2 view .LVU219
	.loc 9 18 23 view .LVU220
	.loc 9 19 2 view .LVU221
	.loc 9 13 1 is_stmt 0 view .LVU222
	stp	x29, x30, [sp, -496]!
	.cfi_def_cfa_offset 496
	.cfi_offset 29, -496
	.cfi_offset 30, -488
	.loc 9 16 13 view .LVU223
	adrp	x0, .LC14
	.loc 9 13 1 view .LVU224
	mov	x29, sp
	.loc 9 16 13 view .LVU225
	ldr	q1, [x0, #:lo12:.LC14]
	.loc 9 16 34 view .LVU226
	adrp	x0, .LC15
	.loc 9 13 1 view .LVU227
	stp	x19, x20, [sp, 16]
	.cfi_offset 19, -480
	.cfi_offset 20, -472
.LBB1954:
.LBB1955:
	.loc 1 611 18 view .LVU228
	adrp	x19, :got:_ZSt4cout
.LBE1955:
.LBE1954:
.LBB1957:
.LBB1958:
	.loc 4 179 70 view .LVU229
	add	x20, sp, 352
.LBE1958:
.LBE1957:
	.loc 9 16 34 view .LVU230
	ldr	q0, [x0, #:lo12:.LC15]
	.loc 9 13 1 view .LVU231
	stp	x23, x24, [sp, 48]
	.cfi_offset 23, -448
	.cfi_offset 24, -440
	.loc 9 21 18 view .LVU232
	add	x23, sp, 112
	add	x24, sp, 208
	.loc 9 13 1 view .LVU233
	stp	x25, x26, [sp, 64]
	.cfi_offset 25, -432
	.cfi_offset 26, -424
	.loc 9 21 18 view .LVU234
	add	x25, sp, 128
	mov	x2, x25
	mov	x1, x23
	mov	x0, x24
	.loc 9 13 1 view .LVU235
	stp	x21, x22, [sp, 32]
	stp	x27, x28, [sp, 80]
	.cfi_offset 21, -464
	.cfi_offset 22, -456
	.cfi_offset 27, -416
	.cfi_offset 28, -408
	.loc 9 16 34 view .LVU236
	stp	q1, q0, [sp, 112]
	.loc 9 21 2 is_stmt 1 view .LVU237
.LEHB6:
	.loc 9 21 18 is_stmt 0 view .LVU238
	bl	packedMathFloat_
.LVL60:
	.loc 9 23 2 is_stmt 1 view .LVU239
.LBB1960:
.LBI1954:
	.loc 1 606 5 view .LVU240
	.loc 1 606 5 is_stmt 0 view .LVU241
.LBE1960:
	.loc 7 364 2 is_stmt 1 view .LVU242
.LBB1961:
.LBB1956:
	.loc 1 611 18 is_stmt 0 view .LVU243
	adrp	x1, .LC1
	ldr	x21, [x19, #:got_lo12:_ZSt4cout]
	add	x1, x1, :lo12:.LC1
	mov	x2, 25
	mov	x0, x21
	bl	_ZSt16__ostream_insertIcSt11char_traitsIcEERSt13basic_ostreamIT_T0_ES6_PKS3_l
.LVL61:
	.loc 1 611 18 view .LVU244
.LBE1956:
.LBE1961:
.LBB1962:
.LBI1962:
	.loc 1 108 7 is_stmt 1 view .LVU245
.LBB1963:
	.loc 1 113 13 is_stmt 0 view .LVU246
	mov	x0, x21
	bl	_ZSt4endlIcSt11char_traitsIcEERSt13basic_ostreamIT_T0_ES6_.isra.0
.LVL62:
	.loc 1 113 13 view .LVU247
.LBE1963:
.LBE1962:
	.loc 9 24 2 is_stmt 1 view .LVU248
.LBB1964:
.LBI1964:
	.loc 1 606 5 view .LVU249
	.loc 1 606 5 is_stmt 0 view .LVU250
.LBE1964:
	.loc 7 364 2 is_stmt 1 view .LVU251
.LBB1966:
.LBB1965:
	.loc 1 611 18 is_stmt 0 view .LVU252
	mov	x2, 3
	mov	x0, x21
	adrp	x1, .LC2
	add	x1, x1, :lo12:.LC2
	bl	_ZSt16__ostream_insertIcSt11char_traitsIcEERSt13basic_ostreamIT_T0_ES6_PKS3_l
.LVL63:
	.loc 1 611 18 view .LVU253
.LBE1965:
.LBE1966:
.LBB1967:
.LBI1957:
	.loc 4 177 17 is_stmt 1 view .LVU254
.LBB1959:
	.loc 4 179 9 view .LVU255
	.loc 4 179 70 is_stmt 0 view .LVU256
	mov	x0, x23
	mov	w2, 16
	mov	w1, 4
	mov	x8, x20
	mov	w3, 6
	bl	_ZN6Vec12810ToStringFPIfEENSt7__cxx1112basic_stringIcSt11char_traitsIcESaIcEEEPKT_iii.isra.0
.LVL64:
.LEHE6:
	.loc 4 179 70 view .LVU257
.LBE1959:
.LBE1967:
.LBB1968:
.LBI1968:
	.file 10 "/usr/include/c++/10/bits/basic_string.h"
	.loc 10 6468 5 is_stmt 1 view .LVU258
.LBB1969:
.LBB1970:
.LBI1970:
	.loc 10 2311 7 view .LVU259
.LBB1971:
.LBI1971:
	.loc 10 186 7 view .LVU260
	.loc 10 186 7 is_stmt 0 view .LVU261
.LBE1971:
.LBE1970:
.LBB1972:
.LBI1972:
	.loc 10 901 7 is_stmt 1 view .LVU262
	.loc 10 901 7 is_stmt 0 view .LVU263
.LBE1972:
	.loc 10 6473 30 view .LVU264
	ldp	x1, x2, [sp, 352]
	mov	x0, x21
.LEHB7:
	bl	_ZSt16__ostream_insertIcSt11char_traitsIcEERSt13basic_ostreamIT_T0_ES6_PKS3_l
.LVL65:
	.loc 10 6473 30 view .LVU265
.LBE1969:
.LBE1968:
.LBB1973:
.LBI1973:
	.loc 1 108 7 is_stmt 1 view .LVU266
.LBB1974:
	.loc 1 113 13 is_stmt 0 view .LVU267
	bl	_ZSt4endlIcSt11char_traitsIcEERSt13basic_ostreamIT_T0_ES6_.isra.0
.LVL66:
.LEHE7:
	.loc 1 113 13 view .LVU268
.LBE1974:
.LBE1973:
.LBB1975:
.LBI1975:
	.loc 10 657 7 is_stmt 1 view .LVU269
.LBB1976:
.LBB1977:
.LBI1977:
	.loc 10 229 7 view .LVU270
.LBB1978:
.LBB1979:
.LBI1979:
	.loc 10 221 7 view .LVU271
.LBB1980:
.LBI1980:
	.loc 10 186 7 view .LVU272
.LBB1981:
	.loc 10 187 28 is_stmt 0 view .LVU273
	ldr	x0, [sp, 352]
.LVL67:
	.loc 10 187 28 view .LVU274
.LBE1981:
.LBE1980:
.LBB1982:
.LBI1982:
	.loc 10 200 7 is_stmt 1 view .LVU275
	.loc 10 200 7 is_stmt 0 view .LVU276
.LBE1982:
.LBE1979:
	.loc 10 231 2 view .LVU277
	add	x21, sp, 368
	cmp	x0, x21
	beq	.L29
.LVL68:
.LBB1983:
.LBI1983:
	.loc 10 236 7 is_stmt 1 view .LVU278
.LBB1984:
.LBB1985:
.LBI1985:
	.file 11 "/usr/include/c++/10/bits/alloc_traits.h"
	.loc 11 491 7 view .LVU279
.LBB1986:
.LBI1986:
	.file 12 "/usr/include/c++/10/ext/new_allocator.h"
	.loc 12 120 7 view .LVU280
.LBE1986:
.LBE1985:
	.loc 10 237 34 is_stmt 0 view .LVU281
	ldr	x1, [sp, 368]
.LBB1989:
.LBB1988:
.LBB1987:
	.loc 12 133 19 view .LVU282
	add	x1, x1, 1
.LVL69:
	.loc 12 133 19 view .LVU283
	bl	_ZdlPvm
.LVL70:
.L29:
	.loc 12 133 19 view .LVU284
.LBE1987:
.LBE1988:
.LBE1989:
.LBE1984:
.LBE1983:
.LBE1978:
.LBE1977:
.LBB1990:
.LBI1990:
	.loc 10 150 14 is_stmt 1 view .LVU285
.LBB1991:
.LBI1991:
	.file 13 "/usr/include/c++/10/bits/allocator.h"
	.loc 13 162 7 view .LVU286
.LBB1992:
.LBI1992:
	.loc 12 89 7 view .LVU287
	.loc 12 89 7 is_stmt 0 view .LVU288
.LBE1992:
.LBE1991:
.LBE1990:
.LBE1976:
.LBE1975:
	.loc 9 25 2 is_stmt 1 view .LVU289
.LBB1993:
.LBI1993:
	.loc 1 606 5 view .LVU290
	.loc 1 606 5 is_stmt 0 view .LVU291
.LBE1993:
	.loc 7 364 2 is_stmt 1 view .LVU292
.LBB1995:
.LBB1994:
	.loc 1 611 18 is_stmt 0 view .LVU293
	ldr	x23, [x19, #:got_lo12:_ZSt4cout]
	mov	x2, 3
	adrp	x28, .LC3
	add	x1, x28, :lo12:.LC3
	mov	x0, x23
.LEHB8:
	bl	_ZSt16__ostream_insertIcSt11char_traitsIcEERSt13basic_ostreamIT_T0_ES6_PKS3_l
.LVL71:
	.loc 1 611 18 view .LVU294
.LBE1994:
.LBE1995:
.LBB1996:
.LBI1996:
	.loc 4 177 17 is_stmt 1 view .LVU295
.LBB1997:
	.loc 4 179 9 view .LVU296
	.loc 4 179 70 is_stmt 0 view .LVU297
	mov	x0, x25
	mov	w2, 16
	mov	w1, 4
	mov	x8, x20
	mov	w3, 6
	bl	_ZN6Vec12810ToStringFPIfEENSt7__cxx1112basic_stringIcSt11char_traitsIcESaIcEEEPKT_iii.isra.0
.LVL72:
.LEHE8:
	.loc 4 179 70 view .LVU298
.LBE1997:
.LBE1996:
.LBB1998:
.LBI1998:
	.loc 10 6468 5 is_stmt 1 view .LVU299
.LBB1999:
.LBB2000:
.LBI2000:
	.loc 10 2311 7 view .LVU300
.LBB2001:
.LBI2001:
	.loc 10 186 7 view .LVU301
	.loc 10 186 7 is_stmt 0 view .LVU302
.LBE2001:
.LBE2000:
.LBB2002:
.LBI2002:
	.loc 10 901 7 is_stmt 1 view .LVU303
	.loc 10 901 7 is_stmt 0 view .LVU304
.LBE2002:
	.loc 10 6473 30 view .LVU305
	ldp	x1, x2, [sp, 352]
	mov	x0, x23
.LEHB9:
	bl	_ZSt16__ostream_insertIcSt11char_traitsIcEERSt13basic_ostreamIT_T0_ES6_PKS3_l
.LVL73:
	.loc 10 6473 30 view .LVU306
.LBE1999:
.LBE1998:
.LBB2003:
.LBI2003:
	.loc 1 108 7 is_stmt 1 view .LVU307
.LBB2004:
	.loc 1 113 13 is_stmt 0 view .LVU308
	bl	_ZSt4endlIcSt11char_traitsIcEERSt13basic_ostreamIT_T0_ES6_.isra.0
.LVL74:
.LEHE9:
	.loc 1 113 13 view .LVU309
.LBE2004:
.LBE2003:
.LBB2005:
.LBI2005:
	.loc 10 657 7 is_stmt 1 view .LVU310
.LBB2006:
.LBB2007:
.LBI2007:
	.loc 10 229 7 view .LVU311
.LBB2008:
.LBB2009:
.LBI2009:
	.loc 10 221 7 view .LVU312
.LBB2010:
.LBI2010:
	.loc 10 186 7 view .LVU313
.LBB2011:
	.loc 10 187 28 is_stmt 0 view .LVU314
	ldr	x0, [sp, 352]
.LVL75:
	.loc 10 187 28 view .LVU315
.LBE2011:
.LBE2010:
.LBB2012:
.LBI2012:
	.loc 10 200 7 is_stmt 1 view .LVU316
	.loc 10 200 7 is_stmt 0 view .LVU317
.LBE2012:
.LBE2009:
	.loc 10 231 2 view .LVU318
	cmp	x0, x21
	beq	.L30
.LVL76:
.LBB2013:
.LBI2013:
	.loc 10 236 7 is_stmt 1 view .LVU319
.LBB2014:
.LBB2015:
.LBI2015:
	.loc 11 491 7 view .LVU320
.LBB2016:
.LBI2016:
	.loc 12 120 7 view .LVU321
.LBE2016:
.LBE2015:
	.loc 10 237 34 is_stmt 0 view .LVU322
	ldr	x1, [sp, 368]
.LBB2019:
.LBB2018:
.LBB2017:
	.loc 12 133 19 view .LVU323
	add	x1, x1, 1
.LVL77:
	.loc 12 133 19 view .LVU324
	bl	_ZdlPvm
.LVL78:
.L30:
	.loc 12 133 19 view .LVU325
.LBE2017:
.LBE2018:
.LBE2019:
.LBE2014:
.LBE2013:
.LBE2008:
.LBE2007:
.LBB2020:
.LBI2020:
	.loc 10 150 14 is_stmt 1 view .LVU326
.LBB2021:
.LBI2021:
	.loc 13 162 7 view .LVU327
.LBB2022:
.LBI2022:
	.loc 12 89 7 view .LVU328
	.loc 12 89 7 is_stmt 0 view .LVU329
.LBE2022:
.LBE2021:
.LBE2020:
.LBE2006:
.LBE2005:
	.loc 9 26 2 is_stmt 1 view .LVU330
.LBB2023:
.LBI2023:
	.loc 1 606 5 view .LVU331
	.loc 1 606 5 is_stmt 0 view .LVU332
.LBE2023:
	.loc 7 364 2 is_stmt 1 view .LVU333
.LBB2025:
.LBB2024:
	.loc 1 611 18 is_stmt 0 view .LVU334
	ldr	x23, [x19, #:got_lo12:_ZSt4cout]
	mov	x2, 6
	adrp	x26, .LC4
	add	x1, x26, :lo12:.LC4
	mov	x0, x23
.LEHB10:
	bl	_ZSt16__ostream_insertIcSt11char_traitsIcEERSt13basic_ostreamIT_T0_ES6_PKS3_l
.LVL79:
	.loc 1 611 18 view .LVU335
.LBE2024:
.LBE2025:
.LBB2026:
.LBI2026:
	.loc 4 177 17 is_stmt 1 view .LVU336
.LBB2027:
	.loc 4 179 9 view .LVU337
	.loc 4 179 70 is_stmt 0 view .LVU338
	mov	x0, x24
	mov	w2, 16
	mov	w1, 4
	mov	x8, x20
	mov	w3, 6
	bl	_ZN6Vec12810ToStringFPIfEENSt7__cxx1112basic_stringIcSt11char_traitsIcESaIcEEEPKT_iii.isra.0
.LVL80:
.LEHE10:
	.loc 4 179 70 view .LVU339
.LBE2027:
.LBE2026:
.LBB2028:
.LBI2028:
	.loc 10 6468 5 is_stmt 1 view .LVU340
.LBB2029:
.LBB2030:
.LBI2030:
	.loc 10 2311 7 view .LVU341
.LBB2031:
.LBI2031:
	.loc 10 186 7 view .LVU342
	.loc 10 186 7 is_stmt 0 view .LVU343
.LBE2031:
.LBE2030:
.LBB2032:
.LBI2032:
	.loc 10 901 7 is_stmt 1 view .LVU344
	.loc 10 901 7 is_stmt 0 view .LVU345
.LBE2032:
	.loc 10 6473 30 view .LVU346
	ldp	x1, x2, [sp, 352]
	mov	x0, x23
.LEHB11:
	bl	_ZSt16__ostream_insertIcSt11char_traitsIcEERSt13basic_ostreamIT_T0_ES6_PKS3_l
.LVL81:
	.loc 10 6473 30 view .LVU347
.LBE2029:
.LBE2028:
.LBB2033:
.LBI2033:
	.loc 1 108 7 is_stmt 1 view .LVU348
.LBB2034:
	.loc 1 113 13 is_stmt 0 view .LVU349
	bl	_ZSt4endlIcSt11char_traitsIcEERSt13basic_ostreamIT_T0_ES6_.isra.0
.LVL82:
.LEHE11:
	.loc 1 113 13 view .LVU350
.LBE2034:
.LBE2033:
.LBB2035:
.LBI2035:
	.loc 10 657 7 is_stmt 1 view .LVU351
.LBB2036:
.LBB2037:
.LBI2037:
	.loc 10 229 7 view .LVU352
.LBB2038:
.LBB2039:
.LBI2039:
	.loc 10 221 7 view .LVU353
.LBB2040:
.LBI2040:
	.loc 10 186 7 view .LVU354
.LBB2041:
	.loc 10 187 28 is_stmt 0 view .LVU355
	ldr	x0, [sp, 352]
.LVL83:
	.loc 10 187 28 view .LVU356
.LBE2041:
.LBE2040:
.LBB2042:
.LBI2042:
	.loc 10 200 7 is_stmt 1 view .LVU357
	.loc 10 200 7 is_stmt 0 view .LVU358
.LBE2042:
.LBE2039:
	.loc 10 231 2 view .LVU359
	cmp	x0, x21
	beq	.L31
.LVL84:
.LBB2043:
.LBI2043:
	.loc 10 236 7 is_stmt 1 view .LVU360
.LBB2044:
.LBB2045:
.LBI2045:
	.loc 11 491 7 view .LVU361
.LBB2046:
.LBI2046:
	.loc 12 120 7 view .LVU362
.LBE2046:
.LBE2045:
	.loc 10 237 34 is_stmt 0 view .LVU363
	ldr	x1, [sp, 368]
.LBB2049:
.LBB2048:
.LBB2047:
	.loc 12 133 19 view .LVU364
	add	x1, x1, 1
.LVL85:
	.loc 12 133 19 view .LVU365
	bl	_ZdlPvm
.LVL86:
.L31:
	.loc 12 133 19 view .LVU366
.LBE2047:
.LBE2048:
.LBE2049:
.LBE2044:
.LBE2043:
.LBE2038:
.LBE2037:
.LBB2050:
.LBI2050:
	.loc 10 150 14 is_stmt 1 view .LVU367
.LBB2051:
.LBI2051:
	.loc 13 162 7 view .LVU368
.LBB2052:
.LBI2052:
	.loc 12 89 7 view .LVU369
	.loc 12 89 7 is_stmt 0 view .LVU370
.LBE2052:
.LBE2051:
.LBE2050:
.LBE2036:
.LBE2035:
	.loc 9 27 2 is_stmt 1 view .LVU371
.LBB2053:
.LBI2053:
	.loc 1 606 5 view .LVU372
	.loc 1 606 5 is_stmt 0 view .LVU373
.LBE2053:
	.loc 7 364 2 is_stmt 1 view .LVU374
.LBB2055:
.LBB2054:
	.loc 1 611 18 is_stmt 0 view .LVU375
	ldr	x23, [x19, #:got_lo12:_ZSt4cout]
	mov	x2, 6
	adrp	x25, .LC5
	add	x1, x25, :lo12:.LC5
	mov	x0, x23
.LEHB12:
	bl	_ZSt16__ostream_insertIcSt11char_traitsIcEERSt13basic_ostreamIT_T0_ES6_PKS3_l
.LVL87:
	.loc 1 611 18 view .LVU376
.LBE2054:
.LBE2055:
.LBB2056:
.LBI2056:
	.loc 4 177 17 is_stmt 1 view .LVU377
.LBB2057:
	.loc 4 179 9 view .LVU378
	.loc 4 179 70 is_stmt 0 view .LVU379
	add	x0, sp, 224
.LVL88:
	.loc 4 179 70 view .LVU380
	mov	w2, 16
	mov	w1, 4
	mov	x8, x20
	mov	w3, 6
	bl	_ZN6Vec12810ToStringFPIfEENSt7__cxx1112basic_stringIcSt11char_traitsIcESaIcEEEPKT_iii.isra.0
.LVL89:
.LEHE12:
	.loc 4 179 70 view .LVU381
.LBE2057:
.LBE2056:
.LBB2058:
.LBI2058:
	.loc 10 6468 5 is_stmt 1 view .LVU382
.LBB2059:
.LBB2060:
.LBI2060:
	.loc 10 2311 7 view .LVU383
.LBB2061:
.LBI2061:
	.loc 10 186 7 view .LVU384
	.loc 10 186 7 is_stmt 0 view .LVU385
.LBE2061:
.LBE2060:
.LBB2062:
.LBI2062:
	.loc 10 901 7 is_stmt 1 view .LVU386
	.loc 10 901 7 is_stmt 0 view .LVU387
.LBE2062:
	.loc 10 6473 30 view .LVU388
	ldp	x1, x2, [sp, 352]
	mov	x0, x23
.LEHB13:
	bl	_ZSt16__ostream_insertIcSt11char_traitsIcEERSt13basic_ostreamIT_T0_ES6_PKS3_l
.LVL90:
	.loc 10 6473 30 view .LVU389
.LBE2059:
.LBE2058:
.LBB2063:
.LBI2063:
	.loc 1 108 7 is_stmt 1 view .LVU390
.LBB2064:
	.loc 1 113 13 is_stmt 0 view .LVU391
	bl	_ZSt4endlIcSt11char_traitsIcEERSt13basic_ostreamIT_T0_ES6_.isra.0
.LVL91:
.LEHE13:
	.loc 1 113 13 view .LVU392
.LBE2064:
.LBE2063:
.LBB2065:
.LBI2065:
	.loc 10 657 7 is_stmt 1 view .LVU393
.LBB2066:
.LBB2067:
.LBI2067:
	.loc 10 229 7 view .LVU394
.LBB2068:
.LBB2069:
.LBI2069:
	.loc 10 221 7 view .LVU395
.LBB2070:
.LBI2070:
	.loc 10 186 7 view .LVU396
.LBB2071:
	.loc 10 187 28 is_stmt 0 view .LVU397
	ldr	x0, [sp, 352]
.LVL92:
	.loc 10 187 28 view .LVU398
.LBE2071:
.LBE2070:
.LBB2072:
.LBI2072:
	.loc 10 200 7 is_stmt 1 view .LVU399
	.loc 10 200 7 is_stmt 0 view .LVU400
.LBE2072:
.LBE2069:
	.loc 10 231 2 view .LVU401
	cmp	x0, x21
	beq	.L32
.LVL93:
.LBB2073:
.LBI2073:
	.loc 10 236 7 is_stmt 1 view .LVU402
.LBB2074:
.LBB2075:
.LBI2075:
	.loc 11 491 7 view .LVU403
.LBB2076:
.LBI2076:
	.loc 12 120 7 view .LVU404
.LBE2076:
.LBE2075:
	.loc 10 237 34 is_stmt 0 view .LVU405
	ldr	x1, [sp, 368]
.LBB2079:
.LBB2078:
.LBB2077:
	.loc 12 133 19 view .LVU406
	add	x1, x1, 1
.LVL94:
	.loc 12 133 19 view .LVU407
	bl	_ZdlPvm
.LVL95:
.L32:
	.loc 12 133 19 view .LVU408
.LBE2077:
.LBE2078:
.LBE2079:
.LBE2074:
.LBE2073:
.LBE2068:
.LBE2067:
.LBB2080:
.LBI2080:
	.loc 10 150 14 is_stmt 1 view .LVU409
.LBB2081:
.LBI2081:
	.loc 13 162 7 view .LVU410
.LBB2082:
.LBI2082:
	.loc 12 89 7 view .LVU411
	.loc 12 89 7 is_stmt 0 view .LVU412
.LBE2082:
.LBE2081:
.LBE2080:
.LBE2066:
.LBE2065:
	.loc 9 28 2 is_stmt 1 view .LVU413
.LBB2083:
.LBI2083:
	.loc 1 606 5 view .LVU414
	.loc 1 606 5 is_stmt 0 view .LVU415
.LBE2083:
	.loc 7 364 2 is_stmt 1 view .LVU416
.LBB2085:
.LBB2084:
	.loc 1 611 18 is_stmt 0 view .LVU417
	ldr	x23, [x19, #:got_lo12:_ZSt4cout]
	mov	x2, 6
	adrp	x24, .LC6
	add	x1, x24, :lo12:.LC6
	mov	x0, x23
.LEHB14:
	bl	_ZSt16__ostream_insertIcSt11char_traitsIcEERSt13basic_ostreamIT_T0_ES6_PKS3_l
.LVL96:
	.loc 1 611 18 view .LVU418
.LBE2084:
.LBE2085:
.LBB2086:
.LBI2086:
	.loc 4 177 17 is_stmt 1 view .LVU419
.LBB2087:
	.loc 4 179 9 view .LVU420
	.loc 4 179 70 is_stmt 0 view .LVU421
	add	x0, sp, 240
.LVL97:
	.loc 4 179 70 view .LVU422
	mov	w2, 16
	mov	w1, 4
	mov	x8, x20
	mov	w3, 6
	bl	_ZN6Vec12810ToStringFPIfEENSt7__cxx1112basic_stringIcSt11char_traitsIcESaIcEEEPKT_iii.isra.0
.LVL98:
.LEHE14:
	.loc 4 179 70 view .LVU423
.LBE2087:
.LBE2086:
.LBB2088:
.LBI2088:
	.loc 10 6468 5 is_stmt 1 view .LVU424
.LBB2089:
.LBB2090:
.LBI2090:
	.loc 10 2311 7 view .LVU425
.LBB2091:
.LBI2091:
	.loc 10 186 7 view .LVU426
	.loc 10 186 7 is_stmt 0 view .LVU427
.LBE2091:
.LBE2090:
.LBB2092:
.LBI2092:
	.loc 10 901 7 is_stmt 1 view .LVU428
	.loc 10 901 7 is_stmt 0 view .LVU429
.LBE2092:
	.loc 10 6473 30 view .LVU430
	ldp	x1, x2, [sp, 352]
	mov	x0, x23
.LEHB15:
	bl	_ZSt16__ostream_insertIcSt11char_traitsIcEERSt13basic_ostreamIT_T0_ES6_PKS3_l
.LVL99:
	.loc 10 6473 30 view .LVU431
.LBE2089:
.LBE2088:
.LBB2093:
.LBI2093:
	.loc 1 108 7 is_stmt 1 view .LVU432
.LBB2094:
	.loc 1 113 13 is_stmt 0 view .LVU433
	bl	_ZSt4endlIcSt11char_traitsIcEERSt13basic_ostreamIT_T0_ES6_.isra.0
.LVL100:
.LEHE15:
	.loc 1 113 13 view .LVU434
.LBE2094:
.LBE2093:
.LBB2095:
.LBI2095:
	.loc 10 657 7 is_stmt 1 view .LVU435
.LBB2096:
.LBB2097:
.LBI2097:
	.loc 10 229 7 view .LVU436
.LBB2098:
.LBB2099:
.LBI2099:
	.loc 10 221 7 view .LVU437
.LBB2100:
.LBI2100:
	.loc 10 186 7 view .LVU438
.LBB2101:
	.loc 10 187 28 is_stmt 0 view .LVU439
	ldr	x0, [sp, 352]
.LVL101:
	.loc 10 187 28 view .LVU440
.LBE2101:
.LBE2100:
.LBB2102:
.LBI2102:
	.loc 10 200 7 is_stmt 1 view .LVU441
	.loc 10 200 7 is_stmt 0 view .LVU442
.LBE2102:
.LBE2099:
	.loc 10 231 2 view .LVU443
	cmp	x0, x21
	beq	.L33
.LVL102:
.LBB2103:
.LBI2103:
	.loc 10 236 7 is_stmt 1 view .LVU444
.LBB2104:
.LBB2105:
.LBI2105:
	.loc 11 491 7 view .LVU445
.LBB2106:
.LBI2106:
	.loc 12 120 7 view .LVU446
.LBE2106:
.LBE2105:
	.loc 10 237 34 is_stmt 0 view .LVU447
	ldr	x1, [sp, 368]
.LBB2109:
.LBB2108:
.LBB2107:
	.loc 12 133 19 view .LVU448
	add	x1, x1, 1
.LVL103:
	.loc 12 133 19 view .LVU449
	bl	_ZdlPvm
.LVL104:
.L33:
	.loc 12 133 19 view .LVU450
.LBE2107:
.LBE2108:
.LBE2109:
.LBE2104:
.LBE2103:
.LBE2098:
.LBE2097:
.LBB2110:
.LBI2110:
	.loc 10 150 14 is_stmt 1 view .LVU451
.LBB2111:
.LBI2111:
	.loc 13 162 7 view .LVU452
.LBB2112:
.LBI2112:
	.loc 12 89 7 view .LVU453
	.loc 12 89 7 is_stmt 0 view .LVU454
.LBE2112:
.LBE2111:
.LBE2110:
.LBE2096:
.LBE2095:
	.loc 9 29 2 is_stmt 1 view .LVU455
.LBB2113:
.LBI2113:
	.loc 1 606 5 view .LVU456
	.loc 1 606 5 is_stmt 0 view .LVU457
.LBE2113:
	.loc 7 364 2 is_stmt 1 view .LVU458
.LBB2115:
.LBB2114:
	.loc 1 611 18 is_stmt 0 view .LVU459
	ldr	x23, [x19, #:got_lo12:_ZSt4cout]
	adrp	x0, .LC7
	mov	x2, 6
	add	x1, x0, :lo12:.LC7
	mov	x0, x23
.LEHB16:
	bl	_ZSt16__ostream_insertIcSt11char_traitsIcEERSt13basic_ostreamIT_T0_ES6_PKS3_l
.LVL105:
	.loc 1 611 18 view .LVU460
.LBE2114:
.LBE2115:
.LBB2116:
.LBI2116:
	.loc 4 177 17 is_stmt 1 view .LVU461
.LBB2117:
	.loc 4 179 9 view .LVU462
	.loc 4 179 70 is_stmt 0 view .LVU463
	add	x0, sp, 256
.LVL106:
	.loc 4 179 70 view .LVU464
	mov	w2, 16
	mov	w1, 4
	mov	x8, x20
	mov	w3, 6
	bl	_ZN6Vec12810ToStringFPIfEENSt7__cxx1112basic_stringIcSt11char_traitsIcESaIcEEEPKT_iii.isra.0
.LVL107:
.LEHE16:
	.loc 4 179 70 view .LVU465
.LBE2117:
.LBE2116:
.LBB2118:
.LBI2118:
	.loc 10 6468 5 is_stmt 1 view .LVU466
.LBB2119:
.LBB2120:
.LBI2120:
	.loc 10 2311 7 view .LVU467
.LBB2121:
.LBI2121:
	.loc 10 186 7 view .LVU468
	.loc 10 186 7 is_stmt 0 view .LVU469
.LBE2121:
.LBE2120:
.LBB2122:
.LBI2122:
	.loc 10 901 7 is_stmt 1 view .LVU470
	.loc 10 901 7 is_stmt 0 view .LVU471
.LBE2122:
	.loc 10 6473 30 view .LVU472
	ldp	x1, x2, [sp, 352]
	mov	x0, x23
.LEHB17:
	bl	_ZSt16__ostream_insertIcSt11char_traitsIcEERSt13basic_ostreamIT_T0_ES6_PKS3_l
.LVL108:
	.loc 10 6473 30 view .LVU473
.LBE2119:
.LBE2118:
.LBB2123:
.LBI2123:
	.loc 1 108 7 is_stmt 1 view .LVU474
.LBB2124:
	.loc 1 113 13 is_stmt 0 view .LVU475
	bl	_ZSt4endlIcSt11char_traitsIcEERSt13basic_ostreamIT_T0_ES6_.isra.0
.LVL109:
.LEHE17:
	.loc 1 113 13 view .LVU476
.LBE2124:
.LBE2123:
.LBB2125:
.LBI2125:
	.loc 10 657 7 is_stmt 1 view .LVU477
.LBB2126:
.LBB2127:
.LBI2127:
	.loc 10 229 7 view .LVU478
.LBB2128:
.LBB2129:
.LBI2129:
	.loc 10 221 7 view .LVU479
.LBB2130:
.LBI2130:
	.loc 10 186 7 view .LVU480
.LBB2131:
	.loc 10 187 28 is_stmt 0 view .LVU481
	ldr	x0, [sp, 352]
.LVL110:
	.loc 10 187 28 view .LVU482
.LBE2131:
.LBE2130:
.LBB2132:
.LBI2132:
	.loc 10 200 7 is_stmt 1 view .LVU483
	.loc 10 200 7 is_stmt 0 view .LVU484
.LBE2132:
.LBE2129:
	.loc 10 231 2 view .LVU485
	cmp	x0, x21
	beq	.L34
.LVL111:
.LBB2133:
.LBI2133:
	.loc 10 236 7 is_stmt 1 view .LVU486
.LBB2134:
.LBB2135:
.LBI2135:
	.loc 11 491 7 view .LVU487
.LBB2136:
.LBI2136:
	.loc 12 120 7 view .LVU488
.LBE2136:
.LBE2135:
	.loc 10 237 34 is_stmt 0 view .LVU489
	ldr	x1, [sp, 368]
.LBB2139:
.LBB2138:
.LBB2137:
	.loc 12 133 19 view .LVU490
	add	x1, x1, 1
.LVL112:
	.loc 12 133 19 view .LVU491
	bl	_ZdlPvm
.LVL113:
.L34:
	.loc 12 133 19 view .LVU492
.LBE2137:
.LBE2138:
.LBE2139:
.LBE2134:
.LBE2133:
.LBE2128:
.LBE2127:
.LBB2140:
.LBI2140:
	.loc 10 150 14 is_stmt 1 view .LVU493
.LBB2141:
.LBI2141:
	.loc 13 162 7 view .LVU494
.LBB2142:
.LBI2142:
	.loc 12 89 7 view .LVU495
	.loc 12 89 7 is_stmt 0 view .LVU496
.LBE2142:
.LBE2141:
.LBE2140:
.LBE2126:
.LBE2125:
	.loc 9 30 2 is_stmt 1 view .LVU497
.LBB2143:
.LBI2143:
	.loc 1 606 5 view .LVU498
	.loc 1 606 5 is_stmt 0 view .LVU499
.LBE2143:
	.loc 7 364 2 is_stmt 1 view .LVU500
.LBB2145:
.LBB2144:
	.loc 1 611 18 is_stmt 0 view .LVU501
	ldr	x23, [x19, #:got_lo12:_ZSt4cout]
	adrp	x0, .LC8
	mov	x2, 9
	add	x1, x0, :lo12:.LC8
	mov	x0, x23
.LEHB18:
	bl	_ZSt16__ostream_insertIcSt11char_traitsIcEERSt13basic_ostreamIT_T0_ES6_PKS3_l
.LVL114:
	.loc 1 611 18 view .LVU502
.LBE2144:
.LBE2145:
.LBB2146:
.LBI2146:
	.loc 4 177 17 is_stmt 1 view .LVU503
.LBB2147:
	.loc 4 179 9 view .LVU504
	.loc 4 179 70 is_stmt 0 view .LVU505
	add	x0, sp, 272
.LVL115:
	.loc 4 179 70 view .LVU506
	mov	w2, 16
	mov	w1, 4
	mov	x8, x20
	mov	w3, 6
	bl	_ZN6Vec12810ToStringFPIfEENSt7__cxx1112basic_stringIcSt11char_traitsIcESaIcEEEPKT_iii.isra.0
.LVL116:
.LEHE18:
	.loc 4 179 70 view .LVU507
.LBE2147:
.LBE2146:
.LBB2148:
.LBI2148:
	.loc 10 6468 5 is_stmt 1 view .LVU508
.LBB2149:
.LBB2150:
.LBI2150:
	.loc 10 2311 7 view .LVU509
.LBB2151:
.LBI2151:
	.loc 10 186 7 view .LVU510
	.loc 10 186 7 is_stmt 0 view .LVU511
.LBE2151:
.LBE2150:
.LBB2152:
.LBI2152:
	.loc 10 901 7 is_stmt 1 view .LVU512
	.loc 10 901 7 is_stmt 0 view .LVU513
.LBE2152:
	.loc 10 6473 30 view .LVU514
	ldp	x1, x2, [sp, 352]
	mov	x0, x23
.LEHB19:
	bl	_ZSt16__ostream_insertIcSt11char_traitsIcEERSt13basic_ostreamIT_T0_ES6_PKS3_l
.LVL117:
	.loc 10 6473 30 view .LVU515
.LBE2149:
.LBE2148:
.LBB2153:
.LBI2153:
	.loc 1 108 7 is_stmt 1 view .LVU516
.LBB2154:
	.loc 1 113 13 is_stmt 0 view .LVU517
	bl	_ZSt4endlIcSt11char_traitsIcEERSt13basic_ostreamIT_T0_ES6_.isra.0
.LVL118:
.LEHE19:
	.loc 1 113 13 view .LVU518
.LBE2154:
.LBE2153:
.LBB2155:
.LBI2155:
	.loc 10 657 7 is_stmt 1 view .LVU519
.LBB2156:
.LBB2157:
.LBI2157:
	.loc 10 229 7 view .LVU520
.LBB2158:
.LBB2159:
.LBI2159:
	.loc 10 221 7 view .LVU521
.LBB2160:
.LBI2160:
	.loc 10 186 7 view .LVU522
.LBB2161:
	.loc 10 187 28 is_stmt 0 view .LVU523
	ldr	x0, [sp, 352]
.LVL119:
	.loc 10 187 28 view .LVU524
.LBE2161:
.LBE2160:
.LBB2162:
.LBI2162:
	.loc 10 200 7 is_stmt 1 view .LVU525
	.loc 10 200 7 is_stmt 0 view .LVU526
.LBE2162:
.LBE2159:
	.loc 10 231 2 view .LVU527
	cmp	x0, x21
	beq	.L35
.LVL120:
.LBB2163:
.LBI2163:
	.loc 10 236 7 is_stmt 1 view .LVU528
.LBB2164:
.LBB2165:
.LBI2165:
	.loc 11 491 7 view .LVU529
.LBB2166:
.LBI2166:
	.loc 12 120 7 view .LVU530
.LBE2166:
.LBE2165:
	.loc 10 237 34 is_stmt 0 view .LVU531
	ldr	x1, [sp, 368]
.LBB2169:
.LBB2168:
.LBB2167:
	.loc 12 133 19 view .LVU532
	add	x1, x1, 1
.LVL121:
	.loc 12 133 19 view .LVU533
	bl	_ZdlPvm
.LVL122:
.L35:
	.loc 12 133 19 view .LVU534
.LBE2167:
.LBE2168:
.LBE2169:
.LBE2164:
.LBE2163:
.LBE2158:
.LBE2157:
.LBB2170:
.LBI2170:
	.loc 10 150 14 is_stmt 1 view .LVU535
.LBB2171:
.LBI2171:
	.loc 13 162 7 view .LVU536
.LBB2172:
.LBI2172:
	.loc 12 89 7 view .LVU537
	.loc 12 89 7 is_stmt 0 view .LVU538
.LBE2172:
.LBE2171:
.LBE2170:
.LBE2156:
.LBE2155:
	.loc 9 31 2 is_stmt 1 view .LVU539
.LBB2173:
.LBI2173:
	.loc 1 606 5 view .LVU540
	.loc 1 606 5 is_stmt 0 view .LVU541
.LBE2173:
	.loc 7 364 2 is_stmt 1 view .LVU542
.LBB2175:
.LBB2174:
	.loc 1 611 18 is_stmt 0 view .LVU543
	ldr	x23, [x19, #:got_lo12:_ZSt4cout]
	adrp	x0, .LC9
	mov	x2, 9
	add	x1, x0, :lo12:.LC9
	mov	x0, x23
.LEHB20:
	bl	_ZSt16__ostream_insertIcSt11char_traitsIcEERSt13basic_ostreamIT_T0_ES6_PKS3_l
.LVL123:
	.loc 1 611 18 view .LVU544
.LBE2174:
.LBE2175:
.LBB2176:
.LBI2176:
	.loc 4 177 17 is_stmt 1 view .LVU545
.LBB2177:
	.loc 4 179 9 view .LVU546
	.loc 4 179 70 is_stmt 0 view .LVU547
	add	x0, sp, 288
.LVL124:
	.loc 4 179 70 view .LVU548
	mov	w2, 16
	mov	w1, 4
	mov	x8, x20
	mov	w3, 6
	bl	_ZN6Vec12810ToStringFPIfEENSt7__cxx1112basic_stringIcSt11char_traitsIcESaIcEEEPKT_iii.isra.0
.LVL125:
.LEHE20:
	.loc 4 179 70 view .LVU549
.LBE2177:
.LBE2176:
.LBB2178:
.LBI2178:
	.loc 10 6468 5 is_stmt 1 view .LVU550
.LBB2179:
.LBB2180:
.LBI2180:
	.loc 10 2311 7 view .LVU551
.LBB2181:
.LBI2181:
	.loc 10 186 7 view .LVU552
	.loc 10 186 7 is_stmt 0 view .LVU553
.LBE2181:
.LBE2180:
.LBB2182:
.LBI2182:
	.loc 10 901 7 is_stmt 1 view .LVU554
	.loc 10 901 7 is_stmt 0 view .LVU555
.LBE2182:
	.loc 10 6473 30 view .LVU556
	ldp	x1, x2, [sp, 352]
	mov	x0, x23
.LEHB21:
	bl	_ZSt16__ostream_insertIcSt11char_traitsIcEERSt13basic_ostreamIT_T0_ES6_PKS3_l
.LVL126:
	.loc 10 6473 30 view .LVU557
.LBE2179:
.LBE2178:
.LBB2183:
.LBI2183:
	.loc 1 108 7 is_stmt 1 view .LVU558
.LBB2184:
	.loc 1 113 13 is_stmt 0 view .LVU559
	bl	_ZSt4endlIcSt11char_traitsIcEERSt13basic_ostreamIT_T0_ES6_.isra.0
.LVL127:
.LEHE21:
	.loc 1 113 13 view .LVU560
.LBE2184:
.LBE2183:
.LBB2185:
.LBI2185:
	.loc 10 657 7 is_stmt 1 view .LVU561
.LBB2186:
.LBB2187:
.LBI2187:
	.loc 10 229 7 view .LVU562
.LBB2188:
.LBB2189:
.LBI2189:
	.loc 10 221 7 view .LVU563
.LBB2190:
.LBI2190:
	.loc 10 186 7 view .LVU564
.LBB2191:
	.loc 10 187 28 is_stmt 0 view .LVU565
	ldr	x0, [sp, 352]
.LVL128:
	.loc 10 187 28 view .LVU566
.LBE2191:
.LBE2190:
.LBB2192:
.LBI2192:
	.loc 10 200 7 is_stmt 1 view .LVU567
	.loc 10 200 7 is_stmt 0 view .LVU568
.LBE2192:
.LBE2189:
	.loc 10 231 2 view .LVU569
	cmp	x0, x21
	beq	.L36
.LVL129:
.LBB2193:
.LBI2193:
	.loc 10 236 7 is_stmt 1 view .LVU570
.LBB2194:
.LBB2195:
.LBI2195:
	.loc 11 491 7 view .LVU571
.LBB2196:
.LBI2196:
	.loc 12 120 7 view .LVU572
.LBE2196:
.LBE2195:
	.loc 10 237 34 is_stmt 0 view .LVU573
	ldr	x1, [sp, 368]
.LBB2199:
.LBB2198:
.LBB2197:
	.loc 12 133 19 view .LVU574
	add	x1, x1, 1
.LVL130:
	.loc 12 133 19 view .LVU575
	bl	_ZdlPvm
.LVL131:
.L36:
	.loc 12 133 19 view .LVU576
.LBE2197:
.LBE2198:
.LBE2199:
.LBE2194:
.LBE2193:
.LBE2188:
.LBE2187:
.LBB2200:
.LBI2200:
	.loc 10 150 14 is_stmt 1 view .LVU577
.LBB2201:
.LBI2201:
	.loc 13 162 7 view .LVU578
.LBB2202:
.LBI2202:
	.loc 12 89 7 view .LVU579
	.loc 12 89 7 is_stmt 0 view .LVU580
.LBE2202:
.LBE2201:
.LBE2200:
.LBE2186:
.LBE2185:
	.loc 9 32 2 is_stmt 1 view .LVU581
.LBB2203:
.LBI2203:
	.loc 1 606 5 view .LVU582
	.loc 1 606 5 is_stmt 0 view .LVU583
.LBE2203:
	.loc 7 364 2 is_stmt 1 view .LVU584
.LBB2205:
.LBB2204:
	.loc 1 611 18 is_stmt 0 view .LVU585
	ldr	x23, [x19, #:got_lo12:_ZSt4cout]
	adrp	x0, .LC10
	mov	x2, 8
	add	x1, x0, :lo12:.LC10
	mov	x0, x23
.LEHB22:
	bl	_ZSt16__ostream_insertIcSt11char_traitsIcEERSt13basic_ostreamIT_T0_ES6_PKS3_l
.LVL132:
	.loc 1 611 18 view .LVU586
.LBE2204:
.LBE2205:
.LBB2206:
.LBI2206:
	.loc 4 177 17 is_stmt 1 view .LVU587
.LBB2207:
	.loc 4 179 9 view .LVU588
	.loc 4 179 70 is_stmt 0 view .LVU589
	add	x0, sp, 304
.LVL133:
	.loc 4 179 70 view .LVU590
	mov	w2, 16
	mov	w1, 4
	mov	x8, x20
	mov	w3, 6
	bl	_ZN6Vec12810ToStringFPIfEENSt7__cxx1112basic_stringIcSt11char_traitsIcESaIcEEEPKT_iii.isra.0
.LVL134:
.LEHE22:
	.loc 4 179 70 view .LVU591
.LBE2207:
.LBE2206:
.LBB2208:
.LBI2208:
	.loc 10 6468 5 is_stmt 1 view .LVU592
.LBB2209:
.LBB2210:
.LBI2210:
	.loc 10 2311 7 view .LVU593
.LBB2211:
.LBI2211:
	.loc 10 186 7 view .LVU594
	.loc 10 186 7 is_stmt 0 view .LVU595
.LBE2211:
.LBE2210:
.LBB2212:
.LBI2212:
	.loc 10 901 7 is_stmt 1 view .LVU596
	.loc 10 901 7 is_stmt 0 view .LVU597
.LBE2212:
	.loc 10 6473 30 view .LVU598
	ldp	x1, x2, [sp, 352]
	mov	x0, x23
.LEHB23:
	bl	_ZSt16__ostream_insertIcSt11char_traitsIcEERSt13basic_ostreamIT_T0_ES6_PKS3_l
.LVL135:
	.loc 10 6473 30 view .LVU599
.LBE2209:
.LBE2208:
.LBB2213:
.LBI2213:
	.loc 1 108 7 is_stmt 1 view .LVU600
.LBB2214:
	.loc 1 113 13 is_stmt 0 view .LVU601
	bl	_ZSt4endlIcSt11char_traitsIcEERSt13basic_ostreamIT_T0_ES6_.isra.0
.LVL136:
.LEHE23:
	.loc 1 113 13 view .LVU602
.LBE2214:
.LBE2213:
.LBB2215:
.LBI2215:
	.loc 10 657 7 is_stmt 1 view .LVU603
.LBB2216:
.LBB2217:
.LBI2217:
	.loc 10 229 7 view .LVU604
.LBB2218:
.LBB2219:
.LBI2219:
	.loc 10 221 7 view .LVU605
.LBB2220:
.LBI2220:
	.loc 10 186 7 view .LVU606
.LBB2221:
	.loc 10 187 28 is_stmt 0 view .LVU607
	ldr	x0, [sp, 352]
.LVL137:
	.loc 10 187 28 view .LVU608
.LBE2221:
.LBE2220:
.LBB2222:
.LBI2222:
	.loc 10 200 7 is_stmt 1 view .LVU609
	.loc 10 200 7 is_stmt 0 view .LVU610
.LBE2222:
.LBE2219:
	.loc 10 231 2 view .LVU611
	cmp	x0, x21
	beq	.L37
.LVL138:
.LBB2223:
.LBI2223:
	.loc 10 236 7 is_stmt 1 view .LVU612
.LBB2224:
.LBB2225:
.LBI2225:
	.loc 11 491 7 view .LVU613
.LBB2226:
.LBI2226:
	.loc 12 120 7 view .LVU614
.LBE2226:
.LBE2225:
	.loc 10 237 34 is_stmt 0 view .LVU615
	ldr	x1, [sp, 368]
.LBB2229:
.LBB2228:
.LBB2227:
	.loc 12 133 19 view .LVU616
	add	x1, x1, 1
.LVL139:
	.loc 12 133 19 view .LVU617
	bl	_ZdlPvm
.LVL140:
.L37:
	.loc 12 133 19 view .LVU618
.LBE2227:
.LBE2228:
.LBE2229:
.LBE2224:
.LBE2223:
.LBE2218:
.LBE2217:
.LBB2230:
.LBI2230:
	.loc 10 150 14 is_stmt 1 view .LVU619
.LBB2231:
.LBI2231:
	.loc 13 162 7 view .LVU620
.LBB2232:
.LBI2232:
	.loc 12 89 7 view .LVU621
	.loc 12 89 7 is_stmt 0 view .LVU622
.LBE2232:
.LBE2231:
.LBE2230:
.LBE2216:
.LBE2215:
	.loc 9 33 2 is_stmt 1 view .LVU623
.LBB2233:
.LBI2233:
	.loc 1 606 5 view .LVU624
	.loc 1 606 5 is_stmt 0 view .LVU625
.LBE2233:
	.loc 7 364 2 is_stmt 1 view .LVU626
.LBB2235:
.LBB2234:
	.loc 1 611 18 is_stmt 0 view .LVU627
	ldr	x23, [x19, #:got_lo12:_ZSt4cout]
	adrp	x0, .LC11
	mov	x2, 8
	add	x1, x0, :lo12:.LC11
	mov	x0, x23
.LEHB24:
	bl	_ZSt16__ostream_insertIcSt11char_traitsIcEERSt13basic_ostreamIT_T0_ES6_PKS3_l
.LVL141:
	.loc 1 611 18 view .LVU628
.LBE2234:
.LBE2235:
.LBB2236:
.LBI2236:
	.loc 4 177 17 is_stmt 1 view .LVU629
.LBB2237:
	.loc 4 179 9 view .LVU630
	.loc 4 179 70 is_stmt 0 view .LVU631
	add	x0, sp, 320
.LVL142:
	.loc 4 179 70 view .LVU632
	mov	w2, 16
	mov	w1, 4
	mov	x8, x20
	mov	w3, 6
	bl	_ZN6Vec12810ToStringFPIfEENSt7__cxx1112basic_stringIcSt11char_traitsIcESaIcEEEPKT_iii.isra.0
.LVL143:
.LEHE24:
	.loc 4 179 70 view .LVU633
.LBE2237:
.LBE2236:
.LBB2238:
.LBI2238:
	.loc 10 6468 5 is_stmt 1 view .LVU634
.LBB2239:
.LBB2240:
.LBI2240:
	.loc 10 2311 7 view .LVU635
.LBB2241:
.LBI2241:
	.loc 10 186 7 view .LVU636
	.loc 10 186 7 is_stmt 0 view .LVU637
.LBE2241:
.LBE2240:
.LBB2242:
.LBI2242:
	.loc 10 901 7 is_stmt 1 view .LVU638
	.loc 10 901 7 is_stmt 0 view .LVU639
.LBE2242:
	.loc 10 6473 30 view .LVU640
	ldp	x1, x2, [sp, 352]
	mov	x0, x23
.LEHB25:
	bl	_ZSt16__ostream_insertIcSt11char_traitsIcEERSt13basic_ostreamIT_T0_ES6_PKS3_l
.LVL144:
	.loc 10 6473 30 view .LVU641
.LBE2239:
.LBE2238:
.LBB2243:
.LBI2243:
	.loc 1 108 7 is_stmt 1 view .LVU642
.LBB2244:
	.loc 1 113 13 is_stmt 0 view .LVU643
	bl	_ZSt4endlIcSt11char_traitsIcEERSt13basic_ostreamIT_T0_ES6_.isra.0
.LVL145:
.LEHE25:
	.loc 1 113 13 view .LVU644
.LBE2244:
.LBE2243:
.LBB2245:
.LBI2245:
	.loc 10 657 7 is_stmt 1 view .LVU645
.LBB2246:
.LBB2247:
.LBI2247:
	.loc 10 229 7 view .LVU646
.LBB2248:
.LBB2249:
.LBI2249:
	.loc 10 221 7 view .LVU647
.LBB2250:
.LBI2250:
	.loc 10 186 7 view .LVU648
.LBB2251:
	.loc 10 187 28 is_stmt 0 view .LVU649
	ldr	x0, [sp, 352]
.LVL146:
	.loc 10 187 28 view .LVU650
.LBE2251:
.LBE2250:
.LBB2252:
.LBI2252:
	.loc 10 200 7 is_stmt 1 view .LVU651
	.loc 10 200 7 is_stmt 0 view .LVU652
.LBE2252:
.LBE2249:
	.loc 10 231 2 view .LVU653
	cmp	x0, x21
	beq	.L38
.LVL147:
.LBB2253:
.LBI2253:
	.loc 10 236 7 is_stmt 1 view .LVU654
.LBB2254:
.LBB2255:
.LBI2255:
	.loc 11 491 7 view .LVU655
.LBB2256:
.LBI2256:
	.loc 12 120 7 view .LVU656
.LBE2256:
.LBE2255:
	.loc 10 237 34 is_stmt 0 view .LVU657
	ldr	x1, [sp, 368]
.LBB2259:
.LBB2258:
.LBB2257:
	.loc 12 133 19 view .LVU658
	add	x1, x1, 1
.LVL148:
	.loc 12 133 19 view .LVU659
	bl	_ZdlPvm
.LVL149:
.L38:
	.loc 12 133 19 view .LVU660
.LBE2257:
.LBE2258:
.LBE2259:
.LBE2254:
.LBE2253:
.LBE2248:
.LBE2247:
.LBB2260:
.LBI2260:
	.loc 10 150 14 is_stmt 1 view .LVU661
.LBB2261:
.LBI2261:
	.loc 13 162 7 view .LVU662
.LBB2262:
.LBI2262:
	.loc 12 89 7 view .LVU663
	.loc 12 89 7 is_stmt 0 view .LVU664
.LBE2262:
.LBE2261:
.LBE2260:
.LBE2246:
.LBE2245:
	.loc 9 34 2 is_stmt 1 view .LVU665
.LBB2263:
.LBI2263:
	.loc 1 606 5 view .LVU666
	.loc 1 606 5 is_stmt 0 view .LVU667
.LBE2263:
	.loc 7 364 2 is_stmt 1 view .LVU668
.LBB2265:
.LBB2264:
	.loc 1 611 18 is_stmt 0 view .LVU669
	ldr	x23, [x19, #:got_lo12:_ZSt4cout]
	adrp	x0, .LC12
	mov	x2, 7
	add	x1, x0, :lo12:.LC12
	mov	x0, x23
.LEHB26:
	bl	_ZSt16__ostream_insertIcSt11char_traitsIcEERSt13basic_ostreamIT_T0_ES6_PKS3_l
.LVL150:
	.loc 1 611 18 view .LVU670
.LBE2264:
.LBE2265:
.LBB2266:
.LBI2266:
	.loc 4 177 17 is_stmt 1 view .LVU671
.LBB2267:
	.loc 4 179 9 view .LVU672
	.loc 4 179 70 is_stmt 0 view .LVU673
	add	x0, sp, 336
.LVL151:
	.loc 4 179 70 view .LVU674
	mov	w2, 16
	mov	w1, 4
	mov	x8, x20
	mov	w3, 6
	bl	_ZN6Vec12810ToStringFPIfEENSt7__cxx1112basic_stringIcSt11char_traitsIcESaIcEEEPKT_iii.isra.0
.LVL152:
.LEHE26:
	.loc 4 179 70 view .LVU675
.LBE2267:
.LBE2266:
.LBB2268:
.LBI2268:
	.loc 10 6468 5 is_stmt 1 view .LVU676
.LBB2269:
.LBB2270:
.LBI2270:
	.loc 10 2311 7 view .LVU677
.LBB2271:
.LBI2271:
	.loc 10 186 7 view .LVU678
	.loc 10 186 7 is_stmt 0 view .LVU679
.LBE2271:
.LBE2270:
.LBB2272:
.LBI2272:
	.loc 10 901 7 is_stmt 1 view .LVU680
	.loc 10 901 7 is_stmt 0 view .LVU681
.LBE2272:
	.loc 10 6473 30 view .LVU682
	ldp	x1, x2, [sp, 352]
	mov	x0, x23
.LEHB27:
	bl	_ZSt16__ostream_insertIcSt11char_traitsIcEERSt13basic_ostreamIT_T0_ES6_PKS3_l
.LVL153:
	.loc 10 6473 30 view .LVU683
.LBE2269:
.LBE2268:
.LBB2273:
.LBI2273:
	.loc 1 108 7 is_stmt 1 view .LVU684
.LBB2274:
	.loc 1 113 13 is_stmt 0 view .LVU685
	bl	_ZSt4endlIcSt11char_traitsIcEERSt13basic_ostreamIT_T0_ES6_.isra.0
.LVL154:
.LEHE27:
	.loc 1 113 13 view .LVU686
.LBE2274:
.LBE2273:
.LBB2275:
.LBI2275:
	.loc 10 657 7 is_stmt 1 view .LVU687
.LBB2276:
.LBB2277:
.LBI2277:
	.loc 10 229 7 view .LVU688
.LBB2278:
.LBB2279:
.LBI2279:
	.loc 10 221 7 view .LVU689
.LBB2280:
.LBI2280:
	.loc 10 186 7 view .LVU690
.LBB2281:
	.loc 10 187 28 is_stmt 0 view .LVU691
	ldr	x0, [sp, 352]
.LVL155:
	.loc 10 187 28 view .LVU692
.LBE2281:
.LBE2280:
.LBB2282:
.LBI2282:
	.loc 10 200 7 is_stmt 1 view .LVU693
	.loc 10 200 7 is_stmt 0 view .LVU694
.LBE2282:
.LBE2279:
	.loc 10 231 2 view .LVU695
	cmp	x0, x21
	beq	.L39
.LVL156:
.LBB2283:
.LBI2283:
	.loc 10 236 7 is_stmt 1 view .LVU696
.LBB2284:
.LBB2285:
.LBI2285:
	.loc 11 491 7 view .LVU697
.LBB2286:
.LBI2286:
	.loc 12 120 7 view .LVU698
.LBE2286:
.LBE2285:
	.loc 10 237 34 is_stmt 0 view .LVU699
	ldr	x1, [sp, 368]
.LBB2289:
.LBB2288:
.LBB2287:
	.loc 12 133 19 view .LVU700
	add	x1, x1, 1
.LVL157:
	.loc 12 133 19 view .LVU701
	bl	_ZdlPvm
.LVL158:
.L39:
	.loc 12 133 19 view .LVU702
.LBE2287:
.LBE2288:
.LBE2289:
.LBE2284:
.LBE2283:
.LBE2278:
.LBE2277:
.LBB2290:
.LBI2290:
	.loc 10 150 14 is_stmt 1 view .LVU703
.LBB2291:
.LBI2291:
	.loc 13 162 7 view .LVU704
.LBB2292:
.LBI2292:
	.loc 12 89 7 view .LVU705
	.loc 12 89 7 is_stmt 0 view .LVU706
.LBE2292:
.LBE2291:
.LBE2290:
.LBE2276:
.LBE2275:
	.loc 9 36 2 is_stmt 1 view .LVU707
	.loc 9 36 31 view .LVU708
	.loc 9 37 2 view .LVU709
	.loc 9 36 13 is_stmt 0 view .LVU710
	adrp	x0, .LC16
	.loc 9 39 19 view .LVU711
	add	x3, sp, 144
	add	x27, sp, 160
	mov	x1, x3
	.loc 9 36 13 view .LVU712
	ldr	q1, [x0, #:lo12:.LC16]
	.loc 9 36 42 view .LVU713
	adrp	x0, .LC17
	.loc 9 39 19 view .LVU714
	mov	x2, x27
	str	x3, [sp, 104]
	.loc 9 36 42 view .LVU715
	ldr	q0, [x0, #:lo12:.LC17]
	.loc 9 39 19 view .LVU716
	mov	x0, x20
.LBB2293:
.LBB2294:
	.loc 4 184 72 view .LVU717
	add	x23, sp, 176
.LBE2294:
.LBE2293:
	.loc 9 36 42 view .LVU718
	stp	q1, q0, [sp, 144]
	.loc 9 39 2 is_stmt 1 view .LVU719
.LEHB28:
	.loc 9 39 19 is_stmt 0 view .LVU720
	bl	packedMathDouble_
.LVL159:
	.loc 9 41 2 is_stmt 1 view .LVU721
.LBB2296:
.LBI2296:
	.loc 1 606 5 view .LVU722
	.loc 1 606 5 is_stmt 0 view .LVU723
.LBE2296:
	.loc 7 364 2 is_stmt 1 view .LVU724
.LBB2298:
.LBB2297:
	.loc 1 611 18 is_stmt 0 view .LVU725
	adrp	x1, .LC13
	ldr	x4, [x19, #:got_lo12:_ZSt4cout]
	add	x1, x1, :lo12:.LC13
	mov	x2, 26
	mov	x22, x4
	mov	x0, x4
	bl	_ZSt16__ostream_insertIcSt11char_traitsIcEERSt13basic_ostreamIT_T0_ES6_PKS3_l
.LVL160:
	.loc 1 611 18 view .LVU726
.LBE2297:
.LBE2298:
.LBB2299:
.LBI2299:
	.loc 1 108 7 is_stmt 1 view .LVU727
.LBB2300:
	.loc 1 113 13 is_stmt 0 view .LVU728
	mov	x0, x22
	bl	_ZSt4endlIcSt11char_traitsIcEERSt13basic_ostreamIT_T0_ES6_.isra.0
.LVL161:
	.loc 1 113 13 view .LVU729
.LBE2300:
.LBE2299:
	.loc 9 42 2 is_stmt 1 view .LVU730
.LBB2301:
.LBI2301:
	.loc 1 606 5 view .LVU731
	.loc 1 606 5 is_stmt 0 view .LVU732
.LBE2301:
	.loc 7 364 2 is_stmt 1 view .LVU733
.LBB2303:
.LBB2302:
	.loc 1 611 18 is_stmt 0 view .LVU734
	adrp	x0, .LC2
	mov	x2, 3
	add	x1, x0, :lo12:.LC2
	mov	x0, x22
	bl	_ZSt16__ostream_insertIcSt11char_traitsIcEERSt13basic_ostreamIT_T0_ES6_PKS3_l
.LVL162:
	.loc 1 611 18 view .LVU735
.LBE2302:
.LBE2303:
.LBB2304:
.LBI2293:
	.loc 4 182 17 is_stmt 1 view .LVU736
.LBB2295:
	.loc 4 184 9 view .LVU737
	.loc 4 184 72 is_stmt 0 view .LVU738
	ldr	x3, [sp, 104]
	mov	w2, 32
	mov	w1, 2
	mov	x8, x23
	mov	x0, x3
	mov	w3, 12
	bl	_ZN6Vec12810ToStringFPIdEENSt7__cxx1112basic_stringIcSt11char_traitsIcESaIcEEEPKT_iii.isra.0
.LVL163:
.LEHE28:
	.loc 4 184 72 view .LVU739
.LBE2295:
.LBE2304:
.LBB2305:
.LBI2305:
	.loc 10 6468 5 is_stmt 1 view .LVU740
.LBB2306:
.LBB2307:
.LBI2307:
	.loc 10 2311 7 view .LVU741
.LBB2308:
.LBI2308:
	.loc 10 186 7 view .LVU742
	.loc 10 186 7 is_stmt 0 view .LVU743
.LBE2308:
.LBE2307:
.LBB2309:
.LBI2309:
	.loc 10 901 7 is_stmt 1 view .LVU744
	.loc 10 901 7 is_stmt 0 view .LVU745
.LBE2309:
	.loc 10 6473 30 view .LVU746
	ldp	x1, x2, [sp, 176]
	mov	x0, x22
.LEHB29:
	bl	_ZSt16__ostream_insertIcSt11char_traitsIcEERSt13basic_ostreamIT_T0_ES6_PKS3_l
.LVL164:
	.loc 10 6473 30 view .LVU747
.LBE2306:
.LBE2305:
.LBB2310:
.LBI2310:
	.loc 1 108 7 is_stmt 1 view .LVU748
.LBB2311:
	.loc 1 113 13 is_stmt 0 view .LVU749
	bl	_ZSt4endlIcSt11char_traitsIcEERSt13basic_ostreamIT_T0_ES6_.isra.0
.LVL165:
.LEHE29:
	.loc 1 113 13 view .LVU750
.LBE2311:
.LBE2310:
.LBB2312:
.LBI2312:
	.loc 10 657 7 is_stmt 1 view .LVU751
.LBB2313:
.LBB2314:
.LBI2314:
	.loc 10 229 7 view .LVU752
.LBB2315:
.LBB2316:
.LBI2316:
	.loc 10 221 7 view .LVU753
.LBB2317:
.LBI2317:
	.loc 10 186 7 view .LVU754
.LBB2318:
	.loc 10 187 28 is_stmt 0 view .LVU755
	ldr	x0, [sp, 176]
.LVL166:
	.loc 10 187 28 view .LVU756
.LBE2318:
.LBE2317:
.LBB2319:
.LBI2319:
	.loc 10 200 7 is_stmt 1 view .LVU757
	.loc 10 200 7 is_stmt 0 view .LVU758
.LBE2319:
.LBE2316:
	.loc 10 231 2 view .LVU759
	add	x22, sp, 192
	cmp	x0, x22
	beq	.L40
.LVL167:
.LBB2320:
.LBI2320:
	.loc 10 236 7 is_stmt 1 view .LVU760
.LBB2321:
.LBB2322:
.LBI2322:
	.loc 11 491 7 view .LVU761
.LBB2323:
.LBI2323:
	.loc 12 120 7 view .LVU762
.LBE2323:
.LBE2322:
	.loc 10 237 34 is_stmt 0 view .LVU763
	ldr	x1, [sp, 192]
.LBB2326:
.LBB2325:
.LBB2324:
	.loc 12 133 19 view .LVU764
	add	x1, x1, 1
.LVL168:
	.loc 12 133 19 view .LVU765
	bl	_ZdlPvm
.LVL169:
.L40:
	.loc 12 133 19 view .LVU766
.LBE2324:
.LBE2325:
.LBE2326:
.LBE2321:
.LBE2320:
.LBE2315:
.LBE2314:
.LBB2327:
.LBI2327:
	.loc 10 150 14 is_stmt 1 view .LVU767
.LBB2328:
.LBI2328:
	.loc 13 162 7 view .LVU768
.LBB2329:
.LBI2329:
	.loc 12 89 7 view .LVU769
	.loc 12 89 7 is_stmt 0 view .LVU770
.LBE2329:
.LBE2328:
.LBE2327:
.LBE2313:
.LBE2312:
	.loc 9 43 2 is_stmt 1 view .LVU771
.LBB2330:
.LBI2330:
	.loc 1 606 5 view .LVU772
	.loc 1 606 5 is_stmt 0 view .LVU773
.LBE2330:
	.loc 7 364 2 is_stmt 1 view .LVU774
.LBB2332:
.LBB2331:
	.loc 1 611 18 is_stmt 0 view .LVU775
	ldr	x0, [x19, #:got_lo12:_ZSt4cout]
	add	x1, x28, :lo12:.LC3
	mov	x2, 3
	mov	x28, x0
.LEHB30:
	bl	_ZSt16__ostream_insertIcSt11char_traitsIcEERSt13basic_ostreamIT_T0_ES6_PKS3_l
.LVL170:
	.loc 1 611 18 view .LVU776
.LBE2331:
.LBE2332:
.LBB2333:
.LBI2333:
	.loc 4 182 17 is_stmt 1 view .LVU777
.LBB2334:
	.loc 4 184 9 view .LVU778
	.loc 4 184 72 is_stmt 0 view .LVU779
	mov	x0, x27
	mov	w2, 32
	mov	w1, 2
	mov	x8, x23
	mov	w3, 12
	bl	_ZN6Vec12810ToStringFPIdEENSt7__cxx1112basic_stringIcSt11char_traitsIcESaIcEEEPKT_iii.isra.0
.LVL171:
.LEHE30:
	.loc 4 184 72 view .LVU780
.LBE2334:
.LBE2333:
.LBB2335:
.LBI2335:
	.loc 10 6468 5 is_stmt 1 view .LVU781
.LBB2336:
.LBB2337:
.LBI2337:
	.loc 10 2311 7 view .LVU782
.LBB2338:
.LBI2338:
	.loc 10 186 7 view .LVU783
	.loc 10 186 7 is_stmt 0 view .LVU784
.LBE2338:
.LBE2337:
.LBB2339:
.LBI2339:
	.loc 10 901 7 is_stmt 1 view .LVU785
	.loc 10 901 7 is_stmt 0 view .LVU786
.LBE2339:
	.loc 10 6473 30 view .LVU787
	ldp	x1, x2, [sp, 176]
	mov	x0, x28
.LEHB31:
	bl	_ZSt16__ostream_insertIcSt11char_traitsIcEERSt13basic_ostreamIT_T0_ES6_PKS3_l
.LVL172:
	.loc 10 6473 30 view .LVU788
.LBE2336:
.LBE2335:
.LBB2340:
.LBI2340:
	.loc 1 108 7 is_stmt 1 view .LVU789
.LBB2341:
	.loc 1 113 13 is_stmt 0 view .LVU790
	bl	_ZSt4endlIcSt11char_traitsIcEERSt13basic_ostreamIT_T0_ES6_.isra.0
.LVL173:
.LEHE31:
	.loc 1 113 13 view .LVU791
.LBE2341:
.LBE2340:
.LBB2342:
.LBI2342:
	.loc 10 657 7 is_stmt 1 view .LVU792
.LBB2343:
.LBB2344:
.LBI2344:
	.loc 10 229 7 view .LVU793
.LBB2345:
.LBB2346:
.LBI2346:
	.loc 10 221 7 view .LVU794
.LBB2347:
.LBI2347:
	.loc 10 186 7 view .LVU795
.LBB2348:
	.loc 10 187 28 is_stmt 0 view .LVU796
	ldr	x0, [sp, 176]
.LVL174:
	.loc 10 187 28 view .LVU797
.LBE2348:
.LBE2347:
.LBB2349:
.LBI2349:
	.loc 10 200 7 is_stmt 1 view .LVU798
	.loc 10 200 7 is_stmt 0 view .LVU799
.LBE2349:
.LBE2346:
	.loc 10 231 2 view .LVU800
	cmp	x0, x22
	beq	.L41
.LVL175:
.LBB2350:
.LBI2350:
	.loc 10 236 7 is_stmt 1 view .LVU801
.LBB2351:
.LBB2352:
.LBI2352:
	.loc 11 491 7 view .LVU802
.LBB2353:
.LBI2353:
	.loc 12 120 7 view .LVU803
.LBE2353:
.LBE2352:
	.loc 10 237 34 is_stmt 0 view .LVU804
	ldr	x1, [sp, 192]
.LBB2356:
.LBB2355:
.LBB2354:
	.loc 12 133 19 view .LVU805
	add	x1, x1, 1
.LVL176:
	.loc 12 133 19 view .LVU806
	bl	_ZdlPvm
.LVL177:
.L41:
	.loc 12 133 19 view .LVU807
.LBE2354:
.LBE2355:
.LBE2356:
.LBE2351:
.LBE2350:
.LBE2345:
.LBE2344:
.LBB2357:
.LBI2357:
	.loc 10 150 14 is_stmt 1 view .LVU808
.LBB2358:
.LBI2358:
	.loc 13 162 7 view .LVU809
.LBB2359:
.LBI2359:
	.loc 12 89 7 view .LVU810
	.loc 12 89 7 is_stmt 0 view .LVU811
.LBE2359:
.LBE2358:
.LBE2357:
.LBE2343:
.LBE2342:
	.loc 9 44 2 is_stmt 1 view .LVU812
.LBB2360:
.LBI2360:
	.loc 1 606 5 view .LVU813
	.loc 1 606 5 is_stmt 0 view .LVU814
.LBE2360:
	.loc 7 364 2 is_stmt 1 view .LVU815
.LBB2362:
.LBB2361:
	.loc 1 611 18 is_stmt 0 view .LVU816
	ldr	x0, [x19, #:got_lo12:_ZSt4cout]
	add	x1, x26, :lo12:.LC4
	mov	x2, 6
	mov	x26, x0
.LEHB32:
	bl	_ZSt16__ostream_insertIcSt11char_traitsIcEERSt13basic_ostreamIT_T0_ES6_PKS3_l
.LVL178:
	.loc 1 611 18 view .LVU817
.LBE2361:
.LBE2362:
.LBB2363:
.LBI2363:
	.loc 4 182 17 is_stmt 1 view .LVU818
.LBB2364:
	.loc 4 184 9 view .LVU819
	.loc 4 184 72 is_stmt 0 view .LVU820
	mov	x0, x20
	mov	w2, 32
	mov	w1, 2
	mov	x8, x23
	mov	w3, 12
	bl	_ZN6Vec12810ToStringFPIdEENSt7__cxx1112basic_stringIcSt11char_traitsIcESaIcEEEPKT_iii.isra.0
.LVL179:
.LEHE32:
	.loc 4 184 72 view .LVU821
.LBE2364:
.LBE2363:
.LBB2365:
.LBI2365:
	.loc 10 6468 5 is_stmt 1 view .LVU822
.LBB2366:
.LBB2367:
.LBI2367:
	.loc 10 2311 7 view .LVU823
.LBB2368:
.LBI2368:
	.loc 10 186 7 view .LVU824
	.loc 10 186 7 is_stmt 0 view .LVU825
.LBE2368:
.LBE2367:
.LBB2369:
.LBI2369:
	.loc 10 901 7 is_stmt 1 view .LVU826
	.loc 10 901 7 is_stmt 0 view .LVU827
.LBE2369:
	.loc 10 6473 30 view .LVU828
	ldp	x1, x2, [sp, 176]
	mov	x0, x26
.LEHB33:
	bl	_ZSt16__ostream_insertIcSt11char_traitsIcEERSt13basic_ostreamIT_T0_ES6_PKS3_l
.LVL180:
	.loc 10 6473 30 view .LVU829
.LBE2366:
.LBE2365:
.LBB2370:
.LBI2370:
	.loc 1 108 7 is_stmt 1 view .LVU830
.LBB2371:
	.loc 1 113 13 is_stmt 0 view .LVU831
	bl	_ZSt4endlIcSt11char_traitsIcEERSt13basic_ostreamIT_T0_ES6_.isra.0
.LVL181:
.LEHE33:
	.loc 1 113 13 view .LVU832
.LBE2371:
.LBE2370:
.LBB2372:
.LBI2372:
	.loc 10 657 7 is_stmt 1 view .LVU833
.LBB2373:
.LBB2374:
.LBI2374:
	.loc 10 229 7 view .LVU834
.LBB2375:
.LBB2376:
.LBI2376:
	.loc 10 221 7 view .LVU835
.LBB2377:
.LBI2377:
	.loc 10 186 7 view .LVU836
.LBB2378:
	.loc 10 187 28 is_stmt 0 view .LVU837
	ldr	x0, [sp, 176]
.LVL182:
	.loc 10 187 28 view .LVU838
.LBE2378:
.LBE2377:
.LBB2379:
.LBI2379:
	.loc 10 200 7 is_stmt 1 view .LVU839
	.loc 10 200 7 is_stmt 0 view .LVU840
.LBE2379:
.LBE2376:
	.loc 10 231 2 view .LVU841
	cmp	x0, x22
	beq	.L42
.LVL183:
.LBB2380:
.LBI2380:
	.loc 10 236 7 is_stmt 1 view .LVU842
.LBB2381:
.LBB2382:
.LBI2382:
	.loc 11 491 7 view .LVU843
.LBB2383:
.LBI2383:
	.loc 12 120 7 view .LVU844
.LBE2383:
.LBE2382:
	.loc 10 237 34 is_stmt 0 view .LVU845
	ldr	x1, [sp, 192]
.LBB2386:
.LBB2385:
.LBB2384:
	.loc 12 133 19 view .LVU846
	add	x1, x1, 1
.LVL184:
	.loc 12 133 19 view .LVU847
	bl	_ZdlPvm
.LVL185:
.L42:
	.loc 12 133 19 view .LVU848
.LBE2384:
.LBE2385:
.LBE2386:
.LBE2381:
.LBE2380:
.LBE2375:
.LBE2374:
.LBB2387:
.LBI2387:
	.loc 10 150 14 is_stmt 1 view .LVU849
.LBB2388:
.LBI2388:
	.loc 13 162 7 view .LVU850
.LBB2389:
.LBI2389:
	.loc 12 89 7 view .LVU851
	.loc 12 89 7 is_stmt 0 view .LVU852
.LBE2389:
.LBE2388:
.LBE2387:
.LBE2373:
.LBE2372:
	.loc 9 45 2 is_stmt 1 view .LVU853
.LBB2390:
.LBI2390:
	.loc 1 606 5 view .LVU854
	.loc 1 606 5 is_stmt 0 view .LVU855
.LBE2390:
	.loc 7 364 2 is_stmt 1 view .LVU856
.LBB2392:
.LBB2391:
	.loc 1 611 18 is_stmt 0 view .LVU857
	ldr	x20, [x19, #:got_lo12:_ZSt4cout]
	add	x1, x25, :lo12:.LC5
	mov	x2, 6
	mov	x0, x20
.LEHB34:
	bl	_ZSt16__ostream_insertIcSt11char_traitsIcEERSt13basic_ostreamIT_T0_ES6_PKS3_l
.LVL186:
	.loc 1 611 18 view .LVU858
.LBE2391:
.LBE2392:
.LBB2393:
.LBI2393:
	.loc 4 182 17 is_stmt 1 view .LVU859
.LBB2394:
	.loc 4 184 9 view .LVU860
	.loc 4 184 72 is_stmt 0 view .LVU861
	mov	x0, x21
	mov	w2, 32
	mov	w1, 2
	mov	x8, x23
	mov	w3, 12
	bl	_ZN6Vec12810ToStringFPIdEENSt7__cxx1112basic_stringIcSt11char_traitsIcESaIcEEEPKT_iii.isra.0
.LVL187:
.LEHE34:
	.loc 4 184 72 view .LVU862
.LBE2394:
.LBE2393:
.LBB2395:
.LBI2395:
	.loc 10 6468 5 is_stmt 1 view .LVU863
.LBB2396:
.LBB2397:
.LBI2397:
	.loc 10 2311 7 view .LVU864
.LBB2398:
.LBI2398:
	.loc 10 186 7 view .LVU865
	.loc 10 186 7 is_stmt 0 view .LVU866
.LBE2398:
.LBE2397:
.LBB2399:
.LBI2399:
	.loc 10 901 7 is_stmt 1 view .LVU867
	.loc 10 901 7 is_stmt 0 view .LVU868
.LBE2399:
	.loc 10 6473 30 view .LVU869
	ldp	x1, x2, [sp, 176]
	mov	x0, x20
.LEHB35:
	bl	_ZSt16__ostream_insertIcSt11char_traitsIcEERSt13basic_ostreamIT_T0_ES6_PKS3_l
.LVL188:
	.loc 10 6473 30 view .LVU870
.LBE2396:
.LBE2395:
.LBB2400:
.LBI2400:
	.loc 1 108 7 is_stmt 1 view .LVU871
.LBB2401:
	.loc 1 113 13 is_stmt 0 view .LVU872
	bl	_ZSt4endlIcSt11char_traitsIcEERSt13basic_ostreamIT_T0_ES6_.isra.0
.LVL189:
.LEHE35:
	.loc 1 113 13 view .LVU873
.LBE2401:
.LBE2400:
.LBB2402:
.LBI2402:
	.loc 10 657 7 is_stmt 1 view .LVU874
.LBB2403:
.LBB2404:
.LBI2404:
	.loc 10 229 7 view .LVU875
.LBB2405:
.LBB2406:
.LBI2406:
	.loc 10 221 7 view .LVU876
.LBB2407:
.LBI2407:
	.loc 10 186 7 view .LVU877
.LBB2408:
	.loc 10 187 28 is_stmt 0 view .LVU878
	ldr	x0, [sp, 176]
.LVL190:
	.loc 10 187 28 view .LVU879
.LBE2408:
.LBE2407:
.LBB2409:
.LBI2409:
	.loc 10 200 7 is_stmt 1 view .LVU880
	.loc 10 200 7 is_stmt 0 view .LVU881
.LBE2409:
.LBE2406:
	.loc 10 231 2 view .LVU882
	cmp	x0, x22
	beq	.L43
.LVL191:
.LBB2410:
.LBI2410:
	.loc 10 236 7 is_stmt 1 view .LVU883
.LBB2411:
.LBB2412:
.LBI2412:
	.loc 11 491 7 view .LVU884
.LBB2413:
.LBI2413:
	.loc 12 120 7 view .LVU885
.LBE2413:
.LBE2412:
	.loc 10 237 34 is_stmt 0 view .LVU886
	ldr	x1, [sp, 192]
.LBB2416:
.LBB2415:
.LBB2414:
	.loc 12 133 19 view .LVU887
	add	x1, x1, 1
.LVL192:
	.loc 12 133 19 view .LVU888
	bl	_ZdlPvm
.LVL193:
.L43:
	.loc 12 133 19 view .LVU889
.LBE2414:
.LBE2415:
.LBE2416:
.LBE2411:
.LBE2410:
.LBE2405:
.LBE2404:
.LBB2417:
.LBI2417:
	.loc 10 150 14 is_stmt 1 view .LVU890
.LBB2418:
.LBI2418:
	.loc 13 162 7 view .LVU891
.LBB2419:
.LBI2419:
	.loc 12 89 7 view .LVU892
	.loc 12 89 7 is_stmt 0 view .LVU893
.LBE2419:
.LBE2418:
.LBE2417:
.LBE2403:
.LBE2402:
	.loc 9 46 2 is_stmt 1 view .LVU894
.LBB2420:
.LBI2420:
	.loc 1 606 5 view .LVU895
	.loc 1 606 5 is_stmt 0 view .LVU896
.LBE2420:
	.loc 7 364 2 is_stmt 1 view .LVU897
.LBB2422:
.LBB2421:
	.loc 1 611 18 is_stmt 0 view .LVU898
	ldr	x20, [x19, #:got_lo12:_ZSt4cout]
	add	x1, x24, :lo12:.LC6
	mov	x2, 6
	mov	x0, x20
.LEHB36:
	bl	_ZSt16__ostream_insertIcSt11char_traitsIcEERSt13basic_ostreamIT_T0_ES6_PKS3_l
.LVL194:
	.loc 1 611 18 view .LVU899
.LBE2421:
.LBE2422:
.LBB2423:
.LBI2423:
	.loc 4 182 17 is_stmt 1 view .LVU900
.LBB2424:
	.loc 4 184 9 view .LVU901
	.loc 4 184 72 is_stmt 0 view .LVU902
	add	x0, sp, 384
.LVL195:
	.loc 4 184 72 view .LVU903
	mov	w2, 32
	mov	w1, 2
	mov	x8, x23
	mov	w3, 12
	bl	_ZN6Vec12810ToStringFPIdEENSt7__cxx1112basic_stringIcSt11char_traitsIcESaIcEEEPKT_iii.isra.0
.LVL196:
.LEHE36:
	.loc 4 184 72 view .LVU904
.LBE2424:
.LBE2423:
.LBB2425:
.LBI2425:
	.loc 10 6468 5 is_stmt 1 view .LVU905
.LBB2426:
.LBB2427:
.LBI2427:
	.loc 10 2311 7 view .LVU906
.LBB2428:
.LBI2428:
	.loc 10 186 7 view .LVU907
	.loc 10 186 7 is_stmt 0 view .LVU908
.LBE2428:
.LBE2427:
.LBB2429:
.LBI2429:
	.loc 10 901 7 is_stmt 1 view .LVU909
	.loc 10 901 7 is_stmt 0 view .LVU910
.LBE2429:
	.loc 10 6473 30 view .LVU911
	ldp	x1, x2, [sp, 176]
	mov	x0, x20
.LEHB37:
	bl	_ZSt16__ostream_insertIcSt11char_traitsIcEERSt13basic_ostreamIT_T0_ES6_PKS3_l
.LVL197:
	.loc 10 6473 30 view .LVU912
.LBE2426:
.LBE2425:
.LBB2430:
.LBI2430:
	.loc 1 108 7 is_stmt 1 view .LVU913
.LBB2431:
	.loc 1 113 13 is_stmt 0 view .LVU914
	bl	_ZSt4endlIcSt11char_traitsIcEERSt13basic_ostreamIT_T0_ES6_.isra.0
.LVL198:
.LEHE37:
	.loc 1 113 13 view .LVU915
.LBE2431:
.LBE2430:
.LBB2432:
.LBI2432:
	.loc 10 657 7 is_stmt 1 view .LVU916
.LBB2433:
.LBB2434:
.LBI2434:
	.loc 10 229 7 view .LVU917
.LBB2435:
.LBB2436:
.LBI2436:
	.loc 10 221 7 view .LVU918
.LBB2437:
.LBI2437:
	.loc 10 186 7 view .LVU919
.LBB2438:
	.loc 10 187 28 is_stmt 0 view .LVU920
	ldr	x0, [sp, 176]
.LVL199:
	.loc 10 187 28 view .LVU921
.LBE2438:
.LBE2437:
.LBB2439:
.LBI2439:
	.loc 10 200 7 is_stmt 1 view .LVU922
	.loc 10 200 7 is_stmt 0 view .LVU923
.LBE2439:
.LBE2436:
	.loc 10 231 2 view .LVU924
	cmp	x0, x22
	beq	.L44
.LVL200:
.LBB2440:
.LBI2440:
	.loc 10 236 7 is_stmt 1 view .LVU925
.LBB2441:
.LBB2442:
.LBI2442:
	.loc 11 491 7 view .LVU926
.LBB2443:
.LBI2443:
	.loc 12 120 7 view .LVU927
.LBE2443:
.LBE2442:
	.loc 10 237 34 is_stmt 0 view .LVU928
	ldr	x1, [sp, 192]
.LBB2446:
.LBB2445:
.LBB2444:
	.loc 12 133 19 view .LVU929
	add	x1, x1, 1
.LVL201:
	.loc 12 133 19 view .LVU930
	bl	_ZdlPvm
.LVL202:
.L44:
	.loc 12 133 19 view .LVU931
.LBE2444:
.LBE2445:
.LBE2446:
.LBE2441:
.LBE2440:
.LBE2435:
.LBE2434:
.LBB2447:
.LBI2447:
	.loc 10 150 14 is_stmt 1 view .LVU932
.LBB2448:
.LBI2448:
	.loc 13 162 7 view .LVU933
.LBB2449:
.LBI2449:
	.loc 12 89 7 view .LVU934
	.loc 12 89 7 is_stmt 0 view .LVU935
.LBE2449:
.LBE2448:
.LBE2447:
.LBE2433:
.LBE2432:
	.loc 9 47 2 is_stmt 1 view .LVU936
.LBB2450:
.LBI2450:
	.loc 1 606 5 view .LVU937
	.loc 1 606 5 is_stmt 0 view .LVU938
.LBE2450:
	.loc 7 364 2 is_stmt 1 view .LVU939
.LBB2452:
.LBB2451:
	.loc 1 611 18 is_stmt 0 view .LVU940
	ldr	x20, [x19, #:got_lo12:_ZSt4cout]
	adrp	x0, .LC7
	mov	x2, 6
	add	x1, x0, :lo12:.LC7
	mov	x0, x20
.LEHB38:
	bl	_ZSt16__ostream_insertIcSt11char_traitsIcEERSt13basic_ostreamIT_T0_ES6_PKS3_l
.LVL203:
	.loc 1 611 18 view .LVU941
.LBE2451:
.LBE2452:
.LBB2453:
.LBI2453:
	.loc 4 182 17 is_stmt 1 view .LVU942
.LBB2454:
	.loc 4 184 9 view .LVU943
	.loc 4 184 72 is_stmt 0 view .LVU944
	add	x0, sp, 400
.LVL204:
	.loc 4 184 72 view .LVU945
	mov	w2, 32
	mov	w1, 2
	mov	x8, x23
	mov	w3, 12
	bl	_ZN6Vec12810ToStringFPIdEENSt7__cxx1112basic_stringIcSt11char_traitsIcESaIcEEEPKT_iii.isra.0
.LVL205:
.LEHE38:
	.loc 4 184 72 view .LVU946
.LBE2454:
.LBE2453:
.LBB2455:
.LBI2455:
	.loc 10 6468 5 is_stmt 1 view .LVU947
.LBB2456:
.LBB2457:
.LBI2457:
	.loc 10 2311 7 view .LVU948
.LBB2458:
.LBI2458:
	.loc 10 186 7 view .LVU949
	.loc 10 186 7 is_stmt 0 view .LVU950
.LBE2458:
.LBE2457:
.LBB2459:
.LBI2459:
	.loc 10 901 7 is_stmt 1 view .LVU951
	.loc 10 901 7 is_stmt 0 view .LVU952
.LBE2459:
	.loc 10 6473 30 view .LVU953
	ldp	x1, x2, [sp, 176]
	mov	x0, x20
.LEHB39:
	bl	_ZSt16__ostream_insertIcSt11char_traitsIcEERSt13basic_ostreamIT_T0_ES6_PKS3_l
.LVL206:
	.loc 10 6473 30 view .LVU954
.LBE2456:
.LBE2455:
.LBB2460:
.LBI2460:
	.loc 1 108 7 is_stmt 1 view .LVU955
.LBB2461:
	.loc 1 113 13 is_stmt 0 view .LVU956
	bl	_ZSt4endlIcSt11char_traitsIcEERSt13basic_ostreamIT_T0_ES6_.isra.0
.LVL207:
.LEHE39:
	.loc 1 113 13 view .LVU957
.LBE2461:
.LBE2460:
.LBB2462:
.LBI2462:
	.loc 10 657 7 is_stmt 1 view .LVU958
.LBB2463:
.LBB2464:
.LBI2464:
	.loc 10 229 7 view .LVU959
.LBB2465:
.LBB2466:
.LBI2466:
	.loc 10 221 7 view .LVU960
.LBB2467:
.LBI2467:
	.loc 10 186 7 view .LVU961
.LBB2468:
	.loc 10 187 28 is_stmt 0 view .LVU962
	ldr	x0, [sp, 176]
.LVL208:
	.loc 10 187 28 view .LVU963
.LBE2468:
.LBE2467:
.LBB2469:
.LBI2469:
	.loc 10 200 7 is_stmt 1 view .LVU964
	.loc 10 200 7 is_stmt 0 view .LVU965
.LBE2469:
.LBE2466:
	.loc 10 231 2 view .LVU966
	cmp	x0, x22
	beq	.L45
.LVL209:
.LBB2470:
.LBI2470:
	.loc 10 236 7 is_stmt 1 view .LVU967
.LBB2471:
.LBB2472:
.LBI2472:
	.loc 11 491 7 view .LVU968
.LBB2473:
.LBI2473:
	.loc 12 120 7 view .LVU969
.LBE2473:
.LBE2472:
	.loc 10 237 34 is_stmt 0 view .LVU970
	ldr	x1, [sp, 192]
.LBB2476:
.LBB2475:
.LBB2474:
	.loc 12 133 19 view .LVU971
	add	x1, x1, 1
.LVL210:
	.loc 12 133 19 view .LVU972
	bl	_ZdlPvm
.LVL211:
.L45:
	.loc 12 133 19 view .LVU973
.LBE2474:
.LBE2475:
.LBE2476:
.LBE2471:
.LBE2470:
.LBE2465:
.LBE2464:
.LBB2477:
.LBI2477:
	.loc 10 150 14 is_stmt 1 view .LVU974
.LBB2478:
.LBI2478:
	.loc 13 162 7 view .LVU975
.LBB2479:
.LBI2479:
	.loc 12 89 7 view .LVU976
	.loc 12 89 7 is_stmt 0 view .LVU977
.LBE2479:
.LBE2478:
.LBE2477:
.LBE2463:
.LBE2462:
	.loc 9 48 2 is_stmt 1 view .LVU978
.LBB2480:
.LBI2480:
	.loc 1 606 5 view .LVU979
	.loc 1 606 5 is_stmt 0 view .LVU980
.LBE2480:
	.loc 7 364 2 is_stmt 1 view .LVU981
.LBB2482:
.LBB2481:
	.loc 1 611 18 is_stmt 0 view .LVU982
	ldr	x20, [x19, #:got_lo12:_ZSt4cout]
	adrp	x0, .LC8
	mov	x2, 9
	add	x1, x0, :lo12:.LC8
	mov	x0, x20
.LEHB40:
	bl	_ZSt16__ostream_insertIcSt11char_traitsIcEERSt13basic_ostreamIT_T0_ES6_PKS3_l
.LVL212:
	.loc 1 611 18 view .LVU983
.LBE2481:
.LBE2482:
.LBB2483:
.LBI2483:
	.loc 4 182 17 is_stmt 1 view .LVU984
.LBB2484:
	.loc 4 184 9 view .LVU985
	.loc 4 184 72 is_stmt 0 view .LVU986
	add	x0, sp, 416
.LVL213:
	.loc 4 184 72 view .LVU987
	mov	w2, 32
	mov	w1, 2
	mov	x8, x23
	mov	w3, 12
	bl	_ZN6Vec12810ToStringFPIdEENSt7__cxx1112basic_stringIcSt11char_traitsIcESaIcEEEPKT_iii.isra.0
.LVL214:
.LEHE40:
	.loc 4 184 72 view .LVU988
.LBE2484:
.LBE2483:
.LBB2485:
.LBI2485:
	.loc 10 6468 5 is_stmt 1 view .LVU989
.LBB2486:
.LBB2487:
.LBI2487:
	.loc 10 2311 7 view .LVU990
.LBB2488:
.LBI2488:
	.loc 10 186 7 view .LVU991
	.loc 10 186 7 is_stmt 0 view .LVU992
.LBE2488:
.LBE2487:
.LBB2489:
.LBI2489:
	.loc 10 901 7 is_stmt 1 view .LVU993
	.loc 10 901 7 is_stmt 0 view .LVU994
.LBE2489:
	.loc 10 6473 30 view .LVU995
	ldp	x1, x2, [sp, 176]
	mov	x0, x20
.LEHB41:
	bl	_ZSt16__ostream_insertIcSt11char_traitsIcEERSt13basic_ostreamIT_T0_ES6_PKS3_l
.LVL215:
	.loc 10 6473 30 view .LVU996
.LBE2486:
.LBE2485:
.LBB2490:
.LBI2490:
	.loc 1 108 7 is_stmt 1 view .LVU997
.LBB2491:
	.loc 1 113 13 is_stmt 0 view .LVU998
	bl	_ZSt4endlIcSt11char_traitsIcEERSt13basic_ostreamIT_T0_ES6_.isra.0
.LVL216:
.LEHE41:
	.loc 1 113 13 view .LVU999
.LBE2491:
.LBE2490:
.LBB2492:
.LBI2492:
	.loc 10 657 7 is_stmt 1 view .LVU1000
.LBB2493:
.LBB2494:
.LBI2494:
	.loc 10 229 7 view .LVU1001
.LBB2495:
.LBB2496:
.LBI2496:
	.loc 10 221 7 view .LVU1002
.LBB2497:
.LBI2497:
	.loc 10 186 7 view .LVU1003
.LBB2498:
	.loc 10 187 28 is_stmt 0 view .LVU1004
	ldr	x0, [sp, 176]
.LVL217:
	.loc 10 187 28 view .LVU1005
.LBE2498:
.LBE2497:
.LBB2499:
.LBI2499:
	.loc 10 200 7 is_stmt 1 view .LVU1006
	.loc 10 200 7 is_stmt 0 view .LVU1007
.LBE2499:
.LBE2496:
	.loc 10 231 2 view .LVU1008
	cmp	x0, x22
	beq	.L46
.LVL218:
.LBB2500:
.LBI2500:
	.loc 10 236 7 is_stmt 1 view .LVU1009
.LBB2501:
.LBB2502:
.LBI2502:
	.loc 11 491 7 view .LVU1010
.LBB2503:
.LBI2503:
	.loc 12 120 7 view .LVU1011
.LBE2503:
.LBE2502:
	.loc 10 237 34 is_stmt 0 view .LVU1012
	ldr	x1, [sp, 192]
.LBB2506:
.LBB2505:
.LBB2504:
	.loc 12 133 19 view .LVU1013
	add	x1, x1, 1
.LVL219:
	.loc 12 133 19 view .LVU1014
	bl	_ZdlPvm
.LVL220:
.L46:
	.loc 12 133 19 view .LVU1015
.LBE2504:
.LBE2505:
.LBE2506:
.LBE2501:
.LBE2500:
.LBE2495:
.LBE2494:
.LBB2507:
.LBI2507:
	.loc 10 150 14 is_stmt 1 view .LVU1016
.LBB2508:
.LBI2508:
	.loc 13 162 7 view .LVU1017
.LBB2509:
.LBI2509:
	.loc 12 89 7 view .LVU1018
	.loc 12 89 7 is_stmt 0 view .LVU1019
.LBE2509:
.LBE2508:
.LBE2507:
.LBE2493:
.LBE2492:
	.loc 9 49 2 is_stmt 1 view .LVU1020
.LBB2510:
.LBI2510:
	.loc 1 606 5 view .LVU1021
	.loc 1 606 5 is_stmt 0 view .LVU1022
.LBE2510:
	.loc 7 364 2 is_stmt 1 view .LVU1023
.LBB2512:
.LBB2511:
	.loc 1 611 18 is_stmt 0 view .LVU1024
	ldr	x20, [x19, #:got_lo12:_ZSt4cout]
	adrp	x0, .LC9
	mov	x2, 9
	add	x1, x0, :lo12:.LC9
	mov	x0, x20
.LEHB42:
	bl	_ZSt16__ostream_insertIcSt11char_traitsIcEERSt13basic_ostreamIT_T0_ES6_PKS3_l
.LVL221:
	.loc 1 611 18 view .LVU1025
.LBE2511:
.LBE2512:
.LBB2513:
.LBI2513:
	.loc 4 182 17 is_stmt 1 view .LVU1026
.LBB2514:
	.loc 4 184 9 view .LVU1027
	.loc 4 184 72 is_stmt 0 view .LVU1028
	add	x0, sp, 432
.LVL222:
	.loc 4 184 72 view .LVU1029
	mov	w2, 32
	mov	w1, 2
	mov	x8, x23
	mov	w3, 12
	bl	_ZN6Vec12810ToStringFPIdEENSt7__cxx1112basic_stringIcSt11char_traitsIcESaIcEEEPKT_iii.isra.0
.LVL223:
.LEHE42:
	.loc 4 184 72 view .LVU1030
.LBE2514:
.LBE2513:
.LBB2515:
.LBI2515:
	.loc 10 6468 5 is_stmt 1 view .LVU1031
.LBB2516:
.LBB2517:
.LBI2517:
	.loc 10 2311 7 view .LVU1032
.LBB2518:
.LBI2518:
	.loc 10 186 7 view .LVU1033
	.loc 10 186 7 is_stmt 0 view .LVU1034
.LBE2518:
.LBE2517:
.LBB2519:
.LBI2519:
	.loc 10 901 7 is_stmt 1 view .LVU1035
	.loc 10 901 7 is_stmt 0 view .LVU1036
.LBE2519:
	.loc 10 6473 30 view .LVU1037
	ldp	x1, x2, [sp, 176]
	mov	x0, x20
.LEHB43:
	bl	_ZSt16__ostream_insertIcSt11char_traitsIcEERSt13basic_ostreamIT_T0_ES6_PKS3_l
.LVL224:
	.loc 10 6473 30 view .LVU1038
.LBE2516:
.LBE2515:
.LBB2520:
.LBI2520:
	.loc 1 108 7 is_stmt 1 view .LVU1039
.LBB2521:
	.loc 1 113 13 is_stmt 0 view .LVU1040
	bl	_ZSt4endlIcSt11char_traitsIcEERSt13basic_ostreamIT_T0_ES6_.isra.0
.LVL225:
.LEHE43:
	.loc 1 113 13 view .LVU1041
.LBE2521:
.LBE2520:
.LBB2522:
.LBI2522:
	.loc 10 657 7 is_stmt 1 view .LVU1042
.LBB2523:
.LBB2524:
.LBI2524:
	.loc 10 229 7 view .LVU1043
.LBB2525:
.LBB2526:
.LBI2526:
	.loc 10 221 7 view .LVU1044
.LBB2527:
.LBI2527:
	.loc 10 186 7 view .LVU1045
.LBB2528:
	.loc 10 187 28 is_stmt 0 view .LVU1046
	ldr	x0, [sp, 176]
.LVL226:
	.loc 10 187 28 view .LVU1047
.LBE2528:
.LBE2527:
.LBB2529:
.LBI2529:
	.loc 10 200 7 is_stmt 1 view .LVU1048
	.loc 10 200 7 is_stmt 0 view .LVU1049
.LBE2529:
.LBE2526:
	.loc 10 231 2 view .LVU1050
	cmp	x0, x22
	beq	.L47
.LVL227:
.LBB2530:
.LBI2530:
	.loc 10 236 7 is_stmt 1 view .LVU1051
.LBB2531:
.LBB2532:
.LBI2532:
	.loc 11 491 7 view .LVU1052
.LBB2533:
.LBI2533:
	.loc 12 120 7 view .LVU1053
.LBE2533:
.LBE2532:
	.loc 10 237 34 is_stmt 0 view .LVU1054
	ldr	x1, [sp, 192]
.LBB2536:
.LBB2535:
.LBB2534:
	.loc 12 133 19 view .LVU1055
	add	x1, x1, 1
.LVL228:
	.loc 12 133 19 view .LVU1056
	bl	_ZdlPvm
.LVL229:
.L47:
	.loc 12 133 19 view .LVU1057
.LBE2534:
.LBE2535:
.LBE2536:
.LBE2531:
.LBE2530:
.LBE2525:
.LBE2524:
.LBB2537:
.LBI2537:
	.loc 10 150 14 is_stmt 1 view .LVU1058
.LBB2538:
.LBI2538:
	.loc 13 162 7 view .LVU1059
.LBB2539:
.LBI2539:
	.loc 12 89 7 view .LVU1060
	.loc 12 89 7 is_stmt 0 view .LVU1061
.LBE2539:
.LBE2538:
.LBE2537:
.LBE2523:
.LBE2522:
	.loc 9 50 2 is_stmt 1 view .LVU1062
.LBB2540:
.LBI2540:
	.loc 1 606 5 view .LVU1063
	.loc 1 606 5 is_stmt 0 view .LVU1064
.LBE2540:
	.loc 7 364 2 is_stmt 1 view .LVU1065
.LBB2542:
.LBB2541:
	.loc 1 611 18 is_stmt 0 view .LVU1066
	ldr	x20, [x19, #:got_lo12:_ZSt4cout]
	adrp	x0, .LC10
	mov	x2, 8
	add	x1, x0, :lo12:.LC10
	mov	x0, x20
.LEHB44:
	bl	_ZSt16__ostream_insertIcSt11char_traitsIcEERSt13basic_ostreamIT_T0_ES6_PKS3_l
.LVL230:
	.loc 1 611 18 view .LVU1067
.LBE2541:
.LBE2542:
.LBB2543:
.LBI2543:
	.loc 4 182 17 is_stmt 1 view .LVU1068
.LBB2544:
	.loc 4 184 9 view .LVU1069
	.loc 4 184 72 is_stmt 0 view .LVU1070
	add	x0, sp, 448
.LVL231:
	.loc 4 184 72 view .LVU1071
	mov	w2, 32
	mov	w1, 2
	mov	x8, x23
	mov	w3, 12
	bl	_ZN6Vec12810ToStringFPIdEENSt7__cxx1112basic_stringIcSt11char_traitsIcESaIcEEEPKT_iii.isra.0
.LVL232:
.LEHE44:
	.loc 4 184 72 view .LVU1072
.LBE2544:
.LBE2543:
.LBB2545:
.LBI2545:
	.loc 10 6468 5 is_stmt 1 view .LVU1073
.LBB2546:
.LBB2547:
.LBI2547:
	.loc 10 2311 7 view .LVU1074
.LBB2548:
.LBI2548:
	.loc 10 186 7 view .LVU1075
	.loc 10 186 7 is_stmt 0 view .LVU1076
.LBE2548:
.LBE2547:
.LBB2549:
.LBI2549:
	.loc 10 901 7 is_stmt 1 view .LVU1077
	.loc 10 901 7 is_stmt 0 view .LVU1078
.LBE2549:
	.loc 10 6473 30 view .LVU1079
	ldp	x1, x2, [sp, 176]
	mov	x0, x20
.LEHB45:
	bl	_ZSt16__ostream_insertIcSt11char_traitsIcEERSt13basic_ostreamIT_T0_ES6_PKS3_l
.LVL233:
	.loc 10 6473 30 view .LVU1080
.LBE2546:
.LBE2545:
.LBB2550:
.LBI2550:
	.loc 1 108 7 is_stmt 1 view .LVU1081
.LBB2551:
	.loc 1 113 13 is_stmt 0 view .LVU1082
	bl	_ZSt4endlIcSt11char_traitsIcEERSt13basic_ostreamIT_T0_ES6_.isra.0
.LVL234:
.LEHE45:
	.loc 1 113 13 view .LVU1083
.LBE2551:
.LBE2550:
.LBB2552:
.LBI2552:
	.loc 10 657 7 is_stmt 1 view .LVU1084
.LBB2553:
.LBB2554:
.LBI2554:
	.loc 10 229 7 view .LVU1085
.LBB2555:
.LBB2556:
.LBI2556:
	.loc 10 221 7 view .LVU1086
.LBB2557:
.LBI2557:
	.loc 10 186 7 view .LVU1087
.LBB2558:
	.loc 10 187 28 is_stmt 0 view .LVU1088
	ldr	x0, [sp, 176]
.LVL235:
	.loc 10 187 28 view .LVU1089
.LBE2558:
.LBE2557:
.LBB2559:
.LBI2559:
	.loc 10 200 7 is_stmt 1 view .LVU1090
	.loc 10 200 7 is_stmt 0 view .LVU1091
.LBE2559:
.LBE2556:
	.loc 10 231 2 view .LVU1092
	cmp	x0, x22
	beq	.L48
.LVL236:
.LBB2560:
.LBI2560:
	.loc 10 236 7 is_stmt 1 view .LVU1093
.LBB2561:
.LBB2562:
.LBI2562:
	.loc 11 491 7 view .LVU1094
.LBB2563:
.LBI2563:
	.loc 12 120 7 view .LVU1095
.LBE2563:
.LBE2562:
	.loc 10 237 34 is_stmt 0 view .LVU1096
	ldr	x1, [sp, 192]
.LBB2566:
.LBB2565:
.LBB2564:
	.loc 12 133 19 view .LVU1097
	add	x1, x1, 1
.LVL237:
	.loc 12 133 19 view .LVU1098
	bl	_ZdlPvm
.LVL238:
.L48:
	.loc 12 133 19 view .LVU1099
.LBE2564:
.LBE2565:
.LBE2566:
.LBE2561:
.LBE2560:
.LBE2555:
.LBE2554:
.LBB2567:
.LBI2567:
	.loc 10 150 14 is_stmt 1 view .LVU1100
.LBB2568:
.LBI2568:
	.loc 13 162 7 view .LVU1101
.LBB2569:
.LBI2569:
	.loc 12 89 7 view .LVU1102
	.loc 12 89 7 is_stmt 0 view .LVU1103
.LBE2569:
.LBE2568:
.LBE2567:
.LBE2553:
.LBE2552:
	.loc 9 51 2 is_stmt 1 view .LVU1104
.LBB2570:
.LBI2570:
	.loc 1 606 5 view .LVU1105
	.loc 1 606 5 is_stmt 0 view .LVU1106
.LBE2570:
	.loc 7 364 2 is_stmt 1 view .LVU1107
.LBB2572:
.LBB2571:
	.loc 1 611 18 is_stmt 0 view .LVU1108
	ldr	x20, [x19, #:got_lo12:_ZSt4cout]
	adrp	x0, .LC11
	mov	x2, 8
	add	x1, x0, :lo12:.LC11
	mov	x0, x20
.LEHB46:
	bl	_ZSt16__ostream_insertIcSt11char_traitsIcEERSt13basic_ostreamIT_T0_ES6_PKS3_l
.LVL239:
	.loc 1 611 18 view .LVU1109
.LBE2571:
.LBE2572:
.LBB2573:
.LBI2573:
	.loc 4 182 17 is_stmt 1 view .LVU1110
.LBB2574:
	.loc 4 184 9 view .LVU1111
	.loc 4 184 72 is_stmt 0 view .LVU1112
	add	x0, sp, 464
.LVL240:
	.loc 4 184 72 view .LVU1113
	mov	w2, 32
	mov	w1, 2
	mov	x8, x23
	mov	w3, 12
	bl	_ZN6Vec12810ToStringFPIdEENSt7__cxx1112basic_stringIcSt11char_traitsIcESaIcEEEPKT_iii.isra.0
.LVL241:
.LEHE46:
	.loc 4 184 72 view .LVU1114
.LBE2574:
.LBE2573:
.LBB2575:
.LBI2575:
	.loc 10 6468 5 is_stmt 1 view .LVU1115
.LBB2576:
.LBB2577:
.LBI2577:
	.loc 10 2311 7 view .LVU1116
.LBB2578:
.LBI2578:
	.loc 10 186 7 view .LVU1117
	.loc 10 186 7 is_stmt 0 view .LVU1118
.LBE2578:
.LBE2577:
.LBB2579:
.LBI2579:
	.loc 10 901 7 is_stmt 1 view .LVU1119
	.loc 10 901 7 is_stmt 0 view .LVU1120
.LBE2579:
	.loc 10 6473 30 view .LVU1121
	ldp	x1, x2, [sp, 176]
	mov	x0, x20
.LEHB47:
	bl	_ZSt16__ostream_insertIcSt11char_traitsIcEERSt13basic_ostreamIT_T0_ES6_PKS3_l
.LVL242:
	.loc 10 6473 30 view .LVU1122
.LBE2576:
.LBE2575:
.LBB2580:
.LBI2580:
	.loc 1 108 7 is_stmt 1 view .LVU1123
.LBB2581:
	.loc 1 113 13 is_stmt 0 view .LVU1124
	bl	_ZSt4endlIcSt11char_traitsIcEERSt13basic_ostreamIT_T0_ES6_.isra.0
.LVL243:
.LEHE47:
	.loc 1 113 13 view .LVU1125
.LBE2581:
.LBE2580:
.LBB2582:
.LBI2582:
	.loc 10 657 7 is_stmt 1 view .LVU1126
.LBB2583:
.LBB2584:
.LBI2584:
	.loc 10 229 7 view .LVU1127
.LBB2585:
.LBB2586:
.LBI2586:
	.loc 10 221 7 view .LVU1128
.LBB2587:
.LBI2587:
	.loc 10 186 7 view .LVU1129
.LBB2588:
	.loc 10 187 28 is_stmt 0 view .LVU1130
	ldr	x0, [sp, 176]
.LVL244:
	.loc 10 187 28 view .LVU1131
.LBE2588:
.LBE2587:
.LBB2589:
.LBI2589:
	.loc 10 200 7 is_stmt 1 view .LVU1132
	.loc 10 200 7 is_stmt 0 view .LVU1133
.LBE2589:
.LBE2586:
	.loc 10 231 2 view .LVU1134
	cmp	x0, x22
	beq	.L49
.LVL245:
.LBB2590:
.LBI2590:
	.loc 10 236 7 is_stmt 1 view .LVU1135
.LBB2591:
.LBB2592:
.LBI2592:
	.loc 11 491 7 view .LVU1136
.LBB2593:
.LBI2593:
	.loc 12 120 7 view .LVU1137
.LBE2593:
.LBE2592:
	.loc 10 237 34 is_stmt 0 view .LVU1138
	ldr	x1, [sp, 192]
.LBB2596:
.LBB2595:
.LBB2594:
	.loc 12 133 19 view .LVU1139
	add	x1, x1, 1
.LVL246:
	.loc 12 133 19 view .LVU1140
	bl	_ZdlPvm
.LVL247:
.L49:
	.loc 12 133 19 view .LVU1141
.LBE2594:
.LBE2595:
.LBE2596:
.LBE2591:
.LBE2590:
.LBE2585:
.LBE2584:
.LBB2597:
.LBI2597:
	.loc 10 150 14 is_stmt 1 view .LVU1142
.LBB2598:
.LBI2598:
	.loc 13 162 7 view .LVU1143
.LBB2599:
.LBI2599:
	.loc 12 89 7 view .LVU1144
	.loc 12 89 7 is_stmt 0 view .LVU1145
.LBE2599:
.LBE2598:
.LBE2597:
.LBE2583:
.LBE2582:
	.loc 9 52 2 is_stmt 1 view .LVU1146
.LBB2600:
.LBI2600:
	.loc 1 606 5 view .LVU1147
	.loc 1 606 5 is_stmt 0 view .LVU1148
.LBE2600:
	.loc 7 364 2 is_stmt 1 view .LVU1149
.LBB2602:
.LBB2601:
	.loc 1 611 18 is_stmt 0 view .LVU1150
	ldr	x19, [x19, #:got_lo12:_ZSt4cout]
	adrp	x0, .LC12
	mov	x2, 7
	add	x1, x0, :lo12:.LC12
	mov	x0, x19
.LEHB48:
	bl	_ZSt16__ostream_insertIcSt11char_traitsIcEERSt13basic_ostreamIT_T0_ES6_PKS3_l
.LVL248:
	.loc 1 611 18 view .LVU1151
.LBE2601:
.LBE2602:
.LBB2603:
.LBI2603:
	.loc 4 182 17 is_stmt 1 view .LVU1152
.LBB2604:
	.loc 4 184 9 view .LVU1153
	.loc 4 184 72 is_stmt 0 view .LVU1154
	add	x0, sp, 480
.LVL249:
	.loc 4 184 72 view .LVU1155
	mov	w2, 32
	mov	w1, 2
	mov	x8, x23
	mov	w3, 12
	bl	_ZN6Vec12810ToStringFPIdEENSt7__cxx1112basic_stringIcSt11char_traitsIcESaIcEEEPKT_iii.isra.0
.LVL250:
.LEHE48:
	.loc 4 184 72 view .LVU1156
.LBE2604:
.LBE2603:
.LBB2605:
.LBI2605:
	.loc 10 6468 5 is_stmt 1 view .LVU1157
.LBB2606:
.LBB2607:
.LBI2607:
	.loc 10 2311 7 view .LVU1158
.LBB2608:
.LBI2608:
	.loc 10 186 7 view .LVU1159
	.loc 10 186 7 is_stmt 0 view .LVU1160
.LBE2608:
.LBE2607:
.LBB2609:
.LBI2609:
	.loc 10 901 7 is_stmt 1 view .LVU1161
	.loc 10 901 7 is_stmt 0 view .LVU1162
.LBE2609:
	.loc 10 6473 30 view .LVU1163
	ldp	x1, x2, [sp, 176]
	mov	x0, x19
.LEHB49:
	bl	_ZSt16__ostream_insertIcSt11char_traitsIcEERSt13basic_ostreamIT_T0_ES6_PKS3_l
.LVL251:
	.loc 10 6473 30 view .LVU1164
.LBE2606:
.LBE2605:
.LBB2610:
.LBI2610:
	.loc 1 108 7 is_stmt 1 view .LVU1165
.LBB2611:
	.loc 1 113 13 is_stmt 0 view .LVU1166
	bl	_ZSt4endlIcSt11char_traitsIcEERSt13basic_ostreamIT_T0_ES6_.isra.0
.LVL252:
.LEHE49:
	.loc 1 113 13 view .LVU1167
.LBE2611:
.LBE2610:
.LBB2612:
.LBI2612:
	.loc 10 657 7 is_stmt 1 view .LVU1168
.LBB2613:
.LBB2614:
.LBI2614:
	.loc 10 229 7 view .LVU1169
.LBB2615:
.LBB2616:
.LBI2616:
	.loc 10 221 7 view .LVU1170
.LBB2617:
.LBI2617:
	.loc 10 186 7 view .LVU1171
.LBB2618:
	.loc 10 187 28 is_stmt 0 view .LVU1172
	ldr	x0, [sp, 176]
.LVL253:
	.loc 10 187 28 view .LVU1173
.LBE2618:
.LBE2617:
.LBB2619:
.LBI2619:
	.loc 10 200 7 is_stmt 1 view .LVU1174
	.loc 10 200 7 is_stmt 0 view .LVU1175
.LBE2619:
.LBE2616:
	.loc 10 231 2 view .LVU1176
	cmp	x0, x22
	beq	.L117
.LVL254:
.LBB2620:
.LBI2620:
	.loc 10 236 7 is_stmt 1 view .LVU1177
.LBB2621:
.LBB2622:
.LBI2622:
	.loc 11 491 7 view .LVU1178
.LBB2623:
.LBI2623:
	.loc 12 120 7 view .LVU1179
.LBE2623:
.LBE2622:
	.loc 10 237 34 is_stmt 0 view .LVU1180
	ldr	x1, [sp, 192]
.LBB2626:
.LBB2625:
.LBB2624:
	.loc 12 133 19 view .LVU1181
	add	x1, x1, 1
.LVL255:
	.loc 12 133 19 view .LVU1182
	bl	_ZdlPvm
.LVL256:
	.loc 12 133 19 view .LVU1183
.LBE2624:
.LBE2625:
.LBE2626:
.LBE2621:
.LBE2620:
.LBE2615:
.LBE2614:
.LBB2627:
.LBI2627:
	.loc 10 150 14 is_stmt 1 view .LVU1184
.LBB2628:
.LBI2628:
	.loc 13 162 7 view .LVU1185
.LBB2629:
.LBI2629:
	.loc 12 89 7 view .LVU1186
	.loc 12 89 7 is_stmt 0 view .LVU1187
.LBE2629:
.LBE2628:
.LBE2627:
.LBE2613:
.LBE2612:
	.loc 9 54 2 is_stmt 1 view .LVU1188
.L117:
	.loc 9 55 1 is_stmt 0 view .LVU1189
	mov	w0, 0
	ldp	x19, x20, [sp, 16]
	ldp	x21, x22, [sp, 32]
	ldp	x23, x24, [sp, 48]
	ldp	x25, x26, [sp, 64]
	ldp	x27, x28, [sp, 80]
	ldp	x29, x30, [sp], 496
	.cfi_remember_state
	.cfi_restore 30
	.cfi_restore 29
	.cfi_restore 27
	.cfi_restore 28
	.cfi_restore 25
	.cfi_restore 26
	.cfi_restore 23
	.cfi_restore 24
	.cfi_restore 21
	.cfi_restore 22
	.cfi_restore 19
	.cfi_restore 20
	.cfi_def_cfa_offset 0
	ret
.L95:
	.cfi_restore_state
.LBB2630:
.LBB2631:
.LBB2632:
.LBB2633:
.LBB2634:
.LBB2635:
.LBB2636:
	.loc 10 187 28 view .LVU1190
	ldr	x2, [sp, 352]
.LBE2636:
.LBE2635:
.LBE2634:
	.loc 10 231 2 view .LVU1191
	add	x1, sp, 368
.LBB2641:
.LBB2638:
.LBB2637:
	.loc 10 187 28 view .LVU1192
	mov	x19, x0
.LVL257:
	.loc 10 187 28 view .LVU1193
.LBE2637:
.LBE2638:
.LBE2641:
.LBE2633:
.LBE2632:
.LBE2631:
.LBI2630:
	.loc 10 657 7 is_stmt 1 view .LVU1194
.LBB2645:
.LBB2644:
.LBI2632:
	.loc 10 229 7 view .LVU1195
.LBB2643:
.LBB2642:
.LBI2634:
	.loc 10 221 7 view .LVU1196
.LBB2639:
.LBI2635:
	.loc 10 186 7 view .LVU1197
	.loc 10 186 7 is_stmt 0 view .LVU1198
.LBE2639:
.LBB2640:
.LBI2640:
	.loc 10 200 7 is_stmt 1 view .LVU1199
	.loc 10 200 7 is_stmt 0 view .LVU1200
.LBE2640:
.LBE2642:
	.loc 10 231 2 view .LVU1201
	cmp	x2, x1
	beq	.L94
.LVL258:
.L119:
	.loc 10 231 2 view .LVU1202
.LBE2643:
.LBE2644:
.LBE2645:
.LBE2630:
.LBB2646:
.LBB2647:
.LBB2648:
.LBB2649:
.LBB2650:
.LBI2650:
	.loc 10 236 7 is_stmt 1 view .LVU1203
.LBB2651:
.LBB2652:
.LBI2652:
	.loc 11 491 7 view .LVU1204
.LBB2653:
.LBI2653:
	.loc 12 120 7 view .LVU1205
.LBE2653:
.LBE2652:
	.loc 10 237 34 is_stmt 0 view .LVU1206
	ldr	x1, [sp, 368]
.LBB2656:
.LBB2655:
.LBB2654:
	.loc 12 133 19 view .LVU1207
	mov	x0, x2
	add	x1, x1, 1
.LVL259:
	.loc 12 133 19 view .LVU1208
	bl	_ZdlPvm
.LVL260:
	.loc 12 133 19 view .LVU1209
.LBE2654:
.LBE2655:
.LBE2656:
.LBE2651:
.LBE2650:
.LBE2649:
.LBE2648:
.LBB2665:
.LBI2665:
	.loc 10 150 14 is_stmt 1 view .LVU1210
.LBB2666:
.LBI2666:
	.loc 13 162 7 view .LVU1211
.LBB2667:
.LBI2667:
	.loc 12 89 7 view .LVU1212
.L94:
	.loc 12 89 7 is_stmt 0 view .LVU1213
.LBE2667:
.LBE2666:
.LBE2665:
.LBE2647:
.LBE2646:
.LBB2672:
.LBB2673:
.LBB2674:
.LBI2674:
	.loc 10 150 14 is_stmt 1 view .LVU1214
.LBB2675:
.LBI2675:
	.loc 13 162 7 view .LVU1215
.LBB2676:
.LBI2676:
	.loc 12 89 7 view .LVU1216
	.loc 12 89 7 is_stmt 0 view .LVU1217
	mov	x0, x19
.LEHB50:
	bl	_Unwind_Resume
.LVL261:
.LEHE50:
.L116:
.L132:
.LBE2676:
.LBE2675:
.LBE2674:
.LBB2677:
.LBB2678:
.LBB2679:
.LBB2680:
.LBB2681:
	.loc 10 187 28 view .LVU1218
	ldr	x2, [sp, 176]
	mov	x19, x0
.LVL262:
	.loc 10 187 28 view .LVU1219
.LBE2681:
.LBE2680:
.LBE2679:
.LBE2678:
.LBE2677:
.LBE2673:
.LBI2672:
	.loc 10 657 7 is_stmt 1 view .LVU1220
.LBB2694:
.LBB2693:
.LBI2677:
	.loc 10 229 7 view .LVU1221
.LBB2692:
.LBB2684:
.LBI2679:
	.loc 10 221 7 view .LVU1222
.LBB2682:
.LBI2680:
	.loc 10 186 7 view .LVU1223
	.loc 10 186 7 is_stmt 0 view .LVU1224
.LBE2682:
.LBB2683:
.LBI2683:
	.loc 10 200 7 is_stmt 1 view .LVU1225
	.loc 10 200 7 is_stmt 0 view .LVU1226
.LBE2683:
.LBE2684:
	.loc 10 231 2 view .LVU1227
	cmp	x2, x22
	beq	.L94
.LVL263:
.L120:
.LBB2685:
.LBI2685:
	.loc 10 236 7 is_stmt 1 view .LVU1228
.LBB2686:
.LBB2687:
.LBI2687:
	.loc 11 491 7 view .LVU1229
.LBB2688:
.LBI2688:
	.loc 12 120 7 view .LVU1230
.LBE2688:
.LBE2687:
	.loc 10 237 34 is_stmt 0 view .LVU1231
	ldr	x1, [sp, 192]
.LBB2691:
.LBB2690:
.LBB2689:
	.loc 12 133 19 view .LVU1232
	mov	x0, x2
	add	x1, x1, 1
.LVL264:
	.loc 12 133 19 view .LVU1233
	bl	_ZdlPvm
.LVL265:
	.loc 12 133 19 view .LVU1234
.LBE2689:
.LBE2690:
.LBE2691:
	.loc 10 237 79 view .LVU1235
	b	.L94
.LVL266:
.L115:
	.loc 10 237 79 view .LVU1236
	b	.L132
.L113:
	b	.L132
.L112:
	b	.L132
.L114:
	b	.L132
.L111:
	b	.L132
.L110:
	b	.L132
.L109:
	b	.L132
.L108:
	b	.L132
.L107:
	b	.L132
.L106:
.LBE2686:
.LBE2685:
.LBE2692:
.LBE2693:
.LBE2694:
.LBE2672:
.LBB2695:
.LBB2696:
.LBB2697:
.LBB2698:
.LBB2699:
.LBB2700:
.LBB2701:
	.loc 10 187 28 view .LVU1237
	ldr	x2, [sp, 176]
.LBE2701:
.LBE2700:
.LBE2699:
	.loc 10 231 2 view .LVU1238
	add	x1, sp, 192
.LBB2706:
.LBB2703:
.LBB2702:
	.loc 10 187 28 view .LVU1239
	mov	x19, x0
.LVL267:
	.loc 10 187 28 view .LVU1240
.LBE2702:
.LBE2703:
.LBE2706:
.LBE2698:
.LBE2697:
.LBE2696:
.LBI2695:
	.loc 10 657 7 is_stmt 1 view .LVU1241
.LBB2710:
.LBB2709:
.LBI2697:
	.loc 10 229 7 view .LVU1242
.LBB2708:
.LBB2707:
.LBI2699:
	.loc 10 221 7 view .LVU1243
.LBB2704:
.LBI2700:
	.loc 10 186 7 view .LVU1244
	.loc 10 186 7 is_stmt 0 view .LVU1245
.LBE2704:
.LBB2705:
.LBI2705:
	.loc 10 200 7 is_stmt 1 view .LVU1246
	.loc 10 200 7 is_stmt 0 view .LVU1247
.LBE2705:
.LBE2707:
	.loc 10 231 2 view .LVU1248
	cmp	x2, x1
	bne	.L120
	b	.L94
.LVL268:
.L105:
.L122:
	.loc 10 231 2 view .LVU1249
.LBE2708:
.LBE2709:
.LBE2710:
.LBE2695:
.LBB2711:
.LBB2670:
.LBB2668:
.LBB2663:
.LBB2657:
.LBB2658:
.LBB2659:
	.loc 10 187 28 view .LVU1250
	ldr	x2, [sp, 352]
	mov	x19, x0
.LVL269:
	.loc 10 187 28 view .LVU1251
.LBE2659:
.LBE2658:
.LBE2657:
.LBE2663:
.LBE2668:
.LBE2670:
.LBI2646:
	.loc 10 657 7 is_stmt 1 view .LVU1252
.LBB2671:
.LBB2669:
.LBI2648:
	.loc 10 229 7 view .LVU1253
.LBB2664:
.LBB2662:
.LBI2657:
	.loc 10 221 7 view .LVU1254
.LBB2660:
.LBI2658:
	.loc 10 186 7 view .LVU1255
	.loc 10 186 7 is_stmt 0 view .LVU1256
.LBE2660:
.LBB2661:
.LBI2661:
	.loc 10 200 7 is_stmt 1 view .LVU1257
	.loc 10 200 7 is_stmt 0 view .LVU1258
.LBE2661:
.LBE2662:
	.loc 10 231 2 view .LVU1259
	cmp	x2, x21
	bne	.L119
	b	.L94
.LVL270:
.L104:
	.loc 10 231 2 view .LVU1260
	b	.L122
.L103:
	b	.L122
.L102:
	b	.L122
.L101:
	b	.L122
.L100:
	b	.L122
.L99:
	b	.L122
.L98:
	b	.L122
.L97:
	b	.L122
.L96:
	b	.L122
.LBE2664:
.LBE2669:
.LBE2671:
.LBE2711:
	.cfi_endproc
.LFE2614:
	.section	.gcc_except_table
.LLSDA2614:
	.byte	0xff
	.byte	0xff
	.byte	0x1
	.uleb128 .LLSDACSE2614-.LLSDACSB2614
.LLSDACSB2614:
	.uleb128 .LEHB6-.LFB2614
	.uleb128 .LEHE6-.LEHB6
	.uleb128 0
	.uleb128 0
	.uleb128 .LEHB7-.LFB2614
	.uleb128 .LEHE7-.LEHB7
	.uleb128 .L95-.LFB2614
	.uleb128 0
	.uleb128 .LEHB8-.LFB2614
	.uleb128 .LEHE8-.LEHB8
	.uleb128 0
	.uleb128 0
	.uleb128 .LEHB9-.LFB2614
	.uleb128 .LEHE9-.LEHB9
	.uleb128 .L96-.LFB2614
	.uleb128 0
	.uleb128 .LEHB10-.LFB2614
	.uleb128 .LEHE10-.LEHB10
	.uleb128 0
	.uleb128 0
	.uleb128 .LEHB11-.LFB2614
	.uleb128 .LEHE11-.LEHB11
	.uleb128 .L97-.LFB2614
	.uleb128 0
	.uleb128 .LEHB12-.LFB2614
	.uleb128 .LEHE12-.LEHB12
	.uleb128 0
	.uleb128 0
	.uleb128 .LEHB13-.LFB2614
	.uleb128 .LEHE13-.LEHB13
	.uleb128 .L98-.LFB2614
	.uleb128 0
	.uleb128 .LEHB14-.LFB2614
	.uleb128 .LEHE14-.LEHB14
	.uleb128 0
	.uleb128 0
	.uleb128 .LEHB15-.LFB2614
	.uleb128 .LEHE15-.LEHB15
	.uleb128 .L99-.LFB2614
	.uleb128 0
	.uleb128 .LEHB16-.LFB2614
	.uleb128 .LEHE16-.LEHB16
	.uleb128 0
	.uleb128 0
	.uleb128 .LEHB17-.LFB2614
	.uleb128 .LEHE17-.LEHB17
	.uleb128 .L100-.LFB2614
	.uleb128 0
	.uleb128 .LEHB18-.LFB2614
	.uleb128 .LEHE18-.LEHB18
	.uleb128 0
	.uleb128 0
	.uleb128 .LEHB19-.LFB2614
	.uleb128 .LEHE19-.LEHB19
	.uleb128 .L101-.LFB2614
	.uleb128 0
	.uleb128 .LEHB20-.LFB2614
	.uleb128 .LEHE20-.LEHB20
	.uleb128 0
	.uleb128 0
	.uleb128 .LEHB21-.LFB2614
	.uleb128 .LEHE21-.LEHB21
	.uleb128 .L102-.LFB2614
	.uleb128 0
	.uleb128 .LEHB22-.LFB2614
	.uleb128 .LEHE22-.LEHB22
	.uleb128 0
	.uleb128 0
	.uleb128 .LEHB23-.LFB2614
	.uleb128 .LEHE23-.LEHB23
	.uleb128 .L103-.LFB2614
	.uleb128 0
	.uleb128 .LEHB24-.LFB2614
	.uleb128 .LEHE24-.LEHB24
	.uleb128 0
	.uleb128 0
	.uleb128 .LEHB25-.LFB2614
	.uleb128 .LEHE25-.LEHB25
	.uleb128 .L104-.LFB2614
	.uleb128 0
	.uleb128 .LEHB26-.LFB2614
	.uleb128 .LEHE26-.LEHB26
	.uleb128 0
	.uleb128 0
	.uleb128 .LEHB27-.LFB2614
	.uleb128 .LEHE27-.LEHB27
	.uleb128 .L105-.LFB2614
	.uleb128 0
	.uleb128 .LEHB28-.LFB2614
	.uleb128 .LEHE28-.LEHB28
	.uleb128 0
	.uleb128 0
	.uleb128 .LEHB29-.LFB2614
	.uleb128 .LEHE29-.LEHB29
	.uleb128 .L106-.LFB2614
	.uleb128 0
	.uleb128 .LEHB30-.LFB2614
	.uleb128 .LEHE30-.LEHB30
	.uleb128 0
	.uleb128 0
	.uleb128 .LEHB31-.LFB2614
	.uleb128 .LEHE31-.LEHB31
	.uleb128 .L107-.LFB2614
	.uleb128 0
	.uleb128 .LEHB32-.LFB2614
	.uleb128 .LEHE32-.LEHB32
	.uleb128 0
	.uleb128 0
	.uleb128 .LEHB33-.LFB2614
	.uleb128 .LEHE33-.LEHB33
	.uleb128 .L108-.LFB2614
	.uleb128 0
	.uleb128 .LEHB34-.LFB2614
	.uleb128 .LEHE34-.LEHB34
	.uleb128 0
	.uleb128 0
	.uleb128 .LEHB35-.LFB2614
	.uleb128 .LEHE35-.LEHB35
	.uleb128 .L109-.LFB2614
	.uleb128 0
	.uleb128 .LEHB36-.LFB2614
	.uleb128 .LEHE36-.LEHB36
	.uleb128 0
	.uleb128 0
	.uleb128 .LEHB37-.LFB2614
	.uleb128 .LEHE37-.LEHB37
	.uleb128 .L110-.LFB2614
	.uleb128 0
	.uleb128 .LEHB38-.LFB2614
	.uleb128 .LEHE38-.LEHB38
	.uleb128 0
	.uleb128 0
	.uleb128 .LEHB39-.LFB2614
	.uleb128 .LEHE39-.LEHB39
	.uleb128 .L111-.LFB2614
	.uleb128 0
	.uleb128 .LEHB40-.LFB2614
	.uleb128 .LEHE40-.LEHB40
	.uleb128 0
	.uleb128 0
	.uleb128 .LEHB41-.LFB2614
	.uleb128 .LEHE41-.LEHB41
	.uleb128 .L112-.LFB2614
	.uleb128 0
	.uleb128 .LEHB42-.LFB2614
	.uleb128 .LEHE42-.LEHB42
	.uleb128 0
	.uleb128 0
	.uleb128 .LEHB43-.LFB2614
	.uleb128 .LEHE43-.LEHB43
	.uleb128 .L113-.LFB2614
	.uleb128 0
	.uleb128 .LEHB44-.LFB2614
	.uleb128 .LEHE44-.LEHB44
	.uleb128 0
	.uleb128 0
	.uleb128 .LEHB45-.LFB2614
	.uleb128 .LEHE45-.LEHB45
	.uleb128 .L114-.LFB2614
	.uleb128 0
	.uleb128 .LEHB46-.LFB2614
	.uleb128 .LEHE46-.LEHB46
	.uleb128 0
	.uleb128 0
	.uleb128 .LEHB47-.LFB2614
	.uleb128 .LEHE47-.LEHB47
	.uleb128 .L115-.LFB2614
	.uleb128 0
	.uleb128 .LEHB48-.LFB2614
	.uleb128 .LEHE48-.LEHB48
	.uleb128 0
	.uleb128 0
	.uleb128 .LEHB49-.LFB2614
	.uleb128 .LEHE49-.LEHB49
	.uleb128 .L116-.LFB2614
	.uleb128 0
	.uleb128 .LEHB50-.LFB2614
	.uleb128 .LEHE50-.LEHB50
	.uleb128 0
	.uleb128 0
.LLSDACSE2614:
	.section	.text.startup
	.size	main, .-main
	.align	2
	.p2align 4,,11
	.type	_GLOBAL__sub_I_main, %function
_GLOBAL__sub_I_main:
.LFB3229:
	.loc 9 55 1 is_stmt 1 view -0
	.cfi_startproc
.LVL271:
.LBB2712:
.LBI2712:
	.loc 9 55 1 view .LVU1262
.LBE2712:
	stp	x29, x30, [sp, -32]!
	.cfi_def_cfa_offset 32
	.cfi_offset 29, -32
	.cfi_offset 30, -24
	mov	x29, sp
	str	x19, [sp, 16]
	.cfi_offset 19, -16
.LBB2716:
.LBB2713:
	.file 14 "/usr/include/c++/10/iostream"
	.loc 14 74 25 is_stmt 0 view .LVU1263
	adrp	x19, .LANCHOR0
	add	x19, x19, :lo12:.LANCHOR0
	mov	x0, x19
	bl	_ZNSt8ios_base4InitC1Ev
.LVL272:
	mov	x1, x19
	adrp	x0, :got:_ZNSt8ios_base4InitD1Ev
.LBE2713:
.LBE2716:
	.loc 9 55 1 view .LVU1264
	ldr	x19, [sp, 16]
.LBB2717:
.LBB2714:
	.loc 14 74 25 view .LVU1265
	adrp	x2, __dso_handle
.LBE2714:
.LBE2717:
	.loc 9 55 1 view .LVU1266
	ldp	x29, x30, [sp], 32
	.cfi_restore 30
	.cfi_restore 29
	.cfi_restore 19
	.cfi_def_cfa_offset 0
.LBB2718:
.LBB2715:
	.loc 14 74 25 view .LVU1267
	add	x2, x2, :lo12:__dso_handle
	ldr	x0, [x0, #:got_lo12:_ZNSt8ios_base4InitD1Ev]
	b	__cxa_atexit
.LVL273:
.LBE2715:
.LBE2718:
	.cfi_endproc
.LFE3229:
	.size	_GLOBAL__sub_I_main, .-_GLOBAL__sub_I_main
	.section	.init_array,"aw"
	.align	3
	.xword	_GLOBAL__sub_I_main
	.section	.rodata.cst16,"aM",@progbits,16
	.align	4
.LC14:
	.word	1051361018
	.word	1078532977
	.word	1092615143
	.word	869711765
	.align	4
.LC15:
	.word	-831624408
	.word	1149596986
	.word	-1025623836
	.word	1287568416
	.align	4
.LC16:
	.word	29796991
	.word	1110040253
	.word	783402035
	.word	1074340718
	.align	4
.LC17:
	.word	-838861
	.word	1104006500
	.word	941456831
	.word	-1064259929
	.bss
	.align	3
	.set	.LANCHOR0,. + 0
	.type	_ZStL8__ioinit, %object
	.size	_ZStL8__ioinit, 1
_ZStL8__ioinit:
	.zero	1
	.text
.Letext0:
	.file 15 "/usr/include/c++/10/cwchar"
	.file 16 "/usr/include/c++/10/bits/exception_ptr.h"
	.file 17 "/usr/include/aarch64-linux-gnu/c++/10/bits/c++config.h"
	.file 18 "/usr/include/c++/10/bits/stl_pair.h"
	.file 19 "/usr/include/c++/10/type_traits"
	.file 20 "/usr/include/c++/10/debug/debug.h"
	.file 21 "/usr/include/c++/10/cstdint"
	.file 22 "/usr/include/c++/10/clocale"
	.file 23 "/usr/include/c++/10/cstdlib"
	.file 24 "/usr/include/c++/10/cstdio"
	.file 25 "/usr/include/c++/10/initializer_list"
	.file 26 "/usr/include/c++/10/bits/stringfwd.h"
	.file 27 "/usr/include/c++/10/system_error"
	.file 28 "/usr/include/c++/10/cwctype"
	.file 29 "/usr/include/c++/10/bits/ostream.tcc"
	.file 30 "/usr/include/c++/10/streambuf"
	.file 31 "/usr/include/c++/10/iosfwd"
	.file 32 "/usr/include/c++/10/ctime"
	.file 33 "/usr/include/c++/10/bits/stl_iterator_base_types.h"
	.file 34 "/usr/include/c++/10/bits/uses_allocator.h"
	.file 35 "/usr/include/c++/10/tuple"
	.file 36 "/usr/include/c++/10/cmath"
	.file 37 "/usr/include/c++/10/bits/ptr_traits.h"
	.file 38 "/usr/include/c++/10/bits/move.h"
	.file 39 "/usr/include/c++/10/bits/postypes.h"
	.file 40 "/usr/include/c++/10/bits/ostream_insert.h"
	.file 41 "/usr/include/c++/10/bits/functexcept.h"
	.file 42 "/usr/include/c++/10/bits/predefined_ops.h"
	.file 43 "/usr/include/c++/10/ext/alloc_traits.h"
	.file 44 "/usr/include/c++/10/bits/stl_iterator.h"
	.file 45 "/usr/lib/gcc/aarch64-linux-gnu/10/include/stddef.h"
	.file 46 "/usr/lib/gcc/aarch64-linux-gnu/10/include/stdarg.h"
	.file 47 "/usr/include/aarch64-linux-gnu/bits/types/wint_t.h"
	.file 48 "/usr/include/aarch64-linux-gnu/bits/types/__mbstate_t.h"
	.file 49 "/usr/include/aarch64-linux-gnu/bits/types/mbstate_t.h"
	.file 50 "/usr/include/aarch64-linux-gnu/bits/types/__FILE.h"
	.file 51 "/usr/include/aarch64-linux-gnu/bits/types/struct_FILE.h"
	.file 52 "/usr/include/aarch64-linux-gnu/bits/types/FILE.h"
	.file 53 "/usr/include/wchar.h"
	.file 54 "/usr/include/aarch64-linux-gnu/bits/types/struct_tm.h"
	.file 55 "/usr/include/aarch64-linux-gnu/bits/types.h"
	.file 56 "/usr/include/aarch64-linux-gnu/bits/stdint-intn.h"
	.file 57 "/usr/include/aarch64-linux-gnu/bits/stdint-uintn.h"
	.file 58 "/usr/include/stdint.h"
	.file 59 "/usr/include/locale.h"
	.file 60 "/usr/include/aarch64-linux-gnu/bits/types/time_t.h"
	.file 61 "/usr/include/aarch64-linux-gnu/bits/types/clock_t.h"
	.file 62 "/usr/include/aarch64-linux-gnu/c++/10/bits/atomic_word.h"
	.file 63 "/usr/include/stdlib.h"
	.file 64 "/usr/include/aarch64-linux-gnu/bits/stdlib-float.h"
	.file 65 "/usr/include/aarch64-linux-gnu/bits/stdlib-bsearch.h"
	.file 66 "/usr/include/aarch64-linux-gnu/bits/types/__fpos_t.h"
	.file 67 "/usr/include/stdio.h"
	.file 68 "/usr/include/aarch64-linux-gnu/bits/stdio.h"
	.file 69 "/usr/include/aarch64-linux-gnu/bits/wctype-wchar.h"
	.file 70 "/usr/include/wctype.h"
	.file 71 "/usr/include/time.h"
	.file 72 "/usr/include/math.h"
	.file 73 "/usr/include/c++/10/new"
	.file 74 "<built-in>"
	.section	.data.rel.local.DW.ref.__gxx_personality_v0,"awG",@progbits,DW.ref.__gxx_personality_v0,comdat
	.align	3
	.type	DW.ref.__gxx_personality_v0, %object
	.size	DW.ref.__gxx_personality_v0, 8
DW.ref.__gxx_personality_v0:
	.xword	__gxx_personality_v0
	.hidden	__dso_handle
	.ident	"GCC: (Debian 10.2.1-6) 10.2.1 20210110"
	.section	.note.GNU-stack,"",@progbits
