AARCH64 GAS  obj/Chapter15_2.s 			page 1


 GNU assembler version 2.35.2 (aarch64-linux-gnu)
	 using BFD version (GNU Binutils for Debian) 2.35.2.
 options passed	: -I -I -EL -march=armv8-a+simd -mabi=lp64 -aghl=obj/Chapter15_2.lst 
 input file    	: obj/Chapter15_2.s
 output file   	: obj/Chapter15_2.o
 target        	: aarch64-unknown-linux-gnu
 time stamp    	: 2022-07-26T22:02:28.000-0400

AARCH64 GAS  obj/Chapter15_2.s 			page 2


   1              		.arch armv8-a
   2              		.file	"Chapter15_2.cpp"
   3              		.text
   4              	.Ltext0:
   5              		.align	2
   6              		.p2align 4,,11
   7              		.type	_ZSt4endlIcSt11char_traitsIcEERSt13basic_ostreamIT_T0_ES6_.isra.0, %function
   8              	_ZSt4endlIcSt11char_traitsIcEERSt13basic_ostreamIT_T0_ES6_.isra.0:
   9              	.LVL0:
  10              	.LFB3047:
  11              		.file 1 "/usr/include/c++/10/ostream"
   1:/usr/include/c++/10/ostream **** // Output streams -*- C++ -*-
   2:/usr/include/c++/10/ostream **** 
   3:/usr/include/c++/10/ostream **** // Copyright (C) 1997-2020 Free Software Foundation, Inc.
   4:/usr/include/c++/10/ostream **** //
   5:/usr/include/c++/10/ostream **** // This file is part of the GNU ISO C++ Library.  This library is free
   6:/usr/include/c++/10/ostream **** // software; you can redistribute it and/or modify it under the
   7:/usr/include/c++/10/ostream **** // terms of the GNU General Public License as published by the
   8:/usr/include/c++/10/ostream **** // Free Software Foundation; either version 3, or (at your option)
   9:/usr/include/c++/10/ostream **** // any later version.
  10:/usr/include/c++/10/ostream **** 
  11:/usr/include/c++/10/ostream **** // This library is distributed in the hope that it will be useful,
  12:/usr/include/c++/10/ostream **** // but WITHOUT ANY WARRANTY; without even the implied warranty of
  13:/usr/include/c++/10/ostream **** // MERCHANTABILITY or FITNESS FOR A PARTICULAR PURPOSE.  See the
  14:/usr/include/c++/10/ostream **** // GNU General Public License for more details.
  15:/usr/include/c++/10/ostream **** 
  16:/usr/include/c++/10/ostream **** // Under Section 7 of GPL version 3, you are granted additional
  17:/usr/include/c++/10/ostream **** // permissions described in the GCC Runtime Library Exception, version
  18:/usr/include/c++/10/ostream **** // 3.1, as published by the Free Software Foundation.
  19:/usr/include/c++/10/ostream **** 
  20:/usr/include/c++/10/ostream **** // You should have received a copy of the GNU General Public License and
  21:/usr/include/c++/10/ostream **** // a copy of the GCC Runtime Library Exception along with this program;
  22:/usr/include/c++/10/ostream **** // see the files COPYING3 and COPYING.RUNTIME respectively.  If not, see
  23:/usr/include/c++/10/ostream **** // <http://www.gnu.org/licenses/>.
  24:/usr/include/c++/10/ostream **** 
  25:/usr/include/c++/10/ostream **** /** @file include/ostream
  26:/usr/include/c++/10/ostream ****  *  This is a Standard C++ Library header.
  27:/usr/include/c++/10/ostream ****  */
  28:/usr/include/c++/10/ostream **** 
  29:/usr/include/c++/10/ostream **** //
  30:/usr/include/c++/10/ostream **** // ISO C++ 14882: 27.6.2  Output streams
  31:/usr/include/c++/10/ostream **** //
  32:/usr/include/c++/10/ostream **** 
  33:/usr/include/c++/10/ostream **** #ifndef _GLIBCXX_OSTREAM
  34:/usr/include/c++/10/ostream **** #define _GLIBCXX_OSTREAM 1
  35:/usr/include/c++/10/ostream **** 
  36:/usr/include/c++/10/ostream **** #pragma GCC system_header
  37:/usr/include/c++/10/ostream **** 
  38:/usr/include/c++/10/ostream **** #include <ios>
  39:/usr/include/c++/10/ostream **** #include <bits/ostream_insert.h>
  40:/usr/include/c++/10/ostream **** 
  41:/usr/include/c++/10/ostream **** namespace std _GLIBCXX_VISIBILITY(default)
  42:/usr/include/c++/10/ostream **** {
  43:/usr/include/c++/10/ostream **** _GLIBCXX_BEGIN_NAMESPACE_VERSION
  44:/usr/include/c++/10/ostream **** 
  45:/usr/include/c++/10/ostream ****   /**
  46:/usr/include/c++/10/ostream ****    *  @brief  Template class basic_ostream.
AARCH64 GAS  obj/Chapter15_2.s 			page 3


  47:/usr/include/c++/10/ostream ****    *  @ingroup io
  48:/usr/include/c++/10/ostream ****    *
  49:/usr/include/c++/10/ostream ****    *  @tparam _CharT  Type of character stream.
  50:/usr/include/c++/10/ostream ****    *  @tparam _Traits  Traits for character type, defaults to
  51:/usr/include/c++/10/ostream ****    *                   char_traits<_CharT>.
  52:/usr/include/c++/10/ostream ****    *
  53:/usr/include/c++/10/ostream ****    *  This is the base class for all output streams.  It provides text
  54:/usr/include/c++/10/ostream ****    *  formatting of all builtin types, and communicates with any class
  55:/usr/include/c++/10/ostream ****    *  derived from basic_streambuf to do the actual output.
  56:/usr/include/c++/10/ostream ****   */
  57:/usr/include/c++/10/ostream ****   template<typename _CharT, typename _Traits>
  58:/usr/include/c++/10/ostream ****     class basic_ostream : virtual public basic_ios<_CharT, _Traits>
  59:/usr/include/c++/10/ostream ****     {
  60:/usr/include/c++/10/ostream ****     public:
  61:/usr/include/c++/10/ostream ****       // Types (inherited from basic_ios):
  62:/usr/include/c++/10/ostream ****       typedef _CharT			 		char_type;
  63:/usr/include/c++/10/ostream ****       typedef typename _Traits::int_type 		int_type;
  64:/usr/include/c++/10/ostream ****       typedef typename _Traits::pos_type 		pos_type;
  65:/usr/include/c++/10/ostream ****       typedef typename _Traits::off_type 		off_type;
  66:/usr/include/c++/10/ostream ****       typedef _Traits			 		traits_type;
  67:/usr/include/c++/10/ostream **** 
  68:/usr/include/c++/10/ostream ****       // Non-standard Types:
  69:/usr/include/c++/10/ostream ****       typedef basic_streambuf<_CharT, _Traits> 		__streambuf_type;
  70:/usr/include/c++/10/ostream ****       typedef basic_ios<_CharT, _Traits>		__ios_type;
  71:/usr/include/c++/10/ostream ****       typedef basic_ostream<_CharT, _Traits>		__ostream_type;
  72:/usr/include/c++/10/ostream ****       typedef num_put<_CharT, ostreambuf_iterator<_CharT, _Traits> >
  73:/usr/include/c++/10/ostream ****       							__num_put_type;
  74:/usr/include/c++/10/ostream ****       typedef ctype<_CharT>	      			__ctype_type;
  75:/usr/include/c++/10/ostream **** 
  76:/usr/include/c++/10/ostream ****       /**
  77:/usr/include/c++/10/ostream ****        *  @brief  Base constructor.
  78:/usr/include/c++/10/ostream ****        *
  79:/usr/include/c++/10/ostream ****        *  This ctor is almost never called by the user directly, rather from
  80:/usr/include/c++/10/ostream ****        *  derived classes' initialization lists, which pass a pointer to
  81:/usr/include/c++/10/ostream ****        *  their own stream buffer.
  82:/usr/include/c++/10/ostream ****       */
  83:/usr/include/c++/10/ostream ****       explicit
  84:/usr/include/c++/10/ostream ****       basic_ostream(__streambuf_type* __sb)
  85:/usr/include/c++/10/ostream ****       { this->init(__sb); }
  86:/usr/include/c++/10/ostream **** 
  87:/usr/include/c++/10/ostream ****       /**
  88:/usr/include/c++/10/ostream ****        *  @brief  Base destructor.
  89:/usr/include/c++/10/ostream ****        *
  90:/usr/include/c++/10/ostream ****        *  This does very little apart from providing a virtual base dtor.
  91:/usr/include/c++/10/ostream ****       */
  92:/usr/include/c++/10/ostream ****       virtual
  93:/usr/include/c++/10/ostream ****       ~basic_ostream() { }
  94:/usr/include/c++/10/ostream **** 
  95:/usr/include/c++/10/ostream ****       /// Safe prefix/suffix operations.
  96:/usr/include/c++/10/ostream ****       class sentry;
  97:/usr/include/c++/10/ostream ****       friend class sentry;
  98:/usr/include/c++/10/ostream **** 
  99:/usr/include/c++/10/ostream ****       //@{
 100:/usr/include/c++/10/ostream ****       /**
 101:/usr/include/c++/10/ostream ****        *  @brief  Interface for manipulators.
 102:/usr/include/c++/10/ostream ****        *
 103:/usr/include/c++/10/ostream ****        *  Manipulators such as @c std::endl and @c std::hex use these
AARCH64 GAS  obj/Chapter15_2.s 			page 4


 104:/usr/include/c++/10/ostream ****        *  functions in constructs like "std::cout << std::endl".  For more
 105:/usr/include/c++/10/ostream ****        *  information, see the iomanip header.
 106:/usr/include/c++/10/ostream ****       */
 107:/usr/include/c++/10/ostream ****       __ostream_type&
 108:/usr/include/c++/10/ostream ****       operator<<(__ostream_type& (*__pf)(__ostream_type&))
 109:/usr/include/c++/10/ostream ****       {
 110:/usr/include/c++/10/ostream **** 	// _GLIBCXX_RESOLVE_LIB_DEFECTS
 111:/usr/include/c++/10/ostream **** 	// DR 60. What is a formatted input function?
 112:/usr/include/c++/10/ostream **** 	// The inserters for manipulators are *not* formatted output functions.
 113:/usr/include/c++/10/ostream **** 	return __pf(*this);
 114:/usr/include/c++/10/ostream ****       }
 115:/usr/include/c++/10/ostream **** 
 116:/usr/include/c++/10/ostream ****       __ostream_type&
 117:/usr/include/c++/10/ostream ****       operator<<(__ios_type& (*__pf)(__ios_type&))
 118:/usr/include/c++/10/ostream ****       {
 119:/usr/include/c++/10/ostream **** 	// _GLIBCXX_RESOLVE_LIB_DEFECTS
 120:/usr/include/c++/10/ostream **** 	// DR 60. What is a formatted input function?
 121:/usr/include/c++/10/ostream **** 	// The inserters for manipulators are *not* formatted output functions.
 122:/usr/include/c++/10/ostream **** 	__pf(*this);
 123:/usr/include/c++/10/ostream **** 	return *this;
 124:/usr/include/c++/10/ostream ****       }
 125:/usr/include/c++/10/ostream **** 
 126:/usr/include/c++/10/ostream ****       __ostream_type&
 127:/usr/include/c++/10/ostream ****       operator<<(ios_base& (*__pf) (ios_base&))
 128:/usr/include/c++/10/ostream ****       {
 129:/usr/include/c++/10/ostream **** 	// _GLIBCXX_RESOLVE_LIB_DEFECTS
 130:/usr/include/c++/10/ostream **** 	// DR 60. What is a formatted input function?
 131:/usr/include/c++/10/ostream **** 	// The inserters for manipulators are *not* formatted output functions.
 132:/usr/include/c++/10/ostream **** 	__pf(*this);
 133:/usr/include/c++/10/ostream **** 	return *this;
 134:/usr/include/c++/10/ostream ****       }
 135:/usr/include/c++/10/ostream ****       //@}
 136:/usr/include/c++/10/ostream **** 
 137:/usr/include/c++/10/ostream ****       //@{
 138:/usr/include/c++/10/ostream ****       /**
 139:/usr/include/c++/10/ostream ****        *  @name Inserters
 140:/usr/include/c++/10/ostream ****        *
 141:/usr/include/c++/10/ostream ****        *  All the @c operator<< functions (aka <em>formatted output
 142:/usr/include/c++/10/ostream ****        *  functions</em>) have some common behavior.  Each starts by
 143:/usr/include/c++/10/ostream ****        *  constructing a temporary object of type std::basic_ostream::sentry.
 144:/usr/include/c++/10/ostream ****        *  This can have several effects, concluding with the setting of a
 145:/usr/include/c++/10/ostream ****        *  status flag; see the sentry documentation for more.
 146:/usr/include/c++/10/ostream ****        *
 147:/usr/include/c++/10/ostream ****        *  If the sentry status is good, the function tries to generate
 148:/usr/include/c++/10/ostream ****        *  whatever data is appropriate for the type of the argument.
 149:/usr/include/c++/10/ostream ****        *
 150:/usr/include/c++/10/ostream ****        *  If an exception is thrown during insertion, ios_base::badbit
 151:/usr/include/c++/10/ostream ****        *  will be turned on in the stream's error state without causing an
 152:/usr/include/c++/10/ostream ****        *  ios_base::failure to be thrown.  The original exception will then
 153:/usr/include/c++/10/ostream ****        *  be rethrown.
 154:/usr/include/c++/10/ostream ****       */
 155:/usr/include/c++/10/ostream **** 
 156:/usr/include/c++/10/ostream ****       //@{
 157:/usr/include/c++/10/ostream ****       /**
 158:/usr/include/c++/10/ostream ****        *  @brief Integer arithmetic inserters
 159:/usr/include/c++/10/ostream ****        *  @param  __n A variable of builtin integral type.
 160:/usr/include/c++/10/ostream ****        *  @return  @c *this if successful
AARCH64 GAS  obj/Chapter15_2.s 			page 5


 161:/usr/include/c++/10/ostream ****        *
 162:/usr/include/c++/10/ostream ****        *  These functions use the stream's current locale (specifically, the
 163:/usr/include/c++/10/ostream ****        *  @c num_get facet) to perform numeric formatting.
 164:/usr/include/c++/10/ostream ****       */
 165:/usr/include/c++/10/ostream ****       __ostream_type&
 166:/usr/include/c++/10/ostream ****       operator<<(long __n)
 167:/usr/include/c++/10/ostream ****       { return _M_insert(__n); }
 168:/usr/include/c++/10/ostream **** 
 169:/usr/include/c++/10/ostream ****       __ostream_type&
 170:/usr/include/c++/10/ostream ****       operator<<(unsigned long __n)
 171:/usr/include/c++/10/ostream ****       { return _M_insert(__n); }
 172:/usr/include/c++/10/ostream **** 
 173:/usr/include/c++/10/ostream ****       __ostream_type&
 174:/usr/include/c++/10/ostream ****       operator<<(bool __n)
 175:/usr/include/c++/10/ostream ****       { return _M_insert(__n); }
 176:/usr/include/c++/10/ostream **** 
 177:/usr/include/c++/10/ostream ****       __ostream_type&
 178:/usr/include/c++/10/ostream ****       operator<<(short __n);
 179:/usr/include/c++/10/ostream **** 
 180:/usr/include/c++/10/ostream ****       __ostream_type&
 181:/usr/include/c++/10/ostream ****       operator<<(unsigned short __n)
 182:/usr/include/c++/10/ostream ****       {
 183:/usr/include/c++/10/ostream **** 	// _GLIBCXX_RESOLVE_LIB_DEFECTS
 184:/usr/include/c++/10/ostream **** 	// 117. basic_ostream uses nonexistent num_put member functions.
 185:/usr/include/c++/10/ostream **** 	return _M_insert(static_cast<unsigned long>(__n));
 186:/usr/include/c++/10/ostream ****       }
 187:/usr/include/c++/10/ostream **** 
 188:/usr/include/c++/10/ostream ****       __ostream_type&
 189:/usr/include/c++/10/ostream ****       operator<<(int __n);
 190:/usr/include/c++/10/ostream **** 
 191:/usr/include/c++/10/ostream ****       __ostream_type&
 192:/usr/include/c++/10/ostream ****       operator<<(unsigned int __n)
 193:/usr/include/c++/10/ostream ****       {
 194:/usr/include/c++/10/ostream **** 	// _GLIBCXX_RESOLVE_LIB_DEFECTS
 195:/usr/include/c++/10/ostream **** 	// 117. basic_ostream uses nonexistent num_put member functions.
 196:/usr/include/c++/10/ostream **** 	return _M_insert(static_cast<unsigned long>(__n));
 197:/usr/include/c++/10/ostream ****       }
 198:/usr/include/c++/10/ostream **** 
 199:/usr/include/c++/10/ostream **** #ifdef _GLIBCXX_USE_LONG_LONG
 200:/usr/include/c++/10/ostream ****       __ostream_type&
 201:/usr/include/c++/10/ostream ****       operator<<(long long __n)
 202:/usr/include/c++/10/ostream ****       { return _M_insert(__n); }
 203:/usr/include/c++/10/ostream **** 
 204:/usr/include/c++/10/ostream ****       __ostream_type&
 205:/usr/include/c++/10/ostream ****       operator<<(unsigned long long __n)
 206:/usr/include/c++/10/ostream ****       { return _M_insert(__n); }
 207:/usr/include/c++/10/ostream **** #endif
 208:/usr/include/c++/10/ostream ****       //@}
 209:/usr/include/c++/10/ostream **** 
 210:/usr/include/c++/10/ostream ****       //@{
 211:/usr/include/c++/10/ostream ****       /**
 212:/usr/include/c++/10/ostream ****        *  @brief  Floating point arithmetic inserters
 213:/usr/include/c++/10/ostream ****        *  @param  __f A variable of builtin floating point type.
 214:/usr/include/c++/10/ostream ****        *  @return  @c *this if successful
 215:/usr/include/c++/10/ostream ****        *
 216:/usr/include/c++/10/ostream ****        *  These functions use the stream's current locale (specifically, the
 217:/usr/include/c++/10/ostream ****        *  @c num_get facet) to perform numeric formatting.
AARCH64 GAS  obj/Chapter15_2.s 			page 6


 218:/usr/include/c++/10/ostream ****       */
 219:/usr/include/c++/10/ostream ****       __ostream_type&
 220:/usr/include/c++/10/ostream ****       operator<<(double __f)
 221:/usr/include/c++/10/ostream ****       { return _M_insert(__f); }
 222:/usr/include/c++/10/ostream **** 
 223:/usr/include/c++/10/ostream ****       __ostream_type&
 224:/usr/include/c++/10/ostream ****       operator<<(float __f)
 225:/usr/include/c++/10/ostream ****       {
 226:/usr/include/c++/10/ostream **** 	// _GLIBCXX_RESOLVE_LIB_DEFECTS
 227:/usr/include/c++/10/ostream **** 	// 117. basic_ostream uses nonexistent num_put member functions.
 228:/usr/include/c++/10/ostream **** 	return _M_insert(static_cast<double>(__f));
 229:/usr/include/c++/10/ostream ****       }
 230:/usr/include/c++/10/ostream **** 
 231:/usr/include/c++/10/ostream ****       __ostream_type&
 232:/usr/include/c++/10/ostream ****       operator<<(long double __f)
 233:/usr/include/c++/10/ostream ****       { return _M_insert(__f); }
 234:/usr/include/c++/10/ostream ****       //@}
 235:/usr/include/c++/10/ostream **** 
 236:/usr/include/c++/10/ostream ****       /**
 237:/usr/include/c++/10/ostream ****        *  @brief  Pointer arithmetic inserters
 238:/usr/include/c++/10/ostream ****        *  @param  __p A variable of pointer type.
 239:/usr/include/c++/10/ostream ****        *  @return  @c *this if successful
 240:/usr/include/c++/10/ostream ****        *
 241:/usr/include/c++/10/ostream ****        *  These functions use the stream's current locale (specifically, the
 242:/usr/include/c++/10/ostream ****        *  @c num_get facet) to perform numeric formatting.
 243:/usr/include/c++/10/ostream ****       */
 244:/usr/include/c++/10/ostream ****       __ostream_type&
 245:/usr/include/c++/10/ostream ****       operator<<(const void* __p)
 246:/usr/include/c++/10/ostream ****       { return _M_insert(__p); }
 247:/usr/include/c++/10/ostream **** 
 248:/usr/include/c++/10/ostream **** #if __cplusplus >= 201703L
 249:/usr/include/c++/10/ostream ****       __ostream_type&
 250:/usr/include/c++/10/ostream ****       operator<<(nullptr_t)
 251:/usr/include/c++/10/ostream ****       { return *this << "nullptr"; }
 252:/usr/include/c++/10/ostream **** #endif
 253:/usr/include/c++/10/ostream **** 
 254:/usr/include/c++/10/ostream ****       /**
 255:/usr/include/c++/10/ostream ****        *  @brief  Extracting from another streambuf.
 256:/usr/include/c++/10/ostream ****        *  @param  __sb  A pointer to a streambuf
 257:/usr/include/c++/10/ostream ****        *
 258:/usr/include/c++/10/ostream ****        *  This function behaves like one of the basic arithmetic extractors,
 259:/usr/include/c++/10/ostream ****        *  in that it also constructs a sentry object and has the same error
 260:/usr/include/c++/10/ostream ****        *  handling behavior.
 261:/usr/include/c++/10/ostream ****        *
 262:/usr/include/c++/10/ostream ****        *  If @p __sb is NULL, the stream will set failbit in its error state.
 263:/usr/include/c++/10/ostream ****        *
 264:/usr/include/c++/10/ostream ****        *  Characters are extracted from @p __sb and inserted into @c *this
 265:/usr/include/c++/10/ostream ****        *  until one of the following occurs:
 266:/usr/include/c++/10/ostream ****        *
 267:/usr/include/c++/10/ostream ****        *  - the input stream reaches end-of-file,
 268:/usr/include/c++/10/ostream ****        *  - insertion into the output sequence fails (in this case, the
 269:/usr/include/c++/10/ostream ****        *    character that would have been inserted is not extracted), or
 270:/usr/include/c++/10/ostream ****        *  - an exception occurs while getting a character from @p __sb, which
 271:/usr/include/c++/10/ostream ****        *    sets failbit in the error state
 272:/usr/include/c++/10/ostream ****        *
 273:/usr/include/c++/10/ostream ****        *  If the function inserts no characters, failbit is set.
 274:/usr/include/c++/10/ostream ****       */
AARCH64 GAS  obj/Chapter15_2.s 			page 7


 275:/usr/include/c++/10/ostream ****       __ostream_type&
 276:/usr/include/c++/10/ostream ****       operator<<(__streambuf_type* __sb);
 277:/usr/include/c++/10/ostream ****       //@}
 278:/usr/include/c++/10/ostream **** 
 279:/usr/include/c++/10/ostream ****       //@{
 280:/usr/include/c++/10/ostream ****       /**
 281:/usr/include/c++/10/ostream ****        *  @name Unformatted Output Functions
 282:/usr/include/c++/10/ostream ****        *
 283:/usr/include/c++/10/ostream ****        *  All the unformatted output functions have some common behavior.
 284:/usr/include/c++/10/ostream ****        *  Each starts by constructing a temporary object of type
 285:/usr/include/c++/10/ostream ****        *  std::basic_ostream::sentry.  This has several effects, concluding
 286:/usr/include/c++/10/ostream ****        *  with the setting of a status flag; see the sentry documentation
 287:/usr/include/c++/10/ostream ****        *  for more.
 288:/usr/include/c++/10/ostream ****        *
 289:/usr/include/c++/10/ostream ****        *  If the sentry status is good, the function tries to generate
 290:/usr/include/c++/10/ostream ****        *  whatever data is appropriate for the type of the argument.
 291:/usr/include/c++/10/ostream ****        *
 292:/usr/include/c++/10/ostream ****        *  If an exception is thrown during insertion, ios_base::badbit
 293:/usr/include/c++/10/ostream ****        *  will be turned on in the stream's error state.  If badbit is on in
 294:/usr/include/c++/10/ostream ****        *  the stream's exceptions mask, the exception will be rethrown
 295:/usr/include/c++/10/ostream ****        *  without completing its actions.
 296:/usr/include/c++/10/ostream ****       */
 297:/usr/include/c++/10/ostream **** 
 298:/usr/include/c++/10/ostream ****       /**
 299:/usr/include/c++/10/ostream ****        *  @brief  Simple insertion.
 300:/usr/include/c++/10/ostream ****        *  @param  __c  The character to insert.
 301:/usr/include/c++/10/ostream ****        *  @return  *this
 302:/usr/include/c++/10/ostream ****        *
 303:/usr/include/c++/10/ostream ****        *  Tries to insert @p __c.
 304:/usr/include/c++/10/ostream ****        *
 305:/usr/include/c++/10/ostream ****        *  @note  This function is not overloaded on signed char and
 306:/usr/include/c++/10/ostream ****        *         unsigned char.
 307:/usr/include/c++/10/ostream ****       */
 308:/usr/include/c++/10/ostream ****       __ostream_type&
 309:/usr/include/c++/10/ostream ****       put(char_type __c);
 310:/usr/include/c++/10/ostream **** 
 311:/usr/include/c++/10/ostream ****       /**
 312:/usr/include/c++/10/ostream ****        *  @brief  Core write functionality, without sentry.
 313:/usr/include/c++/10/ostream ****        *  @param  __s  The array to insert.
 314:/usr/include/c++/10/ostream ****        *  @param  __n  Maximum number of characters to insert.
 315:/usr/include/c++/10/ostream ****       */
 316:/usr/include/c++/10/ostream ****       void
 317:/usr/include/c++/10/ostream ****       _M_write(const char_type* __s, streamsize __n)
 318:/usr/include/c++/10/ostream ****       {
 319:/usr/include/c++/10/ostream **** 	const streamsize __put = this->rdbuf()->sputn(__s, __n);
 320:/usr/include/c++/10/ostream **** 	if (__put != __n)
 321:/usr/include/c++/10/ostream **** 	  this->setstate(ios_base::badbit);
 322:/usr/include/c++/10/ostream ****       }
 323:/usr/include/c++/10/ostream **** 
 324:/usr/include/c++/10/ostream ****       /**
 325:/usr/include/c++/10/ostream ****        *  @brief  Character string insertion.
 326:/usr/include/c++/10/ostream ****        *  @param  __s  The array to insert.
 327:/usr/include/c++/10/ostream ****        *  @param  __n  Maximum number of characters to insert.
 328:/usr/include/c++/10/ostream ****        *  @return  *this
 329:/usr/include/c++/10/ostream ****        *
 330:/usr/include/c++/10/ostream ****        *  Characters are copied from @p __s and inserted into the stream until
 331:/usr/include/c++/10/ostream ****        *  one of the following happens:
AARCH64 GAS  obj/Chapter15_2.s 			page 8


 332:/usr/include/c++/10/ostream ****        *
 333:/usr/include/c++/10/ostream ****        *  - @p __n characters are inserted
 334:/usr/include/c++/10/ostream ****        *  - inserting into the output sequence fails (in this case, badbit
 335:/usr/include/c++/10/ostream ****        *    will be set in the stream's error state)
 336:/usr/include/c++/10/ostream ****        *
 337:/usr/include/c++/10/ostream ****        *  @note  This function is not overloaded on signed char and
 338:/usr/include/c++/10/ostream ****        *         unsigned char.
 339:/usr/include/c++/10/ostream ****       */
 340:/usr/include/c++/10/ostream ****       __ostream_type&
 341:/usr/include/c++/10/ostream ****       write(const char_type* __s, streamsize __n);
 342:/usr/include/c++/10/ostream ****       //@}
 343:/usr/include/c++/10/ostream **** 
 344:/usr/include/c++/10/ostream ****       /**
 345:/usr/include/c++/10/ostream ****        *  @brief  Synchronizing the stream buffer.
 346:/usr/include/c++/10/ostream ****        *  @return  *this
 347:/usr/include/c++/10/ostream ****        *
 348:/usr/include/c++/10/ostream ****        *  If @c rdbuf() is a null pointer, changes nothing.
 349:/usr/include/c++/10/ostream ****        *
 350:/usr/include/c++/10/ostream ****        *  Otherwise, calls @c rdbuf()->pubsync(), and if that returns -1,
 351:/usr/include/c++/10/ostream ****        *  sets badbit.
 352:/usr/include/c++/10/ostream ****       */
 353:/usr/include/c++/10/ostream ****       __ostream_type&
 354:/usr/include/c++/10/ostream ****       flush();
 355:/usr/include/c++/10/ostream **** 
 356:/usr/include/c++/10/ostream ****       /**
 357:/usr/include/c++/10/ostream ****        *  @brief  Getting the current write position.
 358:/usr/include/c++/10/ostream ****        *  @return  A file position object.
 359:/usr/include/c++/10/ostream ****        *
 360:/usr/include/c++/10/ostream ****        *  If @c fail() is not false, returns @c pos_type(-1) to indicate
 361:/usr/include/c++/10/ostream ****        *  failure.  Otherwise returns @c rdbuf()->pubseekoff(0,cur,out).
 362:/usr/include/c++/10/ostream ****       */
 363:/usr/include/c++/10/ostream ****       pos_type
 364:/usr/include/c++/10/ostream ****       tellp();
 365:/usr/include/c++/10/ostream **** 
 366:/usr/include/c++/10/ostream ****       /**
 367:/usr/include/c++/10/ostream ****        *  @brief  Changing the current write position.
 368:/usr/include/c++/10/ostream ****        *  @param  __pos  A file position object.
 369:/usr/include/c++/10/ostream ****        *  @return  *this
 370:/usr/include/c++/10/ostream ****        *
 371:/usr/include/c++/10/ostream ****        *  If @c fail() is not true, calls @c rdbuf()->pubseekpos(pos).  If
 372:/usr/include/c++/10/ostream ****        *  that function fails, sets failbit.
 373:/usr/include/c++/10/ostream ****       */
 374:/usr/include/c++/10/ostream ****       __ostream_type&
 375:/usr/include/c++/10/ostream ****       seekp(pos_type);
 376:/usr/include/c++/10/ostream **** 
 377:/usr/include/c++/10/ostream ****       /**
 378:/usr/include/c++/10/ostream ****        *  @brief  Changing the current write position.
 379:/usr/include/c++/10/ostream ****        *  @param  __off  A file offset object.
 380:/usr/include/c++/10/ostream ****        *  @param  __dir  The direction in which to seek.
 381:/usr/include/c++/10/ostream ****        *  @return  *this
 382:/usr/include/c++/10/ostream ****        *
 383:/usr/include/c++/10/ostream ****        *  If @c fail() is not true, calls @c rdbuf()->pubseekoff(off,dir).
 384:/usr/include/c++/10/ostream ****        *  If that function fails, sets failbit.
 385:/usr/include/c++/10/ostream ****       */
 386:/usr/include/c++/10/ostream ****        __ostream_type&
 387:/usr/include/c++/10/ostream ****       seekp(off_type, ios_base::seekdir);
 388:/usr/include/c++/10/ostream **** 
AARCH64 GAS  obj/Chapter15_2.s 			page 9


 389:/usr/include/c++/10/ostream ****     protected:
 390:/usr/include/c++/10/ostream ****       basic_ostream()
 391:/usr/include/c++/10/ostream ****       { this->init(0); }
 392:/usr/include/c++/10/ostream **** 
 393:/usr/include/c++/10/ostream **** #if __cplusplus >= 201103L
 394:/usr/include/c++/10/ostream ****       // Non-standard constructor that does not call init()
 395:/usr/include/c++/10/ostream ****       basic_ostream(basic_iostream<_CharT, _Traits>&) { }
 396:/usr/include/c++/10/ostream **** 
 397:/usr/include/c++/10/ostream ****       basic_ostream(const basic_ostream&) = delete;
 398:/usr/include/c++/10/ostream **** 
 399:/usr/include/c++/10/ostream ****       basic_ostream(basic_ostream&& __rhs)
 400:/usr/include/c++/10/ostream ****       : __ios_type()
 401:/usr/include/c++/10/ostream ****       { __ios_type::move(__rhs); }
 402:/usr/include/c++/10/ostream **** 
 403:/usr/include/c++/10/ostream ****       // 27.7.3.3 Assign/swap
 404:/usr/include/c++/10/ostream **** 
 405:/usr/include/c++/10/ostream ****       basic_ostream& operator=(const basic_ostream&) = delete;
 406:/usr/include/c++/10/ostream **** 
 407:/usr/include/c++/10/ostream ****       basic_ostream&
 408:/usr/include/c++/10/ostream ****       operator=(basic_ostream&& __rhs)
 409:/usr/include/c++/10/ostream ****       {
 410:/usr/include/c++/10/ostream **** 	swap(__rhs);
 411:/usr/include/c++/10/ostream **** 	return *this;
 412:/usr/include/c++/10/ostream ****       }
 413:/usr/include/c++/10/ostream **** 
 414:/usr/include/c++/10/ostream ****       void
 415:/usr/include/c++/10/ostream ****       swap(basic_ostream& __rhs)
 416:/usr/include/c++/10/ostream ****       { __ios_type::swap(__rhs); }
 417:/usr/include/c++/10/ostream **** #endif
 418:/usr/include/c++/10/ostream **** 
 419:/usr/include/c++/10/ostream ****       template<typename _ValueT>
 420:/usr/include/c++/10/ostream **** 	__ostream_type&
 421:/usr/include/c++/10/ostream **** 	_M_insert(_ValueT __v);
 422:/usr/include/c++/10/ostream ****     };
 423:/usr/include/c++/10/ostream **** 
 424:/usr/include/c++/10/ostream ****   /**
 425:/usr/include/c++/10/ostream ****    *  @brief  Performs setup work for output streams.
 426:/usr/include/c++/10/ostream ****    *
 427:/usr/include/c++/10/ostream ****    *  Objects of this class are created before all of the standard
 428:/usr/include/c++/10/ostream ****    *  inserters are run.  It is responsible for <em>exception-safe prefix and
 429:/usr/include/c++/10/ostream ****    *  suffix operations</em>.
 430:/usr/include/c++/10/ostream ****   */
 431:/usr/include/c++/10/ostream ****   template <typename _CharT, typename _Traits>
 432:/usr/include/c++/10/ostream ****     class basic_ostream<_CharT, _Traits>::sentry
 433:/usr/include/c++/10/ostream ****     {
 434:/usr/include/c++/10/ostream ****       // Data Members.
 435:/usr/include/c++/10/ostream ****       bool 				_M_ok;
 436:/usr/include/c++/10/ostream ****       basic_ostream<_CharT, _Traits>& 	_M_os;
 437:/usr/include/c++/10/ostream **** 
 438:/usr/include/c++/10/ostream ****     public:
 439:/usr/include/c++/10/ostream ****       /**
 440:/usr/include/c++/10/ostream ****        *  @brief  The constructor performs preparatory work.
 441:/usr/include/c++/10/ostream ****        *  @param  __os  The output stream to guard.
 442:/usr/include/c++/10/ostream ****        *
 443:/usr/include/c++/10/ostream ****        *  If the stream state is good (@a __os.good() is true), then if the
 444:/usr/include/c++/10/ostream ****        *  stream is tied to another output stream, @c is.tie()->flush()
 445:/usr/include/c++/10/ostream ****        *  is called to synchronize the output sequences.
AARCH64 GAS  obj/Chapter15_2.s 			page 10


 446:/usr/include/c++/10/ostream ****        *
 447:/usr/include/c++/10/ostream ****        *  If the stream state is still good, then the sentry state becomes
 448:/usr/include/c++/10/ostream ****        *  true (@a okay).
 449:/usr/include/c++/10/ostream ****       */
 450:/usr/include/c++/10/ostream ****       explicit
 451:/usr/include/c++/10/ostream ****       sentry(basic_ostream<_CharT, _Traits>& __os);
 452:/usr/include/c++/10/ostream **** 
 453:/usr/include/c++/10/ostream **** #pragma GCC diagnostic push
 454:/usr/include/c++/10/ostream **** #pragma GCC diagnostic ignored "-Wdeprecated-declarations"
 455:/usr/include/c++/10/ostream ****       /**
 456:/usr/include/c++/10/ostream ****        *  @brief  Possibly flushes the stream.
 457:/usr/include/c++/10/ostream ****        *
 458:/usr/include/c++/10/ostream ****        *  If @c ios_base::unitbuf is set in @c os.flags(), and
 459:/usr/include/c++/10/ostream ****        *  @c std::uncaught_exception() is true, the sentry destructor calls
 460:/usr/include/c++/10/ostream ****        *  @c flush() on the output stream.
 461:/usr/include/c++/10/ostream ****       */
 462:/usr/include/c++/10/ostream ****       ~sentry()
 463:/usr/include/c++/10/ostream ****       {
 464:/usr/include/c++/10/ostream **** 	// XXX MT
 465:/usr/include/c++/10/ostream **** 	if (bool(_M_os.flags() & ios_base::unitbuf) && !uncaught_exception())
 466:/usr/include/c++/10/ostream **** 	  {
 467:/usr/include/c++/10/ostream **** 	    // Can't call flush directly or else will get into recursive lock.
 468:/usr/include/c++/10/ostream **** 	    if (_M_os.rdbuf() && _M_os.rdbuf()->pubsync() == -1)
 469:/usr/include/c++/10/ostream **** 	      _M_os.setstate(ios_base::badbit);
 470:/usr/include/c++/10/ostream **** 	  }
 471:/usr/include/c++/10/ostream ****       }
 472:/usr/include/c++/10/ostream **** #pragma GCC diagnostic pop
 473:/usr/include/c++/10/ostream **** 
 474:/usr/include/c++/10/ostream ****       /**
 475:/usr/include/c++/10/ostream ****        *  @brief  Quick status checking.
 476:/usr/include/c++/10/ostream ****        *  @return  The sentry state.
 477:/usr/include/c++/10/ostream ****        *
 478:/usr/include/c++/10/ostream ****        *  For ease of use, sentries may be converted to booleans.  The
 479:/usr/include/c++/10/ostream ****        *  return value is that of the sentry state (true == okay).
 480:/usr/include/c++/10/ostream ****       */
 481:/usr/include/c++/10/ostream **** #if __cplusplus >= 201103L
 482:/usr/include/c++/10/ostream ****       explicit
 483:/usr/include/c++/10/ostream **** #endif
 484:/usr/include/c++/10/ostream ****       operator bool() const
 485:/usr/include/c++/10/ostream ****       { return _M_ok; }
 486:/usr/include/c++/10/ostream ****     };
 487:/usr/include/c++/10/ostream **** 
 488:/usr/include/c++/10/ostream ****   //@{
 489:/usr/include/c++/10/ostream ****   /**
 490:/usr/include/c++/10/ostream ****    *  @brief  Character inserters
 491:/usr/include/c++/10/ostream ****    *  @param  __out  An output stream.
 492:/usr/include/c++/10/ostream ****    *  @param  __c  A character.
 493:/usr/include/c++/10/ostream ****    *  @return  out
 494:/usr/include/c++/10/ostream ****    *
 495:/usr/include/c++/10/ostream ****    *  Behaves like one of the formatted arithmetic inserters described in
 496:/usr/include/c++/10/ostream ****    *  std::basic_ostream.  After constructing a sentry object with good
 497:/usr/include/c++/10/ostream ****    *  status, this function inserts a single character and any required
 498:/usr/include/c++/10/ostream ****    *  padding (as determined by [22.2.2.2.2]).  @c __out.width(0) is then
 499:/usr/include/c++/10/ostream ****    *  called.
 500:/usr/include/c++/10/ostream ****    *
 501:/usr/include/c++/10/ostream ****    *  If @p __c is of type @c char and the character type of the stream is not
 502:/usr/include/c++/10/ostream ****    *  @c char, the character is widened before insertion.
AARCH64 GAS  obj/Chapter15_2.s 			page 11


 503:/usr/include/c++/10/ostream ****   */
 504:/usr/include/c++/10/ostream ****   template<typename _CharT, typename _Traits>
 505:/usr/include/c++/10/ostream ****     inline basic_ostream<_CharT, _Traits>&
 506:/usr/include/c++/10/ostream ****     operator<<(basic_ostream<_CharT, _Traits>& __out, _CharT __c)
 507:/usr/include/c++/10/ostream ****     { return __ostream_insert(__out, &__c, 1); }
 508:/usr/include/c++/10/ostream **** 
 509:/usr/include/c++/10/ostream ****   template<typename _CharT, typename _Traits>
 510:/usr/include/c++/10/ostream ****     inline basic_ostream<_CharT, _Traits>&
 511:/usr/include/c++/10/ostream ****     operator<<(basic_ostream<_CharT, _Traits>& __out, char __c)
 512:/usr/include/c++/10/ostream ****     { return (__out << __out.widen(__c)); }
 513:/usr/include/c++/10/ostream **** 
 514:/usr/include/c++/10/ostream ****   // Specialization
 515:/usr/include/c++/10/ostream ****   template<typename _Traits>
 516:/usr/include/c++/10/ostream ****     inline basic_ostream<char, _Traits>&
 517:/usr/include/c++/10/ostream ****     operator<<(basic_ostream<char, _Traits>& __out, char __c)
 518:/usr/include/c++/10/ostream ****     { return __ostream_insert(__out, &__c, 1); }
 519:/usr/include/c++/10/ostream **** 
 520:/usr/include/c++/10/ostream ****   // Signed and unsigned
 521:/usr/include/c++/10/ostream ****   template<typename _Traits>
 522:/usr/include/c++/10/ostream ****     inline basic_ostream<char, _Traits>&
 523:/usr/include/c++/10/ostream ****     operator<<(basic_ostream<char, _Traits>& __out, signed char __c)
 524:/usr/include/c++/10/ostream ****     { return (__out << static_cast<char>(__c)); }
 525:/usr/include/c++/10/ostream **** 
 526:/usr/include/c++/10/ostream ****   template<typename _Traits>
 527:/usr/include/c++/10/ostream ****     inline basic_ostream<char, _Traits>&
 528:/usr/include/c++/10/ostream ****     operator<<(basic_ostream<char, _Traits>& __out, unsigned char __c)
 529:/usr/include/c++/10/ostream ****     { return (__out << static_cast<char>(__c)); }
 530:/usr/include/c++/10/ostream **** 
 531:/usr/include/c++/10/ostream **** #if __cplusplus > 201703L
 532:/usr/include/c++/10/ostream ****   // The following deleted overloads prevent formatting character values as
 533:/usr/include/c++/10/ostream ****   // numeric values.
 534:/usr/include/c++/10/ostream **** 
 535:/usr/include/c++/10/ostream **** #ifdef _GLIBCXX_USE_WCHAR_T
 536:/usr/include/c++/10/ostream ****   template<typename _Traits>
 537:/usr/include/c++/10/ostream ****     basic_ostream<char, _Traits>&
 538:/usr/include/c++/10/ostream ****     operator<<(basic_ostream<char, _Traits>&, wchar_t) = delete;
 539:/usr/include/c++/10/ostream **** #endif // _GLIBCXX_USE_WCHAR_T
 540:/usr/include/c++/10/ostream **** 
 541:/usr/include/c++/10/ostream **** #ifdef _GLIBCXX_USE_CHAR8_T
 542:/usr/include/c++/10/ostream ****   template<typename _Traits>
 543:/usr/include/c++/10/ostream ****     basic_ostream<char, _Traits>&
 544:/usr/include/c++/10/ostream ****     operator<<(basic_ostream<char, _Traits>&, char8_t) = delete;
 545:/usr/include/c++/10/ostream **** #endif
 546:/usr/include/c++/10/ostream **** 
 547:/usr/include/c++/10/ostream ****   template<typename _Traits>
 548:/usr/include/c++/10/ostream ****     basic_ostream<char, _Traits>&
 549:/usr/include/c++/10/ostream ****     operator<<(basic_ostream<char, _Traits>&, char16_t) = delete;
 550:/usr/include/c++/10/ostream **** 
 551:/usr/include/c++/10/ostream ****   template<typename _Traits>
 552:/usr/include/c++/10/ostream ****     basic_ostream<char, _Traits>&
 553:/usr/include/c++/10/ostream ****     operator<<(basic_ostream<char, _Traits>&, char32_t) = delete;
 554:/usr/include/c++/10/ostream **** 
 555:/usr/include/c++/10/ostream **** #ifdef _GLIBCXX_USE_WCHAR_T
 556:/usr/include/c++/10/ostream **** #ifdef _GLIBCXX_USE_CHAR8_T
 557:/usr/include/c++/10/ostream ****   template<typename _Traits>
 558:/usr/include/c++/10/ostream ****     basic_ostream<wchar_t, _Traits>&
 559:/usr/include/c++/10/ostream ****     operator<<(basic_ostream<wchar_t, _Traits>&, char8_t) = delete;
AARCH64 GAS  obj/Chapter15_2.s 			page 12


 560:/usr/include/c++/10/ostream **** #endif // _GLIBCXX_USE_CHAR8_T
 561:/usr/include/c++/10/ostream **** 
 562:/usr/include/c++/10/ostream ****   template<typename _Traits>
 563:/usr/include/c++/10/ostream ****     basic_ostream<wchar_t, _Traits>&
 564:/usr/include/c++/10/ostream ****     operator<<(basic_ostream<wchar_t, _Traits>&, char16_t) = delete;
 565:/usr/include/c++/10/ostream **** 
 566:/usr/include/c++/10/ostream ****   template<typename _Traits>
 567:/usr/include/c++/10/ostream ****     basic_ostream<wchar_t, _Traits>&
 568:/usr/include/c++/10/ostream ****     operator<<(basic_ostream<wchar_t, _Traits>&, char32_t) = delete;
 569:/usr/include/c++/10/ostream **** #endif // _GLIBCXX_USE_WCHAR_T
 570:/usr/include/c++/10/ostream **** #endif // C++20
 571:/usr/include/c++/10/ostream ****   //@}
 572:/usr/include/c++/10/ostream **** 
 573:/usr/include/c++/10/ostream ****   //@{
 574:/usr/include/c++/10/ostream ****   /**
 575:/usr/include/c++/10/ostream ****    *  @brief  String inserters
 576:/usr/include/c++/10/ostream ****    *  @param  __out  An output stream.
 577:/usr/include/c++/10/ostream ****    *  @param  __s  A character string.
 578:/usr/include/c++/10/ostream ****    *  @return  out
 579:/usr/include/c++/10/ostream ****    *  @pre  @p __s must be a non-NULL pointer
 580:/usr/include/c++/10/ostream ****    *
 581:/usr/include/c++/10/ostream ****    *  Behaves like one of the formatted arithmetic inserters described in
 582:/usr/include/c++/10/ostream ****    *  std::basic_ostream.  After constructing a sentry object with good
 583:/usr/include/c++/10/ostream ****    *  status, this function inserts @c traits::length(__s) characters starting
 584:/usr/include/c++/10/ostream ****    *  at @p __s, widened if necessary, followed by any required padding (as
 585:/usr/include/c++/10/ostream ****    *  determined by [22.2.2.2.2]).  @c __out.width(0) is then called.
 586:/usr/include/c++/10/ostream ****   */
 587:/usr/include/c++/10/ostream ****   template<typename _CharT, typename _Traits>
 588:/usr/include/c++/10/ostream ****     inline basic_ostream<_CharT, _Traits>&
 589:/usr/include/c++/10/ostream ****     operator<<(basic_ostream<_CharT, _Traits>& __out, const _CharT* __s)
 590:/usr/include/c++/10/ostream ****     {
 591:/usr/include/c++/10/ostream ****       if (!__s)
 592:/usr/include/c++/10/ostream **** 	__out.setstate(ios_base::badbit);
 593:/usr/include/c++/10/ostream ****       else
 594:/usr/include/c++/10/ostream **** 	__ostream_insert(__out, __s,
 595:/usr/include/c++/10/ostream **** 			 static_cast<streamsize>(_Traits::length(__s)));
 596:/usr/include/c++/10/ostream ****       return __out;
 597:/usr/include/c++/10/ostream ****     }
 598:/usr/include/c++/10/ostream **** 
 599:/usr/include/c++/10/ostream ****   template<typename _CharT, typename _Traits>
 600:/usr/include/c++/10/ostream ****     basic_ostream<_CharT, _Traits> &
 601:/usr/include/c++/10/ostream ****     operator<<(basic_ostream<_CharT, _Traits>& __out, const char* __s);
 602:/usr/include/c++/10/ostream **** 
 603:/usr/include/c++/10/ostream ****   // Partial specializations
 604:/usr/include/c++/10/ostream ****   template<typename _Traits>
 605:/usr/include/c++/10/ostream ****     inline basic_ostream<char, _Traits>&
 606:/usr/include/c++/10/ostream ****     operator<<(basic_ostream<char, _Traits>& __out, const char* __s)
 607:/usr/include/c++/10/ostream ****     {
 608:/usr/include/c++/10/ostream ****       if (!__s)
 609:/usr/include/c++/10/ostream **** 	__out.setstate(ios_base::badbit);
 610:/usr/include/c++/10/ostream ****       else
 611:/usr/include/c++/10/ostream **** 	__ostream_insert(__out, __s,
 612:/usr/include/c++/10/ostream **** 			 static_cast<streamsize>(_Traits::length(__s)));
 613:/usr/include/c++/10/ostream ****       return __out;
 614:/usr/include/c++/10/ostream ****     }
 615:/usr/include/c++/10/ostream **** 
 616:/usr/include/c++/10/ostream ****   // Signed and unsigned
AARCH64 GAS  obj/Chapter15_2.s 			page 13


 617:/usr/include/c++/10/ostream ****   template<typename _Traits>
 618:/usr/include/c++/10/ostream ****     inline basic_ostream<char, _Traits>&
 619:/usr/include/c++/10/ostream ****     operator<<(basic_ostream<char, _Traits>& __out, const signed char* __s)
 620:/usr/include/c++/10/ostream ****     { return (__out << reinterpret_cast<const char*>(__s)); }
 621:/usr/include/c++/10/ostream **** 
 622:/usr/include/c++/10/ostream ****   template<typename _Traits>
 623:/usr/include/c++/10/ostream ****     inline basic_ostream<char, _Traits> &
 624:/usr/include/c++/10/ostream ****     operator<<(basic_ostream<char, _Traits>& __out, const unsigned char* __s)
 625:/usr/include/c++/10/ostream ****     { return (__out << reinterpret_cast<const char*>(__s)); }
 626:/usr/include/c++/10/ostream **** 
 627:/usr/include/c++/10/ostream **** #if __cplusplus > 201703L
 628:/usr/include/c++/10/ostream ****    // The following deleted overloads prevent formatting strings as
 629:/usr/include/c++/10/ostream ****    // pointer values.
 630:/usr/include/c++/10/ostream **** 
 631:/usr/include/c++/10/ostream **** #ifdef _GLIBCXX_USE_WCHAR_T
 632:/usr/include/c++/10/ostream ****   template<typename _Traits>
 633:/usr/include/c++/10/ostream ****     basic_ostream<char, _Traits>&
 634:/usr/include/c++/10/ostream ****     operator<<(basic_ostream<char, _Traits>&, const wchar_t*) = delete;
 635:/usr/include/c++/10/ostream **** #endif // _GLIBCXX_USE_WCHAR_T
 636:/usr/include/c++/10/ostream **** 
 637:/usr/include/c++/10/ostream **** #ifdef _GLIBCXX_USE_CHAR8_T
 638:/usr/include/c++/10/ostream ****   template<typename _Traits>
 639:/usr/include/c++/10/ostream ****     basic_ostream<char, _Traits>&
 640:/usr/include/c++/10/ostream ****     operator<<(basic_ostream<char, _Traits>&, const char8_t*) = delete;
 641:/usr/include/c++/10/ostream **** #endif // _GLIBCXX_USE_CHAR8_T
 642:/usr/include/c++/10/ostream **** 
 643:/usr/include/c++/10/ostream ****   template<typename _Traits>
 644:/usr/include/c++/10/ostream ****     basic_ostream<char, _Traits>&
 645:/usr/include/c++/10/ostream ****     operator<<(basic_ostream<char, _Traits>&, const char16_t*) = delete;
 646:/usr/include/c++/10/ostream **** 
 647:/usr/include/c++/10/ostream ****   template<typename _Traits>
 648:/usr/include/c++/10/ostream ****     basic_ostream<char, _Traits>&
 649:/usr/include/c++/10/ostream ****     operator<<(basic_ostream<char, _Traits>&, const char32_t*) = delete;
 650:/usr/include/c++/10/ostream **** 
 651:/usr/include/c++/10/ostream **** #ifdef _GLIBCXX_USE_WCHAR_T
 652:/usr/include/c++/10/ostream **** #ifdef _GLIBCXX_USE_CHAR8_T
 653:/usr/include/c++/10/ostream ****   template<typename _Traits>
 654:/usr/include/c++/10/ostream ****     basic_ostream<wchar_t, _Traits>&
 655:/usr/include/c++/10/ostream ****     operator<<(basic_ostream<wchar_t, _Traits>&, const char8_t*) = delete;
 656:/usr/include/c++/10/ostream **** #endif
 657:/usr/include/c++/10/ostream **** 
 658:/usr/include/c++/10/ostream ****   template<typename _Traits>
 659:/usr/include/c++/10/ostream ****     basic_ostream<wchar_t, _Traits>&
 660:/usr/include/c++/10/ostream ****     operator<<(basic_ostream<wchar_t, _Traits>&, const char16_t*) = delete;
 661:/usr/include/c++/10/ostream **** 
 662:/usr/include/c++/10/ostream ****   template<typename _Traits>
 663:/usr/include/c++/10/ostream ****     basic_ostream<wchar_t, _Traits>&
 664:/usr/include/c++/10/ostream ****     operator<<(basic_ostream<wchar_t, _Traits>&, const char32_t*) = delete;
 665:/usr/include/c++/10/ostream **** #endif // _GLIBCXX_USE_WCHAR_T
 666:/usr/include/c++/10/ostream **** #endif // C++20
 667:/usr/include/c++/10/ostream ****   //@}
 668:/usr/include/c++/10/ostream **** 
 669:/usr/include/c++/10/ostream ****   // Standard basic_ostream manipulators
 670:/usr/include/c++/10/ostream **** 
 671:/usr/include/c++/10/ostream ****   /**
 672:/usr/include/c++/10/ostream ****    *  @brief  Write a newline and flush the stream.
 673:/usr/include/c++/10/ostream ****    *
AARCH64 GAS  obj/Chapter15_2.s 			page 14


 674:/usr/include/c++/10/ostream ****    *  This manipulator is often mistakenly used when a simple newline is
 675:/usr/include/c++/10/ostream ****    *  desired, leading to poor buffering performance.  See
 676:/usr/include/c++/10/ostream ****    *  https://gcc.gnu.org/onlinedocs/libstdc++/manual/streambufs.html#io.streambuf.buffering
 677:/usr/include/c++/10/ostream ****    *  for more on this subject.
 678:/usr/include/c++/10/ostream ****   */
 679:/usr/include/c++/10/ostream ****   template<typename _CharT, typename _Traits>
 680:/usr/include/c++/10/ostream ****     inline basic_ostream<_CharT, _Traits>&
 681:/usr/include/c++/10/ostream ****     endl(basic_ostream<_CharT, _Traits>& __os)
  12              		.loc 1 681 5 view -0
  13              		.cfi_startproc
  14              		.loc 1 681 5 is_stmt 0 view .LVU1
  15 0000 FD7BBEA9 		stp	x29, x30, [sp, -32]!
  16              		.cfi_def_cfa_offset 32
  17              		.cfi_offset 29, -32
  18              		.cfi_offset 30, -24
  19 0004 FD030091 		mov	x29, sp
  20 0008 F35301A9 		stp	x19, x20, [sp, 16]
  21              		.cfi_offset 19, -16
  22              		.cfi_offset 20, -8
  23              		.loc 1 681 5 view .LVU2
  24 000c F30300AA 		mov	x19, x0
 682:/usr/include/c++/10/ostream ****     { return flush(__os.put(__os.widen('\n'))); }
  25              		.loc 1 682 19 view .LVU3
  26 0010 000040F9 		ldr	x0, [x0]
  27              	.LVL1:
  28              		.loc 1 682 19 view .LVU4
  29 0014 00805EF8 		ldr	x0, [x0, -24]
  30 0018 6002008B 		add	x0, x19, x0
  31 001c 147840F9 		ldr	x20, [x0, 240]
  32              	.LVL2:
  33              	.LBB1591:
  34              	.LBI1591:
  35              		.file 2 "/usr/include/c++/10/bits/basic_ios.h"
   1:/usr/include/c++/10/bits/basic_ios.h **** // Iostreams base classes -*- C++ -*-
   2:/usr/include/c++/10/bits/basic_ios.h **** 
   3:/usr/include/c++/10/bits/basic_ios.h **** // Copyright (C) 1997-2020 Free Software Foundation, Inc.
   4:/usr/include/c++/10/bits/basic_ios.h **** //
   5:/usr/include/c++/10/bits/basic_ios.h **** // This file is part of the GNU ISO C++ Library.  This library is free
   6:/usr/include/c++/10/bits/basic_ios.h **** // software; you can redistribute it and/or modify it under the
   7:/usr/include/c++/10/bits/basic_ios.h **** // terms of the GNU General Public License as published by the
   8:/usr/include/c++/10/bits/basic_ios.h **** // Free Software Foundation; either version 3, or (at your option)
   9:/usr/include/c++/10/bits/basic_ios.h **** // any later version.
  10:/usr/include/c++/10/bits/basic_ios.h **** 
  11:/usr/include/c++/10/bits/basic_ios.h **** // This library is distributed in the hope that it will be useful,
  12:/usr/include/c++/10/bits/basic_ios.h **** // but WITHOUT ANY WARRANTY; without even the implied warranty of
  13:/usr/include/c++/10/bits/basic_ios.h **** // MERCHANTABILITY or FITNESS FOR A PARTICULAR PURPOSE.  See the
  14:/usr/include/c++/10/bits/basic_ios.h **** // GNU General Public License for more details.
  15:/usr/include/c++/10/bits/basic_ios.h **** 
  16:/usr/include/c++/10/bits/basic_ios.h **** // Under Section 7 of GPL version 3, you are granted additional
  17:/usr/include/c++/10/bits/basic_ios.h **** // permissions described in the GCC Runtime Library Exception, version
  18:/usr/include/c++/10/bits/basic_ios.h **** // 3.1, as published by the Free Software Foundation.
  19:/usr/include/c++/10/bits/basic_ios.h **** 
  20:/usr/include/c++/10/bits/basic_ios.h **** // You should have received a copy of the GNU General Public License and
  21:/usr/include/c++/10/bits/basic_ios.h **** // a copy of the GCC Runtime Library Exception along with this program;
  22:/usr/include/c++/10/bits/basic_ios.h **** // see the files COPYING3 and COPYING.RUNTIME respectively.  If not, see
  23:/usr/include/c++/10/bits/basic_ios.h **** // <http://www.gnu.org/licenses/>.
  24:/usr/include/c++/10/bits/basic_ios.h **** 
AARCH64 GAS  obj/Chapter15_2.s 			page 15


  25:/usr/include/c++/10/bits/basic_ios.h **** /** @file bits/basic_ios.h
  26:/usr/include/c++/10/bits/basic_ios.h ****  *  This is an internal header file, included by other library headers.
  27:/usr/include/c++/10/bits/basic_ios.h ****  *  Do not attempt to use it directly. @headername{ios}
  28:/usr/include/c++/10/bits/basic_ios.h ****  */
  29:/usr/include/c++/10/bits/basic_ios.h **** 
  30:/usr/include/c++/10/bits/basic_ios.h **** #ifndef _BASIC_IOS_H
  31:/usr/include/c++/10/bits/basic_ios.h **** #define _BASIC_IOS_H 1
  32:/usr/include/c++/10/bits/basic_ios.h **** 
  33:/usr/include/c++/10/bits/basic_ios.h **** #pragma GCC system_header
  34:/usr/include/c++/10/bits/basic_ios.h **** 
  35:/usr/include/c++/10/bits/basic_ios.h **** #include <bits/localefwd.h>
  36:/usr/include/c++/10/bits/basic_ios.h **** #include <bits/locale_classes.h>
  37:/usr/include/c++/10/bits/basic_ios.h **** #include <bits/locale_facets.h>
  38:/usr/include/c++/10/bits/basic_ios.h **** #include <bits/streambuf_iterator.h>
  39:/usr/include/c++/10/bits/basic_ios.h **** #include <bits/move.h>
  40:/usr/include/c++/10/bits/basic_ios.h **** 
  41:/usr/include/c++/10/bits/basic_ios.h **** namespace std _GLIBCXX_VISIBILITY(default)
  42:/usr/include/c++/10/bits/basic_ios.h **** {
  43:/usr/include/c++/10/bits/basic_ios.h **** _GLIBCXX_BEGIN_NAMESPACE_VERSION
  44:/usr/include/c++/10/bits/basic_ios.h **** 
  45:/usr/include/c++/10/bits/basic_ios.h ****   template<typename _Facet>
  46:/usr/include/c++/10/bits/basic_ios.h ****     inline const _Facet&
  47:/usr/include/c++/10/bits/basic_ios.h ****     __check_facet(const _Facet* __f)
  48:/usr/include/c++/10/bits/basic_ios.h ****     {
  49:/usr/include/c++/10/bits/basic_ios.h ****       if (!__f)
  50:/usr/include/c++/10/bits/basic_ios.h **** 	__throw_bad_cast();
  51:/usr/include/c++/10/bits/basic_ios.h ****       return *__f;
  52:/usr/include/c++/10/bits/basic_ios.h ****     }
  53:/usr/include/c++/10/bits/basic_ios.h **** 
  54:/usr/include/c++/10/bits/basic_ios.h ****   /**
  55:/usr/include/c++/10/bits/basic_ios.h ****    *  @brief Template class basic_ios, virtual base class for all
  56:/usr/include/c++/10/bits/basic_ios.h ****    *  stream classes. 
  57:/usr/include/c++/10/bits/basic_ios.h ****    *  @ingroup io
  58:/usr/include/c++/10/bits/basic_ios.h ****    *
  59:/usr/include/c++/10/bits/basic_ios.h ****    *  @tparam _CharT  Type of character stream.
  60:/usr/include/c++/10/bits/basic_ios.h ****    *  @tparam _Traits  Traits for character type, defaults to
  61:/usr/include/c++/10/bits/basic_ios.h ****    *                   char_traits<_CharT>.
  62:/usr/include/c++/10/bits/basic_ios.h ****    *
  63:/usr/include/c++/10/bits/basic_ios.h ****    *  Most of the member functions called dispatched on stream objects
  64:/usr/include/c++/10/bits/basic_ios.h ****    *  (e.g., @c std::cout.foo(bar);) are consolidated in this class.
  65:/usr/include/c++/10/bits/basic_ios.h ****   */
  66:/usr/include/c++/10/bits/basic_ios.h ****   template<typename _CharT, typename _Traits>
  67:/usr/include/c++/10/bits/basic_ios.h ****     class basic_ios : public ios_base
  68:/usr/include/c++/10/bits/basic_ios.h ****     {
  69:/usr/include/c++/10/bits/basic_ios.h ****     public:
  70:/usr/include/c++/10/bits/basic_ios.h ****       //@{
  71:/usr/include/c++/10/bits/basic_ios.h ****       /**
  72:/usr/include/c++/10/bits/basic_ios.h ****        *  These are standard types.  They permit a standardized way of
  73:/usr/include/c++/10/bits/basic_ios.h ****        *  referring to names of (or names dependent on) the template
  74:/usr/include/c++/10/bits/basic_ios.h ****        *  parameters, which are specific to the implementation.
  75:/usr/include/c++/10/bits/basic_ios.h ****       */
  76:/usr/include/c++/10/bits/basic_ios.h ****       typedef _CharT                                 char_type;
  77:/usr/include/c++/10/bits/basic_ios.h ****       typedef typename _Traits::int_type             int_type;
  78:/usr/include/c++/10/bits/basic_ios.h ****       typedef typename _Traits::pos_type             pos_type;
  79:/usr/include/c++/10/bits/basic_ios.h ****       typedef typename _Traits::off_type             off_type;
  80:/usr/include/c++/10/bits/basic_ios.h ****       typedef _Traits                                traits_type;
  81:/usr/include/c++/10/bits/basic_ios.h ****       //@}
AARCH64 GAS  obj/Chapter15_2.s 			page 16


  82:/usr/include/c++/10/bits/basic_ios.h **** 
  83:/usr/include/c++/10/bits/basic_ios.h ****       //@{
  84:/usr/include/c++/10/bits/basic_ios.h ****       /**
  85:/usr/include/c++/10/bits/basic_ios.h ****        *  These are non-standard types.
  86:/usr/include/c++/10/bits/basic_ios.h ****       */
  87:/usr/include/c++/10/bits/basic_ios.h ****       typedef ctype<_CharT>                          __ctype_type;
  88:/usr/include/c++/10/bits/basic_ios.h ****       typedef num_put<_CharT, ostreambuf_iterator<_CharT, _Traits> >
  89:/usr/include/c++/10/bits/basic_ios.h **** 						     __num_put_type;
  90:/usr/include/c++/10/bits/basic_ios.h ****       typedef num_get<_CharT, istreambuf_iterator<_CharT, _Traits> >
  91:/usr/include/c++/10/bits/basic_ios.h **** 						     __num_get_type;
  92:/usr/include/c++/10/bits/basic_ios.h ****       //@}
  93:/usr/include/c++/10/bits/basic_ios.h **** 
  94:/usr/include/c++/10/bits/basic_ios.h ****       // Data members:
  95:/usr/include/c++/10/bits/basic_ios.h ****     protected:
  96:/usr/include/c++/10/bits/basic_ios.h ****       basic_ostream<_CharT, _Traits>*                _M_tie;
  97:/usr/include/c++/10/bits/basic_ios.h ****       mutable char_type                              _M_fill;
  98:/usr/include/c++/10/bits/basic_ios.h ****       mutable bool                                   _M_fill_init;
  99:/usr/include/c++/10/bits/basic_ios.h ****       basic_streambuf<_CharT, _Traits>*              _M_streambuf;
 100:/usr/include/c++/10/bits/basic_ios.h **** 
 101:/usr/include/c++/10/bits/basic_ios.h ****       // Cached use_facet<ctype>, which is based on the current locale info.
 102:/usr/include/c++/10/bits/basic_ios.h ****       const __ctype_type*                            _M_ctype;
 103:/usr/include/c++/10/bits/basic_ios.h ****       // For ostream.
 104:/usr/include/c++/10/bits/basic_ios.h ****       const __num_put_type*                          _M_num_put;
 105:/usr/include/c++/10/bits/basic_ios.h ****       // For istream.
 106:/usr/include/c++/10/bits/basic_ios.h ****       const __num_get_type*                          _M_num_get;
 107:/usr/include/c++/10/bits/basic_ios.h **** 
 108:/usr/include/c++/10/bits/basic_ios.h ****     public:
 109:/usr/include/c++/10/bits/basic_ios.h ****       //@{
 110:/usr/include/c++/10/bits/basic_ios.h ****       /**
 111:/usr/include/c++/10/bits/basic_ios.h ****        *  @brief  The quick-and-easy status check.
 112:/usr/include/c++/10/bits/basic_ios.h ****        *
 113:/usr/include/c++/10/bits/basic_ios.h ****        *  This allows you to write constructs such as
 114:/usr/include/c++/10/bits/basic_ios.h ****        *  <code>if (!a_stream) ...</code> and <code>while (a_stream) ...</code>
 115:/usr/include/c++/10/bits/basic_ios.h ****       */
 116:/usr/include/c++/10/bits/basic_ios.h **** #if __cplusplus >= 201103L
 117:/usr/include/c++/10/bits/basic_ios.h ****       explicit operator bool() const
 118:/usr/include/c++/10/bits/basic_ios.h ****       { return !this->fail(); }
 119:/usr/include/c++/10/bits/basic_ios.h **** #else
 120:/usr/include/c++/10/bits/basic_ios.h ****       operator void*() const
 121:/usr/include/c++/10/bits/basic_ios.h ****       { return this->fail() ? 0 : const_cast<basic_ios*>(this); }
 122:/usr/include/c++/10/bits/basic_ios.h **** #endif
 123:/usr/include/c++/10/bits/basic_ios.h **** 
 124:/usr/include/c++/10/bits/basic_ios.h ****       bool
 125:/usr/include/c++/10/bits/basic_ios.h ****       operator!() const
 126:/usr/include/c++/10/bits/basic_ios.h ****       { return this->fail(); }
 127:/usr/include/c++/10/bits/basic_ios.h ****       //@}
 128:/usr/include/c++/10/bits/basic_ios.h **** 
 129:/usr/include/c++/10/bits/basic_ios.h ****       /**
 130:/usr/include/c++/10/bits/basic_ios.h ****        *  @brief  Returns the error state of the stream buffer.
 131:/usr/include/c++/10/bits/basic_ios.h ****        *  @return  A bit pattern (well, isn't everything?)
 132:/usr/include/c++/10/bits/basic_ios.h ****        *
 133:/usr/include/c++/10/bits/basic_ios.h ****        *  See std::ios_base::iostate for the possible bit values.  Most
 134:/usr/include/c++/10/bits/basic_ios.h ****        *  users will call one of the interpreting wrappers, e.g., good().
 135:/usr/include/c++/10/bits/basic_ios.h ****       */
 136:/usr/include/c++/10/bits/basic_ios.h ****       iostate
 137:/usr/include/c++/10/bits/basic_ios.h ****       rdstate() const
 138:/usr/include/c++/10/bits/basic_ios.h ****       { return _M_streambuf_state; }
AARCH64 GAS  obj/Chapter15_2.s 			page 17


 139:/usr/include/c++/10/bits/basic_ios.h **** 
 140:/usr/include/c++/10/bits/basic_ios.h ****       /**
 141:/usr/include/c++/10/bits/basic_ios.h ****        *  @brief  [Re]sets the error state.
 142:/usr/include/c++/10/bits/basic_ios.h ****        *  @param  __state  The new state flag(s) to set.
 143:/usr/include/c++/10/bits/basic_ios.h ****        *
 144:/usr/include/c++/10/bits/basic_ios.h ****        *  See std::ios_base::iostate for the possible bit values.  Most
 145:/usr/include/c++/10/bits/basic_ios.h ****        *  users will not need to pass an argument.
 146:/usr/include/c++/10/bits/basic_ios.h ****       */
 147:/usr/include/c++/10/bits/basic_ios.h ****       void
 148:/usr/include/c++/10/bits/basic_ios.h ****       clear(iostate __state = goodbit);
 149:/usr/include/c++/10/bits/basic_ios.h **** 
 150:/usr/include/c++/10/bits/basic_ios.h ****       /**
 151:/usr/include/c++/10/bits/basic_ios.h ****        *  @brief  Sets additional flags in the error state.
 152:/usr/include/c++/10/bits/basic_ios.h ****        *  @param  __state  The additional state flag(s) to set.
 153:/usr/include/c++/10/bits/basic_ios.h ****        *
 154:/usr/include/c++/10/bits/basic_ios.h ****        *  See std::ios_base::iostate for the possible bit values.
 155:/usr/include/c++/10/bits/basic_ios.h ****       */
 156:/usr/include/c++/10/bits/basic_ios.h ****       void
 157:/usr/include/c++/10/bits/basic_ios.h ****       setstate(iostate __state)
 158:/usr/include/c++/10/bits/basic_ios.h ****       { this->clear(this->rdstate() | __state); }
 159:/usr/include/c++/10/bits/basic_ios.h **** 
 160:/usr/include/c++/10/bits/basic_ios.h ****       // Flip the internal state on for the proper state bits, then
 161:/usr/include/c++/10/bits/basic_ios.h ****       // rethrows the propagated exception if bit also set in
 162:/usr/include/c++/10/bits/basic_ios.h ****       // exceptions().
 163:/usr/include/c++/10/bits/basic_ios.h ****       void
 164:/usr/include/c++/10/bits/basic_ios.h ****       _M_setstate(iostate __state)
 165:/usr/include/c++/10/bits/basic_ios.h ****       {
 166:/usr/include/c++/10/bits/basic_ios.h **** 	// 27.6.1.2.1 Common requirements.
 167:/usr/include/c++/10/bits/basic_ios.h **** 	// Turn this on without causing an ios::failure to be thrown.
 168:/usr/include/c++/10/bits/basic_ios.h **** 	_M_streambuf_state |= __state;
 169:/usr/include/c++/10/bits/basic_ios.h **** 	if (this->exceptions() & __state)
 170:/usr/include/c++/10/bits/basic_ios.h **** 	  __throw_exception_again;
 171:/usr/include/c++/10/bits/basic_ios.h ****       }
 172:/usr/include/c++/10/bits/basic_ios.h **** 
 173:/usr/include/c++/10/bits/basic_ios.h ****       /**
 174:/usr/include/c++/10/bits/basic_ios.h ****        *  @brief  Fast error checking.
 175:/usr/include/c++/10/bits/basic_ios.h ****        *  @return  True if no error flags are set.
 176:/usr/include/c++/10/bits/basic_ios.h ****        *
 177:/usr/include/c++/10/bits/basic_ios.h ****        *  A wrapper around rdstate.
 178:/usr/include/c++/10/bits/basic_ios.h ****       */
 179:/usr/include/c++/10/bits/basic_ios.h ****       bool
 180:/usr/include/c++/10/bits/basic_ios.h ****       good() const
 181:/usr/include/c++/10/bits/basic_ios.h ****       { return this->rdstate() == 0; }
 182:/usr/include/c++/10/bits/basic_ios.h **** 
 183:/usr/include/c++/10/bits/basic_ios.h ****       /**
 184:/usr/include/c++/10/bits/basic_ios.h ****        *  @brief  Fast error checking.
 185:/usr/include/c++/10/bits/basic_ios.h ****        *  @return  True if the eofbit is set.
 186:/usr/include/c++/10/bits/basic_ios.h ****        *
 187:/usr/include/c++/10/bits/basic_ios.h ****        *  Note that other iostate flags may also be set.
 188:/usr/include/c++/10/bits/basic_ios.h ****       */
 189:/usr/include/c++/10/bits/basic_ios.h ****       bool
 190:/usr/include/c++/10/bits/basic_ios.h ****       eof() const
 191:/usr/include/c++/10/bits/basic_ios.h ****       { return (this->rdstate() & eofbit) != 0; }
 192:/usr/include/c++/10/bits/basic_ios.h **** 
 193:/usr/include/c++/10/bits/basic_ios.h ****       /**
 194:/usr/include/c++/10/bits/basic_ios.h ****        *  @brief  Fast error checking.
 195:/usr/include/c++/10/bits/basic_ios.h ****        *  @return  True if either the badbit or the failbit is set.
AARCH64 GAS  obj/Chapter15_2.s 			page 18


 196:/usr/include/c++/10/bits/basic_ios.h ****        *
 197:/usr/include/c++/10/bits/basic_ios.h ****        *  Checking the badbit in fail() is historical practice.
 198:/usr/include/c++/10/bits/basic_ios.h ****        *  Note that other iostate flags may also be set.
 199:/usr/include/c++/10/bits/basic_ios.h ****       */
 200:/usr/include/c++/10/bits/basic_ios.h ****       bool
 201:/usr/include/c++/10/bits/basic_ios.h ****       fail() const
 202:/usr/include/c++/10/bits/basic_ios.h ****       { return (this->rdstate() & (badbit | failbit)) != 0; }
 203:/usr/include/c++/10/bits/basic_ios.h **** 
 204:/usr/include/c++/10/bits/basic_ios.h ****       /**
 205:/usr/include/c++/10/bits/basic_ios.h ****        *  @brief  Fast error checking.
 206:/usr/include/c++/10/bits/basic_ios.h ****        *  @return  True if the badbit is set.
 207:/usr/include/c++/10/bits/basic_ios.h ****        *
 208:/usr/include/c++/10/bits/basic_ios.h ****        *  Note that other iostate flags may also be set.
 209:/usr/include/c++/10/bits/basic_ios.h ****       */
 210:/usr/include/c++/10/bits/basic_ios.h ****       bool
 211:/usr/include/c++/10/bits/basic_ios.h ****       bad() const
 212:/usr/include/c++/10/bits/basic_ios.h ****       { return (this->rdstate() & badbit) != 0; }
 213:/usr/include/c++/10/bits/basic_ios.h **** 
 214:/usr/include/c++/10/bits/basic_ios.h ****       /**
 215:/usr/include/c++/10/bits/basic_ios.h ****        *  @brief  Throwing exceptions on errors.
 216:/usr/include/c++/10/bits/basic_ios.h ****        *  @return  The current exceptions mask.
 217:/usr/include/c++/10/bits/basic_ios.h ****        *
 218:/usr/include/c++/10/bits/basic_ios.h ****        *  This changes nothing in the stream.  See the one-argument version
 219:/usr/include/c++/10/bits/basic_ios.h ****        *  of exceptions(iostate) for the meaning of the return value.
 220:/usr/include/c++/10/bits/basic_ios.h ****       */
 221:/usr/include/c++/10/bits/basic_ios.h ****       iostate
 222:/usr/include/c++/10/bits/basic_ios.h ****       exceptions() const
 223:/usr/include/c++/10/bits/basic_ios.h ****       { return _M_exception; }
 224:/usr/include/c++/10/bits/basic_ios.h **** 
 225:/usr/include/c++/10/bits/basic_ios.h ****       /**
 226:/usr/include/c++/10/bits/basic_ios.h ****        *  @brief  Throwing exceptions on errors.
 227:/usr/include/c++/10/bits/basic_ios.h ****        *  @param  __except  The new exceptions mask.
 228:/usr/include/c++/10/bits/basic_ios.h ****        *
 229:/usr/include/c++/10/bits/basic_ios.h ****        *  By default, error flags are set silently.  You can set an
 230:/usr/include/c++/10/bits/basic_ios.h ****        *  exceptions mask for each stream; if a bit in the mask becomes set
 231:/usr/include/c++/10/bits/basic_ios.h ****        *  in the error flags, then an exception of type
 232:/usr/include/c++/10/bits/basic_ios.h ****        *  std::ios_base::failure is thrown.
 233:/usr/include/c++/10/bits/basic_ios.h ****        *
 234:/usr/include/c++/10/bits/basic_ios.h ****        *  If the error flag is already set when the exceptions mask is
 235:/usr/include/c++/10/bits/basic_ios.h ****        *  added, the exception is immediately thrown.  Try running the
 236:/usr/include/c++/10/bits/basic_ios.h ****        *  following under GCC 3.1 or later:
 237:/usr/include/c++/10/bits/basic_ios.h ****        *  @code
 238:/usr/include/c++/10/bits/basic_ios.h ****        *  #include <iostream>
 239:/usr/include/c++/10/bits/basic_ios.h ****        *  #include <fstream>
 240:/usr/include/c++/10/bits/basic_ios.h ****        *  #include <exception>
 241:/usr/include/c++/10/bits/basic_ios.h ****        *
 242:/usr/include/c++/10/bits/basic_ios.h ****        *  int main()
 243:/usr/include/c++/10/bits/basic_ios.h ****        *  {
 244:/usr/include/c++/10/bits/basic_ios.h ****        *      std::set_terminate (__gnu_cxx::__verbose_terminate_handler);
 245:/usr/include/c++/10/bits/basic_ios.h ****        *
 246:/usr/include/c++/10/bits/basic_ios.h ****        *      std::ifstream f ("/etc/motd");
 247:/usr/include/c++/10/bits/basic_ios.h ****        *
 248:/usr/include/c++/10/bits/basic_ios.h ****        *      std::cerr << "Setting badbit\n";
 249:/usr/include/c++/10/bits/basic_ios.h ****        *      f.setstate (std::ios_base::badbit);
 250:/usr/include/c++/10/bits/basic_ios.h ****        *
 251:/usr/include/c++/10/bits/basic_ios.h ****        *      std::cerr << "Setting exception mask\n";
 252:/usr/include/c++/10/bits/basic_ios.h ****        *      f.exceptions (std::ios_base::badbit);
AARCH64 GAS  obj/Chapter15_2.s 			page 19


 253:/usr/include/c++/10/bits/basic_ios.h ****        *  }
 254:/usr/include/c++/10/bits/basic_ios.h ****        *  @endcode
 255:/usr/include/c++/10/bits/basic_ios.h ****       */
 256:/usr/include/c++/10/bits/basic_ios.h ****       void
 257:/usr/include/c++/10/bits/basic_ios.h ****       exceptions(iostate __except)
 258:/usr/include/c++/10/bits/basic_ios.h ****       {
 259:/usr/include/c++/10/bits/basic_ios.h ****         _M_exception = __except;
 260:/usr/include/c++/10/bits/basic_ios.h ****         this->clear(_M_streambuf_state);
 261:/usr/include/c++/10/bits/basic_ios.h ****       }
 262:/usr/include/c++/10/bits/basic_ios.h **** 
 263:/usr/include/c++/10/bits/basic_ios.h ****       // Constructor/destructor:
 264:/usr/include/c++/10/bits/basic_ios.h ****       /**
 265:/usr/include/c++/10/bits/basic_ios.h ****        *  @brief  Constructor performs initialization.
 266:/usr/include/c++/10/bits/basic_ios.h ****        *
 267:/usr/include/c++/10/bits/basic_ios.h ****        *  The parameter is passed by derived streams.
 268:/usr/include/c++/10/bits/basic_ios.h ****       */
 269:/usr/include/c++/10/bits/basic_ios.h ****       explicit
 270:/usr/include/c++/10/bits/basic_ios.h ****       basic_ios(basic_streambuf<_CharT, _Traits>* __sb)
 271:/usr/include/c++/10/bits/basic_ios.h ****       : ios_base(), _M_tie(0), _M_fill(), _M_fill_init(false), _M_streambuf(0),
 272:/usr/include/c++/10/bits/basic_ios.h **** 	_M_ctype(0), _M_num_put(0), _M_num_get(0)
 273:/usr/include/c++/10/bits/basic_ios.h ****       { this->init(__sb); }
 274:/usr/include/c++/10/bits/basic_ios.h **** 
 275:/usr/include/c++/10/bits/basic_ios.h ****       /**
 276:/usr/include/c++/10/bits/basic_ios.h ****        *  @brief  Empty.
 277:/usr/include/c++/10/bits/basic_ios.h ****        *
 278:/usr/include/c++/10/bits/basic_ios.h ****        *  The destructor does nothing.  More specifically, it does not
 279:/usr/include/c++/10/bits/basic_ios.h ****        *  destroy the streambuf held by rdbuf().
 280:/usr/include/c++/10/bits/basic_ios.h ****       */
 281:/usr/include/c++/10/bits/basic_ios.h ****       virtual
 282:/usr/include/c++/10/bits/basic_ios.h ****       ~basic_ios() { }
 283:/usr/include/c++/10/bits/basic_ios.h **** 
 284:/usr/include/c++/10/bits/basic_ios.h ****       // Members:
 285:/usr/include/c++/10/bits/basic_ios.h ****       /**
 286:/usr/include/c++/10/bits/basic_ios.h ****        *  @brief  Fetches the current @e tied stream.
 287:/usr/include/c++/10/bits/basic_ios.h ****        *  @return  A pointer to the tied stream, or NULL if the stream is
 288:/usr/include/c++/10/bits/basic_ios.h ****        *           not tied.
 289:/usr/include/c++/10/bits/basic_ios.h ****        *
 290:/usr/include/c++/10/bits/basic_ios.h ****        *  A stream may be @e tied (or synchronized) to a second output
 291:/usr/include/c++/10/bits/basic_ios.h ****        *  stream.  When this stream performs any I/O, the tied stream is
 292:/usr/include/c++/10/bits/basic_ios.h ****        *  first flushed.  For example, @c std::cin is tied to @c std::cout.
 293:/usr/include/c++/10/bits/basic_ios.h ****       */
 294:/usr/include/c++/10/bits/basic_ios.h ****       basic_ostream<_CharT, _Traits>*
 295:/usr/include/c++/10/bits/basic_ios.h ****       tie() const
 296:/usr/include/c++/10/bits/basic_ios.h ****       { return _M_tie; }
 297:/usr/include/c++/10/bits/basic_ios.h **** 
 298:/usr/include/c++/10/bits/basic_ios.h ****       /**
 299:/usr/include/c++/10/bits/basic_ios.h ****        *  @brief  Ties this stream to an output stream.
 300:/usr/include/c++/10/bits/basic_ios.h ****        *  @param  __tiestr  The output stream.
 301:/usr/include/c++/10/bits/basic_ios.h ****        *  @return  The previously tied output stream, or NULL if the stream
 302:/usr/include/c++/10/bits/basic_ios.h ****        *           was not tied.
 303:/usr/include/c++/10/bits/basic_ios.h ****        *
 304:/usr/include/c++/10/bits/basic_ios.h ****        *  This sets up a new tie; see tie() for more.
 305:/usr/include/c++/10/bits/basic_ios.h ****       */
 306:/usr/include/c++/10/bits/basic_ios.h ****       basic_ostream<_CharT, _Traits>*
 307:/usr/include/c++/10/bits/basic_ios.h ****       tie(basic_ostream<_CharT, _Traits>* __tiestr)
 308:/usr/include/c++/10/bits/basic_ios.h ****       {
 309:/usr/include/c++/10/bits/basic_ios.h ****         basic_ostream<_CharT, _Traits>* __old = _M_tie;
AARCH64 GAS  obj/Chapter15_2.s 			page 20


 310:/usr/include/c++/10/bits/basic_ios.h ****         _M_tie = __tiestr;
 311:/usr/include/c++/10/bits/basic_ios.h ****         return __old;
 312:/usr/include/c++/10/bits/basic_ios.h ****       }
 313:/usr/include/c++/10/bits/basic_ios.h **** 
 314:/usr/include/c++/10/bits/basic_ios.h ****       /**
 315:/usr/include/c++/10/bits/basic_ios.h ****        *  @brief  Accessing the underlying buffer.
 316:/usr/include/c++/10/bits/basic_ios.h ****        *  @return  The current stream buffer.
 317:/usr/include/c++/10/bits/basic_ios.h ****        *
 318:/usr/include/c++/10/bits/basic_ios.h ****        *  This does not change the state of the stream.
 319:/usr/include/c++/10/bits/basic_ios.h ****       */
 320:/usr/include/c++/10/bits/basic_ios.h ****       basic_streambuf<_CharT, _Traits>*
 321:/usr/include/c++/10/bits/basic_ios.h ****       rdbuf() const
 322:/usr/include/c++/10/bits/basic_ios.h ****       { return _M_streambuf; }
 323:/usr/include/c++/10/bits/basic_ios.h **** 
 324:/usr/include/c++/10/bits/basic_ios.h ****       /**
 325:/usr/include/c++/10/bits/basic_ios.h ****        *  @brief  Changing the underlying buffer.
 326:/usr/include/c++/10/bits/basic_ios.h ****        *  @param  __sb  The new stream buffer.
 327:/usr/include/c++/10/bits/basic_ios.h ****        *  @return  The previous stream buffer.
 328:/usr/include/c++/10/bits/basic_ios.h ****        *
 329:/usr/include/c++/10/bits/basic_ios.h ****        *  Associates a new buffer with the current stream, and clears the
 330:/usr/include/c++/10/bits/basic_ios.h ****        *  error state.
 331:/usr/include/c++/10/bits/basic_ios.h ****        *
 332:/usr/include/c++/10/bits/basic_ios.h ****        *  Due to historical accidents which the LWG refuses to correct, the
 333:/usr/include/c++/10/bits/basic_ios.h ****        *  I/O library suffers from a design error:  this function is hidden
 334:/usr/include/c++/10/bits/basic_ios.h ****        *  in derived classes by overrides of the zero-argument @c rdbuf(),
 335:/usr/include/c++/10/bits/basic_ios.h ****        *  which is non-virtual for hysterical raisins.  As a result, you
 336:/usr/include/c++/10/bits/basic_ios.h ****        *  must use explicit qualifications to access this function via any
 337:/usr/include/c++/10/bits/basic_ios.h ****        *  derived class.  For example:
 338:/usr/include/c++/10/bits/basic_ios.h ****        *
 339:/usr/include/c++/10/bits/basic_ios.h ****        *  @code
 340:/usr/include/c++/10/bits/basic_ios.h ****        *  std::fstream     foo;         // or some other derived type
 341:/usr/include/c++/10/bits/basic_ios.h ****        *  std::streambuf*  p = .....;
 342:/usr/include/c++/10/bits/basic_ios.h ****        *
 343:/usr/include/c++/10/bits/basic_ios.h ****        *  foo.ios::rdbuf(p);            // ios == basic_ios<char>
 344:/usr/include/c++/10/bits/basic_ios.h ****        *  @endcode
 345:/usr/include/c++/10/bits/basic_ios.h ****       */
 346:/usr/include/c++/10/bits/basic_ios.h ****       basic_streambuf<_CharT, _Traits>*
 347:/usr/include/c++/10/bits/basic_ios.h ****       rdbuf(basic_streambuf<_CharT, _Traits>* __sb);
 348:/usr/include/c++/10/bits/basic_ios.h **** 
 349:/usr/include/c++/10/bits/basic_ios.h ****       /**
 350:/usr/include/c++/10/bits/basic_ios.h ****        *  @brief  Copies fields of __rhs into this.
 351:/usr/include/c++/10/bits/basic_ios.h ****        *  @param  __rhs  The source values for the copies.
 352:/usr/include/c++/10/bits/basic_ios.h ****        *  @return  Reference to this object.
 353:/usr/include/c++/10/bits/basic_ios.h ****        *
 354:/usr/include/c++/10/bits/basic_ios.h ****        *  All fields of __rhs are copied into this object except that rdbuf()
 355:/usr/include/c++/10/bits/basic_ios.h ****        *  and rdstate() remain unchanged.  All values in the pword and iword
 356:/usr/include/c++/10/bits/basic_ios.h ****        *  arrays are copied.  Before copying, each callback is invoked with
 357:/usr/include/c++/10/bits/basic_ios.h ****        *  erase_event.  After copying, each (new) callback is invoked with
 358:/usr/include/c++/10/bits/basic_ios.h ****        *  copyfmt_event.  The final step is to copy exceptions().
 359:/usr/include/c++/10/bits/basic_ios.h ****       */
 360:/usr/include/c++/10/bits/basic_ios.h ****       basic_ios&
 361:/usr/include/c++/10/bits/basic_ios.h ****       copyfmt(const basic_ios& __rhs);
 362:/usr/include/c++/10/bits/basic_ios.h **** 
 363:/usr/include/c++/10/bits/basic_ios.h ****       /**
 364:/usr/include/c++/10/bits/basic_ios.h ****        *  @brief  Retrieves the @a empty character.
 365:/usr/include/c++/10/bits/basic_ios.h ****        *  @return  The current fill character.
 366:/usr/include/c++/10/bits/basic_ios.h ****        *
AARCH64 GAS  obj/Chapter15_2.s 			page 21


 367:/usr/include/c++/10/bits/basic_ios.h ****        *  It defaults to a space (' ') in the current locale.
 368:/usr/include/c++/10/bits/basic_ios.h ****       */
 369:/usr/include/c++/10/bits/basic_ios.h ****       char_type
 370:/usr/include/c++/10/bits/basic_ios.h ****       fill() const
 371:/usr/include/c++/10/bits/basic_ios.h ****       {
 372:/usr/include/c++/10/bits/basic_ios.h **** 	if (!_M_fill_init)
 373:/usr/include/c++/10/bits/basic_ios.h **** 	  {
 374:/usr/include/c++/10/bits/basic_ios.h **** 	    _M_fill = this->widen(' ');
 375:/usr/include/c++/10/bits/basic_ios.h **** 	    _M_fill_init = true;
 376:/usr/include/c++/10/bits/basic_ios.h **** 	  }
 377:/usr/include/c++/10/bits/basic_ios.h **** 	return _M_fill;
 378:/usr/include/c++/10/bits/basic_ios.h ****       }
 379:/usr/include/c++/10/bits/basic_ios.h **** 
 380:/usr/include/c++/10/bits/basic_ios.h ****       /**
 381:/usr/include/c++/10/bits/basic_ios.h ****        *  @brief  Sets a new @a empty character.
 382:/usr/include/c++/10/bits/basic_ios.h ****        *  @param  __ch  The new character.
 383:/usr/include/c++/10/bits/basic_ios.h ****        *  @return  The previous fill character.
 384:/usr/include/c++/10/bits/basic_ios.h ****        *
 385:/usr/include/c++/10/bits/basic_ios.h ****        *  The fill character is used to fill out space when P+ characters
 386:/usr/include/c++/10/bits/basic_ios.h ****        *  have been requested (e.g., via setw), Q characters are actually
 387:/usr/include/c++/10/bits/basic_ios.h ****        *  used, and Q<P.  It defaults to a space (' ') in the current locale.
 388:/usr/include/c++/10/bits/basic_ios.h ****       */
 389:/usr/include/c++/10/bits/basic_ios.h ****       char_type
 390:/usr/include/c++/10/bits/basic_ios.h ****       fill(char_type __ch)
 391:/usr/include/c++/10/bits/basic_ios.h ****       {
 392:/usr/include/c++/10/bits/basic_ios.h **** 	char_type __old = this->fill();
 393:/usr/include/c++/10/bits/basic_ios.h **** 	_M_fill = __ch;
 394:/usr/include/c++/10/bits/basic_ios.h **** 	return __old;
 395:/usr/include/c++/10/bits/basic_ios.h ****       }
 396:/usr/include/c++/10/bits/basic_ios.h **** 
 397:/usr/include/c++/10/bits/basic_ios.h ****       // Locales:
 398:/usr/include/c++/10/bits/basic_ios.h ****       /**
 399:/usr/include/c++/10/bits/basic_ios.h ****        *  @brief  Moves to a new locale.
 400:/usr/include/c++/10/bits/basic_ios.h ****        *  @param  __loc  The new locale.
 401:/usr/include/c++/10/bits/basic_ios.h ****        *  @return  The previous locale.
 402:/usr/include/c++/10/bits/basic_ios.h ****        *
 403:/usr/include/c++/10/bits/basic_ios.h ****        *  Calls @c ios_base::imbue(loc), and if a stream buffer is associated
 404:/usr/include/c++/10/bits/basic_ios.h ****        *  with this stream, calls that buffer's @c pubimbue(loc).
 405:/usr/include/c++/10/bits/basic_ios.h ****        *
 406:/usr/include/c++/10/bits/basic_ios.h ****        *  Additional l10n notes are at
 407:/usr/include/c++/10/bits/basic_ios.h ****        *  http://gcc.gnu.org/onlinedocs/libstdc++/manual/localization.html
 408:/usr/include/c++/10/bits/basic_ios.h ****       */
 409:/usr/include/c++/10/bits/basic_ios.h ****       locale
 410:/usr/include/c++/10/bits/basic_ios.h ****       imbue(const locale& __loc);
 411:/usr/include/c++/10/bits/basic_ios.h **** 
 412:/usr/include/c++/10/bits/basic_ios.h ****       /**
 413:/usr/include/c++/10/bits/basic_ios.h ****        *  @brief  Squeezes characters.
 414:/usr/include/c++/10/bits/basic_ios.h ****        *  @param  __c  The character to narrow.
 415:/usr/include/c++/10/bits/basic_ios.h ****        *  @param  __dfault  The character to narrow.
 416:/usr/include/c++/10/bits/basic_ios.h ****        *  @return  The narrowed character.
 417:/usr/include/c++/10/bits/basic_ios.h ****        *
 418:/usr/include/c++/10/bits/basic_ios.h ****        *  Maps a character of @c char_type to a character of @c char,
 419:/usr/include/c++/10/bits/basic_ios.h ****        *  if possible.
 420:/usr/include/c++/10/bits/basic_ios.h ****        *
 421:/usr/include/c++/10/bits/basic_ios.h ****        *  Returns the result of
 422:/usr/include/c++/10/bits/basic_ios.h ****        *  @code
 423:/usr/include/c++/10/bits/basic_ios.h ****        *    std::use_facet<ctype<char_type> >(getloc()).narrow(c,dfault)
AARCH64 GAS  obj/Chapter15_2.s 			page 22


 424:/usr/include/c++/10/bits/basic_ios.h ****        *  @endcode
 425:/usr/include/c++/10/bits/basic_ios.h ****        *
 426:/usr/include/c++/10/bits/basic_ios.h ****        *  Additional l10n notes are at
 427:/usr/include/c++/10/bits/basic_ios.h ****        *  http://gcc.gnu.org/onlinedocs/libstdc++/manual/localization.html
 428:/usr/include/c++/10/bits/basic_ios.h ****       */
 429:/usr/include/c++/10/bits/basic_ios.h ****       char
 430:/usr/include/c++/10/bits/basic_ios.h ****       narrow(char_type __c, char __dfault) const
 431:/usr/include/c++/10/bits/basic_ios.h ****       { return __check_facet(_M_ctype).narrow(__c, __dfault); }
 432:/usr/include/c++/10/bits/basic_ios.h **** 
 433:/usr/include/c++/10/bits/basic_ios.h ****       /**
 434:/usr/include/c++/10/bits/basic_ios.h ****        *  @brief  Widens characters.
 435:/usr/include/c++/10/bits/basic_ios.h ****        *  @param  __c  The character to widen.
 436:/usr/include/c++/10/bits/basic_ios.h ****        *  @return  The widened character.
 437:/usr/include/c++/10/bits/basic_ios.h ****        *
 438:/usr/include/c++/10/bits/basic_ios.h ****        *  Maps a character of @c char to a character of @c char_type.
 439:/usr/include/c++/10/bits/basic_ios.h ****        *
 440:/usr/include/c++/10/bits/basic_ios.h ****        *  Returns the result of
 441:/usr/include/c++/10/bits/basic_ios.h ****        *  @code
 442:/usr/include/c++/10/bits/basic_ios.h ****        *    std::use_facet<ctype<char_type> >(getloc()).widen(c)
 443:/usr/include/c++/10/bits/basic_ios.h ****        *  @endcode
 444:/usr/include/c++/10/bits/basic_ios.h ****        *
 445:/usr/include/c++/10/bits/basic_ios.h ****        *  Additional l10n notes are at
 446:/usr/include/c++/10/bits/basic_ios.h ****        *  http://gcc.gnu.org/onlinedocs/libstdc++/manual/localization.html
 447:/usr/include/c++/10/bits/basic_ios.h ****       */
 448:/usr/include/c++/10/bits/basic_ios.h ****       char_type
 449:/usr/include/c++/10/bits/basic_ios.h ****       widen(char __c) const
  36              		.loc 2 449 7 is_stmt 1 view .LVU5
  37              	.LBB1592:
  38              	.LBI1592:
  47:/usr/include/c++/10/bits/basic_ios.h ****     {
  39              		.loc 2 47 5 view .LVU6
  40              	.LBB1593:
  49:/usr/include/c++/10/bits/basic_ios.h **** 	__throw_bad_cast();
  41              		.loc 2 49 7 is_stmt 0 view .LVU7
  42 0020 540200B4 		cbz	x20, .L7
  43              	.LVL3:
  49:/usr/include/c++/10/bits/basic_ios.h **** 	__throw_bad_cast();
  44              		.loc 2 49 7 view .LVU8
  45              	.LBE1593:
  46              	.LBE1592:
  47              	.LBB1595:
  48              	.LBI1595:
  49              		.file 3 "/usr/include/c++/10/bits/locale_facets.h"
   1:/usr/include/c++/10/bits/locale_facets.h **** // Locale support -*- C++ -*-
   2:/usr/include/c++/10/bits/locale_facets.h **** 
   3:/usr/include/c++/10/bits/locale_facets.h **** // Copyright (C) 1997-2020 Free Software Foundation, Inc.
   4:/usr/include/c++/10/bits/locale_facets.h **** //
   5:/usr/include/c++/10/bits/locale_facets.h **** // This file is part of the GNU ISO C++ Library.  This library is free
   6:/usr/include/c++/10/bits/locale_facets.h **** // software; you can redistribute it and/or modify it under the
   7:/usr/include/c++/10/bits/locale_facets.h **** // terms of the GNU General Public License as published by the
   8:/usr/include/c++/10/bits/locale_facets.h **** // Free Software Foundation; either version 3, or (at your option)
   9:/usr/include/c++/10/bits/locale_facets.h **** // any later version.
  10:/usr/include/c++/10/bits/locale_facets.h **** 
  11:/usr/include/c++/10/bits/locale_facets.h **** // This library is distributed in the hope that it will be useful,
  12:/usr/include/c++/10/bits/locale_facets.h **** // but WITHOUT ANY WARRANTY; without even the implied warranty of
  13:/usr/include/c++/10/bits/locale_facets.h **** // MERCHANTABILITY or FITNESS FOR A PARTICULAR PURPOSE.  See the
  14:/usr/include/c++/10/bits/locale_facets.h **** // GNU General Public License for more details.
AARCH64 GAS  obj/Chapter15_2.s 			page 23


  15:/usr/include/c++/10/bits/locale_facets.h **** 
  16:/usr/include/c++/10/bits/locale_facets.h **** // Under Section 7 of GPL version 3, you are granted additional
  17:/usr/include/c++/10/bits/locale_facets.h **** // permissions described in the GCC Runtime Library Exception, version
  18:/usr/include/c++/10/bits/locale_facets.h **** // 3.1, as published by the Free Software Foundation.
  19:/usr/include/c++/10/bits/locale_facets.h **** 
  20:/usr/include/c++/10/bits/locale_facets.h **** // You should have received a copy of the GNU General Public License and
  21:/usr/include/c++/10/bits/locale_facets.h **** // a copy of the GCC Runtime Library Exception along with this program;
  22:/usr/include/c++/10/bits/locale_facets.h **** // see the files COPYING3 and COPYING.RUNTIME respectively.  If not, see
  23:/usr/include/c++/10/bits/locale_facets.h **** // <http://www.gnu.org/licenses/>.
  24:/usr/include/c++/10/bits/locale_facets.h **** 
  25:/usr/include/c++/10/bits/locale_facets.h **** /** @file bits/locale_facets.h
  26:/usr/include/c++/10/bits/locale_facets.h ****  *  This is an internal header file, included by other library headers.
  27:/usr/include/c++/10/bits/locale_facets.h ****  *  Do not attempt to use it directly. @headername{locale}
  28:/usr/include/c++/10/bits/locale_facets.h ****  */
  29:/usr/include/c++/10/bits/locale_facets.h **** 
  30:/usr/include/c++/10/bits/locale_facets.h **** //
  31:/usr/include/c++/10/bits/locale_facets.h **** // ISO C++ 14882: 22.1  Locales
  32:/usr/include/c++/10/bits/locale_facets.h **** //
  33:/usr/include/c++/10/bits/locale_facets.h **** 
  34:/usr/include/c++/10/bits/locale_facets.h **** #ifndef _LOCALE_FACETS_H
  35:/usr/include/c++/10/bits/locale_facets.h **** #define _LOCALE_FACETS_H 1
  36:/usr/include/c++/10/bits/locale_facets.h **** 
  37:/usr/include/c++/10/bits/locale_facets.h **** #pragma GCC system_header
  38:/usr/include/c++/10/bits/locale_facets.h **** 
  39:/usr/include/c++/10/bits/locale_facets.h **** #include <cwctype>	// For wctype_t
  40:/usr/include/c++/10/bits/locale_facets.h **** #include <cctype>
  41:/usr/include/c++/10/bits/locale_facets.h **** #include <bits/ctype_base.h>
  42:/usr/include/c++/10/bits/locale_facets.h **** #include <iosfwd>
  43:/usr/include/c++/10/bits/locale_facets.h **** #include <bits/ios_base.h>  // For ios_base, ios_base::iostate
  44:/usr/include/c++/10/bits/locale_facets.h **** #include <streambuf>
  45:/usr/include/c++/10/bits/locale_facets.h **** #include <bits/cpp_type_traits.h>
  46:/usr/include/c++/10/bits/locale_facets.h **** #include <ext/type_traits.h>
  47:/usr/include/c++/10/bits/locale_facets.h **** #include <ext/numeric_traits.h>
  48:/usr/include/c++/10/bits/locale_facets.h **** #include <bits/streambuf_iterator.h>
  49:/usr/include/c++/10/bits/locale_facets.h **** 
  50:/usr/include/c++/10/bits/locale_facets.h **** namespace std _GLIBCXX_VISIBILITY(default)
  51:/usr/include/c++/10/bits/locale_facets.h **** {
  52:/usr/include/c++/10/bits/locale_facets.h **** _GLIBCXX_BEGIN_NAMESPACE_VERSION
  53:/usr/include/c++/10/bits/locale_facets.h **** 
  54:/usr/include/c++/10/bits/locale_facets.h ****   // NB: Don't instantiate required wchar_t facets if no wchar_t support.
  55:/usr/include/c++/10/bits/locale_facets.h **** #ifdef _GLIBCXX_USE_WCHAR_T
  56:/usr/include/c++/10/bits/locale_facets.h **** # define  _GLIBCXX_NUM_FACETS 28
  57:/usr/include/c++/10/bits/locale_facets.h **** # define  _GLIBCXX_NUM_CXX11_FACETS 16
  58:/usr/include/c++/10/bits/locale_facets.h **** #else
  59:/usr/include/c++/10/bits/locale_facets.h **** # define  _GLIBCXX_NUM_FACETS 14
  60:/usr/include/c++/10/bits/locale_facets.h **** # define  _GLIBCXX_NUM_CXX11_FACETS 8
  61:/usr/include/c++/10/bits/locale_facets.h **** #endif
  62:/usr/include/c++/10/bits/locale_facets.h **** #ifdef _GLIBCXX_USE_CHAR8_T
  63:/usr/include/c++/10/bits/locale_facets.h **** # define _GLIBCXX_NUM_UNICODE_FACETS 4
  64:/usr/include/c++/10/bits/locale_facets.h **** #else
  65:/usr/include/c++/10/bits/locale_facets.h **** # define _GLIBCXX_NUM_UNICODE_FACETS 2
  66:/usr/include/c++/10/bits/locale_facets.h **** #endif
  67:/usr/include/c++/10/bits/locale_facets.h **** 
  68:/usr/include/c++/10/bits/locale_facets.h ****   // Convert string to numeric value of type _Tp and store results.
  69:/usr/include/c++/10/bits/locale_facets.h ****   // NB: This is specialized for all required types, there is no
  70:/usr/include/c++/10/bits/locale_facets.h ****   // generic definition.
  71:/usr/include/c++/10/bits/locale_facets.h ****   template<typename _Tp>
AARCH64 GAS  obj/Chapter15_2.s 			page 24


  72:/usr/include/c++/10/bits/locale_facets.h ****     void
  73:/usr/include/c++/10/bits/locale_facets.h ****     __convert_to_v(const char*, _Tp&, ios_base::iostate&,
  74:/usr/include/c++/10/bits/locale_facets.h **** 		   const __c_locale&) throw();
  75:/usr/include/c++/10/bits/locale_facets.h **** 
  76:/usr/include/c++/10/bits/locale_facets.h ****   // Explicit specializations for required types.
  77:/usr/include/c++/10/bits/locale_facets.h ****   template<>
  78:/usr/include/c++/10/bits/locale_facets.h ****     void
  79:/usr/include/c++/10/bits/locale_facets.h ****     __convert_to_v(const char*, float&, ios_base::iostate&,
  80:/usr/include/c++/10/bits/locale_facets.h **** 		   const __c_locale&) throw();
  81:/usr/include/c++/10/bits/locale_facets.h **** 
  82:/usr/include/c++/10/bits/locale_facets.h ****   template<>
  83:/usr/include/c++/10/bits/locale_facets.h ****     void
  84:/usr/include/c++/10/bits/locale_facets.h ****     __convert_to_v(const char*, double&, ios_base::iostate&,
  85:/usr/include/c++/10/bits/locale_facets.h **** 		   const __c_locale&) throw();
  86:/usr/include/c++/10/bits/locale_facets.h **** 
  87:/usr/include/c++/10/bits/locale_facets.h ****   template<>
  88:/usr/include/c++/10/bits/locale_facets.h ****     void
  89:/usr/include/c++/10/bits/locale_facets.h ****     __convert_to_v(const char*, long double&, ios_base::iostate&,
  90:/usr/include/c++/10/bits/locale_facets.h **** 		   const __c_locale&) throw();
  91:/usr/include/c++/10/bits/locale_facets.h **** 
  92:/usr/include/c++/10/bits/locale_facets.h ****   // NB: __pad is a struct, rather than a function, so it can be
  93:/usr/include/c++/10/bits/locale_facets.h ****   // partially-specialized.
  94:/usr/include/c++/10/bits/locale_facets.h ****   template<typename _CharT, typename _Traits>
  95:/usr/include/c++/10/bits/locale_facets.h ****     struct __pad
  96:/usr/include/c++/10/bits/locale_facets.h ****     {
  97:/usr/include/c++/10/bits/locale_facets.h ****       static void
  98:/usr/include/c++/10/bits/locale_facets.h ****       _S_pad(ios_base& __io, _CharT __fill, _CharT* __news,
  99:/usr/include/c++/10/bits/locale_facets.h **** 	     const _CharT* __olds, streamsize __newlen, streamsize __oldlen);
 100:/usr/include/c++/10/bits/locale_facets.h ****     };
 101:/usr/include/c++/10/bits/locale_facets.h **** 
 102:/usr/include/c++/10/bits/locale_facets.h ****   // Used by both numeric and monetary facets.
 103:/usr/include/c++/10/bits/locale_facets.h ****   // Inserts "group separator" characters into an array of characters.
 104:/usr/include/c++/10/bits/locale_facets.h ****   // It's recursive, one iteration per group.  It moves the characters
 105:/usr/include/c++/10/bits/locale_facets.h ****   // in the buffer this way: "xxxx12345" -> "12,345xxx".  Call this
 106:/usr/include/c++/10/bits/locale_facets.h ****   // only with __gsize != 0.
 107:/usr/include/c++/10/bits/locale_facets.h ****   template<typename _CharT>
 108:/usr/include/c++/10/bits/locale_facets.h ****     _CharT*
 109:/usr/include/c++/10/bits/locale_facets.h ****     __add_grouping(_CharT* __s, _CharT __sep,
 110:/usr/include/c++/10/bits/locale_facets.h **** 		   const char* __gbeg, size_t __gsize,
 111:/usr/include/c++/10/bits/locale_facets.h **** 		   const _CharT* __first, const _CharT* __last);
 112:/usr/include/c++/10/bits/locale_facets.h **** 
 113:/usr/include/c++/10/bits/locale_facets.h ****   // This template permits specializing facet output code for
 114:/usr/include/c++/10/bits/locale_facets.h ****   // ostreambuf_iterator.  For ostreambuf_iterator, sputn is
 115:/usr/include/c++/10/bits/locale_facets.h ****   // significantly more efficient than incrementing iterators.
 116:/usr/include/c++/10/bits/locale_facets.h ****   template<typename _CharT>
 117:/usr/include/c++/10/bits/locale_facets.h ****     inline
 118:/usr/include/c++/10/bits/locale_facets.h ****     ostreambuf_iterator<_CharT>
 119:/usr/include/c++/10/bits/locale_facets.h ****     __write(ostreambuf_iterator<_CharT> __s, const _CharT* __ws, int __len)
 120:/usr/include/c++/10/bits/locale_facets.h ****     {
 121:/usr/include/c++/10/bits/locale_facets.h ****       __s._M_put(__ws, __len);
 122:/usr/include/c++/10/bits/locale_facets.h ****       return __s;
 123:/usr/include/c++/10/bits/locale_facets.h ****     }
 124:/usr/include/c++/10/bits/locale_facets.h **** 
 125:/usr/include/c++/10/bits/locale_facets.h ****   // This is the unspecialized form of the template.
 126:/usr/include/c++/10/bits/locale_facets.h ****   template<typename _CharT, typename _OutIter>
 127:/usr/include/c++/10/bits/locale_facets.h ****     inline
 128:/usr/include/c++/10/bits/locale_facets.h ****     _OutIter
AARCH64 GAS  obj/Chapter15_2.s 			page 25


 129:/usr/include/c++/10/bits/locale_facets.h ****     __write(_OutIter __s, const _CharT* __ws, int __len)
 130:/usr/include/c++/10/bits/locale_facets.h ****     {
 131:/usr/include/c++/10/bits/locale_facets.h ****       for (int __j = 0; __j < __len; __j++, ++__s)
 132:/usr/include/c++/10/bits/locale_facets.h **** 	*__s = __ws[__j];
 133:/usr/include/c++/10/bits/locale_facets.h ****       return __s;
 134:/usr/include/c++/10/bits/locale_facets.h ****     }
 135:/usr/include/c++/10/bits/locale_facets.h **** 
 136:/usr/include/c++/10/bits/locale_facets.h **** 
 137:/usr/include/c++/10/bits/locale_facets.h ****   // 22.2.1.1  Template class ctype
 138:/usr/include/c++/10/bits/locale_facets.h ****   // Include host and configuration specific ctype enums for ctype_base.
 139:/usr/include/c++/10/bits/locale_facets.h **** 
 140:/usr/include/c++/10/bits/locale_facets.h ****   /**
 141:/usr/include/c++/10/bits/locale_facets.h ****    *  @brief  Common base for ctype facet
 142:/usr/include/c++/10/bits/locale_facets.h ****    *
 143:/usr/include/c++/10/bits/locale_facets.h ****    *  This template class provides implementations of the public functions
 144:/usr/include/c++/10/bits/locale_facets.h ****    *  that forward to the protected virtual functions.
 145:/usr/include/c++/10/bits/locale_facets.h ****    *
 146:/usr/include/c++/10/bits/locale_facets.h ****    *  This template also provides abstract stubs for the protected virtual
 147:/usr/include/c++/10/bits/locale_facets.h ****    *  functions.
 148:/usr/include/c++/10/bits/locale_facets.h ****   */
 149:/usr/include/c++/10/bits/locale_facets.h ****   template<typename _CharT>
 150:/usr/include/c++/10/bits/locale_facets.h ****     class __ctype_abstract_base : public locale::facet, public ctype_base
 151:/usr/include/c++/10/bits/locale_facets.h ****     {
 152:/usr/include/c++/10/bits/locale_facets.h ****     public:
 153:/usr/include/c++/10/bits/locale_facets.h ****       // Types:
 154:/usr/include/c++/10/bits/locale_facets.h ****       /// Typedef for the template parameter
 155:/usr/include/c++/10/bits/locale_facets.h ****       typedef _CharT char_type;
 156:/usr/include/c++/10/bits/locale_facets.h **** 
 157:/usr/include/c++/10/bits/locale_facets.h ****       /**
 158:/usr/include/c++/10/bits/locale_facets.h ****        *  @brief  Test char_type classification.
 159:/usr/include/c++/10/bits/locale_facets.h ****        *
 160:/usr/include/c++/10/bits/locale_facets.h ****        *  This function finds a mask M for @a __c and compares it to
 161:/usr/include/c++/10/bits/locale_facets.h ****        *  mask @a __m.  It does so by returning the value of
 162:/usr/include/c++/10/bits/locale_facets.h ****        *  ctype<char_type>::do_is().
 163:/usr/include/c++/10/bits/locale_facets.h ****        *
 164:/usr/include/c++/10/bits/locale_facets.h ****        *  @param __c  The char_type to compare the mask of.
 165:/usr/include/c++/10/bits/locale_facets.h ****        *  @param __m  The mask to compare against.
 166:/usr/include/c++/10/bits/locale_facets.h ****        *  @return  (M & __m) != 0.
 167:/usr/include/c++/10/bits/locale_facets.h ****       */
 168:/usr/include/c++/10/bits/locale_facets.h ****       bool
 169:/usr/include/c++/10/bits/locale_facets.h ****       is(mask __m, char_type __c) const
 170:/usr/include/c++/10/bits/locale_facets.h ****       { return this->do_is(__m, __c); }
 171:/usr/include/c++/10/bits/locale_facets.h **** 
 172:/usr/include/c++/10/bits/locale_facets.h ****       /**
 173:/usr/include/c++/10/bits/locale_facets.h ****        *  @brief  Return a mask array.
 174:/usr/include/c++/10/bits/locale_facets.h ****        *
 175:/usr/include/c++/10/bits/locale_facets.h ****        *  This function finds the mask for each char_type in the range [lo,hi)
 176:/usr/include/c++/10/bits/locale_facets.h ****        *  and successively writes it to vec.  vec must have as many elements
 177:/usr/include/c++/10/bits/locale_facets.h ****        *  as the char array.  It does so by returning the value of
 178:/usr/include/c++/10/bits/locale_facets.h ****        *  ctype<char_type>::do_is().
 179:/usr/include/c++/10/bits/locale_facets.h ****        *
 180:/usr/include/c++/10/bits/locale_facets.h ****        *  @param __lo  Pointer to start of range.
 181:/usr/include/c++/10/bits/locale_facets.h ****        *  @param __hi  Pointer to end of range.
 182:/usr/include/c++/10/bits/locale_facets.h ****        *  @param __vec  Pointer to an array of mask storage.
 183:/usr/include/c++/10/bits/locale_facets.h ****        *  @return  @a __hi.
 184:/usr/include/c++/10/bits/locale_facets.h ****       */
 185:/usr/include/c++/10/bits/locale_facets.h ****       const char_type*
AARCH64 GAS  obj/Chapter15_2.s 			page 26


 186:/usr/include/c++/10/bits/locale_facets.h ****       is(const char_type *__lo, const char_type *__hi, mask *__vec) const
 187:/usr/include/c++/10/bits/locale_facets.h ****       { return this->do_is(__lo, __hi, __vec); }
 188:/usr/include/c++/10/bits/locale_facets.h **** 
 189:/usr/include/c++/10/bits/locale_facets.h ****       /**
 190:/usr/include/c++/10/bits/locale_facets.h ****        *  @brief  Find char_type matching a mask
 191:/usr/include/c++/10/bits/locale_facets.h ****        *
 192:/usr/include/c++/10/bits/locale_facets.h ****        *  This function searches for and returns the first char_type c in
 193:/usr/include/c++/10/bits/locale_facets.h ****        *  [lo,hi) for which is(m,c) is true.  It does so by returning
 194:/usr/include/c++/10/bits/locale_facets.h ****        *  ctype<char_type>::do_scan_is().
 195:/usr/include/c++/10/bits/locale_facets.h ****        *
 196:/usr/include/c++/10/bits/locale_facets.h ****        *  @param __m  The mask to compare against.
 197:/usr/include/c++/10/bits/locale_facets.h ****        *  @param __lo  Pointer to start of range.
 198:/usr/include/c++/10/bits/locale_facets.h ****        *  @param __hi  Pointer to end of range.
 199:/usr/include/c++/10/bits/locale_facets.h ****        *  @return  Pointer to matching char_type if found, else @a __hi.
 200:/usr/include/c++/10/bits/locale_facets.h ****       */
 201:/usr/include/c++/10/bits/locale_facets.h ****       const char_type*
 202:/usr/include/c++/10/bits/locale_facets.h ****       scan_is(mask __m, const char_type* __lo, const char_type* __hi) const
 203:/usr/include/c++/10/bits/locale_facets.h ****       { return this->do_scan_is(__m, __lo, __hi); }
 204:/usr/include/c++/10/bits/locale_facets.h **** 
 205:/usr/include/c++/10/bits/locale_facets.h ****       /**
 206:/usr/include/c++/10/bits/locale_facets.h ****        *  @brief  Find char_type not matching a mask
 207:/usr/include/c++/10/bits/locale_facets.h ****        *
 208:/usr/include/c++/10/bits/locale_facets.h ****        *  This function searches for and returns the first char_type c in
 209:/usr/include/c++/10/bits/locale_facets.h ****        *  [lo,hi) for which is(m,c) is false.  It does so by returning
 210:/usr/include/c++/10/bits/locale_facets.h ****        *  ctype<char_type>::do_scan_not().
 211:/usr/include/c++/10/bits/locale_facets.h ****        *
 212:/usr/include/c++/10/bits/locale_facets.h ****        *  @param __m  The mask to compare against.
 213:/usr/include/c++/10/bits/locale_facets.h ****        *  @param __lo  Pointer to first char in range.
 214:/usr/include/c++/10/bits/locale_facets.h ****        *  @param __hi  Pointer to end of range.
 215:/usr/include/c++/10/bits/locale_facets.h ****        *  @return  Pointer to non-matching char if found, else @a __hi.
 216:/usr/include/c++/10/bits/locale_facets.h ****       */
 217:/usr/include/c++/10/bits/locale_facets.h ****       const char_type*
 218:/usr/include/c++/10/bits/locale_facets.h ****       scan_not(mask __m, const char_type* __lo, const char_type* __hi) const
 219:/usr/include/c++/10/bits/locale_facets.h ****       { return this->do_scan_not(__m, __lo, __hi); }
 220:/usr/include/c++/10/bits/locale_facets.h **** 
 221:/usr/include/c++/10/bits/locale_facets.h ****       /**
 222:/usr/include/c++/10/bits/locale_facets.h ****        *  @brief  Convert to uppercase.
 223:/usr/include/c++/10/bits/locale_facets.h ****        *
 224:/usr/include/c++/10/bits/locale_facets.h ****        *  This function converts the argument to uppercase if possible.
 225:/usr/include/c++/10/bits/locale_facets.h ****        *  If not possible (for example, '2'), returns the argument.  It does
 226:/usr/include/c++/10/bits/locale_facets.h ****        *  so by returning ctype<char_type>::do_toupper().
 227:/usr/include/c++/10/bits/locale_facets.h ****        *
 228:/usr/include/c++/10/bits/locale_facets.h ****        *  @param __c  The char_type to convert.
 229:/usr/include/c++/10/bits/locale_facets.h ****        *  @return  The uppercase char_type if convertible, else @a __c.
 230:/usr/include/c++/10/bits/locale_facets.h ****       */
 231:/usr/include/c++/10/bits/locale_facets.h ****       char_type
 232:/usr/include/c++/10/bits/locale_facets.h ****       toupper(char_type __c) const
 233:/usr/include/c++/10/bits/locale_facets.h ****       { return this->do_toupper(__c); }
 234:/usr/include/c++/10/bits/locale_facets.h **** 
 235:/usr/include/c++/10/bits/locale_facets.h ****       /**
 236:/usr/include/c++/10/bits/locale_facets.h ****        *  @brief  Convert array to uppercase.
 237:/usr/include/c++/10/bits/locale_facets.h ****        *
 238:/usr/include/c++/10/bits/locale_facets.h ****        *  This function converts each char_type in the range [lo,hi) to
 239:/usr/include/c++/10/bits/locale_facets.h ****        *  uppercase if possible.  Other elements remain untouched.  It does so
 240:/usr/include/c++/10/bits/locale_facets.h ****        *  by returning ctype<char_type>:: do_toupper(lo, hi).
 241:/usr/include/c++/10/bits/locale_facets.h ****        *
 242:/usr/include/c++/10/bits/locale_facets.h ****        *  @param __lo  Pointer to start of range.
AARCH64 GAS  obj/Chapter15_2.s 			page 27


 243:/usr/include/c++/10/bits/locale_facets.h ****        *  @param __hi  Pointer to end of range.
 244:/usr/include/c++/10/bits/locale_facets.h ****        *  @return  @a __hi.
 245:/usr/include/c++/10/bits/locale_facets.h ****       */
 246:/usr/include/c++/10/bits/locale_facets.h ****       const char_type*
 247:/usr/include/c++/10/bits/locale_facets.h ****       toupper(char_type *__lo, const char_type* __hi) const
 248:/usr/include/c++/10/bits/locale_facets.h ****       { return this->do_toupper(__lo, __hi); }
 249:/usr/include/c++/10/bits/locale_facets.h **** 
 250:/usr/include/c++/10/bits/locale_facets.h ****       /**
 251:/usr/include/c++/10/bits/locale_facets.h ****        *  @brief  Convert to lowercase.
 252:/usr/include/c++/10/bits/locale_facets.h ****        *
 253:/usr/include/c++/10/bits/locale_facets.h ****        *  This function converts the argument to lowercase if possible.  If
 254:/usr/include/c++/10/bits/locale_facets.h ****        *  not possible (for example, '2'), returns the argument.  It does so
 255:/usr/include/c++/10/bits/locale_facets.h ****        *  by returning ctype<char_type>::do_tolower(c).
 256:/usr/include/c++/10/bits/locale_facets.h ****        *
 257:/usr/include/c++/10/bits/locale_facets.h ****        *  @param __c  The char_type to convert.
 258:/usr/include/c++/10/bits/locale_facets.h ****        *  @return  The lowercase char_type if convertible, else @a __c.
 259:/usr/include/c++/10/bits/locale_facets.h ****       */
 260:/usr/include/c++/10/bits/locale_facets.h ****       char_type
 261:/usr/include/c++/10/bits/locale_facets.h ****       tolower(char_type __c) const
 262:/usr/include/c++/10/bits/locale_facets.h ****       { return this->do_tolower(__c); }
 263:/usr/include/c++/10/bits/locale_facets.h **** 
 264:/usr/include/c++/10/bits/locale_facets.h ****       /**
 265:/usr/include/c++/10/bits/locale_facets.h ****        *  @brief  Convert array to lowercase.
 266:/usr/include/c++/10/bits/locale_facets.h ****        *
 267:/usr/include/c++/10/bits/locale_facets.h ****        *  This function converts each char_type in the range [__lo,__hi) to
 268:/usr/include/c++/10/bits/locale_facets.h ****        *  lowercase if possible.  Other elements remain untouched.  It does so
 269:/usr/include/c++/10/bits/locale_facets.h ****        *  by returning ctype<char_type>:: do_tolower(__lo, __hi).
 270:/usr/include/c++/10/bits/locale_facets.h ****        *
 271:/usr/include/c++/10/bits/locale_facets.h ****        *  @param __lo  Pointer to start of range.
 272:/usr/include/c++/10/bits/locale_facets.h ****        *  @param __hi  Pointer to end of range.
 273:/usr/include/c++/10/bits/locale_facets.h ****        *  @return  @a __hi.
 274:/usr/include/c++/10/bits/locale_facets.h ****       */
 275:/usr/include/c++/10/bits/locale_facets.h ****       const char_type*
 276:/usr/include/c++/10/bits/locale_facets.h ****       tolower(char_type* __lo, const char_type* __hi) const
 277:/usr/include/c++/10/bits/locale_facets.h ****       { return this->do_tolower(__lo, __hi); }
 278:/usr/include/c++/10/bits/locale_facets.h **** 
 279:/usr/include/c++/10/bits/locale_facets.h ****       /**
 280:/usr/include/c++/10/bits/locale_facets.h ****        *  @brief  Widen char to char_type
 281:/usr/include/c++/10/bits/locale_facets.h ****        *
 282:/usr/include/c++/10/bits/locale_facets.h ****        *  This function converts the char argument to char_type using the
 283:/usr/include/c++/10/bits/locale_facets.h ****        *  simplest reasonable transformation.  It does so by returning
 284:/usr/include/c++/10/bits/locale_facets.h ****        *  ctype<char_type>::do_widen(c).
 285:/usr/include/c++/10/bits/locale_facets.h ****        *
 286:/usr/include/c++/10/bits/locale_facets.h ****        *  Note: this is not what you want for codepage conversions.  See
 287:/usr/include/c++/10/bits/locale_facets.h ****        *  codecvt for that.
 288:/usr/include/c++/10/bits/locale_facets.h ****        *
 289:/usr/include/c++/10/bits/locale_facets.h ****        *  @param __c  The char to convert.
 290:/usr/include/c++/10/bits/locale_facets.h ****        *  @return  The converted char_type.
 291:/usr/include/c++/10/bits/locale_facets.h ****       */
 292:/usr/include/c++/10/bits/locale_facets.h ****       char_type
 293:/usr/include/c++/10/bits/locale_facets.h ****       widen(char __c) const
 294:/usr/include/c++/10/bits/locale_facets.h ****       { return this->do_widen(__c); }
 295:/usr/include/c++/10/bits/locale_facets.h **** 
 296:/usr/include/c++/10/bits/locale_facets.h ****       /**
 297:/usr/include/c++/10/bits/locale_facets.h ****        *  @brief  Widen array to char_type
 298:/usr/include/c++/10/bits/locale_facets.h ****        *
 299:/usr/include/c++/10/bits/locale_facets.h ****        *  This function converts each char in the input to char_type using the
AARCH64 GAS  obj/Chapter15_2.s 			page 28


 300:/usr/include/c++/10/bits/locale_facets.h ****        *  simplest reasonable transformation.  It does so by returning
 301:/usr/include/c++/10/bits/locale_facets.h ****        *  ctype<char_type>::do_widen(c).
 302:/usr/include/c++/10/bits/locale_facets.h ****        *
 303:/usr/include/c++/10/bits/locale_facets.h ****        *  Note: this is not what you want for codepage conversions.  See
 304:/usr/include/c++/10/bits/locale_facets.h ****        *  codecvt for that.
 305:/usr/include/c++/10/bits/locale_facets.h ****        *
 306:/usr/include/c++/10/bits/locale_facets.h ****        *  @param __lo  Pointer to start of range.
 307:/usr/include/c++/10/bits/locale_facets.h ****        *  @param __hi  Pointer to end of range.
 308:/usr/include/c++/10/bits/locale_facets.h ****        *  @param __to  Pointer to the destination array.
 309:/usr/include/c++/10/bits/locale_facets.h ****        *  @return  @a __hi.
 310:/usr/include/c++/10/bits/locale_facets.h ****       */
 311:/usr/include/c++/10/bits/locale_facets.h ****       const char*
 312:/usr/include/c++/10/bits/locale_facets.h ****       widen(const char* __lo, const char* __hi, char_type* __to) const
 313:/usr/include/c++/10/bits/locale_facets.h ****       { return this->do_widen(__lo, __hi, __to); }
 314:/usr/include/c++/10/bits/locale_facets.h **** 
 315:/usr/include/c++/10/bits/locale_facets.h ****       /**
 316:/usr/include/c++/10/bits/locale_facets.h ****        *  @brief  Narrow char_type to char
 317:/usr/include/c++/10/bits/locale_facets.h ****        *
 318:/usr/include/c++/10/bits/locale_facets.h ****        *  This function converts the char_type to char using the simplest
 319:/usr/include/c++/10/bits/locale_facets.h ****        *  reasonable transformation.  If the conversion fails, dfault is
 320:/usr/include/c++/10/bits/locale_facets.h ****        *  returned instead.  It does so by returning
 321:/usr/include/c++/10/bits/locale_facets.h ****        *  ctype<char_type>::do_narrow(__c).
 322:/usr/include/c++/10/bits/locale_facets.h ****        *
 323:/usr/include/c++/10/bits/locale_facets.h ****        *  Note: this is not what you want for codepage conversions.  See
 324:/usr/include/c++/10/bits/locale_facets.h ****        *  codecvt for that.
 325:/usr/include/c++/10/bits/locale_facets.h ****        *
 326:/usr/include/c++/10/bits/locale_facets.h ****        *  @param __c  The char_type to convert.
 327:/usr/include/c++/10/bits/locale_facets.h ****        *  @param __dfault  Char to return if conversion fails.
 328:/usr/include/c++/10/bits/locale_facets.h ****        *  @return  The converted char.
 329:/usr/include/c++/10/bits/locale_facets.h ****       */
 330:/usr/include/c++/10/bits/locale_facets.h ****       char
 331:/usr/include/c++/10/bits/locale_facets.h ****       narrow(char_type __c, char __dfault) const
 332:/usr/include/c++/10/bits/locale_facets.h ****       { return this->do_narrow(__c, __dfault); }
 333:/usr/include/c++/10/bits/locale_facets.h **** 
 334:/usr/include/c++/10/bits/locale_facets.h ****       /**
 335:/usr/include/c++/10/bits/locale_facets.h ****        *  @brief  Narrow array to char array
 336:/usr/include/c++/10/bits/locale_facets.h ****        *
 337:/usr/include/c++/10/bits/locale_facets.h ****        *  This function converts each char_type in the input to char using the
 338:/usr/include/c++/10/bits/locale_facets.h ****        *  simplest reasonable transformation and writes the results to the
 339:/usr/include/c++/10/bits/locale_facets.h ****        *  destination array.  For any char_type in the input that cannot be
 340:/usr/include/c++/10/bits/locale_facets.h ****        *  converted, @a dfault is used instead.  It does so by returning
 341:/usr/include/c++/10/bits/locale_facets.h ****        *  ctype<char_type>::do_narrow(__lo, __hi, __dfault, __to).
 342:/usr/include/c++/10/bits/locale_facets.h ****        *
 343:/usr/include/c++/10/bits/locale_facets.h ****        *  Note: this is not what you want for codepage conversions.  See
 344:/usr/include/c++/10/bits/locale_facets.h ****        *  codecvt for that.
 345:/usr/include/c++/10/bits/locale_facets.h ****        *
 346:/usr/include/c++/10/bits/locale_facets.h ****        *  @param __lo  Pointer to start of range.
 347:/usr/include/c++/10/bits/locale_facets.h ****        *  @param __hi  Pointer to end of range.
 348:/usr/include/c++/10/bits/locale_facets.h ****        *  @param __dfault  Char to use if conversion fails.
 349:/usr/include/c++/10/bits/locale_facets.h ****        *  @param __to  Pointer to the destination array.
 350:/usr/include/c++/10/bits/locale_facets.h ****        *  @return  @a __hi.
 351:/usr/include/c++/10/bits/locale_facets.h ****       */
 352:/usr/include/c++/10/bits/locale_facets.h ****       const char_type*
 353:/usr/include/c++/10/bits/locale_facets.h ****       narrow(const char_type* __lo, const char_type* __hi,
 354:/usr/include/c++/10/bits/locale_facets.h **** 	      char __dfault, char* __to) const
 355:/usr/include/c++/10/bits/locale_facets.h ****       { return this->do_narrow(__lo, __hi, __dfault, __to); }
 356:/usr/include/c++/10/bits/locale_facets.h **** 
AARCH64 GAS  obj/Chapter15_2.s 			page 29


 357:/usr/include/c++/10/bits/locale_facets.h ****     protected:
 358:/usr/include/c++/10/bits/locale_facets.h ****       explicit
 359:/usr/include/c++/10/bits/locale_facets.h ****       __ctype_abstract_base(size_t __refs = 0): facet(__refs) { }
 360:/usr/include/c++/10/bits/locale_facets.h **** 
 361:/usr/include/c++/10/bits/locale_facets.h ****       virtual
 362:/usr/include/c++/10/bits/locale_facets.h ****       ~__ctype_abstract_base() { }
 363:/usr/include/c++/10/bits/locale_facets.h **** 
 364:/usr/include/c++/10/bits/locale_facets.h ****       /**
 365:/usr/include/c++/10/bits/locale_facets.h ****        *  @brief  Test char_type classification.
 366:/usr/include/c++/10/bits/locale_facets.h ****        *
 367:/usr/include/c++/10/bits/locale_facets.h ****        *  This function finds a mask M for @a c and compares it to mask @a m.
 368:/usr/include/c++/10/bits/locale_facets.h ****        *
 369:/usr/include/c++/10/bits/locale_facets.h ****        *  do_is() is a hook for a derived facet to change the behavior of
 370:/usr/include/c++/10/bits/locale_facets.h ****        *  classifying.  do_is() must always return the same result for the
 371:/usr/include/c++/10/bits/locale_facets.h ****        *  same input.
 372:/usr/include/c++/10/bits/locale_facets.h ****        *
 373:/usr/include/c++/10/bits/locale_facets.h ****        *  @param __c  The char_type to find the mask of.
 374:/usr/include/c++/10/bits/locale_facets.h ****        *  @param __m  The mask to compare against.
 375:/usr/include/c++/10/bits/locale_facets.h ****        *  @return  (M & __m) != 0.
 376:/usr/include/c++/10/bits/locale_facets.h ****       */
 377:/usr/include/c++/10/bits/locale_facets.h ****       virtual bool
 378:/usr/include/c++/10/bits/locale_facets.h ****       do_is(mask __m, char_type __c) const = 0;
 379:/usr/include/c++/10/bits/locale_facets.h **** 
 380:/usr/include/c++/10/bits/locale_facets.h ****       /**
 381:/usr/include/c++/10/bits/locale_facets.h ****        *  @brief  Return a mask array.
 382:/usr/include/c++/10/bits/locale_facets.h ****        *
 383:/usr/include/c++/10/bits/locale_facets.h ****        *  This function finds the mask for each char_type in the range [lo,hi)
 384:/usr/include/c++/10/bits/locale_facets.h ****        *  and successively writes it to vec.  vec must have as many elements
 385:/usr/include/c++/10/bits/locale_facets.h ****        *  as the input.
 386:/usr/include/c++/10/bits/locale_facets.h ****        *
 387:/usr/include/c++/10/bits/locale_facets.h ****        *  do_is() is a hook for a derived facet to change the behavior of
 388:/usr/include/c++/10/bits/locale_facets.h ****        *  classifying.  do_is() must always return the same result for the
 389:/usr/include/c++/10/bits/locale_facets.h ****        *  same input.
 390:/usr/include/c++/10/bits/locale_facets.h ****        *
 391:/usr/include/c++/10/bits/locale_facets.h ****        *  @param __lo  Pointer to start of range.
 392:/usr/include/c++/10/bits/locale_facets.h ****        *  @param __hi  Pointer to end of range.
 393:/usr/include/c++/10/bits/locale_facets.h ****        *  @param __vec  Pointer to an array of mask storage.
 394:/usr/include/c++/10/bits/locale_facets.h ****        *  @return  @a __hi.
 395:/usr/include/c++/10/bits/locale_facets.h ****       */
 396:/usr/include/c++/10/bits/locale_facets.h ****       virtual const char_type*
 397:/usr/include/c++/10/bits/locale_facets.h ****       do_is(const char_type* __lo, const char_type* __hi,
 398:/usr/include/c++/10/bits/locale_facets.h **** 	    mask* __vec) const = 0;
 399:/usr/include/c++/10/bits/locale_facets.h **** 
 400:/usr/include/c++/10/bits/locale_facets.h ****       /**
 401:/usr/include/c++/10/bits/locale_facets.h ****        *  @brief  Find char_type matching mask
 402:/usr/include/c++/10/bits/locale_facets.h ****        *
 403:/usr/include/c++/10/bits/locale_facets.h ****        *  This function searches for and returns the first char_type c in
 404:/usr/include/c++/10/bits/locale_facets.h ****        *  [__lo,__hi) for which is(__m,c) is true.
 405:/usr/include/c++/10/bits/locale_facets.h ****        *
 406:/usr/include/c++/10/bits/locale_facets.h ****        *  do_scan_is() is a hook for a derived facet to change the behavior of
 407:/usr/include/c++/10/bits/locale_facets.h ****        *  match searching.  do_is() must always return the same result for the
 408:/usr/include/c++/10/bits/locale_facets.h ****        *  same input.
 409:/usr/include/c++/10/bits/locale_facets.h ****        *
 410:/usr/include/c++/10/bits/locale_facets.h ****        *  @param __m  The mask to compare against.
 411:/usr/include/c++/10/bits/locale_facets.h ****        *  @param __lo  Pointer to start of range.
 412:/usr/include/c++/10/bits/locale_facets.h ****        *  @param __hi  Pointer to end of range.
 413:/usr/include/c++/10/bits/locale_facets.h ****        *  @return  Pointer to a matching char_type if found, else @a __hi.
AARCH64 GAS  obj/Chapter15_2.s 			page 30


 414:/usr/include/c++/10/bits/locale_facets.h ****       */
 415:/usr/include/c++/10/bits/locale_facets.h ****       virtual const char_type*
 416:/usr/include/c++/10/bits/locale_facets.h ****       do_scan_is(mask __m, const char_type* __lo,
 417:/usr/include/c++/10/bits/locale_facets.h **** 		 const char_type* __hi) const = 0;
 418:/usr/include/c++/10/bits/locale_facets.h **** 
 419:/usr/include/c++/10/bits/locale_facets.h ****       /**
 420:/usr/include/c++/10/bits/locale_facets.h ****        *  @brief  Find char_type not matching mask
 421:/usr/include/c++/10/bits/locale_facets.h ****        *
 422:/usr/include/c++/10/bits/locale_facets.h ****        *  This function searches for and returns a pointer to the first
 423:/usr/include/c++/10/bits/locale_facets.h ****        *  char_type c of [lo,hi) for which is(m,c) is false.
 424:/usr/include/c++/10/bits/locale_facets.h ****        *
 425:/usr/include/c++/10/bits/locale_facets.h ****        *  do_scan_is() is a hook for a derived facet to change the behavior of
 426:/usr/include/c++/10/bits/locale_facets.h ****        *  match searching.  do_is() must always return the same result for the
 427:/usr/include/c++/10/bits/locale_facets.h ****        *  same input.
 428:/usr/include/c++/10/bits/locale_facets.h ****        *
 429:/usr/include/c++/10/bits/locale_facets.h ****        *  @param __m  The mask to compare against.
 430:/usr/include/c++/10/bits/locale_facets.h ****        *  @param __lo  Pointer to start of range.
 431:/usr/include/c++/10/bits/locale_facets.h ****        *  @param __hi  Pointer to end of range.
 432:/usr/include/c++/10/bits/locale_facets.h ****        *  @return  Pointer to a non-matching char_type if found, else @a __hi.
 433:/usr/include/c++/10/bits/locale_facets.h ****       */
 434:/usr/include/c++/10/bits/locale_facets.h ****       virtual const char_type*
 435:/usr/include/c++/10/bits/locale_facets.h ****       do_scan_not(mask __m, const char_type* __lo,
 436:/usr/include/c++/10/bits/locale_facets.h **** 		  const char_type* __hi) const = 0;
 437:/usr/include/c++/10/bits/locale_facets.h **** 
 438:/usr/include/c++/10/bits/locale_facets.h ****       /**
 439:/usr/include/c++/10/bits/locale_facets.h ****        *  @brief  Convert to uppercase.
 440:/usr/include/c++/10/bits/locale_facets.h ****        *
 441:/usr/include/c++/10/bits/locale_facets.h ****        *  This virtual function converts the char_type argument to uppercase
 442:/usr/include/c++/10/bits/locale_facets.h ****        *  if possible.  If not possible (for example, '2'), returns the
 443:/usr/include/c++/10/bits/locale_facets.h ****        *  argument.
 444:/usr/include/c++/10/bits/locale_facets.h ****        *
 445:/usr/include/c++/10/bits/locale_facets.h ****        *  do_toupper() is a hook for a derived facet to change the behavior of
 446:/usr/include/c++/10/bits/locale_facets.h ****        *  uppercasing.  do_toupper() must always return the same result for
 447:/usr/include/c++/10/bits/locale_facets.h ****        *  the same input.
 448:/usr/include/c++/10/bits/locale_facets.h ****        *
 449:/usr/include/c++/10/bits/locale_facets.h ****        *  @param __c  The char_type to convert.
 450:/usr/include/c++/10/bits/locale_facets.h ****        *  @return  The uppercase char_type if convertible, else @a __c.
 451:/usr/include/c++/10/bits/locale_facets.h ****       */
 452:/usr/include/c++/10/bits/locale_facets.h ****       virtual char_type
 453:/usr/include/c++/10/bits/locale_facets.h ****       do_toupper(char_type __c) const = 0;
 454:/usr/include/c++/10/bits/locale_facets.h **** 
 455:/usr/include/c++/10/bits/locale_facets.h ****       /**
 456:/usr/include/c++/10/bits/locale_facets.h ****        *  @brief  Convert array to uppercase.
 457:/usr/include/c++/10/bits/locale_facets.h ****        *
 458:/usr/include/c++/10/bits/locale_facets.h ****        *  This virtual function converts each char_type in the range [__lo,__hi)
 459:/usr/include/c++/10/bits/locale_facets.h ****        *  to uppercase if possible.  Other elements remain untouched.
 460:/usr/include/c++/10/bits/locale_facets.h ****        *
 461:/usr/include/c++/10/bits/locale_facets.h ****        *  do_toupper() is a hook for a derived facet to change the behavior of
 462:/usr/include/c++/10/bits/locale_facets.h ****        *  uppercasing.  do_toupper() must always return the same result for
 463:/usr/include/c++/10/bits/locale_facets.h ****        *  the same input.
 464:/usr/include/c++/10/bits/locale_facets.h ****        *
 465:/usr/include/c++/10/bits/locale_facets.h ****        *  @param __lo  Pointer to start of range.
 466:/usr/include/c++/10/bits/locale_facets.h ****        *  @param __hi  Pointer to end of range.
 467:/usr/include/c++/10/bits/locale_facets.h ****        *  @return  @a __hi.
 468:/usr/include/c++/10/bits/locale_facets.h ****       */
 469:/usr/include/c++/10/bits/locale_facets.h ****       virtual const char_type*
 470:/usr/include/c++/10/bits/locale_facets.h ****       do_toupper(char_type* __lo, const char_type* __hi) const = 0;
AARCH64 GAS  obj/Chapter15_2.s 			page 31


 471:/usr/include/c++/10/bits/locale_facets.h **** 
 472:/usr/include/c++/10/bits/locale_facets.h ****       /**
 473:/usr/include/c++/10/bits/locale_facets.h ****        *  @brief  Convert to lowercase.
 474:/usr/include/c++/10/bits/locale_facets.h ****        *
 475:/usr/include/c++/10/bits/locale_facets.h ****        *  This virtual function converts the argument to lowercase if
 476:/usr/include/c++/10/bits/locale_facets.h ****        *  possible.  If not possible (for example, '2'), returns the argument.
 477:/usr/include/c++/10/bits/locale_facets.h ****        *
 478:/usr/include/c++/10/bits/locale_facets.h ****        *  do_tolower() is a hook for a derived facet to change the behavior of
 479:/usr/include/c++/10/bits/locale_facets.h ****        *  lowercasing.  do_tolower() must always return the same result for
 480:/usr/include/c++/10/bits/locale_facets.h ****        *  the same input.
 481:/usr/include/c++/10/bits/locale_facets.h ****        *
 482:/usr/include/c++/10/bits/locale_facets.h ****        *  @param __c  The char_type to convert.
 483:/usr/include/c++/10/bits/locale_facets.h ****        *  @return  The lowercase char_type if convertible, else @a __c.
 484:/usr/include/c++/10/bits/locale_facets.h ****       */
 485:/usr/include/c++/10/bits/locale_facets.h ****       virtual char_type
 486:/usr/include/c++/10/bits/locale_facets.h ****       do_tolower(char_type __c) const = 0;
 487:/usr/include/c++/10/bits/locale_facets.h **** 
 488:/usr/include/c++/10/bits/locale_facets.h ****       /**
 489:/usr/include/c++/10/bits/locale_facets.h ****        *  @brief  Convert array to lowercase.
 490:/usr/include/c++/10/bits/locale_facets.h ****        *
 491:/usr/include/c++/10/bits/locale_facets.h ****        *  This virtual function converts each char_type in the range [__lo,__hi)
 492:/usr/include/c++/10/bits/locale_facets.h ****        *  to lowercase if possible.  Other elements remain untouched.
 493:/usr/include/c++/10/bits/locale_facets.h ****        *
 494:/usr/include/c++/10/bits/locale_facets.h ****        *  do_tolower() is a hook for a derived facet to change the behavior of
 495:/usr/include/c++/10/bits/locale_facets.h ****        *  lowercasing.  do_tolower() must always return the same result for
 496:/usr/include/c++/10/bits/locale_facets.h ****        *  the same input.
 497:/usr/include/c++/10/bits/locale_facets.h ****        *
 498:/usr/include/c++/10/bits/locale_facets.h ****        *  @param __lo  Pointer to start of range.
 499:/usr/include/c++/10/bits/locale_facets.h ****        *  @param __hi  Pointer to end of range.
 500:/usr/include/c++/10/bits/locale_facets.h ****        *  @return  @a __hi.
 501:/usr/include/c++/10/bits/locale_facets.h ****       */
 502:/usr/include/c++/10/bits/locale_facets.h ****       virtual const char_type*
 503:/usr/include/c++/10/bits/locale_facets.h ****       do_tolower(char_type* __lo, const char_type* __hi) const = 0;
 504:/usr/include/c++/10/bits/locale_facets.h **** 
 505:/usr/include/c++/10/bits/locale_facets.h ****       /**
 506:/usr/include/c++/10/bits/locale_facets.h ****        *  @brief  Widen char
 507:/usr/include/c++/10/bits/locale_facets.h ****        *
 508:/usr/include/c++/10/bits/locale_facets.h ****        *  This virtual function converts the char to char_type using the
 509:/usr/include/c++/10/bits/locale_facets.h ****        *  simplest reasonable transformation.
 510:/usr/include/c++/10/bits/locale_facets.h ****        *
 511:/usr/include/c++/10/bits/locale_facets.h ****        *  do_widen() is a hook for a derived facet to change the behavior of
 512:/usr/include/c++/10/bits/locale_facets.h ****        *  widening.  do_widen() must always return the same result for the
 513:/usr/include/c++/10/bits/locale_facets.h ****        *  same input.
 514:/usr/include/c++/10/bits/locale_facets.h ****        *
 515:/usr/include/c++/10/bits/locale_facets.h ****        *  Note: this is not what you want for codepage conversions.  See
 516:/usr/include/c++/10/bits/locale_facets.h ****        *  codecvt for that.
 517:/usr/include/c++/10/bits/locale_facets.h ****        *
 518:/usr/include/c++/10/bits/locale_facets.h ****        *  @param __c  The char to convert.
 519:/usr/include/c++/10/bits/locale_facets.h ****        *  @return  The converted char_type
 520:/usr/include/c++/10/bits/locale_facets.h ****       */
 521:/usr/include/c++/10/bits/locale_facets.h ****       virtual char_type
 522:/usr/include/c++/10/bits/locale_facets.h ****       do_widen(char __c) const = 0;
 523:/usr/include/c++/10/bits/locale_facets.h **** 
 524:/usr/include/c++/10/bits/locale_facets.h ****       /**
 525:/usr/include/c++/10/bits/locale_facets.h ****        *  @brief  Widen char array
 526:/usr/include/c++/10/bits/locale_facets.h ****        *
 527:/usr/include/c++/10/bits/locale_facets.h ****        *  This function converts each char in the input to char_type using the
AARCH64 GAS  obj/Chapter15_2.s 			page 32


 528:/usr/include/c++/10/bits/locale_facets.h ****        *  simplest reasonable transformation.
 529:/usr/include/c++/10/bits/locale_facets.h ****        *
 530:/usr/include/c++/10/bits/locale_facets.h ****        *  do_widen() is a hook for a derived facet to change the behavior of
 531:/usr/include/c++/10/bits/locale_facets.h ****        *  widening.  do_widen() must always return the same result for the
 532:/usr/include/c++/10/bits/locale_facets.h ****        *  same input.
 533:/usr/include/c++/10/bits/locale_facets.h ****        *
 534:/usr/include/c++/10/bits/locale_facets.h ****        *  Note: this is not what you want for codepage conversions.  See
 535:/usr/include/c++/10/bits/locale_facets.h ****        *  codecvt for that.
 536:/usr/include/c++/10/bits/locale_facets.h ****        *
 537:/usr/include/c++/10/bits/locale_facets.h ****        *  @param __lo  Pointer to start range.
 538:/usr/include/c++/10/bits/locale_facets.h ****        *  @param __hi  Pointer to end of range.
 539:/usr/include/c++/10/bits/locale_facets.h ****        *  @param __to  Pointer to the destination array.
 540:/usr/include/c++/10/bits/locale_facets.h ****        *  @return  @a __hi.
 541:/usr/include/c++/10/bits/locale_facets.h ****       */
 542:/usr/include/c++/10/bits/locale_facets.h ****       virtual const char*
 543:/usr/include/c++/10/bits/locale_facets.h ****       do_widen(const char* __lo, const char* __hi, char_type* __to) const = 0;
 544:/usr/include/c++/10/bits/locale_facets.h **** 
 545:/usr/include/c++/10/bits/locale_facets.h ****       /**
 546:/usr/include/c++/10/bits/locale_facets.h ****        *  @brief  Narrow char_type to char
 547:/usr/include/c++/10/bits/locale_facets.h ****        *
 548:/usr/include/c++/10/bits/locale_facets.h ****        *  This virtual function converts the argument to char using the
 549:/usr/include/c++/10/bits/locale_facets.h ****        *  simplest reasonable transformation.  If the conversion fails, dfault
 550:/usr/include/c++/10/bits/locale_facets.h ****        *  is returned instead.
 551:/usr/include/c++/10/bits/locale_facets.h ****        *
 552:/usr/include/c++/10/bits/locale_facets.h ****        *  do_narrow() is a hook for a derived facet to change the behavior of
 553:/usr/include/c++/10/bits/locale_facets.h ****        *  narrowing.  do_narrow() must always return the same result for the
 554:/usr/include/c++/10/bits/locale_facets.h ****        *  same input.
 555:/usr/include/c++/10/bits/locale_facets.h ****        *
 556:/usr/include/c++/10/bits/locale_facets.h ****        *  Note: this is not what you want for codepage conversions.  See
 557:/usr/include/c++/10/bits/locale_facets.h ****        *  codecvt for that.
 558:/usr/include/c++/10/bits/locale_facets.h ****        *
 559:/usr/include/c++/10/bits/locale_facets.h ****        *  @param __c  The char_type to convert.
 560:/usr/include/c++/10/bits/locale_facets.h ****        *  @param __dfault  Char to return if conversion fails.
 561:/usr/include/c++/10/bits/locale_facets.h ****        *  @return  The converted char.
 562:/usr/include/c++/10/bits/locale_facets.h ****       */
 563:/usr/include/c++/10/bits/locale_facets.h ****       virtual char
 564:/usr/include/c++/10/bits/locale_facets.h ****       do_narrow(char_type __c, char __dfault) const = 0;
 565:/usr/include/c++/10/bits/locale_facets.h **** 
 566:/usr/include/c++/10/bits/locale_facets.h ****       /**
 567:/usr/include/c++/10/bits/locale_facets.h ****        *  @brief  Narrow char_type array to char
 568:/usr/include/c++/10/bits/locale_facets.h ****        *
 569:/usr/include/c++/10/bits/locale_facets.h ****        *  This virtual function converts each char_type in the range
 570:/usr/include/c++/10/bits/locale_facets.h ****        *  [__lo,__hi) to char using the simplest reasonable
 571:/usr/include/c++/10/bits/locale_facets.h ****        *  transformation and writes the results to the destination
 572:/usr/include/c++/10/bits/locale_facets.h ****        *  array.  For any element in the input that cannot be
 573:/usr/include/c++/10/bits/locale_facets.h ****        *  converted, @a __dfault is used instead.
 574:/usr/include/c++/10/bits/locale_facets.h ****        *
 575:/usr/include/c++/10/bits/locale_facets.h ****        *  do_narrow() is a hook for a derived facet to change the behavior of
 576:/usr/include/c++/10/bits/locale_facets.h ****        *  narrowing.  do_narrow() must always return the same result for the
 577:/usr/include/c++/10/bits/locale_facets.h ****        *  same input.
 578:/usr/include/c++/10/bits/locale_facets.h ****        *
 579:/usr/include/c++/10/bits/locale_facets.h ****        *  Note: this is not what you want for codepage conversions.  See
 580:/usr/include/c++/10/bits/locale_facets.h ****        *  codecvt for that.
 581:/usr/include/c++/10/bits/locale_facets.h ****        *
 582:/usr/include/c++/10/bits/locale_facets.h ****        *  @param __lo  Pointer to start of range.
 583:/usr/include/c++/10/bits/locale_facets.h ****        *  @param __hi  Pointer to end of range.
 584:/usr/include/c++/10/bits/locale_facets.h ****        *  @param __dfault  Char to use if conversion fails.
AARCH64 GAS  obj/Chapter15_2.s 			page 33


 585:/usr/include/c++/10/bits/locale_facets.h ****        *  @param __to  Pointer to the destination array.
 586:/usr/include/c++/10/bits/locale_facets.h ****        *  @return  @a __hi.
 587:/usr/include/c++/10/bits/locale_facets.h ****       */
 588:/usr/include/c++/10/bits/locale_facets.h ****       virtual const char_type*
 589:/usr/include/c++/10/bits/locale_facets.h ****       do_narrow(const char_type* __lo, const char_type* __hi,
 590:/usr/include/c++/10/bits/locale_facets.h **** 		char __dfault, char* __to) const = 0;
 591:/usr/include/c++/10/bits/locale_facets.h ****     };
 592:/usr/include/c++/10/bits/locale_facets.h **** 
 593:/usr/include/c++/10/bits/locale_facets.h ****   /**
 594:/usr/include/c++/10/bits/locale_facets.h ****    *  @brief  Primary class template ctype facet.
 595:/usr/include/c++/10/bits/locale_facets.h ****    *  @ingroup locales
 596:/usr/include/c++/10/bits/locale_facets.h ****    *
 597:/usr/include/c++/10/bits/locale_facets.h ****    *  This template class defines classification and conversion functions for
 598:/usr/include/c++/10/bits/locale_facets.h ****    *  character sets.  It wraps cctype functionality.  Ctype gets used by
 599:/usr/include/c++/10/bits/locale_facets.h ****    *  streams for many I/O operations.
 600:/usr/include/c++/10/bits/locale_facets.h ****    *
 601:/usr/include/c++/10/bits/locale_facets.h ****    *  This template provides the protected virtual functions the developer
 602:/usr/include/c++/10/bits/locale_facets.h ****    *  will have to replace in a derived class or specialization to make a
 603:/usr/include/c++/10/bits/locale_facets.h ****    *  working facet.  The public functions that access them are defined in
 604:/usr/include/c++/10/bits/locale_facets.h ****    *  __ctype_abstract_base, to allow for implementation flexibility.  See
 605:/usr/include/c++/10/bits/locale_facets.h ****    *  ctype<wchar_t> for an example.  The functions are documented in
 606:/usr/include/c++/10/bits/locale_facets.h ****    *  __ctype_abstract_base.
 607:/usr/include/c++/10/bits/locale_facets.h ****    *
 608:/usr/include/c++/10/bits/locale_facets.h ****    *  Note: implementations are provided for all the protected virtual
 609:/usr/include/c++/10/bits/locale_facets.h ****    *  functions, but will likely not be useful.
 610:/usr/include/c++/10/bits/locale_facets.h ****   */
 611:/usr/include/c++/10/bits/locale_facets.h ****   template<typename _CharT>
 612:/usr/include/c++/10/bits/locale_facets.h ****     class ctype : public __ctype_abstract_base<_CharT>
 613:/usr/include/c++/10/bits/locale_facets.h ****     {
 614:/usr/include/c++/10/bits/locale_facets.h ****     public:
 615:/usr/include/c++/10/bits/locale_facets.h ****       // Types:
 616:/usr/include/c++/10/bits/locale_facets.h ****       typedef _CharT			char_type;
 617:/usr/include/c++/10/bits/locale_facets.h ****       typedef typename __ctype_abstract_base<_CharT>::mask mask;
 618:/usr/include/c++/10/bits/locale_facets.h **** 
 619:/usr/include/c++/10/bits/locale_facets.h ****       /// The facet id for ctype<char_type>
 620:/usr/include/c++/10/bits/locale_facets.h ****       static locale::id			id;
 621:/usr/include/c++/10/bits/locale_facets.h **** 
 622:/usr/include/c++/10/bits/locale_facets.h ****       explicit
 623:/usr/include/c++/10/bits/locale_facets.h ****       ctype(size_t __refs = 0) : __ctype_abstract_base<_CharT>(__refs) { }
 624:/usr/include/c++/10/bits/locale_facets.h **** 
 625:/usr/include/c++/10/bits/locale_facets.h ****    protected:
 626:/usr/include/c++/10/bits/locale_facets.h ****       virtual
 627:/usr/include/c++/10/bits/locale_facets.h ****       ~ctype();
 628:/usr/include/c++/10/bits/locale_facets.h **** 
 629:/usr/include/c++/10/bits/locale_facets.h ****       virtual bool
 630:/usr/include/c++/10/bits/locale_facets.h ****       do_is(mask __m, char_type __c) const;
 631:/usr/include/c++/10/bits/locale_facets.h **** 
 632:/usr/include/c++/10/bits/locale_facets.h ****       virtual const char_type*
 633:/usr/include/c++/10/bits/locale_facets.h ****       do_is(const char_type* __lo, const char_type* __hi, mask* __vec) const;
 634:/usr/include/c++/10/bits/locale_facets.h **** 
 635:/usr/include/c++/10/bits/locale_facets.h ****       virtual const char_type*
 636:/usr/include/c++/10/bits/locale_facets.h ****       do_scan_is(mask __m, const char_type* __lo, const char_type* __hi) const;
 637:/usr/include/c++/10/bits/locale_facets.h **** 
 638:/usr/include/c++/10/bits/locale_facets.h ****       virtual const char_type*
 639:/usr/include/c++/10/bits/locale_facets.h ****       do_scan_not(mask __m, const char_type* __lo,
 640:/usr/include/c++/10/bits/locale_facets.h **** 		  const char_type* __hi) const;
 641:/usr/include/c++/10/bits/locale_facets.h **** 
AARCH64 GAS  obj/Chapter15_2.s 			page 34


 642:/usr/include/c++/10/bits/locale_facets.h ****       virtual char_type
 643:/usr/include/c++/10/bits/locale_facets.h ****       do_toupper(char_type __c) const;
 644:/usr/include/c++/10/bits/locale_facets.h **** 
 645:/usr/include/c++/10/bits/locale_facets.h ****       virtual const char_type*
 646:/usr/include/c++/10/bits/locale_facets.h ****       do_toupper(char_type* __lo, const char_type* __hi) const;
 647:/usr/include/c++/10/bits/locale_facets.h **** 
 648:/usr/include/c++/10/bits/locale_facets.h ****       virtual char_type
 649:/usr/include/c++/10/bits/locale_facets.h ****       do_tolower(char_type __c) const;
 650:/usr/include/c++/10/bits/locale_facets.h **** 
 651:/usr/include/c++/10/bits/locale_facets.h ****       virtual const char_type*
 652:/usr/include/c++/10/bits/locale_facets.h ****       do_tolower(char_type* __lo, const char_type* __hi) const;
 653:/usr/include/c++/10/bits/locale_facets.h **** 
 654:/usr/include/c++/10/bits/locale_facets.h ****       virtual char_type
 655:/usr/include/c++/10/bits/locale_facets.h ****       do_widen(char __c) const;
 656:/usr/include/c++/10/bits/locale_facets.h **** 
 657:/usr/include/c++/10/bits/locale_facets.h ****       virtual const char*
 658:/usr/include/c++/10/bits/locale_facets.h ****       do_widen(const char* __lo, const char* __hi, char_type* __dest) const;
 659:/usr/include/c++/10/bits/locale_facets.h **** 
 660:/usr/include/c++/10/bits/locale_facets.h ****       virtual char
 661:/usr/include/c++/10/bits/locale_facets.h ****       do_narrow(char_type, char __dfault) const;
 662:/usr/include/c++/10/bits/locale_facets.h **** 
 663:/usr/include/c++/10/bits/locale_facets.h ****       virtual const char_type*
 664:/usr/include/c++/10/bits/locale_facets.h ****       do_narrow(const char_type* __lo, const char_type* __hi,
 665:/usr/include/c++/10/bits/locale_facets.h **** 		char __dfault, char* __to) const;
 666:/usr/include/c++/10/bits/locale_facets.h ****     };
 667:/usr/include/c++/10/bits/locale_facets.h **** 
 668:/usr/include/c++/10/bits/locale_facets.h ****   template<typename _CharT>
 669:/usr/include/c++/10/bits/locale_facets.h ****     locale::id ctype<_CharT>::id;
 670:/usr/include/c++/10/bits/locale_facets.h **** 
 671:/usr/include/c++/10/bits/locale_facets.h ****   /**
 672:/usr/include/c++/10/bits/locale_facets.h ****    *  @brief  The ctype<char> specialization.
 673:/usr/include/c++/10/bits/locale_facets.h ****    *  @ingroup locales
 674:/usr/include/c++/10/bits/locale_facets.h ****    *
 675:/usr/include/c++/10/bits/locale_facets.h ****    *  This class defines classification and conversion functions for
 676:/usr/include/c++/10/bits/locale_facets.h ****    *  the char type.  It gets used by char streams for many I/O
 677:/usr/include/c++/10/bits/locale_facets.h ****    *  operations.  The char specialization provides a number of
 678:/usr/include/c++/10/bits/locale_facets.h ****    *  optimizations as well.
 679:/usr/include/c++/10/bits/locale_facets.h ****   */
 680:/usr/include/c++/10/bits/locale_facets.h ****   template<>
 681:/usr/include/c++/10/bits/locale_facets.h ****     class ctype<char> : public locale::facet, public ctype_base
 682:/usr/include/c++/10/bits/locale_facets.h ****     {
 683:/usr/include/c++/10/bits/locale_facets.h ****     public:
 684:/usr/include/c++/10/bits/locale_facets.h ****       // Types:
 685:/usr/include/c++/10/bits/locale_facets.h ****       /// Typedef for the template parameter char.
 686:/usr/include/c++/10/bits/locale_facets.h ****       typedef char		char_type;
 687:/usr/include/c++/10/bits/locale_facets.h **** 
 688:/usr/include/c++/10/bits/locale_facets.h ****     protected:
 689:/usr/include/c++/10/bits/locale_facets.h ****       // Data Members:
 690:/usr/include/c++/10/bits/locale_facets.h ****       __c_locale		_M_c_locale_ctype;
 691:/usr/include/c++/10/bits/locale_facets.h ****       bool			_M_del;
 692:/usr/include/c++/10/bits/locale_facets.h ****       __to_type			_M_toupper;
 693:/usr/include/c++/10/bits/locale_facets.h ****       __to_type			_M_tolower;
 694:/usr/include/c++/10/bits/locale_facets.h ****       const mask*		_M_table;
 695:/usr/include/c++/10/bits/locale_facets.h ****       mutable char		_M_widen_ok;
 696:/usr/include/c++/10/bits/locale_facets.h ****       mutable char		_M_widen[1 + static_cast<unsigned char>(-1)];
 697:/usr/include/c++/10/bits/locale_facets.h ****       mutable char		_M_narrow[1 + static_cast<unsigned char>(-1)];
 698:/usr/include/c++/10/bits/locale_facets.h ****       mutable char		_M_narrow_ok;	// 0 uninitialized, 1 init,
AARCH64 GAS  obj/Chapter15_2.s 			page 35


 699:/usr/include/c++/10/bits/locale_facets.h **** 						// 2 memcpy can't be used
 700:/usr/include/c++/10/bits/locale_facets.h **** 
 701:/usr/include/c++/10/bits/locale_facets.h ****     public:
 702:/usr/include/c++/10/bits/locale_facets.h ****       /// The facet id for ctype<char>
 703:/usr/include/c++/10/bits/locale_facets.h ****       static locale::id        id;
 704:/usr/include/c++/10/bits/locale_facets.h ****       /// The size of the mask table.  It is SCHAR_MAX + 1.
 705:/usr/include/c++/10/bits/locale_facets.h ****       static const size_t      table_size = 1 + static_cast<unsigned char>(-1);
 706:/usr/include/c++/10/bits/locale_facets.h **** 
 707:/usr/include/c++/10/bits/locale_facets.h ****       /**
 708:/usr/include/c++/10/bits/locale_facets.h ****        *  @brief  Constructor performs initialization.
 709:/usr/include/c++/10/bits/locale_facets.h ****        *
 710:/usr/include/c++/10/bits/locale_facets.h ****        *  This is the constructor provided by the standard.
 711:/usr/include/c++/10/bits/locale_facets.h ****        *
 712:/usr/include/c++/10/bits/locale_facets.h ****        *  @param __table If non-zero, table is used as the per-char mask.
 713:/usr/include/c++/10/bits/locale_facets.h ****        *               Else classic_table() is used.
 714:/usr/include/c++/10/bits/locale_facets.h ****        *  @param __del   If true, passes ownership of table to this facet.
 715:/usr/include/c++/10/bits/locale_facets.h ****        *  @param __refs  Passed to the base facet class.
 716:/usr/include/c++/10/bits/locale_facets.h ****       */
 717:/usr/include/c++/10/bits/locale_facets.h ****       explicit
 718:/usr/include/c++/10/bits/locale_facets.h ****       ctype(const mask* __table = 0, bool __del = false, size_t __refs = 0);
 719:/usr/include/c++/10/bits/locale_facets.h **** 
 720:/usr/include/c++/10/bits/locale_facets.h ****       /**
 721:/usr/include/c++/10/bits/locale_facets.h ****        *  @brief  Constructor performs static initialization.
 722:/usr/include/c++/10/bits/locale_facets.h ****        *
 723:/usr/include/c++/10/bits/locale_facets.h ****        *  This constructor is used to construct the initial C locale facet.
 724:/usr/include/c++/10/bits/locale_facets.h ****        *
 725:/usr/include/c++/10/bits/locale_facets.h ****        *  @param __cloc  Handle to C locale data.
 726:/usr/include/c++/10/bits/locale_facets.h ****        *  @param __table If non-zero, table is used as the per-char mask.
 727:/usr/include/c++/10/bits/locale_facets.h ****        *  @param __del   If true, passes ownership of table to this facet.
 728:/usr/include/c++/10/bits/locale_facets.h ****        *  @param __refs  Passed to the base facet class.
 729:/usr/include/c++/10/bits/locale_facets.h ****       */
 730:/usr/include/c++/10/bits/locale_facets.h ****       explicit
 731:/usr/include/c++/10/bits/locale_facets.h ****       ctype(__c_locale __cloc, const mask* __table = 0, bool __del = false,
 732:/usr/include/c++/10/bits/locale_facets.h **** 	    size_t __refs = 0);
 733:/usr/include/c++/10/bits/locale_facets.h **** 
 734:/usr/include/c++/10/bits/locale_facets.h ****       /**
 735:/usr/include/c++/10/bits/locale_facets.h ****        *  @brief  Test char classification.
 736:/usr/include/c++/10/bits/locale_facets.h ****        *
 737:/usr/include/c++/10/bits/locale_facets.h ****        *  This function compares the mask table[c] to @a __m.
 738:/usr/include/c++/10/bits/locale_facets.h ****        *
 739:/usr/include/c++/10/bits/locale_facets.h ****        *  @param __c  The char to compare the mask of.
 740:/usr/include/c++/10/bits/locale_facets.h ****        *  @param __m  The mask to compare against.
 741:/usr/include/c++/10/bits/locale_facets.h ****        *  @return  True if __m & table[__c] is true, false otherwise.
 742:/usr/include/c++/10/bits/locale_facets.h ****       */
 743:/usr/include/c++/10/bits/locale_facets.h ****       inline bool
 744:/usr/include/c++/10/bits/locale_facets.h ****       is(mask __m, char __c) const;
 745:/usr/include/c++/10/bits/locale_facets.h **** 
 746:/usr/include/c++/10/bits/locale_facets.h ****       /**
 747:/usr/include/c++/10/bits/locale_facets.h ****        *  @brief  Return a mask array.
 748:/usr/include/c++/10/bits/locale_facets.h ****        *
 749:/usr/include/c++/10/bits/locale_facets.h ****        *  This function finds the mask for each char in the range [lo, hi) and
 750:/usr/include/c++/10/bits/locale_facets.h ****        *  successively writes it to vec.  vec must have as many elements as
 751:/usr/include/c++/10/bits/locale_facets.h ****        *  the char array.
 752:/usr/include/c++/10/bits/locale_facets.h ****        *
 753:/usr/include/c++/10/bits/locale_facets.h ****        *  @param __lo  Pointer to start of range.
 754:/usr/include/c++/10/bits/locale_facets.h ****        *  @param __hi  Pointer to end of range.
 755:/usr/include/c++/10/bits/locale_facets.h ****        *  @param __vec  Pointer to an array of mask storage.
AARCH64 GAS  obj/Chapter15_2.s 			page 36


 756:/usr/include/c++/10/bits/locale_facets.h ****        *  @return  @a __hi.
 757:/usr/include/c++/10/bits/locale_facets.h ****       */
 758:/usr/include/c++/10/bits/locale_facets.h ****       inline const char*
 759:/usr/include/c++/10/bits/locale_facets.h ****       is(const char* __lo, const char* __hi, mask* __vec) const;
 760:/usr/include/c++/10/bits/locale_facets.h **** 
 761:/usr/include/c++/10/bits/locale_facets.h ****       /**
 762:/usr/include/c++/10/bits/locale_facets.h ****        *  @brief  Find char matching a mask
 763:/usr/include/c++/10/bits/locale_facets.h ****        *
 764:/usr/include/c++/10/bits/locale_facets.h ****        *  This function searches for and returns the first char in [lo,hi) for
 765:/usr/include/c++/10/bits/locale_facets.h ****        *  which is(m,char) is true.
 766:/usr/include/c++/10/bits/locale_facets.h ****        *
 767:/usr/include/c++/10/bits/locale_facets.h ****        *  @param __m  The mask to compare against.
 768:/usr/include/c++/10/bits/locale_facets.h ****        *  @param __lo  Pointer to start of range.
 769:/usr/include/c++/10/bits/locale_facets.h ****        *  @param __hi  Pointer to end of range.
 770:/usr/include/c++/10/bits/locale_facets.h ****        *  @return  Pointer to a matching char if found, else @a __hi.
 771:/usr/include/c++/10/bits/locale_facets.h ****       */
 772:/usr/include/c++/10/bits/locale_facets.h ****       inline const char*
 773:/usr/include/c++/10/bits/locale_facets.h ****       scan_is(mask __m, const char* __lo, const char* __hi) const;
 774:/usr/include/c++/10/bits/locale_facets.h **** 
 775:/usr/include/c++/10/bits/locale_facets.h ****       /**
 776:/usr/include/c++/10/bits/locale_facets.h ****        *  @brief  Find char not matching a mask
 777:/usr/include/c++/10/bits/locale_facets.h ****        *
 778:/usr/include/c++/10/bits/locale_facets.h ****        *  This function searches for and returns a pointer to the first char
 779:/usr/include/c++/10/bits/locale_facets.h ****        *  in [__lo,__hi) for which is(m,char) is false.
 780:/usr/include/c++/10/bits/locale_facets.h ****        *
 781:/usr/include/c++/10/bits/locale_facets.h ****        *  @param __m  The mask to compare against.
 782:/usr/include/c++/10/bits/locale_facets.h ****        *  @param __lo  Pointer to start of range.
 783:/usr/include/c++/10/bits/locale_facets.h ****        *  @param __hi  Pointer to end of range.
 784:/usr/include/c++/10/bits/locale_facets.h ****        *  @return  Pointer to a non-matching char if found, else @a __hi.
 785:/usr/include/c++/10/bits/locale_facets.h ****       */
 786:/usr/include/c++/10/bits/locale_facets.h ****       inline const char*
 787:/usr/include/c++/10/bits/locale_facets.h ****       scan_not(mask __m, const char* __lo, const char* __hi) const;
 788:/usr/include/c++/10/bits/locale_facets.h **** 
 789:/usr/include/c++/10/bits/locale_facets.h ****       /**
 790:/usr/include/c++/10/bits/locale_facets.h ****        *  @brief  Convert to uppercase.
 791:/usr/include/c++/10/bits/locale_facets.h ****        *
 792:/usr/include/c++/10/bits/locale_facets.h ****        *  This function converts the char argument to uppercase if possible.
 793:/usr/include/c++/10/bits/locale_facets.h ****        *  If not possible (for example, '2'), returns the argument.
 794:/usr/include/c++/10/bits/locale_facets.h ****        *
 795:/usr/include/c++/10/bits/locale_facets.h ****        *  toupper() acts as if it returns ctype<char>::do_toupper(c).
 796:/usr/include/c++/10/bits/locale_facets.h ****        *  do_toupper() must always return the same result for the same input.
 797:/usr/include/c++/10/bits/locale_facets.h ****        *
 798:/usr/include/c++/10/bits/locale_facets.h ****        *  @param __c  The char to convert.
 799:/usr/include/c++/10/bits/locale_facets.h ****        *  @return  The uppercase char if convertible, else @a __c.
 800:/usr/include/c++/10/bits/locale_facets.h ****       */
 801:/usr/include/c++/10/bits/locale_facets.h ****       char_type
 802:/usr/include/c++/10/bits/locale_facets.h ****       toupper(char_type __c) const
 803:/usr/include/c++/10/bits/locale_facets.h ****       { return this->do_toupper(__c); }
 804:/usr/include/c++/10/bits/locale_facets.h **** 
 805:/usr/include/c++/10/bits/locale_facets.h ****       /**
 806:/usr/include/c++/10/bits/locale_facets.h ****        *  @brief  Convert array to uppercase.
 807:/usr/include/c++/10/bits/locale_facets.h ****        *
 808:/usr/include/c++/10/bits/locale_facets.h ****        *  This function converts each char in the range [__lo,__hi) to uppercase
 809:/usr/include/c++/10/bits/locale_facets.h ****        *  if possible.  Other chars remain untouched.
 810:/usr/include/c++/10/bits/locale_facets.h ****        *
 811:/usr/include/c++/10/bits/locale_facets.h ****        *  toupper() acts as if it returns ctype<char>:: do_toupper(__lo, __hi).
 812:/usr/include/c++/10/bits/locale_facets.h ****        *  do_toupper() must always return the same result for the same input.
AARCH64 GAS  obj/Chapter15_2.s 			page 37


 813:/usr/include/c++/10/bits/locale_facets.h ****        *
 814:/usr/include/c++/10/bits/locale_facets.h ****        *  @param __lo  Pointer to first char in range.
 815:/usr/include/c++/10/bits/locale_facets.h ****        *  @param __hi  Pointer to end of range.
 816:/usr/include/c++/10/bits/locale_facets.h ****        *  @return  @a __hi.
 817:/usr/include/c++/10/bits/locale_facets.h ****       */
 818:/usr/include/c++/10/bits/locale_facets.h ****       const char_type*
 819:/usr/include/c++/10/bits/locale_facets.h ****       toupper(char_type *__lo, const char_type* __hi) const
 820:/usr/include/c++/10/bits/locale_facets.h ****       { return this->do_toupper(__lo, __hi); }
 821:/usr/include/c++/10/bits/locale_facets.h **** 
 822:/usr/include/c++/10/bits/locale_facets.h ****       /**
 823:/usr/include/c++/10/bits/locale_facets.h ****        *  @brief  Convert to lowercase.
 824:/usr/include/c++/10/bits/locale_facets.h ****        *
 825:/usr/include/c++/10/bits/locale_facets.h ****        *  This function converts the char argument to lowercase if possible.
 826:/usr/include/c++/10/bits/locale_facets.h ****        *  If not possible (for example, '2'), returns the argument.
 827:/usr/include/c++/10/bits/locale_facets.h ****        *
 828:/usr/include/c++/10/bits/locale_facets.h ****        *  tolower() acts as if it returns ctype<char>::do_tolower(__c).
 829:/usr/include/c++/10/bits/locale_facets.h ****        *  do_tolower() must always return the same result for the same input.
 830:/usr/include/c++/10/bits/locale_facets.h ****        *
 831:/usr/include/c++/10/bits/locale_facets.h ****        *  @param __c  The char to convert.
 832:/usr/include/c++/10/bits/locale_facets.h ****        *  @return  The lowercase char if convertible, else @a __c.
 833:/usr/include/c++/10/bits/locale_facets.h ****       */
 834:/usr/include/c++/10/bits/locale_facets.h ****       char_type
 835:/usr/include/c++/10/bits/locale_facets.h ****       tolower(char_type __c) const
 836:/usr/include/c++/10/bits/locale_facets.h ****       { return this->do_tolower(__c); }
 837:/usr/include/c++/10/bits/locale_facets.h **** 
 838:/usr/include/c++/10/bits/locale_facets.h ****       /**
 839:/usr/include/c++/10/bits/locale_facets.h ****        *  @brief  Convert array to lowercase.
 840:/usr/include/c++/10/bits/locale_facets.h ****        *
 841:/usr/include/c++/10/bits/locale_facets.h ****        *  This function converts each char in the range [lo,hi) to lowercase
 842:/usr/include/c++/10/bits/locale_facets.h ****        *  if possible.  Other chars remain untouched.
 843:/usr/include/c++/10/bits/locale_facets.h ****        *
 844:/usr/include/c++/10/bits/locale_facets.h ****        *  tolower() acts as if it returns ctype<char>:: do_tolower(__lo, __hi).
 845:/usr/include/c++/10/bits/locale_facets.h ****        *  do_tolower() must always return the same result for the same input.
 846:/usr/include/c++/10/bits/locale_facets.h ****        *
 847:/usr/include/c++/10/bits/locale_facets.h ****        *  @param __lo  Pointer to first char in range.
 848:/usr/include/c++/10/bits/locale_facets.h ****        *  @param __hi  Pointer to end of range.
 849:/usr/include/c++/10/bits/locale_facets.h ****        *  @return  @a __hi.
 850:/usr/include/c++/10/bits/locale_facets.h ****       */
 851:/usr/include/c++/10/bits/locale_facets.h ****       const char_type*
 852:/usr/include/c++/10/bits/locale_facets.h ****       tolower(char_type* __lo, const char_type* __hi) const
 853:/usr/include/c++/10/bits/locale_facets.h ****       { return this->do_tolower(__lo, __hi); }
 854:/usr/include/c++/10/bits/locale_facets.h **** 
 855:/usr/include/c++/10/bits/locale_facets.h ****       /**
 856:/usr/include/c++/10/bits/locale_facets.h ****        *  @brief  Widen char
 857:/usr/include/c++/10/bits/locale_facets.h ****        *
 858:/usr/include/c++/10/bits/locale_facets.h ****        *  This function converts the char to char_type using the simplest
 859:/usr/include/c++/10/bits/locale_facets.h ****        *  reasonable transformation.  For an underived ctype<char> facet, the
 860:/usr/include/c++/10/bits/locale_facets.h ****        *  argument will be returned unchanged.
 861:/usr/include/c++/10/bits/locale_facets.h ****        *
 862:/usr/include/c++/10/bits/locale_facets.h ****        *  This function works as if it returns ctype<char>::do_widen(c).
 863:/usr/include/c++/10/bits/locale_facets.h ****        *  do_widen() must always return the same result for the same input.
 864:/usr/include/c++/10/bits/locale_facets.h ****        *
 865:/usr/include/c++/10/bits/locale_facets.h ****        *  Note: this is not what you want for codepage conversions.  See
 866:/usr/include/c++/10/bits/locale_facets.h ****        *  codecvt for that.
 867:/usr/include/c++/10/bits/locale_facets.h ****        *
 868:/usr/include/c++/10/bits/locale_facets.h ****        *  @param __c  The char to convert.
 869:/usr/include/c++/10/bits/locale_facets.h ****        *  @return  The converted character.
AARCH64 GAS  obj/Chapter15_2.s 			page 38


 870:/usr/include/c++/10/bits/locale_facets.h ****       */
 871:/usr/include/c++/10/bits/locale_facets.h ****       char_type
 872:/usr/include/c++/10/bits/locale_facets.h ****       widen(char __c) const
  50              		.loc 3 872 7 is_stmt 1 view .LVU9
  51              	.LBB1596:
 873:/usr/include/c++/10/bits/locale_facets.h ****       {
 874:/usr/include/c++/10/bits/locale_facets.h **** 	if (_M_widen_ok)
  52              		.loc 3 874 2 view .LVU10
  53 0024 80E24039 		ldrb	w0, [x20, 56]
  54              	.LVL4:
  55              		.loc 3 874 2 is_stmt 0 view .LVU11
  56 0028 E0000034 		cbz	w0, .L3
 875:/usr/include/c++/10/bits/locale_facets.h **** 	  return _M_widen[static_cast<unsigned char>(__c)];
  57              		.loc 3 875 4 is_stmt 1 view .LVU12
  58              		.loc 3 875 51 is_stmt 0 view .LVU13
  59 002c 810E4139 		ldrb	w1, [x20, 67]
  60              	.LVL5:
  61              	.L4:
  62              		.loc 3 875 51 view .LVU14
  63              	.LBE1596:
  64              	.LBE1595:
  65              	.LBE1591:
  66              		.loc 1 682 19 view .LVU15
  67 0030 E00313AA 		mov	x0, x19
  68 0034 00000094 		bl	_ZNSo3putEc
  69              	.LVL6:
  70              	.LBB1602:
  71              	.LBI1602:
 683:/usr/include/c++/10/ostream **** 
 684:/usr/include/c++/10/ostream ****   /**
 685:/usr/include/c++/10/ostream ****    *  @brief  Write a null character into the output sequence.
 686:/usr/include/c++/10/ostream ****    *
 687:/usr/include/c++/10/ostream ****    *  <em>Null character</em> is @c CharT() by definition.  For CharT
 688:/usr/include/c++/10/ostream ****    *  of @c char, this correctly writes the ASCII @c NUL character
 689:/usr/include/c++/10/ostream ****    *  string terminator.
 690:/usr/include/c++/10/ostream ****   */
 691:/usr/include/c++/10/ostream ****   template<typename _CharT, typename _Traits>
 692:/usr/include/c++/10/ostream ****     inline basic_ostream<_CharT, _Traits>&
 693:/usr/include/c++/10/ostream ****     ends(basic_ostream<_CharT, _Traits>& __os)
 694:/usr/include/c++/10/ostream ****     { return __os.put(_CharT()); }
 695:/usr/include/c++/10/ostream **** 
 696:/usr/include/c++/10/ostream ****   /**
 697:/usr/include/c++/10/ostream ****    *  @brief  Flushes the output stream.
 698:/usr/include/c++/10/ostream ****    *
 699:/usr/include/c++/10/ostream ****    *  This manipulator simply calls the stream's @c flush() member function.
 700:/usr/include/c++/10/ostream ****   */
 701:/usr/include/c++/10/ostream ****   template<typename _CharT, typename _Traits>
 702:/usr/include/c++/10/ostream ****     inline basic_ostream<_CharT, _Traits>&
 703:/usr/include/c++/10/ostream ****     flush(basic_ostream<_CharT, _Traits>& __os)
  72              		.loc 1 703 5 is_stmt 1 view .LVU16
  73              	.LBE1602:
 682:/usr/include/c++/10/ostream **** 
  74              		.loc 1 682 49 is_stmt 0 view .LVU17
  75 0038 F35341A9 		ldp	x19, x20, [sp, 16]
  76              	.LVL7:
 682:/usr/include/c++/10/ostream **** 
  77              		.loc 1 682 49 view .LVU18
AARCH64 GAS  obj/Chapter15_2.s 			page 39


  78 003c FD7BC2A8 		ldp	x29, x30, [sp], 32
  79              		.cfi_remember_state
  80              		.cfi_restore 30
  81              		.cfi_restore 29
  82              		.cfi_restore 19
  83              		.cfi_restore 20
  84              		.cfi_def_cfa_offset 0
  85              	.LBB1604:
  86              	.LBB1603:
 704:/usr/include/c++/10/ostream ****     { return __os.flush(); }
  87              		.loc 1 704 24 view .LVU19
  88 0040 00000014 		b	_ZNSo5flushEv
  89              	.LVL8:
  90              	.L3:
  91              		.cfi_restore_state
  92              		.loc 1 704 24 view .LVU20
  93              	.LBE1603:
  94              	.LBE1604:
  95              	.LBB1605:
  96              	.LBB1600:
  97              	.LBB1599:
  98              	.LBB1597:
  99              	.LBI1597:
 872:/usr/include/c++/10/bits/locale_facets.h ****       {
 100              		.loc 3 872 7 is_stmt 1 view .LVU21
 101              	.LBB1598:
 876:/usr/include/c++/10/bits/locale_facets.h **** 	this->_M_widen_init();
 102              		.loc 3 876 2 view .LVU22
 103              		.loc 3 876 21 is_stmt 0 view .LVU23
 104 0044 E00314AA 		mov	x0, x20
 105 0048 00000094 		bl	_ZNKSt5ctypeIcE13_M_widen_initEv
 106              	.LVL9:
 877:/usr/include/c++/10/bits/locale_facets.h **** 	return this->do_widen(__c);
 107              		.loc 3 877 2 is_stmt 1 view .LVU24
 108              		.loc 3 877 27 is_stmt 0 view .LVU25
 109 004c 820240F9 		ldr	x2, [x20]
 110              		.loc 3 877 23 view .LVU26
 111 0050 41018052 		mov	w1, 10
 112 0054 E00314AA 		mov	x0, x20
 113 0058 421840F9 		ldr	x2, [x2, 48]
 114 005c 40003FD6 		blr	x2
 115              	.LVL10:
 116 0060 011C0012 		and	w1, w0, 255
 117              	.LVL11:
 118              		.loc 3 877 23 view .LVU27
 119 0064 F3FFFF17 		b	.L4
 120              	.LVL12:
 121              	.L7:
 122              		.loc 3 877 23 view .LVU28
 123              	.LBE1598:
 124              	.LBE1597:
 125              	.LBE1599:
 126              	.LBE1600:
 127              	.LBB1601:
 128              	.LBB1594:
  50:/usr/include/c++/10/bits/basic_ios.h ****       return *__f;
 129              		.loc 2 50 18 view .LVU29
AARCH64 GAS  obj/Chapter15_2.s 			page 40


 130 0068 00000094 		bl	_ZSt16__throw_bad_castv
 131              	.LVL13:
  50:/usr/include/c++/10/bits/basic_ios.h ****       return *__f;
 132              		.loc 2 50 18 view .LVU30
 133              	.LBE1594:
 134              	.LBE1601:
 135              	.LBE1605:
 136              		.cfi_endproc
 137              	.LFE3047:
 138              		.size	_ZSt4endlIcSt11char_traitsIcEERSt13basic_ostreamIT_T0_ES6_.isra.0, .-_ZSt4endlIcSt11char_tra
 139              		.section	.rodata.str1.8,"aMS",@progbits,1
 140              		.align	3
 141              	.LC0:
 142 0000 2020207C 		.string	"   |"
 142      00
 143              		.text
 144              		.align	2
 145 006c 1F2003D5 		.p2align 4,,11
 146              		.type	_ZN6Vec12810ToStringFPIdEENSt7__cxx1112basic_stringIcSt11char_traitsIcESaIcEEEPKT_iii.isra.0
 147              	_ZN6Vec12810ToStringFPIdEENSt7__cxx1112basic_stringIcSt11char_traitsIcESaIcEEEPKT_iii.isra.0:
 148              	.LVL14:
 149              	.LFB3045:
 150              		.file 4 "../../Include/Vec128.h"
   1:../../Include/Vec128.h **** //------------------------------------------------
   2:../../Include/Vec128.h **** //               Vec128.h
   3:../../Include/Vec128.h **** //------------------------------------------------
   4:../../Include/Vec128.h **** 
   5:../../Include/Vec128.h **** #pragma once
   6:../../Include/Vec128.h **** #include <string>
   7:../../Include/Vec128.h **** #include <cstdint>
   8:../../Include/Vec128.h **** #include <sstream>
   9:../../Include/Vec128.h **** #include <iomanip>
  10:../../Include/Vec128.h **** 
  11:../../Include/Vec128.h **** struct alignas(16) Vec128
  12:../../Include/Vec128.h **** {
  13:../../Include/Vec128.h **** public:
  14:../../Include/Vec128.h ****     union
  15:../../Include/Vec128.h ****     {
  16:../../Include/Vec128.h ****         int8_t m_I8[16];
  17:../../Include/Vec128.h ****         int16_t m_I16[8];
  18:../../Include/Vec128.h ****         int32_t m_I32[4];
  19:../../Include/Vec128.h ****         int64_t m_I64[2];
  20:../../Include/Vec128.h ****         uint8_t m_U8[16];
  21:../../Include/Vec128.h ****         uint16_t m_U16[8];
  22:../../Include/Vec128.h ****         uint32_t m_U32[4];
  23:../../Include/Vec128.h ****         uint64_t m_U64[2];
  24:../../Include/Vec128.h ****         float m_F32[4];
  25:../../Include/Vec128.h ****         double m_F64[2];
  26:../../Include/Vec128.h ****     };
  27:../../Include/Vec128.h **** 
  28:../../Include/Vec128.h **** private:
  29:../../Include/Vec128.h ****     template <typename T> std::string ToStringInt(const T* x, int n, int w)
  30:../../Include/Vec128.h ****     {
  31:../../Include/Vec128.h ****         std::ostringstream oss;
  32:../../Include/Vec128.h **** 
  33:../../Include/Vec128.h ****         for (int i = 0; i < n; i++)
  34:../../Include/Vec128.h ****         {
AARCH64 GAS  obj/Chapter15_2.s 			page 41


  35:../../Include/Vec128.h ****             oss << std::setw(w) << (int64_t)x[i];
  36:../../Include/Vec128.h **** 
  37:../../Include/Vec128.h ****             if (i + 1 == n / 2)
  38:../../Include/Vec128.h ****                 oss << "   |";
  39:../../Include/Vec128.h ****         }
  40:../../Include/Vec128.h **** 
  41:../../Include/Vec128.h ****         return oss.str();
  42:../../Include/Vec128.h ****     }
  43:../../Include/Vec128.h **** 
  44:../../Include/Vec128.h ****     template <typename T> std::string ToStringUint(const T* x, int n, int w)
  45:../../Include/Vec128.h ****     {
  46:../../Include/Vec128.h ****         std::ostringstream oss;
  47:../../Include/Vec128.h **** 
  48:../../Include/Vec128.h ****         for (int i = 0; i < n; i++)
  49:../../Include/Vec128.h ****         {
  50:../../Include/Vec128.h ****             oss << std::setw(w) << (uint64_t)x[i];
  51:../../Include/Vec128.h **** 
  52:../../Include/Vec128.h ****             if (i + 1 == n / 2)
  53:../../Include/Vec128.h ****                 oss << "   |";
  54:../../Include/Vec128.h ****         }
  55:../../Include/Vec128.h **** 
  56:../../Include/Vec128.h ****         return oss.str();
  57:../../Include/Vec128.h ****     }
  58:../../Include/Vec128.h **** 
  59:../../Include/Vec128.h ****     template <typename T> std::string ToStringHex(const T* x, int n, int w)
  60:../../Include/Vec128.h ****     {
  61:../../Include/Vec128.h ****         std::ostringstream oss;
  62:../../Include/Vec128.h **** 
  63:../../Include/Vec128.h ****         for (int i = 0; i < n; i++)
  64:../../Include/Vec128.h ****         {
  65:../../Include/Vec128.h ****             const int w_temp = 16;
  66:../../Include/Vec128.h ****             std::ostringstream oss_temp;
  67:../../Include/Vec128.h **** 
  68:../../Include/Vec128.h ****             oss_temp << std::uppercase << std::hex << std::setfill('0');
  69:../../Include/Vec128.h ****             oss_temp << std::setw(w_temp) << (uint64_t)x[i];
  70:../../Include/Vec128.h ****             std::string s1 = oss_temp.str();
  71:../../Include/Vec128.h ****             std::string s2 = s1.substr(w_temp - sizeof(T) * 2);
  72:../../Include/Vec128.h **** 
  73:../../Include/Vec128.h ****             oss << std::setw(w) << s2;
  74:../../Include/Vec128.h **** 
  75:../../Include/Vec128.h ****             if (i + 1 == n / 2)
  76:../../Include/Vec128.h ****                 oss << "   |";
  77:../../Include/Vec128.h ****         }
  78:../../Include/Vec128.h **** 
  79:../../Include/Vec128.h ****         return oss.str();
  80:../../Include/Vec128.h ****     }
  81:../../Include/Vec128.h **** 
  82:../../Include/Vec128.h ****     template <typename T> std::string ToStringFP(const T* x, int n, int w, int p)
 151              		.loc 4 82 39 is_stmt 1 view -0
 152              		.cfi_startproc
 153              		.cfi_personality 0x9b,DW.ref.__gxx_personality_v0
 154              		.cfi_lsda 0x1b,.LLSDA3045
 155              		.loc 4 82 39 is_stmt 0 view .LVU32
 156 0070 FD7BA3A9 		stp	x29, x30, [sp, -464]!
 157              		.cfi_def_cfa_offset 464
 158              		.cfi_offset 29, -464
 159              		.cfi_offset 30, -456
AARCH64 GAS  obj/Chapter15_2.s 			page 42


 160 0074 FD030091 		mov	x29, sp
 161 0078 F35301A9 		stp	x19, x20, [sp, 16]
 162              		.cfi_offset 19, -448
 163              		.cfi_offset 20, -440
  83:../../Include/Vec128.h ****     {
  84:../../Include/Vec128.h ****         std::ostringstream oss;
 164              		.loc 4 84 28 view .LVU33
 165 007c F4630191 		add	x20, sp, 88
  82:../../Include/Vec128.h ****     {
 166              		.loc 4 82 39 view .LVU34
 167 0080 737C4093 		sxtw	x19, w3
 168 0084 F55B02A9 		stp	x21, x22, [sp, 32]
 169              		.cfi_offset 21, -432
 170              		.cfi_offset 22, -424
 171 0088 F503012A 		mov	w21, w1
 172 008c 567C4093 		sxtw	x22, w2
 173 0090 F76303A9 		stp	x23, x24, [sp, 48]
 174              		.cfi_offset 23, -416
 175              		.cfi_offset 24, -408
 176 0094 F70300AA 		mov	x23, x0
 177              		.loc 4 84 28 view .LVU35
 178 0098 E00314AA 		mov	x0, x20
 179              	.LVL15:
  82:../../Include/Vec128.h ****     {
 180              		.loc 4 82 39 view .LVU36
 181 009c F96B04A9 		stp	x25, x26, [sp, 64]
 182              		.cfi_offset 25, -400
 183              		.cfi_offset 26, -392
  82:../../Include/Vec128.h ****     {
 184              		.loc 4 82 39 view .LVU37
 185 00a0 F90308AA 		mov	x25, x8
 186              	.LVL16:
 187              	.LEHB0:
 188              		.loc 4 84 28 view .LVU38
 189 00a4 00000094 		bl	_ZNSt7__cxx1119basic_ostringstreamIcSt11char_traitsIcESaIcEEC1Ev
 190              	.LVL17:
 191              	.LEHE0:
 192              	.LBB1636:
 193              	.LBI1636:
 127:/usr/include/c++/10/ostream ****       {
 194              		.loc 1 127 7 is_stmt 1 view .LVU39
 195              	.LBB1637:
 132:/usr/include/c++/10/ostream **** 	return *this;
 196              		.loc 1 132 6 is_stmt 0 view .LVU40
 197 00a8 E42F40F9 		ldr	x4, [sp, 88]
 198              	.LBB1638:
 199              	.LBB1639:
 200              	.LBB1640:
 201              	.LBB1641:
 202              	.LBB1642:
 203              	.LBB1643:
 204              		.file 5 "/usr/include/c++/10/bits/ios_base.h"
   1:/usr/include/c++/10/bits/ios_base.h **** // Iostreams base classes -*- C++ -*-
   2:/usr/include/c++/10/bits/ios_base.h **** 
   3:/usr/include/c++/10/bits/ios_base.h **** // Copyright (C) 1997-2020 Free Software Foundation, Inc.
   4:/usr/include/c++/10/bits/ios_base.h **** //
   5:/usr/include/c++/10/bits/ios_base.h **** // This file is part of the GNU ISO C++ Library.  This library is free
AARCH64 GAS  obj/Chapter15_2.s 			page 43


   6:/usr/include/c++/10/bits/ios_base.h **** // software; you can redistribute it and/or modify it under the
   7:/usr/include/c++/10/bits/ios_base.h **** // terms of the GNU General Public License as published by the
   8:/usr/include/c++/10/bits/ios_base.h **** // Free Software Foundation; either version 3, or (at your option)
   9:/usr/include/c++/10/bits/ios_base.h **** // any later version.
  10:/usr/include/c++/10/bits/ios_base.h **** 
  11:/usr/include/c++/10/bits/ios_base.h **** // This library is distributed in the hope that it will be useful,
  12:/usr/include/c++/10/bits/ios_base.h **** // but WITHOUT ANY WARRANTY; without even the implied warranty of
  13:/usr/include/c++/10/bits/ios_base.h **** // MERCHANTABILITY or FITNESS FOR A PARTICULAR PURPOSE.  See the
  14:/usr/include/c++/10/bits/ios_base.h **** // GNU General Public License for more details.
  15:/usr/include/c++/10/bits/ios_base.h **** 
  16:/usr/include/c++/10/bits/ios_base.h **** // Under Section 7 of GPL version 3, you are granted additional
  17:/usr/include/c++/10/bits/ios_base.h **** // permissions described in the GCC Runtime Library Exception, version
  18:/usr/include/c++/10/bits/ios_base.h **** // 3.1, as published by the Free Software Foundation.
  19:/usr/include/c++/10/bits/ios_base.h **** 
  20:/usr/include/c++/10/bits/ios_base.h **** // You should have received a copy of the GNU General Public License and
  21:/usr/include/c++/10/bits/ios_base.h **** // a copy of the GCC Runtime Library Exception along with this program;
  22:/usr/include/c++/10/bits/ios_base.h **** // see the files COPYING3 and COPYING.RUNTIME respectively.  If not, see
  23:/usr/include/c++/10/bits/ios_base.h **** // <http://www.gnu.org/licenses/>.
  24:/usr/include/c++/10/bits/ios_base.h **** 
  25:/usr/include/c++/10/bits/ios_base.h **** /** @file bits/ios_base.h
  26:/usr/include/c++/10/bits/ios_base.h ****  *  This is an internal header file, included by other library headers.
  27:/usr/include/c++/10/bits/ios_base.h ****  *  Do not attempt to use it directly. @headername{ios}
  28:/usr/include/c++/10/bits/ios_base.h ****  */
  29:/usr/include/c++/10/bits/ios_base.h **** 
  30:/usr/include/c++/10/bits/ios_base.h **** //
  31:/usr/include/c++/10/bits/ios_base.h **** // ISO C++ 14882: 27.4  Iostreams base classes
  32:/usr/include/c++/10/bits/ios_base.h **** //
  33:/usr/include/c++/10/bits/ios_base.h **** 
  34:/usr/include/c++/10/bits/ios_base.h **** #ifndef _IOS_BASE_H
  35:/usr/include/c++/10/bits/ios_base.h **** #define _IOS_BASE_H 1
  36:/usr/include/c++/10/bits/ios_base.h **** 
  37:/usr/include/c++/10/bits/ios_base.h **** #pragma GCC system_header
  38:/usr/include/c++/10/bits/ios_base.h **** 
  39:/usr/include/c++/10/bits/ios_base.h **** #include <ext/atomicity.h>
  40:/usr/include/c++/10/bits/ios_base.h **** #include <bits/localefwd.h>
  41:/usr/include/c++/10/bits/ios_base.h **** #include <bits/locale_classes.h>
  42:/usr/include/c++/10/bits/ios_base.h **** 
  43:/usr/include/c++/10/bits/ios_base.h **** #if __cplusplus < 201103L
  44:/usr/include/c++/10/bits/ios_base.h **** # include <stdexcept>
  45:/usr/include/c++/10/bits/ios_base.h **** #else
  46:/usr/include/c++/10/bits/ios_base.h **** # include <system_error>
  47:/usr/include/c++/10/bits/ios_base.h **** #endif
  48:/usr/include/c++/10/bits/ios_base.h **** 
  49:/usr/include/c++/10/bits/ios_base.h **** namespace std _GLIBCXX_VISIBILITY(default)
  50:/usr/include/c++/10/bits/ios_base.h **** {
  51:/usr/include/c++/10/bits/ios_base.h **** _GLIBCXX_BEGIN_NAMESPACE_VERSION
  52:/usr/include/c++/10/bits/ios_base.h **** 
  53:/usr/include/c++/10/bits/ios_base.h ****   // The following definitions of bitmask types are enums, not ints,
  54:/usr/include/c++/10/bits/ios_base.h ****   // as permitted (but not required) in the standard, in order to provide
  55:/usr/include/c++/10/bits/ios_base.h ****   // better type safety in iostream calls.  A side effect is that in C++98
  56:/usr/include/c++/10/bits/ios_base.h ****   // expressions involving them are not compile-time constants.
  57:/usr/include/c++/10/bits/ios_base.h ****   enum _Ios_Fmtflags 
  58:/usr/include/c++/10/bits/ios_base.h ****     { 
  59:/usr/include/c++/10/bits/ios_base.h ****       _S_boolalpha 	= 1L << 0,
  60:/usr/include/c++/10/bits/ios_base.h ****       _S_dec 		= 1L << 1,
  61:/usr/include/c++/10/bits/ios_base.h ****       _S_fixed 		= 1L << 2,
  62:/usr/include/c++/10/bits/ios_base.h ****       _S_hex 		= 1L << 3,
AARCH64 GAS  obj/Chapter15_2.s 			page 44


  63:/usr/include/c++/10/bits/ios_base.h ****       _S_internal 	= 1L << 4,
  64:/usr/include/c++/10/bits/ios_base.h ****       _S_left 		= 1L << 5,
  65:/usr/include/c++/10/bits/ios_base.h ****       _S_oct 		= 1L << 6,
  66:/usr/include/c++/10/bits/ios_base.h ****       _S_right 		= 1L << 7,
  67:/usr/include/c++/10/bits/ios_base.h ****       _S_scientific 	= 1L << 8,
  68:/usr/include/c++/10/bits/ios_base.h ****       _S_showbase 	= 1L << 9,
  69:/usr/include/c++/10/bits/ios_base.h ****       _S_showpoint 	= 1L << 10,
  70:/usr/include/c++/10/bits/ios_base.h ****       _S_showpos 	= 1L << 11,
  71:/usr/include/c++/10/bits/ios_base.h ****       _S_skipws 	= 1L << 12,
  72:/usr/include/c++/10/bits/ios_base.h ****       _S_unitbuf 	= 1L << 13,
  73:/usr/include/c++/10/bits/ios_base.h ****       _S_uppercase 	= 1L << 14,
  74:/usr/include/c++/10/bits/ios_base.h ****       _S_adjustfield 	= _S_left | _S_right | _S_internal,
  75:/usr/include/c++/10/bits/ios_base.h ****       _S_basefield 	= _S_dec | _S_oct | _S_hex,
  76:/usr/include/c++/10/bits/ios_base.h ****       _S_floatfield 	= _S_scientific | _S_fixed,
  77:/usr/include/c++/10/bits/ios_base.h ****       _S_ios_fmtflags_end = 1L << 16,
  78:/usr/include/c++/10/bits/ios_base.h ****       _S_ios_fmtflags_max = __INT_MAX__,
  79:/usr/include/c++/10/bits/ios_base.h ****       _S_ios_fmtflags_min = ~__INT_MAX__
  80:/usr/include/c++/10/bits/ios_base.h ****     };
  81:/usr/include/c++/10/bits/ios_base.h **** 
  82:/usr/include/c++/10/bits/ios_base.h ****   inline _GLIBCXX_CONSTEXPR _Ios_Fmtflags
  83:/usr/include/c++/10/bits/ios_base.h ****   operator&(_Ios_Fmtflags __a, _Ios_Fmtflags __b)
  84:/usr/include/c++/10/bits/ios_base.h ****   { return _Ios_Fmtflags(static_cast<int>(__a) & static_cast<int>(__b)); }
 205              		.loc 5 84 71 view .LVU41
 206 00ac 80208012 		mov	w0, -261
 207              	.LBE1643:
 208              	.LBE1642:
 209              	.LBE1641:
 210              	.LBE1640:
 211              	.LBE1639:
 212              	.LBE1638:
 132:/usr/include/c++/10/ostream **** 	return *this;
 213              		.loc 1 132 6 view .LVU42
 214 00b0 83805EF8 		ldr	x3, [x4, -24]
 215 00b4 8302038B 		add	x3, x20, x3
 216              	.LVL18:
 217              	.LBB1672:
 218              	.LBI1638:
  85:/usr/include/c++/10/bits/ios_base.h **** 
  86:/usr/include/c++/10/bits/ios_base.h ****   inline _GLIBCXX_CONSTEXPR _Ios_Fmtflags
  87:/usr/include/c++/10/bits/ios_base.h ****   operator|(_Ios_Fmtflags __a, _Ios_Fmtflags __b)
  88:/usr/include/c++/10/bits/ios_base.h ****   { return _Ios_Fmtflags(static_cast<int>(__a) | static_cast<int>(__b)); }
  89:/usr/include/c++/10/bits/ios_base.h **** 
  90:/usr/include/c++/10/bits/ios_base.h ****   inline _GLIBCXX_CONSTEXPR _Ios_Fmtflags
  91:/usr/include/c++/10/bits/ios_base.h ****   operator^(_Ios_Fmtflags __a, _Ios_Fmtflags __b)
  92:/usr/include/c++/10/bits/ios_base.h ****   { return _Ios_Fmtflags(static_cast<int>(__a) ^ static_cast<int>(__b)); }
  93:/usr/include/c++/10/bits/ios_base.h **** 
  94:/usr/include/c++/10/bits/ios_base.h ****   inline _GLIBCXX_CONSTEXPR _Ios_Fmtflags
  95:/usr/include/c++/10/bits/ios_base.h ****   operator~(_Ios_Fmtflags __a)
  96:/usr/include/c++/10/bits/ios_base.h ****   { return _Ios_Fmtflags(~static_cast<int>(__a)); }
  97:/usr/include/c++/10/bits/ios_base.h **** 
  98:/usr/include/c++/10/bits/ios_base.h ****   inline const _Ios_Fmtflags&
  99:/usr/include/c++/10/bits/ios_base.h ****   operator|=(_Ios_Fmtflags& __a, _Ios_Fmtflags __b)
 100:/usr/include/c++/10/bits/ios_base.h ****   { return __a = __a | __b; }
 101:/usr/include/c++/10/bits/ios_base.h **** 
 102:/usr/include/c++/10/bits/ios_base.h ****   inline const _Ios_Fmtflags&
 103:/usr/include/c++/10/bits/ios_base.h ****   operator&=(_Ios_Fmtflags& __a, _Ios_Fmtflags __b)
 104:/usr/include/c++/10/bits/ios_base.h ****   { return __a = __a & __b; }
AARCH64 GAS  obj/Chapter15_2.s 			page 45


 105:/usr/include/c++/10/bits/ios_base.h **** 
 106:/usr/include/c++/10/bits/ios_base.h ****   inline const _Ios_Fmtflags&
 107:/usr/include/c++/10/bits/ios_base.h ****   operator^=(_Ios_Fmtflags& __a, _Ios_Fmtflags __b)
 108:/usr/include/c++/10/bits/ios_base.h ****   { return __a = __a ^ __b; }
 109:/usr/include/c++/10/bits/ios_base.h **** 
 110:/usr/include/c++/10/bits/ios_base.h **** 
 111:/usr/include/c++/10/bits/ios_base.h ****   enum _Ios_Openmode 
 112:/usr/include/c++/10/bits/ios_base.h ****     { 
 113:/usr/include/c++/10/bits/ios_base.h ****       _S_app 		= 1L << 0,
 114:/usr/include/c++/10/bits/ios_base.h ****       _S_ate 		= 1L << 1,
 115:/usr/include/c++/10/bits/ios_base.h ****       _S_bin 		= 1L << 2,
 116:/usr/include/c++/10/bits/ios_base.h ****       _S_in 		= 1L << 3,
 117:/usr/include/c++/10/bits/ios_base.h ****       _S_out 		= 1L << 4,
 118:/usr/include/c++/10/bits/ios_base.h ****       _S_trunc 		= 1L << 5,
 119:/usr/include/c++/10/bits/ios_base.h ****       _S_ios_openmode_end = 1L << 16,
 120:/usr/include/c++/10/bits/ios_base.h ****       _S_ios_openmode_max = __INT_MAX__,
 121:/usr/include/c++/10/bits/ios_base.h ****       _S_ios_openmode_min = ~__INT_MAX__
 122:/usr/include/c++/10/bits/ios_base.h ****     };
 123:/usr/include/c++/10/bits/ios_base.h **** 
 124:/usr/include/c++/10/bits/ios_base.h ****   inline _GLIBCXX_CONSTEXPR _Ios_Openmode
 125:/usr/include/c++/10/bits/ios_base.h ****   operator&(_Ios_Openmode __a, _Ios_Openmode __b)
 126:/usr/include/c++/10/bits/ios_base.h ****   { return _Ios_Openmode(static_cast<int>(__a) & static_cast<int>(__b)); }
 127:/usr/include/c++/10/bits/ios_base.h **** 
 128:/usr/include/c++/10/bits/ios_base.h ****   inline _GLIBCXX_CONSTEXPR _Ios_Openmode
 129:/usr/include/c++/10/bits/ios_base.h ****   operator|(_Ios_Openmode __a, _Ios_Openmode __b)
 130:/usr/include/c++/10/bits/ios_base.h ****   { return _Ios_Openmode(static_cast<int>(__a) | static_cast<int>(__b)); }
 131:/usr/include/c++/10/bits/ios_base.h **** 
 132:/usr/include/c++/10/bits/ios_base.h ****   inline _GLIBCXX_CONSTEXPR _Ios_Openmode
 133:/usr/include/c++/10/bits/ios_base.h ****   operator^(_Ios_Openmode __a, _Ios_Openmode __b)
 134:/usr/include/c++/10/bits/ios_base.h ****   { return _Ios_Openmode(static_cast<int>(__a) ^ static_cast<int>(__b)); }
 135:/usr/include/c++/10/bits/ios_base.h **** 
 136:/usr/include/c++/10/bits/ios_base.h ****   inline _GLIBCXX_CONSTEXPR _Ios_Openmode
 137:/usr/include/c++/10/bits/ios_base.h ****   operator~(_Ios_Openmode __a)
 138:/usr/include/c++/10/bits/ios_base.h ****   { return _Ios_Openmode(~static_cast<int>(__a)); }
 139:/usr/include/c++/10/bits/ios_base.h **** 
 140:/usr/include/c++/10/bits/ios_base.h ****   inline const _Ios_Openmode&
 141:/usr/include/c++/10/bits/ios_base.h ****   operator|=(_Ios_Openmode& __a, _Ios_Openmode __b)
 142:/usr/include/c++/10/bits/ios_base.h ****   { return __a = __a | __b; }
 143:/usr/include/c++/10/bits/ios_base.h **** 
 144:/usr/include/c++/10/bits/ios_base.h ****   inline const _Ios_Openmode&
 145:/usr/include/c++/10/bits/ios_base.h ****   operator&=(_Ios_Openmode& __a, _Ios_Openmode __b)
 146:/usr/include/c++/10/bits/ios_base.h ****   { return __a = __a & __b; }
 147:/usr/include/c++/10/bits/ios_base.h **** 
 148:/usr/include/c++/10/bits/ios_base.h ****   inline const _Ios_Openmode&
 149:/usr/include/c++/10/bits/ios_base.h ****   operator^=(_Ios_Openmode& __a, _Ios_Openmode __b)
 150:/usr/include/c++/10/bits/ios_base.h ****   { return __a = __a ^ __b; }
 151:/usr/include/c++/10/bits/ios_base.h **** 
 152:/usr/include/c++/10/bits/ios_base.h **** 
 153:/usr/include/c++/10/bits/ios_base.h ****   enum _Ios_Iostate
 154:/usr/include/c++/10/bits/ios_base.h ****     { 
 155:/usr/include/c++/10/bits/ios_base.h ****       _S_goodbit 		= 0,
 156:/usr/include/c++/10/bits/ios_base.h ****       _S_badbit 		= 1L << 0,
 157:/usr/include/c++/10/bits/ios_base.h ****       _S_eofbit 		= 1L << 1,
 158:/usr/include/c++/10/bits/ios_base.h ****       _S_failbit		= 1L << 2,
 159:/usr/include/c++/10/bits/ios_base.h ****       _S_ios_iostate_end = 1L << 16,
 160:/usr/include/c++/10/bits/ios_base.h ****       _S_ios_iostate_max = __INT_MAX__,
 161:/usr/include/c++/10/bits/ios_base.h ****       _S_ios_iostate_min = ~__INT_MAX__
AARCH64 GAS  obj/Chapter15_2.s 			page 46


 162:/usr/include/c++/10/bits/ios_base.h ****     };
 163:/usr/include/c++/10/bits/ios_base.h **** 
 164:/usr/include/c++/10/bits/ios_base.h ****   inline _GLIBCXX_CONSTEXPR _Ios_Iostate
 165:/usr/include/c++/10/bits/ios_base.h ****   operator&(_Ios_Iostate __a, _Ios_Iostate __b)
 166:/usr/include/c++/10/bits/ios_base.h ****   { return _Ios_Iostate(static_cast<int>(__a) & static_cast<int>(__b)); }
 167:/usr/include/c++/10/bits/ios_base.h **** 
 168:/usr/include/c++/10/bits/ios_base.h ****   inline _GLIBCXX_CONSTEXPR _Ios_Iostate
 169:/usr/include/c++/10/bits/ios_base.h ****   operator|(_Ios_Iostate __a, _Ios_Iostate __b)
 170:/usr/include/c++/10/bits/ios_base.h ****   { return _Ios_Iostate(static_cast<int>(__a) | static_cast<int>(__b)); }
 171:/usr/include/c++/10/bits/ios_base.h **** 
 172:/usr/include/c++/10/bits/ios_base.h ****   inline _GLIBCXX_CONSTEXPR _Ios_Iostate
 173:/usr/include/c++/10/bits/ios_base.h ****   operator^(_Ios_Iostate __a, _Ios_Iostate __b)
 174:/usr/include/c++/10/bits/ios_base.h ****   { return _Ios_Iostate(static_cast<int>(__a) ^ static_cast<int>(__b)); }
 175:/usr/include/c++/10/bits/ios_base.h **** 
 176:/usr/include/c++/10/bits/ios_base.h ****   inline _GLIBCXX_CONSTEXPR _Ios_Iostate
 177:/usr/include/c++/10/bits/ios_base.h ****   operator~(_Ios_Iostate __a)
 178:/usr/include/c++/10/bits/ios_base.h ****   { return _Ios_Iostate(~static_cast<int>(__a)); }
 179:/usr/include/c++/10/bits/ios_base.h **** 
 180:/usr/include/c++/10/bits/ios_base.h ****   inline const _Ios_Iostate&
 181:/usr/include/c++/10/bits/ios_base.h ****   operator|=(_Ios_Iostate& __a, _Ios_Iostate __b)
 182:/usr/include/c++/10/bits/ios_base.h ****   { return __a = __a | __b; }
 183:/usr/include/c++/10/bits/ios_base.h **** 
 184:/usr/include/c++/10/bits/ios_base.h ****   inline const _Ios_Iostate&
 185:/usr/include/c++/10/bits/ios_base.h ****   operator&=(_Ios_Iostate& __a, _Ios_Iostate __b)
 186:/usr/include/c++/10/bits/ios_base.h ****   { return __a = __a & __b; }
 187:/usr/include/c++/10/bits/ios_base.h **** 
 188:/usr/include/c++/10/bits/ios_base.h ****   inline const  _Ios_Iostate&
 189:/usr/include/c++/10/bits/ios_base.h ****   operator^=(_Ios_Iostate& __a, _Ios_Iostate __b)
 190:/usr/include/c++/10/bits/ios_base.h ****   { return __a = __a ^ __b; }
 191:/usr/include/c++/10/bits/ios_base.h **** 
 192:/usr/include/c++/10/bits/ios_base.h **** 
 193:/usr/include/c++/10/bits/ios_base.h ****   enum _Ios_Seekdir 
 194:/usr/include/c++/10/bits/ios_base.h ****     { 
 195:/usr/include/c++/10/bits/ios_base.h ****       _S_beg = 0,
 196:/usr/include/c++/10/bits/ios_base.h ****       _S_cur = _GLIBCXX_STDIO_SEEK_CUR,
 197:/usr/include/c++/10/bits/ios_base.h ****       _S_end = _GLIBCXX_STDIO_SEEK_END,
 198:/usr/include/c++/10/bits/ios_base.h ****       _S_ios_seekdir_end = 1L << 16 
 199:/usr/include/c++/10/bits/ios_base.h ****     };
 200:/usr/include/c++/10/bits/ios_base.h **** 
 201:/usr/include/c++/10/bits/ios_base.h **** #if __cplusplus >= 201103L
 202:/usr/include/c++/10/bits/ios_base.h ****   /// I/O error code
 203:/usr/include/c++/10/bits/ios_base.h ****   enum class io_errc { stream = 1 };
 204:/usr/include/c++/10/bits/ios_base.h **** 
 205:/usr/include/c++/10/bits/ios_base.h ****   template <> struct is_error_code_enum<io_errc> : public true_type { };
 206:/usr/include/c++/10/bits/ios_base.h **** 
 207:/usr/include/c++/10/bits/ios_base.h ****   const error_category& iostream_category() noexcept;
 208:/usr/include/c++/10/bits/ios_base.h **** 
 209:/usr/include/c++/10/bits/ios_base.h ****   inline error_code
 210:/usr/include/c++/10/bits/ios_base.h ****   make_error_code(io_errc __e) noexcept
 211:/usr/include/c++/10/bits/ios_base.h ****   { return error_code(static_cast<int>(__e), iostream_category()); }
 212:/usr/include/c++/10/bits/ios_base.h **** 
 213:/usr/include/c++/10/bits/ios_base.h ****   inline error_condition
 214:/usr/include/c++/10/bits/ios_base.h ****   make_error_condition(io_errc __e) noexcept
 215:/usr/include/c++/10/bits/ios_base.h ****   { return error_condition(static_cast<int>(__e), iostream_category()); }
 216:/usr/include/c++/10/bits/ios_base.h **** #endif
 217:/usr/include/c++/10/bits/ios_base.h **** 
 218:/usr/include/c++/10/bits/ios_base.h ****   // 27.4.2  Class ios_base
AARCH64 GAS  obj/Chapter15_2.s 			page 47


 219:/usr/include/c++/10/bits/ios_base.h ****   /**
 220:/usr/include/c++/10/bits/ios_base.h ****    *  @brief  The base of the I/O class hierarchy.
 221:/usr/include/c++/10/bits/ios_base.h ****    *  @ingroup io
 222:/usr/include/c++/10/bits/ios_base.h ****    *
 223:/usr/include/c++/10/bits/ios_base.h ****    *  This class defines everything that can be defined about I/O that does
 224:/usr/include/c++/10/bits/ios_base.h ****    *  not depend on the type of characters being input or output.  Most
 225:/usr/include/c++/10/bits/ios_base.h ****    *  people will only see @c ios_base when they need to specify the full
 226:/usr/include/c++/10/bits/ios_base.h ****    *  name of the various I/O flags (e.g., the openmodes).
 227:/usr/include/c++/10/bits/ios_base.h ****   */
 228:/usr/include/c++/10/bits/ios_base.h ****   class ios_base
 229:/usr/include/c++/10/bits/ios_base.h ****   {
 230:/usr/include/c++/10/bits/ios_base.h **** #if _GLIBCXX_USE_CXX11_ABI
 231:/usr/include/c++/10/bits/ios_base.h **** #if __cplusplus < 201103L
 232:/usr/include/c++/10/bits/ios_base.h ****     // Type that is layout-compatible with std::system_error
 233:/usr/include/c++/10/bits/ios_base.h ****     struct system_error : std::runtime_error
 234:/usr/include/c++/10/bits/ios_base.h ****     {
 235:/usr/include/c++/10/bits/ios_base.h ****       // Type that is layout-compatible with std::error_code
 236:/usr/include/c++/10/bits/ios_base.h ****       struct error_code
 237:/usr/include/c++/10/bits/ios_base.h ****       {
 238:/usr/include/c++/10/bits/ios_base.h **** 	error_code() { }
 239:/usr/include/c++/10/bits/ios_base.h ****       private:
 240:/usr/include/c++/10/bits/ios_base.h **** 	int		_M_value;
 241:/usr/include/c++/10/bits/ios_base.h **** 	const void*	_M_cat;
 242:/usr/include/c++/10/bits/ios_base.h ****       } _M_code;
 243:/usr/include/c++/10/bits/ios_base.h ****     };
 244:/usr/include/c++/10/bits/ios_base.h **** #endif
 245:/usr/include/c++/10/bits/ios_base.h **** #endif
 246:/usr/include/c++/10/bits/ios_base.h ****   public:
 247:/usr/include/c++/10/bits/ios_base.h **** 
 248:/usr/include/c++/10/bits/ios_base.h ****     /** 
 249:/usr/include/c++/10/bits/ios_base.h ****      *  @brief These are thrown to indicate problems with io.
 250:/usr/include/c++/10/bits/ios_base.h ****      *  @ingroup exceptions
 251:/usr/include/c++/10/bits/ios_base.h ****      *
 252:/usr/include/c++/10/bits/ios_base.h ****      *  27.4.2.1.1  Class ios_base::failure
 253:/usr/include/c++/10/bits/ios_base.h ****      */
 254:/usr/include/c++/10/bits/ios_base.h **** #if _GLIBCXX_USE_CXX11_ABI
 255:/usr/include/c++/10/bits/ios_base.h ****     class _GLIBCXX_ABI_TAG_CXX11 failure : public system_error
 256:/usr/include/c++/10/bits/ios_base.h ****     {
 257:/usr/include/c++/10/bits/ios_base.h ****     public:
 258:/usr/include/c++/10/bits/ios_base.h ****       explicit
 259:/usr/include/c++/10/bits/ios_base.h ****       failure(const string& __str);
 260:/usr/include/c++/10/bits/ios_base.h **** 
 261:/usr/include/c++/10/bits/ios_base.h **** #if __cplusplus >= 201103L
 262:/usr/include/c++/10/bits/ios_base.h ****       explicit
 263:/usr/include/c++/10/bits/ios_base.h ****       failure(const string&, const error_code&);
 264:/usr/include/c++/10/bits/ios_base.h **** 
 265:/usr/include/c++/10/bits/ios_base.h ****       explicit
 266:/usr/include/c++/10/bits/ios_base.h ****       failure(const char*, const error_code& = io_errc::stream);
 267:/usr/include/c++/10/bits/ios_base.h **** #endif
 268:/usr/include/c++/10/bits/ios_base.h **** 
 269:/usr/include/c++/10/bits/ios_base.h ****       virtual
 270:/usr/include/c++/10/bits/ios_base.h ****       ~failure() throw();
 271:/usr/include/c++/10/bits/ios_base.h **** 
 272:/usr/include/c++/10/bits/ios_base.h ****       virtual const char*
 273:/usr/include/c++/10/bits/ios_base.h ****       what() const throw();
 274:/usr/include/c++/10/bits/ios_base.h ****     };
 275:/usr/include/c++/10/bits/ios_base.h **** #else
AARCH64 GAS  obj/Chapter15_2.s 			page 48


 276:/usr/include/c++/10/bits/ios_base.h ****     class failure : public exception
 277:/usr/include/c++/10/bits/ios_base.h ****     {
 278:/usr/include/c++/10/bits/ios_base.h ****     public:
 279:/usr/include/c++/10/bits/ios_base.h ****       // _GLIBCXX_RESOLVE_LIB_DEFECTS
 280:/usr/include/c++/10/bits/ios_base.h ****       // 48.  Use of non-existent exception constructor
 281:/usr/include/c++/10/bits/ios_base.h ****       explicit
 282:/usr/include/c++/10/bits/ios_base.h ****       failure(const string& __str) throw();
 283:/usr/include/c++/10/bits/ios_base.h **** 
 284:/usr/include/c++/10/bits/ios_base.h ****       // This declaration is not useless:
 285:/usr/include/c++/10/bits/ios_base.h ****       // http://gcc.gnu.org/onlinedocs/gcc-4.3.2/gcc/Vague-Linkage.html
 286:/usr/include/c++/10/bits/ios_base.h ****       virtual
 287:/usr/include/c++/10/bits/ios_base.h ****       ~failure() throw();
 288:/usr/include/c++/10/bits/ios_base.h **** 
 289:/usr/include/c++/10/bits/ios_base.h ****       virtual const char*
 290:/usr/include/c++/10/bits/ios_base.h ****       what() const throw();
 291:/usr/include/c++/10/bits/ios_base.h **** 
 292:/usr/include/c++/10/bits/ios_base.h **** #if __cplusplus >= 201103L
 293:/usr/include/c++/10/bits/ios_base.h ****       // Define the new members required by C++11,
 294:/usr/include/c++/10/bits/ios_base.h ****       // even though the error_code cannot be stored.
 295:/usr/include/c++/10/bits/ios_base.h **** 
 296:/usr/include/c++/10/bits/ios_base.h ****       explicit
 297:/usr/include/c++/10/bits/ios_base.h ****       failure(const string& __s, const error_code&) noexcept
 298:/usr/include/c++/10/bits/ios_base.h ****       : failure(__s)
 299:/usr/include/c++/10/bits/ios_base.h ****       { }
 300:/usr/include/c++/10/bits/ios_base.h **** 
 301:/usr/include/c++/10/bits/ios_base.h ****       explicit
 302:/usr/include/c++/10/bits/ios_base.h ****       failure(const char* __s, const error_code& = error_code{})
 303:/usr/include/c++/10/bits/ios_base.h ****       : failure(string(__s))
 304:/usr/include/c++/10/bits/ios_base.h ****       { }
 305:/usr/include/c++/10/bits/ios_base.h **** 
 306:/usr/include/c++/10/bits/ios_base.h ****       // Stand-in for system_error::code() but returning by value.
 307:/usr/include/c++/10/bits/ios_base.h ****       error_code code() const noexcept { return error_code{}; }
 308:/usr/include/c++/10/bits/ios_base.h **** #endif
 309:/usr/include/c++/10/bits/ios_base.h **** 
 310:/usr/include/c++/10/bits/ios_base.h ****     private:
 311:/usr/include/c++/10/bits/ios_base.h ****       string _M_msg;
 312:/usr/include/c++/10/bits/ios_base.h ****     };
 313:/usr/include/c++/10/bits/ios_base.h **** #endif
 314:/usr/include/c++/10/bits/ios_base.h **** 
 315:/usr/include/c++/10/bits/ios_base.h ****     // 27.4.2.1.2  Type ios_base::fmtflags
 316:/usr/include/c++/10/bits/ios_base.h ****     /**
 317:/usr/include/c++/10/bits/ios_base.h ****      *  @brief This is a bitmask type.
 318:/usr/include/c++/10/bits/ios_base.h ****      *
 319:/usr/include/c++/10/bits/ios_base.h ****      *  @c @a _Ios_Fmtflags is implementation-defined, but it is valid to
 320:/usr/include/c++/10/bits/ios_base.h ****      *  perform bitwise operations on these values and expect the Right
 321:/usr/include/c++/10/bits/ios_base.h ****      *  Thing to happen.  Defined objects of type fmtflags are:
 322:/usr/include/c++/10/bits/ios_base.h ****      *  - boolalpha
 323:/usr/include/c++/10/bits/ios_base.h ****      *  - dec
 324:/usr/include/c++/10/bits/ios_base.h ****      *  - fixed
 325:/usr/include/c++/10/bits/ios_base.h ****      *  - hex
 326:/usr/include/c++/10/bits/ios_base.h ****      *  - internal
 327:/usr/include/c++/10/bits/ios_base.h ****      *  - left
 328:/usr/include/c++/10/bits/ios_base.h ****      *  - oct
 329:/usr/include/c++/10/bits/ios_base.h ****      *  - right
 330:/usr/include/c++/10/bits/ios_base.h ****      *  - scientific
 331:/usr/include/c++/10/bits/ios_base.h ****      *  - showbase
 332:/usr/include/c++/10/bits/ios_base.h ****      *  - showpoint
AARCH64 GAS  obj/Chapter15_2.s 			page 49


 333:/usr/include/c++/10/bits/ios_base.h ****      *  - showpos
 334:/usr/include/c++/10/bits/ios_base.h ****      *  - skipws
 335:/usr/include/c++/10/bits/ios_base.h ****      *  - unitbuf
 336:/usr/include/c++/10/bits/ios_base.h ****      *  - uppercase
 337:/usr/include/c++/10/bits/ios_base.h ****      *  - adjustfield
 338:/usr/include/c++/10/bits/ios_base.h ****      *  - basefield
 339:/usr/include/c++/10/bits/ios_base.h ****      *  - floatfield
 340:/usr/include/c++/10/bits/ios_base.h ****     */
 341:/usr/include/c++/10/bits/ios_base.h ****     typedef _Ios_Fmtflags fmtflags;
 342:/usr/include/c++/10/bits/ios_base.h **** 
 343:/usr/include/c++/10/bits/ios_base.h ****     /// Insert/extract @c bool in alphabetic rather than numeric format.
 344:/usr/include/c++/10/bits/ios_base.h ****     static const fmtflags boolalpha =   _S_boolalpha;
 345:/usr/include/c++/10/bits/ios_base.h **** 
 346:/usr/include/c++/10/bits/ios_base.h ****     /// Converts integer input or generates integer output in decimal base.
 347:/usr/include/c++/10/bits/ios_base.h ****     static const fmtflags dec =         _S_dec;
 348:/usr/include/c++/10/bits/ios_base.h **** 
 349:/usr/include/c++/10/bits/ios_base.h ****     /// Generate floating-point output in fixed-point notation.
 350:/usr/include/c++/10/bits/ios_base.h ****     static const fmtflags fixed =       _S_fixed;
 351:/usr/include/c++/10/bits/ios_base.h **** 
 352:/usr/include/c++/10/bits/ios_base.h ****     /// Converts integer input or generates integer output in hexadecimal base.
 353:/usr/include/c++/10/bits/ios_base.h ****     static const fmtflags hex =         _S_hex;
 354:/usr/include/c++/10/bits/ios_base.h **** 
 355:/usr/include/c++/10/bits/ios_base.h ****     /// Adds fill characters at a designated internal point in certain
 356:/usr/include/c++/10/bits/ios_base.h ****     /// generated output, or identical to @c right if no such point is
 357:/usr/include/c++/10/bits/ios_base.h ****     /// designated.
 358:/usr/include/c++/10/bits/ios_base.h ****     static const fmtflags internal =    _S_internal;
 359:/usr/include/c++/10/bits/ios_base.h **** 
 360:/usr/include/c++/10/bits/ios_base.h ****     /// Adds fill characters on the right (final positions) of certain
 361:/usr/include/c++/10/bits/ios_base.h ****     /// generated output.  (I.e., the thing you print is flush left.)
 362:/usr/include/c++/10/bits/ios_base.h ****     static const fmtflags left =        _S_left;
 363:/usr/include/c++/10/bits/ios_base.h **** 
 364:/usr/include/c++/10/bits/ios_base.h ****     /// Converts integer input or generates integer output in octal base.
 365:/usr/include/c++/10/bits/ios_base.h ****     static const fmtflags oct =         _S_oct;
 366:/usr/include/c++/10/bits/ios_base.h **** 
 367:/usr/include/c++/10/bits/ios_base.h ****     /// Adds fill characters on the left (initial positions) of certain
 368:/usr/include/c++/10/bits/ios_base.h ****     /// generated output.  (I.e., the thing you print is flush right.)
 369:/usr/include/c++/10/bits/ios_base.h ****     static const fmtflags right =       _S_right;
 370:/usr/include/c++/10/bits/ios_base.h **** 
 371:/usr/include/c++/10/bits/ios_base.h ****     /// Generates floating-point output in scientific notation.
 372:/usr/include/c++/10/bits/ios_base.h ****     static const fmtflags scientific =  _S_scientific;
 373:/usr/include/c++/10/bits/ios_base.h **** 
 374:/usr/include/c++/10/bits/ios_base.h ****     /// Generates a prefix indicating the numeric base of generated integer
 375:/usr/include/c++/10/bits/ios_base.h ****     /// output.
 376:/usr/include/c++/10/bits/ios_base.h ****     static const fmtflags showbase =    _S_showbase;
 377:/usr/include/c++/10/bits/ios_base.h **** 
 378:/usr/include/c++/10/bits/ios_base.h ****     /// Generates a decimal-point character unconditionally in generated
 379:/usr/include/c++/10/bits/ios_base.h ****     /// floating-point output.
 380:/usr/include/c++/10/bits/ios_base.h ****     static const fmtflags showpoint =   _S_showpoint;
 381:/usr/include/c++/10/bits/ios_base.h **** 
 382:/usr/include/c++/10/bits/ios_base.h ****     /// Generates a + sign in non-negative generated numeric output.
 383:/usr/include/c++/10/bits/ios_base.h ****     static const fmtflags showpos =     _S_showpos;
 384:/usr/include/c++/10/bits/ios_base.h **** 
 385:/usr/include/c++/10/bits/ios_base.h ****     /// Skips leading white space before certain input operations.
 386:/usr/include/c++/10/bits/ios_base.h ****     static const fmtflags skipws =      _S_skipws;
 387:/usr/include/c++/10/bits/ios_base.h **** 
 388:/usr/include/c++/10/bits/ios_base.h ****     /// Flushes output after each output operation.
 389:/usr/include/c++/10/bits/ios_base.h ****     static const fmtflags unitbuf =     _S_unitbuf;
AARCH64 GAS  obj/Chapter15_2.s 			page 50


 390:/usr/include/c++/10/bits/ios_base.h **** 
 391:/usr/include/c++/10/bits/ios_base.h ****     /// Replaces certain lowercase letters with their uppercase equivalents
 392:/usr/include/c++/10/bits/ios_base.h ****     /// in generated output.
 393:/usr/include/c++/10/bits/ios_base.h ****     static const fmtflags uppercase =   _S_uppercase;
 394:/usr/include/c++/10/bits/ios_base.h **** 
 395:/usr/include/c++/10/bits/ios_base.h ****     /// A mask of left|right|internal.  Useful for the 2-arg form of @c setf.
 396:/usr/include/c++/10/bits/ios_base.h ****     static const fmtflags adjustfield = _S_adjustfield;
 397:/usr/include/c++/10/bits/ios_base.h **** 
 398:/usr/include/c++/10/bits/ios_base.h ****     /// A mask of dec|oct|hex.  Useful for the 2-arg form of @c setf.
 399:/usr/include/c++/10/bits/ios_base.h ****     static const fmtflags basefield =   _S_basefield;
 400:/usr/include/c++/10/bits/ios_base.h **** 
 401:/usr/include/c++/10/bits/ios_base.h ****     /// A mask of scientific|fixed.  Useful for the 2-arg form of @c setf.
 402:/usr/include/c++/10/bits/ios_base.h ****     static const fmtflags floatfield =  _S_floatfield;
 403:/usr/include/c++/10/bits/ios_base.h **** 
 404:/usr/include/c++/10/bits/ios_base.h ****     // 27.4.2.1.3  Type ios_base::iostate
 405:/usr/include/c++/10/bits/ios_base.h ****     /**
 406:/usr/include/c++/10/bits/ios_base.h ****      *  @brief This is a bitmask type.
 407:/usr/include/c++/10/bits/ios_base.h ****      *
 408:/usr/include/c++/10/bits/ios_base.h ****      *  @c @a _Ios_Iostate is implementation-defined, but it is valid to
 409:/usr/include/c++/10/bits/ios_base.h ****      *  perform bitwise operations on these values and expect the Right
 410:/usr/include/c++/10/bits/ios_base.h ****      *  Thing to happen.  Defined objects of type iostate are:
 411:/usr/include/c++/10/bits/ios_base.h ****      *  - badbit
 412:/usr/include/c++/10/bits/ios_base.h ****      *  - eofbit
 413:/usr/include/c++/10/bits/ios_base.h ****      *  - failbit
 414:/usr/include/c++/10/bits/ios_base.h ****      *  - goodbit
 415:/usr/include/c++/10/bits/ios_base.h ****     */
 416:/usr/include/c++/10/bits/ios_base.h ****     typedef _Ios_Iostate iostate;
 417:/usr/include/c++/10/bits/ios_base.h **** 
 418:/usr/include/c++/10/bits/ios_base.h ****     /// Indicates a loss of integrity in an input or output sequence (such
 419:/usr/include/c++/10/bits/ios_base.h ****     /// as an irrecoverable read error from a file).
 420:/usr/include/c++/10/bits/ios_base.h ****     static const iostate badbit =	_S_badbit;
 421:/usr/include/c++/10/bits/ios_base.h **** 
 422:/usr/include/c++/10/bits/ios_base.h ****     /// Indicates that an input operation reached the end of an input sequence.
 423:/usr/include/c++/10/bits/ios_base.h ****     static const iostate eofbit =	_S_eofbit;
 424:/usr/include/c++/10/bits/ios_base.h **** 
 425:/usr/include/c++/10/bits/ios_base.h ****     /// Indicates that an input operation failed to read the expected
 426:/usr/include/c++/10/bits/ios_base.h ****     /// characters, or that an output operation failed to generate the
 427:/usr/include/c++/10/bits/ios_base.h ****     /// desired characters.
 428:/usr/include/c++/10/bits/ios_base.h ****     static const iostate failbit =	_S_failbit;
 429:/usr/include/c++/10/bits/ios_base.h **** 
 430:/usr/include/c++/10/bits/ios_base.h ****     /// Indicates all is well.
 431:/usr/include/c++/10/bits/ios_base.h ****     static const iostate goodbit =	_S_goodbit;
 432:/usr/include/c++/10/bits/ios_base.h **** 
 433:/usr/include/c++/10/bits/ios_base.h ****     // 27.4.2.1.4  Type ios_base::openmode
 434:/usr/include/c++/10/bits/ios_base.h ****     /**
 435:/usr/include/c++/10/bits/ios_base.h ****      *  @brief This is a bitmask type.
 436:/usr/include/c++/10/bits/ios_base.h ****      *
 437:/usr/include/c++/10/bits/ios_base.h ****      *  @c @a _Ios_Openmode is implementation-defined, but it is valid to
 438:/usr/include/c++/10/bits/ios_base.h ****      *  perform bitwise operations on these values and expect the Right
 439:/usr/include/c++/10/bits/ios_base.h ****      *  Thing to happen.  Defined objects of type openmode are:
 440:/usr/include/c++/10/bits/ios_base.h ****      *  - app
 441:/usr/include/c++/10/bits/ios_base.h ****      *  - ate
 442:/usr/include/c++/10/bits/ios_base.h ****      *  - binary
 443:/usr/include/c++/10/bits/ios_base.h ****      *  - in
 444:/usr/include/c++/10/bits/ios_base.h ****      *  - out
 445:/usr/include/c++/10/bits/ios_base.h ****      *  - trunc
 446:/usr/include/c++/10/bits/ios_base.h ****     */
AARCH64 GAS  obj/Chapter15_2.s 			page 51


 447:/usr/include/c++/10/bits/ios_base.h ****     typedef _Ios_Openmode openmode;
 448:/usr/include/c++/10/bits/ios_base.h **** 
 449:/usr/include/c++/10/bits/ios_base.h ****     /// Seek to end before each write.
 450:/usr/include/c++/10/bits/ios_base.h ****     static const openmode app =		_S_app;
 451:/usr/include/c++/10/bits/ios_base.h **** 
 452:/usr/include/c++/10/bits/ios_base.h ****     /// Open and seek to end immediately after opening.
 453:/usr/include/c++/10/bits/ios_base.h ****     static const openmode ate =		_S_ate;
 454:/usr/include/c++/10/bits/ios_base.h **** 
 455:/usr/include/c++/10/bits/ios_base.h ****     /// Perform input and output in binary mode (as opposed to text mode).
 456:/usr/include/c++/10/bits/ios_base.h ****     /// This is probably not what you think it is; see
 457:/usr/include/c++/10/bits/ios_base.h ****     /// https://gcc.gnu.org/onlinedocs/libstdc++/manual/fstreams.html#std.io.filestreams.binary
 458:/usr/include/c++/10/bits/ios_base.h ****     static const openmode binary =	_S_bin;
 459:/usr/include/c++/10/bits/ios_base.h **** 
 460:/usr/include/c++/10/bits/ios_base.h ****     /// Open for input.  Default for @c ifstream and fstream.
 461:/usr/include/c++/10/bits/ios_base.h ****     static const openmode in =		_S_in;
 462:/usr/include/c++/10/bits/ios_base.h **** 
 463:/usr/include/c++/10/bits/ios_base.h ****     /// Open for output.  Default for @c ofstream and fstream.
 464:/usr/include/c++/10/bits/ios_base.h ****     static const openmode out =		_S_out;
 465:/usr/include/c++/10/bits/ios_base.h **** 
 466:/usr/include/c++/10/bits/ios_base.h ****     /// Truncate an existing stream when opening.  Default for @c ofstream.
 467:/usr/include/c++/10/bits/ios_base.h ****     static const openmode trunc =	_S_trunc;
 468:/usr/include/c++/10/bits/ios_base.h **** 
 469:/usr/include/c++/10/bits/ios_base.h ****     // 27.4.2.1.5  Type ios_base::seekdir
 470:/usr/include/c++/10/bits/ios_base.h ****     /**
 471:/usr/include/c++/10/bits/ios_base.h ****      *  @brief This is an enumerated type.
 472:/usr/include/c++/10/bits/ios_base.h ****      *
 473:/usr/include/c++/10/bits/ios_base.h ****      *  @c @a _Ios_Seekdir is implementation-defined.  Defined values
 474:/usr/include/c++/10/bits/ios_base.h ****      *  of type seekdir are:
 475:/usr/include/c++/10/bits/ios_base.h ****      *  - beg
 476:/usr/include/c++/10/bits/ios_base.h ****      *  - cur, equivalent to @c SEEK_CUR in the C standard library.
 477:/usr/include/c++/10/bits/ios_base.h ****      *  - end, equivalent to @c SEEK_END in the C standard library.
 478:/usr/include/c++/10/bits/ios_base.h ****     */
 479:/usr/include/c++/10/bits/ios_base.h ****     typedef _Ios_Seekdir seekdir;
 480:/usr/include/c++/10/bits/ios_base.h **** 
 481:/usr/include/c++/10/bits/ios_base.h ****     /// Request a seek relative to the beginning of the stream.
 482:/usr/include/c++/10/bits/ios_base.h ****     static const seekdir beg =		_S_beg;
 483:/usr/include/c++/10/bits/ios_base.h **** 
 484:/usr/include/c++/10/bits/ios_base.h ****     /// Request a seek relative to the current position within the sequence.
 485:/usr/include/c++/10/bits/ios_base.h ****     static const seekdir cur =		_S_cur;
 486:/usr/include/c++/10/bits/ios_base.h **** 
 487:/usr/include/c++/10/bits/ios_base.h ****     /// Request a seek relative to the current end of the sequence.
 488:/usr/include/c++/10/bits/ios_base.h ****     static const seekdir end =		_S_end;
 489:/usr/include/c++/10/bits/ios_base.h **** 
 490:/usr/include/c++/10/bits/ios_base.h **** #if __cplusplus <= 201402L
 491:/usr/include/c++/10/bits/ios_base.h ****     // Annex D.6 (removed in C++17)
 492:/usr/include/c++/10/bits/ios_base.h ****     typedef int io_state
 493:/usr/include/c++/10/bits/ios_base.h ****       _GLIBCXX_DEPRECATED_SUGGEST("std::iostate");
 494:/usr/include/c++/10/bits/ios_base.h ****     typedef int open_mode
 495:/usr/include/c++/10/bits/ios_base.h ****       _GLIBCXX_DEPRECATED_SUGGEST("std::openmode");
 496:/usr/include/c++/10/bits/ios_base.h ****     typedef int seek_dir
 497:/usr/include/c++/10/bits/ios_base.h ****       _GLIBCXX_DEPRECATED_SUGGEST("std::seekdir");
 498:/usr/include/c++/10/bits/ios_base.h **** 
 499:/usr/include/c++/10/bits/ios_base.h ****     typedef std::streampos streampos
 500:/usr/include/c++/10/bits/ios_base.h ****       _GLIBCXX_DEPRECATED_SUGGEST("std::streampos");
 501:/usr/include/c++/10/bits/ios_base.h ****     typedef std::streamoff streamoff
 502:/usr/include/c++/10/bits/ios_base.h ****       _GLIBCXX_DEPRECATED_SUGGEST("std::streamoff");
 503:/usr/include/c++/10/bits/ios_base.h **** #endif
AARCH64 GAS  obj/Chapter15_2.s 			page 52


 504:/usr/include/c++/10/bits/ios_base.h **** 
 505:/usr/include/c++/10/bits/ios_base.h ****     // Callbacks;
 506:/usr/include/c++/10/bits/ios_base.h ****     /**
 507:/usr/include/c++/10/bits/ios_base.h ****      *  @brief  The set of events that may be passed to an event callback.
 508:/usr/include/c++/10/bits/ios_base.h ****      *
 509:/usr/include/c++/10/bits/ios_base.h ****      *  erase_event is used during ~ios() and copyfmt().  imbue_event is used
 510:/usr/include/c++/10/bits/ios_base.h ****      *  during imbue().  copyfmt_event is used during copyfmt().
 511:/usr/include/c++/10/bits/ios_base.h ****     */
 512:/usr/include/c++/10/bits/ios_base.h ****     enum event
 513:/usr/include/c++/10/bits/ios_base.h ****     {
 514:/usr/include/c++/10/bits/ios_base.h ****       erase_event,
 515:/usr/include/c++/10/bits/ios_base.h ****       imbue_event,
 516:/usr/include/c++/10/bits/ios_base.h ****       copyfmt_event
 517:/usr/include/c++/10/bits/ios_base.h ****     };
 518:/usr/include/c++/10/bits/ios_base.h **** 
 519:/usr/include/c++/10/bits/ios_base.h ****     /**
 520:/usr/include/c++/10/bits/ios_base.h ****      *  @brief  The type of an event callback function.
 521:/usr/include/c++/10/bits/ios_base.h ****      *  @param  __e  One of the members of the event enum.
 522:/usr/include/c++/10/bits/ios_base.h ****      *  @param  __b  Reference to the ios_base object.
 523:/usr/include/c++/10/bits/ios_base.h ****      *  @param  __i  The integer provided when the callback was registered.
 524:/usr/include/c++/10/bits/ios_base.h ****      *
 525:/usr/include/c++/10/bits/ios_base.h ****      *  Event callbacks are user defined functions that get called during
 526:/usr/include/c++/10/bits/ios_base.h ****      *  several ios_base and basic_ios functions, specifically imbue(),
 527:/usr/include/c++/10/bits/ios_base.h ****      *  copyfmt(), and ~ios().
 528:/usr/include/c++/10/bits/ios_base.h ****     */
 529:/usr/include/c++/10/bits/ios_base.h ****     typedef void (*event_callback) (event __e, ios_base& __b, int __i);
 530:/usr/include/c++/10/bits/ios_base.h **** 
 531:/usr/include/c++/10/bits/ios_base.h ****     /**
 532:/usr/include/c++/10/bits/ios_base.h ****      *  @brief  Add the callback __fn with parameter __index.
 533:/usr/include/c++/10/bits/ios_base.h ****      *  @param  __fn  The function to add.
 534:/usr/include/c++/10/bits/ios_base.h ****      *  @param  __index  The integer to pass to the function when invoked.
 535:/usr/include/c++/10/bits/ios_base.h ****      *
 536:/usr/include/c++/10/bits/ios_base.h ****      *  Registers a function as an event callback with an integer parameter to
 537:/usr/include/c++/10/bits/ios_base.h ****      *  be passed to the function when invoked.  Multiple copies of the
 538:/usr/include/c++/10/bits/ios_base.h ****      *  function are allowed.  If there are multiple callbacks, they are
 539:/usr/include/c++/10/bits/ios_base.h ****      *  invoked in the order they were registered.
 540:/usr/include/c++/10/bits/ios_base.h ****     */
 541:/usr/include/c++/10/bits/ios_base.h ****     void
 542:/usr/include/c++/10/bits/ios_base.h ****     register_callback(event_callback __fn, int __index);
 543:/usr/include/c++/10/bits/ios_base.h **** 
 544:/usr/include/c++/10/bits/ios_base.h ****   protected:
 545:/usr/include/c++/10/bits/ios_base.h ****     streamsize		_M_precision;
 546:/usr/include/c++/10/bits/ios_base.h ****     streamsize		_M_width;
 547:/usr/include/c++/10/bits/ios_base.h ****     fmtflags		_M_flags;
 548:/usr/include/c++/10/bits/ios_base.h ****     iostate		_M_exception;
 549:/usr/include/c++/10/bits/ios_base.h ****     iostate		_M_streambuf_state;
 550:/usr/include/c++/10/bits/ios_base.h **** 
 551:/usr/include/c++/10/bits/ios_base.h ****     // 27.4.2.6  Members for callbacks
 552:/usr/include/c++/10/bits/ios_base.h ****     // 27.4.2.6  ios_base callbacks
 553:/usr/include/c++/10/bits/ios_base.h ****     struct _Callback_list
 554:/usr/include/c++/10/bits/ios_base.h ****     {
 555:/usr/include/c++/10/bits/ios_base.h ****       // Data Members
 556:/usr/include/c++/10/bits/ios_base.h ****       _Callback_list*		_M_next;
 557:/usr/include/c++/10/bits/ios_base.h ****       ios_base::event_callback	_M_fn;
 558:/usr/include/c++/10/bits/ios_base.h ****       int			_M_index;
 559:/usr/include/c++/10/bits/ios_base.h ****       _Atomic_word		_M_refcount;  // 0 means one reference.
 560:/usr/include/c++/10/bits/ios_base.h **** 
AARCH64 GAS  obj/Chapter15_2.s 			page 53


 561:/usr/include/c++/10/bits/ios_base.h ****       _Callback_list(ios_base::event_callback __fn, int __index,
 562:/usr/include/c++/10/bits/ios_base.h **** 		     _Callback_list* __cb)
 563:/usr/include/c++/10/bits/ios_base.h ****       : _M_next(__cb), _M_fn(__fn), _M_index(__index), _M_refcount(0) { }
 564:/usr/include/c++/10/bits/ios_base.h **** 
 565:/usr/include/c++/10/bits/ios_base.h ****       void
 566:/usr/include/c++/10/bits/ios_base.h ****       _M_add_reference() { __gnu_cxx::__atomic_add_dispatch(&_M_refcount, 1); }
 567:/usr/include/c++/10/bits/ios_base.h **** 
 568:/usr/include/c++/10/bits/ios_base.h ****       // 0 => OK to delete.
 569:/usr/include/c++/10/bits/ios_base.h ****       int
 570:/usr/include/c++/10/bits/ios_base.h ****       _M_remove_reference() 
 571:/usr/include/c++/10/bits/ios_base.h ****       {
 572:/usr/include/c++/10/bits/ios_base.h ****         // Be race-detector-friendly.  For more info see bits/c++config.
 573:/usr/include/c++/10/bits/ios_base.h ****         _GLIBCXX_SYNCHRONIZATION_HAPPENS_BEFORE(&_M_refcount);
 574:/usr/include/c++/10/bits/ios_base.h ****         int __res = __gnu_cxx::__exchange_and_add_dispatch(&_M_refcount, -1);
 575:/usr/include/c++/10/bits/ios_base.h ****         if (__res == 0)
 576:/usr/include/c++/10/bits/ios_base.h ****           {
 577:/usr/include/c++/10/bits/ios_base.h ****             _GLIBCXX_SYNCHRONIZATION_HAPPENS_AFTER(&_M_refcount);
 578:/usr/include/c++/10/bits/ios_base.h ****           }
 579:/usr/include/c++/10/bits/ios_base.h ****         return __res;
 580:/usr/include/c++/10/bits/ios_base.h ****       }
 581:/usr/include/c++/10/bits/ios_base.h ****     };
 582:/usr/include/c++/10/bits/ios_base.h **** 
 583:/usr/include/c++/10/bits/ios_base.h ****      _Callback_list*	_M_callbacks;
 584:/usr/include/c++/10/bits/ios_base.h **** 
 585:/usr/include/c++/10/bits/ios_base.h ****     void
 586:/usr/include/c++/10/bits/ios_base.h ****     _M_call_callbacks(event __ev) throw();
 587:/usr/include/c++/10/bits/ios_base.h **** 
 588:/usr/include/c++/10/bits/ios_base.h ****     void
 589:/usr/include/c++/10/bits/ios_base.h ****     _M_dispose_callbacks(void) throw();
 590:/usr/include/c++/10/bits/ios_base.h **** 
 591:/usr/include/c++/10/bits/ios_base.h ****     // 27.4.2.5  Members for iword/pword storage
 592:/usr/include/c++/10/bits/ios_base.h ****     struct _Words
 593:/usr/include/c++/10/bits/ios_base.h ****     {
 594:/usr/include/c++/10/bits/ios_base.h ****       void*	_M_pword;
 595:/usr/include/c++/10/bits/ios_base.h ****       long	_M_iword;
 596:/usr/include/c++/10/bits/ios_base.h ****       _Words() : _M_pword(0), _M_iword(0) { }
 597:/usr/include/c++/10/bits/ios_base.h ****     };
 598:/usr/include/c++/10/bits/ios_base.h **** 
 599:/usr/include/c++/10/bits/ios_base.h ****     // Only for failed iword/pword calls.
 600:/usr/include/c++/10/bits/ios_base.h ****     _Words		_M_word_zero;
 601:/usr/include/c++/10/bits/ios_base.h **** 
 602:/usr/include/c++/10/bits/ios_base.h ****     // Guaranteed storage.
 603:/usr/include/c++/10/bits/ios_base.h ****     // The first 5 iword and pword slots are reserved for internal use.
 604:/usr/include/c++/10/bits/ios_base.h ****     enum { _S_local_word_size = 8 };
 605:/usr/include/c++/10/bits/ios_base.h ****     _Words		_M_local_word[_S_local_word_size];
 606:/usr/include/c++/10/bits/ios_base.h **** 
 607:/usr/include/c++/10/bits/ios_base.h ****     // Allocated storage.
 608:/usr/include/c++/10/bits/ios_base.h ****     int			_M_word_size;
 609:/usr/include/c++/10/bits/ios_base.h ****     _Words*		_M_word;
 610:/usr/include/c++/10/bits/ios_base.h **** 
 611:/usr/include/c++/10/bits/ios_base.h ****     _Words&
 612:/usr/include/c++/10/bits/ios_base.h ****     _M_grow_words(int __index, bool __iword);
 613:/usr/include/c++/10/bits/ios_base.h **** 
 614:/usr/include/c++/10/bits/ios_base.h ****     // Members for locale and locale caching.
 615:/usr/include/c++/10/bits/ios_base.h ****     locale		_M_ios_locale;
 616:/usr/include/c++/10/bits/ios_base.h **** 
 617:/usr/include/c++/10/bits/ios_base.h ****     void
AARCH64 GAS  obj/Chapter15_2.s 			page 54


 618:/usr/include/c++/10/bits/ios_base.h ****     _M_init() throw();
 619:/usr/include/c++/10/bits/ios_base.h **** 
 620:/usr/include/c++/10/bits/ios_base.h ****   public:
 621:/usr/include/c++/10/bits/ios_base.h **** 
 622:/usr/include/c++/10/bits/ios_base.h ****     // 27.4.2.1.6  Class ios_base::Init
 623:/usr/include/c++/10/bits/ios_base.h ****     // Used to initialize standard streams. In theory, g++ could use
 624:/usr/include/c++/10/bits/ios_base.h ****     // -finit-priority to order this stuff correctly without going
 625:/usr/include/c++/10/bits/ios_base.h ****     // through these machinations.
 626:/usr/include/c++/10/bits/ios_base.h ****     class Init
 627:/usr/include/c++/10/bits/ios_base.h ****     {
 628:/usr/include/c++/10/bits/ios_base.h ****       friend class ios_base;
 629:/usr/include/c++/10/bits/ios_base.h ****     public:
 630:/usr/include/c++/10/bits/ios_base.h ****       Init();
 631:/usr/include/c++/10/bits/ios_base.h ****       ~Init();
 632:/usr/include/c++/10/bits/ios_base.h **** 
 633:/usr/include/c++/10/bits/ios_base.h **** #if __cplusplus >= 201103L
 634:/usr/include/c++/10/bits/ios_base.h ****       Init(const Init&) = default;
 635:/usr/include/c++/10/bits/ios_base.h ****       Init& operator=(const Init&) = default;
 636:/usr/include/c++/10/bits/ios_base.h **** #endif
 637:/usr/include/c++/10/bits/ios_base.h **** 
 638:/usr/include/c++/10/bits/ios_base.h ****     private:
 639:/usr/include/c++/10/bits/ios_base.h ****       static _Atomic_word	_S_refcount;
 640:/usr/include/c++/10/bits/ios_base.h ****       static bool		_S_synced_with_stdio;
 641:/usr/include/c++/10/bits/ios_base.h ****     };
 642:/usr/include/c++/10/bits/ios_base.h **** 
 643:/usr/include/c++/10/bits/ios_base.h ****     // [27.4.2.2] fmtflags state functions
 644:/usr/include/c++/10/bits/ios_base.h ****     /**
 645:/usr/include/c++/10/bits/ios_base.h ****      *  @brief  Access to format flags.
 646:/usr/include/c++/10/bits/ios_base.h ****      *  @return  The format control flags for both input and output.
 647:/usr/include/c++/10/bits/ios_base.h ****     */
 648:/usr/include/c++/10/bits/ios_base.h ****     fmtflags
 649:/usr/include/c++/10/bits/ios_base.h ****     flags() const
 650:/usr/include/c++/10/bits/ios_base.h ****     { return _M_flags; }
 651:/usr/include/c++/10/bits/ios_base.h **** 
 652:/usr/include/c++/10/bits/ios_base.h ****     /**
 653:/usr/include/c++/10/bits/ios_base.h ****      *  @brief  Setting new format flags all at once.
 654:/usr/include/c++/10/bits/ios_base.h ****      *  @param  __fmtfl  The new flags to set.
 655:/usr/include/c++/10/bits/ios_base.h ****      *  @return  The previous format control flags.
 656:/usr/include/c++/10/bits/ios_base.h ****      *
 657:/usr/include/c++/10/bits/ios_base.h ****      *  This function overwrites all the format flags with @a __fmtfl.
 658:/usr/include/c++/10/bits/ios_base.h ****     */
 659:/usr/include/c++/10/bits/ios_base.h ****     fmtflags
 660:/usr/include/c++/10/bits/ios_base.h ****     flags(fmtflags __fmtfl)
 661:/usr/include/c++/10/bits/ios_base.h ****     {
 662:/usr/include/c++/10/bits/ios_base.h ****       fmtflags __old = _M_flags;
 663:/usr/include/c++/10/bits/ios_base.h ****       _M_flags = __fmtfl;
 664:/usr/include/c++/10/bits/ios_base.h ****       return __old;
 665:/usr/include/c++/10/bits/ios_base.h ****     }
 666:/usr/include/c++/10/bits/ios_base.h **** 
 667:/usr/include/c++/10/bits/ios_base.h ****     /**
 668:/usr/include/c++/10/bits/ios_base.h ****      *  @brief  Setting new format flags.
 669:/usr/include/c++/10/bits/ios_base.h ****      *  @param  __fmtfl  Additional flags to set.
 670:/usr/include/c++/10/bits/ios_base.h ****      *  @return  The previous format control flags.
 671:/usr/include/c++/10/bits/ios_base.h ****      *
 672:/usr/include/c++/10/bits/ios_base.h ****      *  This function sets additional flags in format control.  Flags that
 673:/usr/include/c++/10/bits/ios_base.h ****      *  were previously set remain set.
 674:/usr/include/c++/10/bits/ios_base.h ****     */
AARCH64 GAS  obj/Chapter15_2.s 			page 55


 675:/usr/include/c++/10/bits/ios_base.h ****     fmtflags
 676:/usr/include/c++/10/bits/ios_base.h ****     setf(fmtflags __fmtfl)
 677:/usr/include/c++/10/bits/ios_base.h ****     {
 678:/usr/include/c++/10/bits/ios_base.h ****       fmtflags __old = _M_flags;
 679:/usr/include/c++/10/bits/ios_base.h ****       _M_flags |= __fmtfl;
 680:/usr/include/c++/10/bits/ios_base.h ****       return __old;
 681:/usr/include/c++/10/bits/ios_base.h ****     }
 682:/usr/include/c++/10/bits/ios_base.h **** 
 683:/usr/include/c++/10/bits/ios_base.h ****     /**
 684:/usr/include/c++/10/bits/ios_base.h ****      *  @brief  Setting new format flags.
 685:/usr/include/c++/10/bits/ios_base.h ****      *  @param  __fmtfl  Additional flags to set.
 686:/usr/include/c++/10/bits/ios_base.h ****      *  @param  __mask  The flags mask for @a fmtfl.
 687:/usr/include/c++/10/bits/ios_base.h ****      *  @return  The previous format control flags.
 688:/usr/include/c++/10/bits/ios_base.h ****      *
 689:/usr/include/c++/10/bits/ios_base.h ****      *  This function clears @a mask in the format flags, then sets
 690:/usr/include/c++/10/bits/ios_base.h ****      *  @a fmtfl @c & @a mask.  An example mask is @c ios_base::adjustfield.
 691:/usr/include/c++/10/bits/ios_base.h ****     */
 692:/usr/include/c++/10/bits/ios_base.h ****     fmtflags
 693:/usr/include/c++/10/bits/ios_base.h ****     setf(fmtflags __fmtfl, fmtflags __mask)
 694:/usr/include/c++/10/bits/ios_base.h ****     {
 695:/usr/include/c++/10/bits/ios_base.h ****       fmtflags __old = _M_flags;
 696:/usr/include/c++/10/bits/ios_base.h ****       _M_flags &= ~__mask;
 697:/usr/include/c++/10/bits/ios_base.h ****       _M_flags |= (__fmtfl & __mask);
 698:/usr/include/c++/10/bits/ios_base.h ****       return __old;
 699:/usr/include/c++/10/bits/ios_base.h ****     }
 700:/usr/include/c++/10/bits/ios_base.h **** 
 701:/usr/include/c++/10/bits/ios_base.h ****     /**
 702:/usr/include/c++/10/bits/ios_base.h ****      *  @brief  Clearing format flags.
 703:/usr/include/c++/10/bits/ios_base.h ****      *  @param  __mask  The flags to unset.
 704:/usr/include/c++/10/bits/ios_base.h ****      *
 705:/usr/include/c++/10/bits/ios_base.h ****      *  This function clears @a __mask in the format flags.
 706:/usr/include/c++/10/bits/ios_base.h ****     */
 707:/usr/include/c++/10/bits/ios_base.h ****     void
 708:/usr/include/c++/10/bits/ios_base.h ****     unsetf(fmtflags __mask)
 709:/usr/include/c++/10/bits/ios_base.h ****     { _M_flags &= ~__mask; }
 710:/usr/include/c++/10/bits/ios_base.h **** 
 711:/usr/include/c++/10/bits/ios_base.h ****     /**
 712:/usr/include/c++/10/bits/ios_base.h ****      *  @brief  Flags access.
 713:/usr/include/c++/10/bits/ios_base.h ****      *  @return  The precision to generate on certain output operations.
 714:/usr/include/c++/10/bits/ios_base.h ****      *
 715:/usr/include/c++/10/bits/ios_base.h ****      *  Be careful if you try to give a definition of @a precision here; see
 716:/usr/include/c++/10/bits/ios_base.h ****      *  DR 189.
 717:/usr/include/c++/10/bits/ios_base.h ****     */
 718:/usr/include/c++/10/bits/ios_base.h ****     streamsize
 719:/usr/include/c++/10/bits/ios_base.h ****     precision() const
 720:/usr/include/c++/10/bits/ios_base.h ****     { return _M_precision; }
 721:/usr/include/c++/10/bits/ios_base.h **** 
 722:/usr/include/c++/10/bits/ios_base.h ****     /**
 723:/usr/include/c++/10/bits/ios_base.h ****      *  @brief  Changing flags.
 724:/usr/include/c++/10/bits/ios_base.h ****      *  @param  __prec  The new precision value.
 725:/usr/include/c++/10/bits/ios_base.h ****      *  @return  The previous value of precision().
 726:/usr/include/c++/10/bits/ios_base.h ****     */
 727:/usr/include/c++/10/bits/ios_base.h ****     streamsize
 728:/usr/include/c++/10/bits/ios_base.h ****     precision(streamsize __prec)
 729:/usr/include/c++/10/bits/ios_base.h ****     {
 730:/usr/include/c++/10/bits/ios_base.h ****       streamsize __old = _M_precision;
 731:/usr/include/c++/10/bits/ios_base.h ****       _M_precision = __prec;
AARCH64 GAS  obj/Chapter15_2.s 			page 56


 732:/usr/include/c++/10/bits/ios_base.h ****       return __old;
 733:/usr/include/c++/10/bits/ios_base.h ****     }
 734:/usr/include/c++/10/bits/ios_base.h **** 
 735:/usr/include/c++/10/bits/ios_base.h ****     /**
 736:/usr/include/c++/10/bits/ios_base.h ****      *  @brief  Flags access.
 737:/usr/include/c++/10/bits/ios_base.h ****      *  @return  The minimum field width to generate on output operations.
 738:/usr/include/c++/10/bits/ios_base.h ****      *
 739:/usr/include/c++/10/bits/ios_base.h ****      *  <em>Minimum field width</em> refers to the number of characters.
 740:/usr/include/c++/10/bits/ios_base.h ****     */
 741:/usr/include/c++/10/bits/ios_base.h ****     streamsize
 742:/usr/include/c++/10/bits/ios_base.h ****     width() const
 743:/usr/include/c++/10/bits/ios_base.h ****     { return _M_width; }
 744:/usr/include/c++/10/bits/ios_base.h **** 
 745:/usr/include/c++/10/bits/ios_base.h ****     /**
 746:/usr/include/c++/10/bits/ios_base.h ****      *  @brief  Changing flags.
 747:/usr/include/c++/10/bits/ios_base.h ****      *  @param  __wide  The new width value.
 748:/usr/include/c++/10/bits/ios_base.h ****      *  @return  The previous value of width().
 749:/usr/include/c++/10/bits/ios_base.h ****     */
 750:/usr/include/c++/10/bits/ios_base.h ****     streamsize
 751:/usr/include/c++/10/bits/ios_base.h ****     width(streamsize __wide)
 752:/usr/include/c++/10/bits/ios_base.h ****     {
 753:/usr/include/c++/10/bits/ios_base.h ****       streamsize __old = _M_width;
 754:/usr/include/c++/10/bits/ios_base.h ****       _M_width = __wide;
 755:/usr/include/c++/10/bits/ios_base.h ****       return __old;
 756:/usr/include/c++/10/bits/ios_base.h ****     }
 757:/usr/include/c++/10/bits/ios_base.h **** 
 758:/usr/include/c++/10/bits/ios_base.h ****     // [27.4.2.4] ios_base static members
 759:/usr/include/c++/10/bits/ios_base.h ****     /**
 760:/usr/include/c++/10/bits/ios_base.h ****      *  @brief  Interaction with the standard C I/O objects.
 761:/usr/include/c++/10/bits/ios_base.h ****      *  @param  __sync  Whether to synchronize or not.
 762:/usr/include/c++/10/bits/ios_base.h ****      *  @return  True if the standard streams were previously synchronized.
 763:/usr/include/c++/10/bits/ios_base.h ****      *
 764:/usr/include/c++/10/bits/ios_base.h ****      *  The synchronization referred to is @e only that between the standard
 765:/usr/include/c++/10/bits/ios_base.h ****      *  C facilities (e.g., stdout) and the standard C++ objects (e.g.,
 766:/usr/include/c++/10/bits/ios_base.h ****      *  cout).  User-declared streams are unaffected.  See
 767:/usr/include/c++/10/bits/ios_base.h ****      *  https://gcc.gnu.org/onlinedocs/libstdc++/manual/fstreams.html#std.io.filestreams.binary
 768:/usr/include/c++/10/bits/ios_base.h ****     */
 769:/usr/include/c++/10/bits/ios_base.h ****     static bool
 770:/usr/include/c++/10/bits/ios_base.h ****     sync_with_stdio(bool __sync = true);
 771:/usr/include/c++/10/bits/ios_base.h **** 
 772:/usr/include/c++/10/bits/ios_base.h ****     // [27.4.2.3] ios_base locale functions
 773:/usr/include/c++/10/bits/ios_base.h ****     /**
 774:/usr/include/c++/10/bits/ios_base.h ****      *  @brief  Setting a new locale.
 775:/usr/include/c++/10/bits/ios_base.h ****      *  @param  __loc  The new locale.
 776:/usr/include/c++/10/bits/ios_base.h ****      *  @return  The previous locale.
 777:/usr/include/c++/10/bits/ios_base.h ****      *
 778:/usr/include/c++/10/bits/ios_base.h ****      *  Sets the new locale for this stream, and then invokes each callback
 779:/usr/include/c++/10/bits/ios_base.h ****      *  with imbue_event.
 780:/usr/include/c++/10/bits/ios_base.h ****     */
 781:/usr/include/c++/10/bits/ios_base.h ****     locale
 782:/usr/include/c++/10/bits/ios_base.h ****     imbue(const locale& __loc) throw();
 783:/usr/include/c++/10/bits/ios_base.h **** 
 784:/usr/include/c++/10/bits/ios_base.h ****     /**
 785:/usr/include/c++/10/bits/ios_base.h ****      *  @brief  Locale access
 786:/usr/include/c++/10/bits/ios_base.h ****      *  @return  A copy of the current locale.
 787:/usr/include/c++/10/bits/ios_base.h ****      *
 788:/usr/include/c++/10/bits/ios_base.h ****      *  If @c imbue(loc) has previously been called, then this function
AARCH64 GAS  obj/Chapter15_2.s 			page 57


 789:/usr/include/c++/10/bits/ios_base.h ****      *  returns @c loc.  Otherwise, it returns a copy of @c std::locale(),
 790:/usr/include/c++/10/bits/ios_base.h ****      *  the global C++ locale.
 791:/usr/include/c++/10/bits/ios_base.h ****     */
 792:/usr/include/c++/10/bits/ios_base.h ****     locale
 793:/usr/include/c++/10/bits/ios_base.h ****     getloc() const
 794:/usr/include/c++/10/bits/ios_base.h ****     { return _M_ios_locale; }
 795:/usr/include/c++/10/bits/ios_base.h **** 
 796:/usr/include/c++/10/bits/ios_base.h ****     /**
 797:/usr/include/c++/10/bits/ios_base.h ****      *  @brief  Locale access
 798:/usr/include/c++/10/bits/ios_base.h ****      *  @return  A reference to the current locale.
 799:/usr/include/c++/10/bits/ios_base.h ****      *
 800:/usr/include/c++/10/bits/ios_base.h ****      *  Like getloc above, but returns a reference instead of
 801:/usr/include/c++/10/bits/ios_base.h ****      *  generating a copy.
 802:/usr/include/c++/10/bits/ios_base.h ****     */
 803:/usr/include/c++/10/bits/ios_base.h ****     const locale&
 804:/usr/include/c++/10/bits/ios_base.h ****     _M_getloc() const
 805:/usr/include/c++/10/bits/ios_base.h ****     { return _M_ios_locale; }
 806:/usr/include/c++/10/bits/ios_base.h **** 
 807:/usr/include/c++/10/bits/ios_base.h ****     // [27.4.2.5] ios_base storage functions
 808:/usr/include/c++/10/bits/ios_base.h ****     /**
 809:/usr/include/c++/10/bits/ios_base.h ****      *  @brief  Access to unique indices.
 810:/usr/include/c++/10/bits/ios_base.h ****      *  @return  An integer different from all previous calls.
 811:/usr/include/c++/10/bits/ios_base.h ****      *
 812:/usr/include/c++/10/bits/ios_base.h ****      *  This function returns a unique integer every time it is called.  It
 813:/usr/include/c++/10/bits/ios_base.h ****      *  can be used for any purpose, but is primarily intended to be a unique
 814:/usr/include/c++/10/bits/ios_base.h ****      *  index for the iword and pword functions.  The expectation is that an
 815:/usr/include/c++/10/bits/ios_base.h ****      *  application calls xalloc in order to obtain an index in the iword and
 816:/usr/include/c++/10/bits/ios_base.h ****      *  pword arrays that can be used without fear of conflict.
 817:/usr/include/c++/10/bits/ios_base.h ****      *
 818:/usr/include/c++/10/bits/ios_base.h ****      *  The implementation maintains a static variable that is incremented and
 819:/usr/include/c++/10/bits/ios_base.h ****      *  returned on each invocation.  xalloc is guaranteed to return an index
 820:/usr/include/c++/10/bits/ios_base.h ****      *  that is safe to use in the iword and pword arrays.
 821:/usr/include/c++/10/bits/ios_base.h ****     */
 822:/usr/include/c++/10/bits/ios_base.h ****     static int
 823:/usr/include/c++/10/bits/ios_base.h ****     xalloc() throw();
 824:/usr/include/c++/10/bits/ios_base.h **** 
 825:/usr/include/c++/10/bits/ios_base.h ****     /**
 826:/usr/include/c++/10/bits/ios_base.h ****      *  @brief  Access to integer array.
 827:/usr/include/c++/10/bits/ios_base.h ****      *  @param  __ix  Index into the array.
 828:/usr/include/c++/10/bits/ios_base.h ****      *  @return  A reference to an integer associated with the index.
 829:/usr/include/c++/10/bits/ios_base.h ****      *
 830:/usr/include/c++/10/bits/ios_base.h ****      *  The iword function provides access to an array of integers that can be
 831:/usr/include/c++/10/bits/ios_base.h ****      *  used for any purpose.  The array grows as required to hold the
 832:/usr/include/c++/10/bits/ios_base.h ****      *  supplied index.  All integers in the array are initialized to 0.
 833:/usr/include/c++/10/bits/ios_base.h ****      *
 834:/usr/include/c++/10/bits/ios_base.h ****      *  The implementation reserves several indices.  You should use xalloc to
 835:/usr/include/c++/10/bits/ios_base.h ****      *  obtain an index that is safe to use.  Also note that since the array
 836:/usr/include/c++/10/bits/ios_base.h ****      *  can grow dynamically, it is not safe to hold onto the reference.
 837:/usr/include/c++/10/bits/ios_base.h ****     */
 838:/usr/include/c++/10/bits/ios_base.h ****     long&
 839:/usr/include/c++/10/bits/ios_base.h ****     iword(int __ix)
 840:/usr/include/c++/10/bits/ios_base.h ****     {
 841:/usr/include/c++/10/bits/ios_base.h ****       _Words& __word = ((unsigned)__ix < (unsigned)_M_word_size)
 842:/usr/include/c++/10/bits/ios_base.h **** 			? _M_word[__ix] : _M_grow_words(__ix, true);
 843:/usr/include/c++/10/bits/ios_base.h ****       return __word._M_iword;
 844:/usr/include/c++/10/bits/ios_base.h ****     }
 845:/usr/include/c++/10/bits/ios_base.h **** 
AARCH64 GAS  obj/Chapter15_2.s 			page 58


 846:/usr/include/c++/10/bits/ios_base.h ****     /**
 847:/usr/include/c++/10/bits/ios_base.h ****      *  @brief  Access to void pointer array.
 848:/usr/include/c++/10/bits/ios_base.h ****      *  @param  __ix  Index into the array.
 849:/usr/include/c++/10/bits/ios_base.h ****      *  @return  A reference to a void* associated with the index.
 850:/usr/include/c++/10/bits/ios_base.h ****      *
 851:/usr/include/c++/10/bits/ios_base.h ****      *  The pword function provides access to an array of pointers that can be
 852:/usr/include/c++/10/bits/ios_base.h ****      *  used for any purpose.  The array grows as required to hold the
 853:/usr/include/c++/10/bits/ios_base.h ****      *  supplied index.  All pointers in the array are initialized to 0.
 854:/usr/include/c++/10/bits/ios_base.h ****      *
 855:/usr/include/c++/10/bits/ios_base.h ****      *  The implementation reserves several indices.  You should use xalloc to
 856:/usr/include/c++/10/bits/ios_base.h ****      *  obtain an index that is safe to use.  Also note that since the array
 857:/usr/include/c++/10/bits/ios_base.h ****      *  can grow dynamically, it is not safe to hold onto the reference.
 858:/usr/include/c++/10/bits/ios_base.h ****     */
 859:/usr/include/c++/10/bits/ios_base.h ****     void*&
 860:/usr/include/c++/10/bits/ios_base.h ****     pword(int __ix)
 861:/usr/include/c++/10/bits/ios_base.h ****     {
 862:/usr/include/c++/10/bits/ios_base.h ****       _Words& __word = ((unsigned)__ix < (unsigned)_M_word_size)
 863:/usr/include/c++/10/bits/ios_base.h **** 			? _M_word[__ix] : _M_grow_words(__ix, false);
 864:/usr/include/c++/10/bits/ios_base.h ****       return __word._M_pword;
 865:/usr/include/c++/10/bits/ios_base.h ****     }
 866:/usr/include/c++/10/bits/ios_base.h **** 
 867:/usr/include/c++/10/bits/ios_base.h ****     // Destructor
 868:/usr/include/c++/10/bits/ios_base.h ****     /**
 869:/usr/include/c++/10/bits/ios_base.h ****      *  Invokes each callback with erase_event.  Destroys local storage.
 870:/usr/include/c++/10/bits/ios_base.h ****      *
 871:/usr/include/c++/10/bits/ios_base.h ****      *  Note that the ios_base object for the standard streams never gets
 872:/usr/include/c++/10/bits/ios_base.h ****      *  destroyed.  As a result, any callbacks registered with the standard
 873:/usr/include/c++/10/bits/ios_base.h ****      *  streams will not get invoked with erase_event (unless copyfmt is
 874:/usr/include/c++/10/bits/ios_base.h ****      *  used).
 875:/usr/include/c++/10/bits/ios_base.h ****     */
 876:/usr/include/c++/10/bits/ios_base.h ****     virtual ~ios_base();
 877:/usr/include/c++/10/bits/ios_base.h **** 
 878:/usr/include/c++/10/bits/ios_base.h ****   protected:
 879:/usr/include/c++/10/bits/ios_base.h ****     ios_base() throw ();
 880:/usr/include/c++/10/bits/ios_base.h **** 
 881:/usr/include/c++/10/bits/ios_base.h **** #if __cplusplus < 201103L
 882:/usr/include/c++/10/bits/ios_base.h ****   // _GLIBCXX_RESOLVE_LIB_DEFECTS
 883:/usr/include/c++/10/bits/ios_base.h ****   // 50.  Copy constructor and assignment operator of ios_base
 884:/usr/include/c++/10/bits/ios_base.h ****   private:
 885:/usr/include/c++/10/bits/ios_base.h ****     ios_base(const ios_base&);
 886:/usr/include/c++/10/bits/ios_base.h **** 
 887:/usr/include/c++/10/bits/ios_base.h ****     ios_base&
 888:/usr/include/c++/10/bits/ios_base.h ****     operator=(const ios_base&);
 889:/usr/include/c++/10/bits/ios_base.h **** #else
 890:/usr/include/c++/10/bits/ios_base.h ****   public:
 891:/usr/include/c++/10/bits/ios_base.h ****     ios_base(const ios_base&) = delete;
 892:/usr/include/c++/10/bits/ios_base.h **** 
 893:/usr/include/c++/10/bits/ios_base.h ****     ios_base&
 894:/usr/include/c++/10/bits/ios_base.h ****     operator=(const ios_base&) = delete;
 895:/usr/include/c++/10/bits/ios_base.h **** 
 896:/usr/include/c++/10/bits/ios_base.h ****   protected:
 897:/usr/include/c++/10/bits/ios_base.h ****     void
 898:/usr/include/c++/10/bits/ios_base.h ****     _M_move(ios_base&) noexcept;
 899:/usr/include/c++/10/bits/ios_base.h **** 
 900:/usr/include/c++/10/bits/ios_base.h ****     void
 901:/usr/include/c++/10/bits/ios_base.h ****     _M_swap(ios_base& __rhs) noexcept;
 902:/usr/include/c++/10/bits/ios_base.h **** #endif
AARCH64 GAS  obj/Chapter15_2.s 			page 59


 903:/usr/include/c++/10/bits/ios_base.h ****   };
 904:/usr/include/c++/10/bits/ios_base.h **** 
 905:/usr/include/c++/10/bits/ios_base.h ****   // [27.4.5.1] fmtflags manipulators
 906:/usr/include/c++/10/bits/ios_base.h ****   /// Calls base.setf(ios_base::boolalpha).
 907:/usr/include/c++/10/bits/ios_base.h ****   inline ios_base&
 908:/usr/include/c++/10/bits/ios_base.h ****   boolalpha(ios_base& __base)
 909:/usr/include/c++/10/bits/ios_base.h ****   {
 910:/usr/include/c++/10/bits/ios_base.h ****     __base.setf(ios_base::boolalpha);
 911:/usr/include/c++/10/bits/ios_base.h ****     return __base;
 912:/usr/include/c++/10/bits/ios_base.h ****   }
 913:/usr/include/c++/10/bits/ios_base.h **** 
 914:/usr/include/c++/10/bits/ios_base.h ****   /// Calls base.unsetf(ios_base::boolalpha).
 915:/usr/include/c++/10/bits/ios_base.h ****   inline ios_base&
 916:/usr/include/c++/10/bits/ios_base.h ****   noboolalpha(ios_base& __base)
 917:/usr/include/c++/10/bits/ios_base.h ****   {
 918:/usr/include/c++/10/bits/ios_base.h ****     __base.unsetf(ios_base::boolalpha);
 919:/usr/include/c++/10/bits/ios_base.h ****     return __base;
 920:/usr/include/c++/10/bits/ios_base.h ****   }
 921:/usr/include/c++/10/bits/ios_base.h **** 
 922:/usr/include/c++/10/bits/ios_base.h ****   /// Calls base.setf(ios_base::showbase).
 923:/usr/include/c++/10/bits/ios_base.h ****   inline ios_base&
 924:/usr/include/c++/10/bits/ios_base.h ****   showbase(ios_base& __base)
 925:/usr/include/c++/10/bits/ios_base.h ****   {
 926:/usr/include/c++/10/bits/ios_base.h ****     __base.setf(ios_base::showbase);
 927:/usr/include/c++/10/bits/ios_base.h ****     return __base;
 928:/usr/include/c++/10/bits/ios_base.h ****   }
 929:/usr/include/c++/10/bits/ios_base.h **** 
 930:/usr/include/c++/10/bits/ios_base.h ****   /// Calls base.unsetf(ios_base::showbase).
 931:/usr/include/c++/10/bits/ios_base.h ****   inline ios_base&
 932:/usr/include/c++/10/bits/ios_base.h ****   noshowbase(ios_base& __base)
 933:/usr/include/c++/10/bits/ios_base.h ****   {
 934:/usr/include/c++/10/bits/ios_base.h ****     __base.unsetf(ios_base::showbase);
 935:/usr/include/c++/10/bits/ios_base.h ****     return __base;
 936:/usr/include/c++/10/bits/ios_base.h ****   }
 937:/usr/include/c++/10/bits/ios_base.h **** 
 938:/usr/include/c++/10/bits/ios_base.h ****   /// Calls base.setf(ios_base::showpoint).
 939:/usr/include/c++/10/bits/ios_base.h ****   inline ios_base&
 940:/usr/include/c++/10/bits/ios_base.h ****   showpoint(ios_base& __base)
 941:/usr/include/c++/10/bits/ios_base.h ****   {
 942:/usr/include/c++/10/bits/ios_base.h ****     __base.setf(ios_base::showpoint);
 943:/usr/include/c++/10/bits/ios_base.h ****     return __base;
 944:/usr/include/c++/10/bits/ios_base.h ****   }
 945:/usr/include/c++/10/bits/ios_base.h **** 
 946:/usr/include/c++/10/bits/ios_base.h ****   /// Calls base.unsetf(ios_base::showpoint).
 947:/usr/include/c++/10/bits/ios_base.h ****   inline ios_base&
 948:/usr/include/c++/10/bits/ios_base.h ****   noshowpoint(ios_base& __base)
 949:/usr/include/c++/10/bits/ios_base.h ****   {
 950:/usr/include/c++/10/bits/ios_base.h ****     __base.unsetf(ios_base::showpoint);
 951:/usr/include/c++/10/bits/ios_base.h ****     return __base;
 952:/usr/include/c++/10/bits/ios_base.h ****   }
 953:/usr/include/c++/10/bits/ios_base.h **** 
 954:/usr/include/c++/10/bits/ios_base.h ****   /// Calls base.setf(ios_base::showpos).
 955:/usr/include/c++/10/bits/ios_base.h ****   inline ios_base&
 956:/usr/include/c++/10/bits/ios_base.h ****   showpos(ios_base& __base)
 957:/usr/include/c++/10/bits/ios_base.h ****   {
 958:/usr/include/c++/10/bits/ios_base.h ****     __base.setf(ios_base::showpos);
 959:/usr/include/c++/10/bits/ios_base.h ****     return __base;
