	.arch armv8-a
	.file	"Chapter15_2.cpp"
	.text
.Ltext0:
	.align	2
	.p2align 4,,11
	.type	_ZSt4endlIcSt11char_traitsIcEERSt13basic_ostreamIT_T0_ES6_.isra.0, %function
_ZSt4endlIcSt11char_traitsIcEERSt13basic_ostreamIT_T0_ES6_.isra.0:
.LVL0:
.LFB3047:
	.file 1 "/usr/include/c++/10/ostream"
	.loc 1 681 5 view -0
	.cfi_startproc
	.loc 1 681 5 is_stmt 0 view .LVU1
	stp	x29, x30, [sp, -32]!
	.cfi_def_cfa_offset 32
	.cfi_offset 29, -32
	.cfi_offset 30, -24
	mov	x29, sp
	stp	x19, x20, [sp, 16]
	.cfi_offset 19, -16
	.cfi_offset 20, -8
	.loc 1 681 5 view .LVU2
	mov	x19, x0
	.loc 1 682 19 view .LVU3
	ldr	x0, [x0]
.LVL1:
	.loc 1 682 19 view .LVU4
	ldr	x0, [x0, -24]
	add	x0, x19, x0
	ldr	x20, [x0, 240]
.LVL2:
.LBB1591:
.LBI1591:
	.file 2 "/usr/include/c++/10/bits/basic_ios.h"
	.loc 2 449 7 is_stmt 1 view .LVU5
.LBB1592:
.LBI1592:
	.loc 2 47 5 view .LVU6
.LBB1593:
	.loc 2 49 7 is_stmt 0 view .LVU7
	cbz	x20, .L7
.LVL3:
	.loc 2 49 7 view .LVU8
.LBE1593:
.LBE1592:
.LBB1595:
.LBI1595:
	.file 3 "/usr/include/c++/10/bits/locale_facets.h"
	.loc 3 872 7 is_stmt 1 view .LVU9
.LBB1596:
	.loc 3 874 2 view .LVU10
	ldrb	w0, [x20, 56]
.LVL4:
	.loc 3 874 2 is_stmt 0 view .LVU11
	cbz	w0, .L3
	.loc 3 875 4 is_stmt 1 view .LVU12
	.loc 3 875 51 is_stmt 0 view .LVU13
	ldrb	w1, [x20, 67]
.LVL5:
.L4:
	.loc 3 875 51 view .LVU14
.LBE1596:
.LBE1595:
.LBE1591:
	.loc 1 682 19 view .LVU15
	mov	x0, x19
	bl	_ZNSo3putEc
.LVL6:
.LBB1602:
.LBI1602:
	.loc 1 703 5 is_stmt 1 view .LVU16
.LBE1602:
	.loc 1 682 49 is_stmt 0 view .LVU17
	ldp	x19, x20, [sp, 16]
.LVL7:
	.loc 1 682 49 view .LVU18
	ldp	x29, x30, [sp], 32
	.cfi_remember_state
	.cfi_restore 30
	.cfi_restore 29
	.cfi_restore 19
	.cfi_restore 20
	.cfi_def_cfa_offset 0
.LBB1604:
.LBB1603:
	.loc 1 704 24 view .LVU19
	b	_ZNSo5flushEv
.LVL8:
.L3:
	.cfi_restore_state
	.loc 1 704 24 view .LVU20
.LBE1603:
.LBE1604:
.LBB1605:
.LBB1600:
.LBB1599:
.LBB1597:
.LBI1597:
	.loc 3 872 7 is_stmt 1 view .LVU21
.LBB1598:
	.loc 3 876 2 view .LVU22
	.loc 3 876 21 is_stmt 0 view .LVU23
	mov	x0, x20
	bl	_ZNKSt5ctypeIcE13_M_widen_initEv
.LVL9:
	.loc 3 877 2 is_stmt 1 view .LVU24
	.loc 3 877 27 is_stmt 0 view .LVU25
	ldr	x2, [x20]
	.loc 3 877 23 view .LVU26
	mov	w1, 10
	mov	x0, x20
	ldr	x2, [x2, 48]
	blr	x2
.LVL10:
	and	w1, w0, 255
.LVL11:
	.loc 3 877 23 view .LVU27
	b	.L4
.LVL12:
.L7:
	.loc 3 877 23 view .LVU28
.LBE1598:
.LBE1597:
.LBE1599:
.LBE1600:
.LBB1601:
.LBB1594:
	.loc 2 50 18 view .LVU29
	bl	_ZSt16__throw_bad_castv
.LVL13:
	.loc 2 50 18 view .LVU30
.LBE1594:
.LBE1601:
.LBE1605:
	.cfi_endproc
.LFE3047:
	.size	_ZSt4endlIcSt11char_traitsIcEERSt13basic_ostreamIT_T0_ES6_.isra.0, .-_ZSt4endlIcSt11char_traitsIcEERSt13basic_ostreamIT_T0_ES6_.isra.0
	.section	.rodata.str1.8,"aMS",@progbits,1
	.align	3
.LC0:
	.string	"   |"
	.text
	.align	2
	.p2align 4,,11
	.type	_ZN6Vec12810ToStringFPIdEENSt7__cxx1112basic_stringIcSt11char_traitsIcESaIcEEEPKT_iii.isra.0, %function
_ZN6Vec12810ToStringFPIdEENSt7__cxx1112basic_stringIcSt11char_traitsIcESaIcEEEPKT_iii.isra.0:
.LVL14:
.LFB3045:
	.file 4 "../../Include/Vec128.h"
	.loc 4 82 39 is_stmt 1 view -0
	.cfi_startproc
	.cfi_personality 0x9b,DW.ref.__gxx_personality_v0
	.cfi_lsda 0x1b,.LLSDA3045
	.loc 4 82 39 is_stmt 0 view .LVU32
	stp	x29, x30, [sp, -464]!
	.cfi_def_cfa_offset 464
	.cfi_offset 29, -464
	.cfi_offset 30, -456
	mov	x29, sp
	stp	x19, x20, [sp, 16]
	.cfi_offset 19, -448
	.cfi_offset 20, -440
	.loc 4 84 28 view .LVU33
	add	x20, sp, 88
	.loc 4 82 39 view .LVU34
	sxtw	x19, w3
	stp	x21, x22, [sp, 32]
	.cfi_offset 21, -432
	.cfi_offset 22, -424
	mov	w21, w1
	sxtw	x22, w2
	stp	x23, x24, [sp, 48]
	.cfi_offset 23, -416
	.cfi_offset 24, -408
	mov	x23, x0
	.loc 4 84 28 view .LVU35
	mov	x0, x20
.LVL15:
	.loc 4 82 39 view .LVU36
	stp	x25, x26, [sp, 64]
	.cfi_offset 25, -400
	.cfi_offset 26, -392
	.loc 4 82 39 view .LVU37
	mov	x25, x8
.LVL16:
.LEHB0:
	.loc 4 84 28 view .LVU38
	bl	_ZNSt7__cxx1119basic_ostringstreamIcSt11char_traitsIcESaIcEEC1Ev
.LVL17:
.LEHE0:
.LBB1636:
.LBI1636:
	.loc 1 127 7 is_stmt 1 view .LVU39
.LBB1637:
	.loc 1 132 6 is_stmt 0 view .LVU40
	ldr	x4, [sp, 88]
.LBB1638:
.LBB1639:
.LBB1640:
.LBB1641:
.LBB1642:
.LBB1643:
	.file 5 "/usr/include/c++/10/bits/ios_base.h"
	.loc 5 84 71 view .LVU41
	mov	w0, -261
.LBE1643:
.LBE1642:
.LBE1641:
.LBE1640:
.LBE1639:
.LBE1638:
	.loc 1 132 6 view .LVU42
	ldr	x3, [x4, -24]
	add	x3, x20, x3
.LVL18:
.LBB1672:
.LBI1638:
	.loc 5 1071 3 is_stmt 1 view .LVU43
.LBE1672:
.LBE1637:
.LBE1636:
	.loc 5 1073 5 view .LVU44
.LBB1683:
.LBB1678:
.LBB1673:
.LBB1667:
.LBI1639:
	.loc 5 693 5 view .LVU45
.LBB1662:
	.loc 5 695 7 view .LVU46
	.loc 5 696 7 view .LVU47
	.loc 5 696 7 is_stmt 0 view .LVU48
.LBE1662:
.LBE1667:
.LBE1673:
.LBE1678:
.LBE1683:
	.loc 5 96 5 is_stmt 1 view .LVU49
.LBB1684:
.LBB1679:
.LBB1674:
.LBB1668:
.LBB1663:
.LBB1650:
.LBI1641:
	.loc 5 103 3 view .LVU50
.LBE1650:
.LBE1663:
.LBE1668:
.LBE1674:
.LBE1679:
.LBE1684:
	.loc 5 104 5 view .LVU51
.LBB1685:
.LBB1680:
.LBB1675:
.LBB1669:
.LBB1664:
.LBB1651:
.LBB1647:
.LBI1642:
	.loc 5 83 3 view .LVU52
.LBB1644:
	.loc 5 84 5 view .LVU53
	.loc 5 84 5 is_stmt 0 view .LVU54
.LBE1644:
.LBE1647:
.LBE1651:
	.loc 5 697 7 is_stmt 1 view .LVU55
	.loc 5 697 7 is_stmt 0 view .LVU56
.LBE1664:
.LBE1669:
.LBE1675:
.LBE1680:
.LBE1685:
	.loc 5 84 5 is_stmt 1 view .LVU57
.LBB1686:
.LBB1681:
.LBB1676:
.LBB1670:
.LBB1665:
.LBB1652:
.LBI1652:
	.loc 5 99 3 view .LVU58
.LBB1653:
	.loc 5 100 5 view .LVU59
.LBB1654:
.LBI1654:
	.loc 5 87 3 view .LVU60
.LBB1655:
	.loc 5 88 5 view .LVU61
	.loc 5 88 5 is_stmt 0 view .LVU62
.LBE1655:
.LBE1654:
.LBE1653:
.LBE1652:
.LBB1659:
.LBB1648:
.LBB1645:
	.loc 5 84 71 view .LVU63
	ldr	w5, [x3, 24]
.LBE1645:
.LBE1648:
.LBE1659:
.LBE1665:
.LBE1670:
.LBE1676:
.LBE1681:
.LBE1686:
.LBB1687:
.LBB1688:
	.file 6 "/usr/include/c++/10/iomanip"
	.loc 6 210 21 view .LVU64
	str	x19, [x3, 8]
.LBE1688:
.LBE1687:
.LBB1692:
.LBB1682:
.LBB1677:
.LBB1671:
.LBB1666:
.LBB1660:
.LBB1649:
.LBB1646:
	.loc 5 84 71 view .LVU65
	and	w5, w5, w0
.LBE1646:
.LBE1649:
.LBE1660:
.LBB1661:
.LBB1658:
.LBB1657:
.LBB1656:
	.loc 5 88 71 view .LVU66
	orr	w5, w5, 4
.LBE1656:
.LBE1657:
	.loc 5 100 16 view .LVU67
	str	w5, [x3, 24]
.LVL19:
	.loc 5 100 16 view .LVU68
.LBE1658:
.LBE1661:
	.loc 5 698 7 is_stmt 1 view .LVU69
	.loc 5 698 7 is_stmt 0 view .LVU70
.LBE1666:
.LBE1671:
.LBE1677:
.LBE1682:
.LBE1692:
	.loc 5 1074 5 is_stmt 1 view .LVU71
	.loc 6 196 5 view .LVU72
.LBB1693:
.LBI1687:
	.loc 6 208 5 view .LVU73
.LBB1691:
.LBB1689:
.LBI1689:
	.loc 5 728 5 view .LVU74
.LBB1690:
	.loc 5 730 7 view .LVU75
	.loc 5 731 7 view .LVU76
	.loc 5 732 7 view .LVU77
	.loc 5 732 7 is_stmt 0 view .LVU78
.LBE1690:
.LBE1689:
.LBE1691:
.LBE1693:
.LBB1694:
	.loc 4 88 27 is_stmt 1 view .LVU79
	cmp	w21, 0
	ble	.L9
	.loc 4 92 28 is_stmt 0 view .LVU80
	asr	w24, w21, 1
.LBB1695:
.LBB1696:
	.loc 1 611 18 view .LVU81
	adrp	x26, .LC0
	sub	x23, x23, #8
.LVL20:
	.loc 1 611 18 view .LVU82
	add	x26, x26, :lo12:.LC0
	add	w21, w21, 1
.LVL21:
	.loc 1 611 18 view .LVU83
.LBE1696:
.LBE1695:
.LBB1698:
.LBB1699:
	.loc 6 240 17 view .LVU84
	mov	x19, 1
.LVL22:
	.loc 6 240 17 view .LVU85
	b	.L10
.LVL23:
	.p2align 2,,3
.L11:
	.loc 6 240 17 view .LVU86
.LBE1699:
.LBE1698:
	.loc 4 88 27 is_stmt 1 view .LVU87
	add	x19, x19, 1
.LVL24:
	.loc 4 88 27 is_stmt 0 view .LVU88
	cmp	x19, x21
	beq	.L9
.L17:
.LBB1710:
.LBB1706:
	.loc 6 240 17 view .LVU89
	ldr	x4, [sp, 88]
.L10:
.LVL25:
	.loc 6 240 17 view .LVU90
.LBE1706:
.LBE1710:
.LBE1694:
	.loc 6 226 5 is_stmt 1 view .LVU91
.LBB1722:
.LBB1711:
.LBI1698:
	.loc 6 238 5 view .LVU92
.LBB1707:
.LBB1700:
.LBI1700:
	.loc 5 751 5 view .LVU93
.LBB1701:
	.loc 5 753 7 view .LVU94
	.loc 5 754 7 view .LVU95
.LBE1701:
.LBE1700:
.LBE1707:
.LBE1711:
.LBB1712:
.LBB1713:
	.loc 1 221 25 is_stmt 0 view .LVU96
	mov	x0, x20
.LBE1713:
.LBE1712:
.LBB1716:
.LBB1708:
.LBB1704:
.LBB1702:
	.loc 5 754 16 view .LVU97
	ldr	x1, [x4, -24]
.LBE1702:
.LBE1704:
.LBE1708:
.LBE1716:
.LBB1717:
.LBB1714:
	.loc 1 221 25 view .LVU98
	ldr	d0, [x23, x19, lsl 3]
.LBE1714:
.LBE1717:
.LBB1718:
.LBB1709:
.LBB1705:
.LBB1703:
	.loc 5 754 16 view .LVU99
	add	x1, x20, x1
	str	x22, [x1, 16]
.LVL26:
	.loc 5 755 7 is_stmt 1 view .LVU100
	.loc 5 755 7 is_stmt 0 view .LVU101
.LBE1703:
.LBE1705:
.LBE1709:
.LBE1718:
.LBB1719:
.LBI1712:
	.loc 1 220 7 is_stmt 1 view .LVU102
.LEHB1:
.LBB1715:
	.loc 1 221 25 is_stmt 0 view .LVU103
	bl	_ZNSo9_M_insertIdEERSoT_
.LVL27:
	.loc 1 221 25 view .LVU104
.LBE1715:
.LBE1719:
	.loc 4 92 13 view .LVU105
	cmp	w24, w19
	bne	.L11
.LVL28:
.LBB1720:
.LBI1695:
	.loc 1 606 5 is_stmt 1 view .LVU106
	.loc 1 606 5 is_stmt 0 view .LVU107
.LBE1720:
.LBE1722:
	.file 7 "/usr/include/c++/10/bits/char_traits.h"
	.loc 7 364 2 is_stmt 1 view .LVU108
.LBB1723:
.LBB1721:
.LBB1697:
	.loc 1 611 18 is_stmt 0 view .LVU109
	mov	x1, x26
	mov	x0, x20
	mov	x2, 4
	bl	_ZSt16__ostream_insertIcSt11char_traitsIcEERSt13basic_ostreamIT_T0_ES6_PKS3_l
.LVL29:
	.loc 1 611 18 view .LVU110
.LBE1697:
.LBE1721:
	.loc 4 88 27 is_stmt 1 view .LVU111
	add	x19, x19, 1
.LVL30:
	.loc 4 88 27 is_stmt 0 view .LVU112
	cmp	x19, x21
	bne	.L17
.LVL31:
	.p2align 3,,7
.L9:
	.loc 4 88 27 view .LVU113
.LBE1723:
.LBB1724:
.LBI1724:
	.file 8 "/usr/include/c++/10/sstream"
	.loc 8 677 7 is_stmt 1 view .LVU114
.LBB1725:
	.loc 8 678 33 is_stmt 0 view .LVU115
	mov	x8, x25
	add	x0, sp, 96
	bl	_ZNKSt7__cxx1115basic_stringbufIcSt11char_traitsIcESaIcEE3strEv
.LVL32:
.LEHE1:
	.loc 8 678 33 view .LVU116
.LBE1725:
.LBE1724:
	.loc 4 84 28 view .LVU117
	mov	x0, x20
	bl	_ZNSt7__cxx1119basic_ostringstreamIcSt11char_traitsIcESaIcEED1Ev
.LVL33:
	.loc 4 97 5 view .LVU118
	mov	x0, x25
	ldp	x19, x20, [sp, 16]
	ldp	x21, x22, [sp, 32]
.LVL34:
	.loc 4 97 5 view .LVU119
	ldp	x23, x24, [sp, 48]
	ldp	x25, x26, [sp, 64]
	ldp	x29, x30, [sp], 464
	.cfi_remember_state
	.cfi_restore 30
	.cfi_restore 29
	.cfi_restore 25
	.cfi_restore 26
	.cfi_restore 23
	.cfi_restore 24
	.cfi_restore 21
	.cfi_restore 22
	.cfi_restore 19
	.cfi_restore 20
	.cfi_def_cfa_offset 0
	ret
.L13:
	.cfi_restore_state
	.loc 4 84 28 view .LVU120
	mov	x19, x0
	mov	x0, x20
	bl	_ZNSt7__cxx1119basic_ostringstreamIcSt11char_traitsIcESaIcEED1Ev
.LVL35:
	mov	x0, x19
.LEHB2:
	bl	_Unwind_Resume
.LVL36:
.LEHE2:
	.cfi_endproc
.LFE3045:
	.global	__gxx_personality_v0
	.section	.gcc_except_table,"a",@progbits
.LLSDA3045:
	.byte	0xff
	.byte	0xff
	.byte	0x1
	.uleb128 .LLSDACSE3045-.LLSDACSB3045
.LLSDACSB3045:
	.uleb128 .LEHB0-.LFB3045
	.uleb128 .LEHE0-.LEHB0
	.uleb128 0
	.uleb128 0
	.uleb128 .LEHB1-.LFB3045
	.uleb128 .LEHE1-.LEHB1
	.uleb128 .L13-.LFB3045
	.uleb128 0
	.uleb128 .LEHB2-.LFB3045
	.uleb128 .LEHE2-.LEHB2
	.uleb128 0
	.uleb128 0
.LLSDACSE3045:
	.text
	.size	_ZN6Vec12810ToStringFPIdEENSt7__cxx1112basic_stringIcSt11char_traitsIcESaIcEEEPKT_iii.isra.0, .-_ZN6Vec12810ToStringFPIdEENSt7__cxx1112basic_stringIcSt11char_traitsIcESaIcEEEPKT_iii.isra.0
	.align	2
	.p2align 4,,11
	.type	_ZN6Vec12810ToStringFPIfEENSt7__cxx1112basic_stringIcSt11char_traitsIcESaIcEEEPKT_iii.isra.0, %function
_ZN6Vec12810ToStringFPIfEENSt7__cxx1112basic_stringIcSt11char_traitsIcESaIcEEEPKT_iii.isra.0:
.LVL37:
.LFB3044:
	.loc 4 82 39 is_stmt 1 view -0
	.cfi_startproc
	.cfi_personality 0x9b,DW.ref.__gxx_personality_v0
	.cfi_lsda 0x1b,.LLSDA3044
	.loc 4 82 39 is_stmt 0 view .LVU122
	stp	x29, x30, [sp, -464]!
	.cfi_def_cfa_offset 464
	.cfi_offset 29, -464
	.cfi_offset 30, -456
	mov	x29, sp
	stp	x19, x20, [sp, 16]
	.cfi_offset 19, -448
	.cfi_offset 20, -440
	.loc 4 84 28 view .LVU123
	add	x20, sp, 88
	.loc 4 82 39 view .LVU124
	sxtw	x19, w3
	stp	x21, x22, [sp, 32]
	.cfi_offset 21, -432
	.cfi_offset 22, -424
	mov	w21, w1
	sxtw	x22, w2
	stp	x23, x24, [sp, 48]
	.cfi_offset 23, -416
	.cfi_offset 24, -408
	mov	x23, x0
	.loc 4 84 28 view .LVU125
	mov	x0, x20
.LVL38:
	.loc 4 82 39 view .LVU126
	stp	x25, x26, [sp, 64]
	.cfi_offset 25, -400
	.cfi_offset 26, -392
	.loc 4 82 39 view .LVU127
	mov	x25, x8
.LVL39:
.LEHB3:
	.loc 4 84 28 view .LVU128
	bl	_ZNSt7__cxx1119basic_ostringstreamIcSt11char_traitsIcESaIcEEC1Ev
.LVL40:
.LEHE3:
.LBB1756:
.LBI1756:
	.loc 1 127 7 is_stmt 1 view .LVU129
.LBB1757:
	.loc 1 132 6 is_stmt 0 view .LVU130
	ldr	x4, [sp, 88]
.LBB1758:
.LBB1759:
.LBB1760:
.LBB1761:
.LBB1762:
.LBB1763:
	.loc 5 84 71 view .LVU131
	mov	w0, -261
.LBE1763:
.LBE1762:
.LBE1761:
.LBE1760:
.LBE1759:
.LBE1758:
	.loc 1 132 6 view .LVU132
	ldr	x3, [x4, -24]
	add	x3, x20, x3
.LVL41:
.LBB1792:
.LBI1758:
	.loc 5 1071 3 is_stmt 1 view .LVU133
.LBE1792:
.LBE1757:
.LBE1756:
	.loc 5 1073 5 view .LVU134
.LBB1803:
.LBB1798:
.LBB1793:
.LBB1787:
.LBI1759:
	.loc 5 693 5 view .LVU135
.LBB1782:
	.loc 5 695 7 view .LVU136
	.loc 5 696 7 view .LVU137
	.loc 5 696 7 is_stmt 0 view .LVU138
.LBE1782:
.LBE1787:
.LBE1793:
.LBE1798:
.LBE1803:
	.loc 5 96 5 is_stmt 1 view .LVU139
.LBB1804:
.LBB1799:
.LBB1794:
.LBB1788:
.LBB1783:
.LBB1770:
.LBI1761:
	.loc 5 103 3 view .LVU140
.LBE1770:
.LBE1783:
.LBE1788:
.LBE1794:
.LBE1799:
.LBE1804:
	.loc 5 104 5 view .LVU141
.LBB1805:
.LBB1800:
.LBB1795:
.LBB1789:
.LBB1784:
.LBB1771:
.LBB1767:
.LBI1762:
	.loc 5 83 3 view .LVU142
.LBB1764:
	.loc 5 84 5 view .LVU143
	.loc 5 84 5 is_stmt 0 view .LVU144
.LBE1764:
.LBE1767:
.LBE1771:
	.loc 5 697 7 is_stmt 1 view .LVU145
	.loc 5 697 7 is_stmt 0 view .LVU146
.LBE1784:
.LBE1789:
.LBE1795:
.LBE1800:
.LBE1805:
	.loc 5 84 5 is_stmt 1 view .LVU147
.LBB1806:
.LBB1801:
.LBB1796:
.LBB1790:
.LBB1785:
.LBB1772:
.LBI1772:
	.loc 5 99 3 view .LVU148
.LBB1773:
	.loc 5 100 5 view .LVU149
.LBB1774:
.LBI1774:
	.loc 5 87 3 view .LVU150
.LBB1775:
	.loc 5 88 5 view .LVU151
	.loc 5 88 5 is_stmt 0 view .LVU152
.LBE1775:
.LBE1774:
.LBE1773:
.LBE1772:
.LBB1779:
.LBB1768:
.LBB1765:
	.loc 5 84 71 view .LVU153
	ldr	w5, [x3, 24]
.LBE1765:
.LBE1768:
.LBE1779:
.LBE1785:
.LBE1790:
.LBE1796:
.LBE1801:
.LBE1806:
.LBB1807:
.LBB1808:
	.loc 6 210 21 view .LVU154
	str	x19, [x3, 8]
.LBE1808:
.LBE1807:
.LBB1812:
.LBB1802:
.LBB1797:
.LBB1791:
.LBB1786:
.LBB1780:
.LBB1769:
.LBB1766:
	.loc 5 84 71 view .LVU155
	and	w5, w5, w0
.LBE1766:
.LBE1769:
.LBE1780:
.LBB1781:
.LBB1778:
.LBB1777:
.LBB1776:
	.loc 5 88 71 view .LVU156
	orr	w5, w5, 4
.LBE1776:
.LBE1777:
	.loc 5 100 16 view .LVU157
	str	w5, [x3, 24]
.LVL42:
	.loc 5 100 16 view .LVU158
.LBE1778:
.LBE1781:
	.loc 5 698 7 is_stmt 1 view .LVU159
	.loc 5 698 7 is_stmt 0 view .LVU160
.LBE1786:
.LBE1791:
.LBE1797:
.LBE1802:
.LBE1812:
	.loc 5 1074 5 is_stmt 1 view .LVU161
	.loc 6 196 5 view .LVU162
.LBB1813:
.LBI1807:
	.loc 6 208 5 view .LVU163
.LBB1811:
.LBB1809:
.LBI1809:
	.loc 5 728 5 view .LVU164
.LBB1810:
	.loc 5 730 7 view .LVU165
	.loc 5 731 7 view .LVU166
	.loc 5 732 7 view .LVU167
	.loc 5 732 7 is_stmt 0 view .LVU168
.LBE1810:
.LBE1809:
.LBE1811:
.LBE1813:
.LBB1814:
	.loc 4 88 27 is_stmt 1 view .LVU169
	cmp	w21, 0
	ble	.L19
	.loc 4 92 28 is_stmt 0 view .LVU170
	asr	w24, w21, 1
.LBB1815:
.LBB1816:
	.loc 1 611 18 view .LVU171
	adrp	x26, .LC0
	sub	x23, x23, #4
.LVL43:
	.loc 1 611 18 view .LVU172
	add	x26, x26, :lo12:.LC0
	add	w21, w21, 1
.LVL44:
	.loc 1 611 18 view .LVU173
.LBE1816:
.LBE1815:
.LBB1818:
.LBB1819:
	.loc 6 240 17 view .LVU174
	mov	x19, 1
.LVL45:
	.loc 6 240 17 view .LVU175
	b	.L20
.LVL46:
	.p2align 2,,3
.L21:
	.loc 6 240 17 view .LVU176
.LBE1819:
.LBE1818:
	.loc 4 88 27 is_stmt 1 view .LVU177
	add	x19, x19, 1
.LVL47:
	.loc 4 88 27 is_stmt 0 view .LVU178
	cmp	x19, x21
	beq	.L19
.L27:
.LBB1833:
.LBB1828:
	.loc 6 240 17 view .LVU179
	ldr	x4, [sp, 88]
.L20:
.LVL48:
	.loc 6 240 17 view .LVU180
.LBE1828:
.LBE1833:
.LBE1814:
	.loc 6 226 5 is_stmt 1 view .LVU181
.LBB1848:
.LBB1834:
.LBI1818:
	.loc 6 238 5 view .LVU182
.LBB1829:
.LBB1820:
.LBI1820:
	.loc 5 751 5 view .LVU183
.LBB1821:
	.loc 5 753 7 view .LVU184
	.loc 5 754 7 view .LVU185
.LBE1821:
.LBE1820:
.LBE1829:
.LBE1834:
.LBB1835:
.LBB1836:
	.loc 1 228 18 is_stmt 0 view .LVU186
	mov	x0, x20
.LBE1836:
.LBE1835:
.LBB1840:
.LBB1830:
.LBB1825:
.LBB1822:
	.loc 5 754 16 view .LVU187
	ldr	x1, [x4, -24]
.LBE1822:
.LBE1825:
.LBE1830:
.LBE1840:
.LBB1841:
.LBB1837:
	.loc 1 228 18 view .LVU188
	ldr	s0, [x23, x19, lsl 2]
.LBE1837:
.LBE1841:
.LBB1842:
.LBB1831:
.LBB1826:
.LBB1823:
	.loc 5 754 16 view .LVU189
	add	x1, x20, x1
.LBE1823:
.LBE1826:
.LBE1831:
.LBE1842:
.LBB1843:
.LBB1838:
	.loc 1 228 18 view .LVU190
	fcvt	d0, s0
.LBE1838:
.LBE1843:
.LBB1844:
.LBB1832:
.LBB1827:
.LBB1824:
	.loc 5 754 16 view .LVU191
	str	x22, [x1, 16]
.LVL49:
	.loc 5 755 7 is_stmt 1 view .LVU192
	.loc 5 755 7 is_stmt 0 view .LVU193
.LBE1824:
.LBE1827:
.LBE1832:
.LBE1844:
.LBB1845:
.LBI1835:
	.loc 1 224 7 is_stmt 1 view .LVU194
.LEHB4:
.LBB1839:
	.loc 1 228 18 is_stmt 0 view .LVU195
	bl	_ZNSo9_M_insertIdEERSoT_
.LVL50:
	.loc 1 228 18 view .LVU196
.LBE1839:
.LBE1845:
	.loc 4 92 13 view .LVU197
	cmp	w24, w19
	bne	.L21
.LVL51:
.LBB1846:
.LBI1815:
	.loc 1 606 5 is_stmt 1 view .LVU198
	.loc 1 606 5 is_stmt 0 view .LVU199
.LBE1846:
.LBE1848:
	.loc 7 364 2 is_stmt 1 view .LVU200
.LBB1849:
.LBB1847:
.LBB1817:
	.loc 1 611 18 is_stmt 0 view .LVU201
	mov	x1, x26
	mov	x0, x20
	mov	x2, 4
	bl	_ZSt16__ostream_insertIcSt11char_traitsIcEERSt13basic_ostreamIT_T0_ES6_PKS3_l
.LVL52:
	.loc 1 611 18 view .LVU202
.LBE1817:
.LBE1847:
	.loc 4 88 27 is_stmt 1 view .LVU203
	add	x19, x19, 1
.LVL53:
	.loc 4 88 27 is_stmt 0 view .LVU204
	cmp	x19, x21
	bne	.L27
.LVL54:
	.p2align 3,,7
.L19:
	.loc 4 88 27 view .LVU205
.LBE1849:
.LBB1850:
.LBI1850:
	.loc 8 677 7 is_stmt 1 view .LVU206
.LBB1851:
	.loc 8 678 33 is_stmt 0 view .LVU207
	mov	x8, x25
	add	x0, sp, 96
	bl	_ZNKSt7__cxx1115basic_stringbufIcSt11char_traitsIcESaIcEE3strEv
.LVL55:
.LEHE4:
	.loc 8 678 33 view .LVU208
.LBE1851:
.LBE1850:
	.loc 4 84 28 view .LVU209
	mov	x0, x20
	bl	_ZNSt7__cxx1119basic_ostringstreamIcSt11char_traitsIcESaIcEED1Ev
.LVL56:
	.loc 4 97 5 view .LVU210
	mov	x0, x25
	ldp	x19, x20, [sp, 16]
	ldp	x21, x22, [sp, 32]
.LVL57:
	.loc 4 97 5 view .LVU211
	ldp	x23, x24, [sp, 48]
	ldp	x25, x26, [sp, 64]
	ldp	x29, x30, [sp], 464
	.cfi_remember_state
	.cfi_restore 30
	.cfi_restore 29
	.cfi_restore 25
	.cfi_restore 26
	.cfi_restore 23
	.cfi_restore 24
	.cfi_restore 21
	.cfi_restore 22
	.cfi_restore 19
	.cfi_restore 20
	.cfi_def_cfa_offset 0
	ret
.L23:
	.cfi_restore_state
	.loc 4 84 28 view .LVU212
	mov	x19, x0
	mov	x0, x20
	bl	_ZNSt7__cxx1119basic_ostringstreamIcSt11char_traitsIcESaIcEED1Ev
.LVL58:
	mov	x0, x19
.LEHB5:
	bl	_Unwind_Resume
.LVL59:
.LEHE5:
	.cfi_endproc
.LFE3044:
	.section	.gcc_except_table
.LLSDA3044:
	.byte	0xff
	.byte	0xff
	.byte	0x1
	.uleb128 .LLSDACSE3044-.LLSDACSB3044
.LLSDACSB3044:
	.uleb128 .LEHB3-.LFB3044
	.uleb128 .LEHE3-.LEHB3
	.uleb128 0
	.uleb128 0
	.uleb128 .LEHB4-.LFB3044
	.uleb128 .LEHE4-.LEHB4
	.uleb128 .L23-.LFB3044
	.uleb128 0
	.uleb128 .LEHB5-.LFB3044
	.uleb128 .LEHE5-.LEHB5
	.uleb128 0
	.uleb128 0
.LLSDACSE3044:
	.text
	.size	_ZN6Vec12810ToStringFPIfEENSt7__cxx1112basic_stringIcSt11char_traitsIcESaIcEEEPKT_iii.isra.0, .-_ZN6Vec12810ToStringFPIfEENSt7__cxx1112basic_stringIcSt11char_traitsIcESaIcEEEPKT_iii.isra.0
	.section	.rodata.str1.8
	.align	3
.LC1:
	.string	"Packed float math result:"
	.align	3
.LC2:
	.string	"a: "
	.align	3
.LC3:
	.string	"b: "
	.align	3
.LC4:
	.string	"EQ: "
	.align	3
.LC5:
	.string	"NE: "
	.align	3
.LC6:
	.string	"GT: "
	.align	3
.LC7:
	.string	"LT: "
	.align	3
.LC8:
	.string	"GE: "
	.align	3
.LC9:
	.string	"LE: "
	.align	3
.LC10:
	.string	"LT0: "
	.align	3
.LC11:
	.string	"GT0: "
	.align	3
.LC12:
	.string	"LT0:"
	.align	3
.LC13:
	.string	"GT0:"
	.section	.text.startup,"ax",@progbits
	.align	2
	.p2align 4,,11
	.global	main
	.type	main, %function
main:
.LFB2425:
	.file 9 "Chapter15_2.cpp"
	.loc 9 12 11 is_stmt 1 view -0
	.cfi_startproc
	.cfi_personality 0x9b,DW.ref.__gxx_personality_v0
	.cfi_lsda 0x1b,.LLSDA2425
	.loc 9 13 2 view .LVU214
	.loc 9 15 2 view .LVU215
	.loc 9 15 23 view .LVU216
	.loc 9 16 2 view .LVU217
	.loc 9 16 24 view .LVU218
	.loc 9 17 2 view .LVU219
	.loc 9 17 23 view .LVU220
	.loc 9 18 2 view .LVU221
	.loc 9 12 11 is_stmt 0 view .LVU222
	stp	x29, x30, [sp, -496]!
	.cfi_def_cfa_offset 496
	.cfi_offset 29, -496
	.cfi_offset 30, -488
	.loc 9 15 13 view .LVU223
	adrp	x0, .LC14
	.loc 9 12 11 view .LVU224
	mov	x29, sp
	.loc 9 15 13 view .LVU225
	ldr	q1, [x0, #:lo12:.LC14]
	.loc 9 15 34 view .LVU226
	adrp	x0, .LC15
	.loc 9 12 11 view .LVU227
	stp	x19, x20, [sp, 16]
	.cfi_offset 19, -480
	.cfi_offset 20, -472
.LBB1852:
.LBB1853:
	.loc 1 611 18 view .LVU228
	adrp	x19, :got:_ZSt4cout
.LBE1853:
.LBE1852:
.LBB1856:
.LBB1857:
	.loc 4 179 70 view .LVU229
	add	x20, sp, 352
.LBE1857:
.LBE1856:
	.loc 9 15 34 view .LVU230
	ldr	q0, [x0, #:lo12:.LC15]
	.loc 9 12 11 view .LVU231
	stp	x21, x22, [sp, 32]
	.cfi_offset 21, -464
	.cfi_offset 22, -456
	.loc 9 19 21 view .LVU232
	add	x22, sp, 112
	.loc 9 12 11 view .LVU233
	stp	x23, x24, [sp, 48]
	.cfi_offset 23, -448
	.cfi_offset 24, -440
	.loc 9 19 21 view .LVU234
	add	x24, sp, 128
	add	x23, sp, 208
	mov	x2, x24
	mov	x1, x22
	mov	x0, x23
	.loc 9 12 11 view .LVU235
	stp	x25, x26, [sp, 64]
	stp	x27, x28, [sp, 80]
	.cfi_offset 25, -432
	.cfi_offset 26, -424
	.cfi_offset 27, -416
	.cfi_offset 28, -408
.LBB1859:
.LBB1854:
	.loc 1 611 18 view .LVU236
	adrp	x28, .LC1
.LBE1854:
.LBE1859:
.LBB1860:
.LBB1861:
	adrp	x27, .LC2
.LBE1861:
.LBE1860:
	.loc 9 15 34 view .LVU237
	stp	q1, q0, [sp, 112]
	.loc 9 19 2 is_stmt 1 view .LVU238
.LEHB6:
	.loc 9 19 21 is_stmt 0 view .LVU239
	bl	packedCompareFloat_
.LVL60:
	.loc 9 20 2 is_stmt 1 view .LVU240
.LBB1863:
.LBI1852:
	.loc 1 606 5 view .LVU241
	.loc 1 606 5 is_stmt 0 view .LVU242
.LBE1863:
	.loc 7 364 2 is_stmt 1 view .LVU243
.LBB1864:
.LBB1855:
	.loc 1 611 18 is_stmt 0 view .LVU244
	add	x1, x28, :lo12:.LC1
	ldr	x21, [x19, #:got_lo12:_ZSt4cout]
	mov	x2, 25
	mov	x0, x21
	bl	_ZSt16__ostream_insertIcSt11char_traitsIcEERSt13basic_ostreamIT_T0_ES6_PKS3_l
.LVL61:
	.loc 1 611 18 view .LVU245
.LBE1855:
.LBE1864:
.LBB1865:
.LBI1865:
	.loc 1 108 7 is_stmt 1 view .LVU246
.LBB1866:
	.loc 1 113 13 is_stmt 0 view .LVU247
	mov	x0, x21
	bl	_ZSt4endlIcSt11char_traitsIcEERSt13basic_ostreamIT_T0_ES6_.isra.0
.LVL62:
	.loc 1 113 13 view .LVU248
.LBE1866:
.LBE1865:
	.loc 9 21 2 is_stmt 1 view .LVU249
.LBB1867:
.LBI1860:
	.loc 1 606 5 view .LVU250
	.loc 1 606 5 is_stmt 0 view .LVU251
.LBE1867:
	.loc 7 364 2 is_stmt 1 view .LVU252
.LBB1868:
.LBB1862:
	.loc 1 611 18 is_stmt 0 view .LVU253
	add	x1, x27, :lo12:.LC2
	mov	x2, 3
	mov	x0, x21
	bl	_ZSt16__ostream_insertIcSt11char_traitsIcEERSt13basic_ostreamIT_T0_ES6_PKS3_l
.LVL63:
	.loc 1 611 18 view .LVU254
.LBE1862:
.LBE1868:
.LBB1869:
.LBI1856:
	.loc 4 177 17 is_stmt 1 view .LVU255
.LBB1858:
	.loc 4 179 9 view .LVU256
	.loc 4 179 70 is_stmt 0 view .LVU257
	mov	x0, x22
	mov	w2, 16
	mov	w1, 4
	mov	x8, x20
	mov	w3, 6
	bl	_ZN6Vec12810ToStringFPIfEENSt7__cxx1112basic_stringIcSt11char_traitsIcESaIcEEEPKT_iii.isra.0
.LVL64:
.LEHE6:
	.loc 4 179 70 view .LVU258
.LBE1858:
.LBE1869:
.LBB1870:
.LBI1870:
	.file 10 "/usr/include/c++/10/bits/basic_string.h"
	.loc 10 6468 5 is_stmt 1 view .LVU259
.LBB1871:
.LBB1872:
.LBI1872:
	.loc 10 2311 7 view .LVU260
.LBB1873:
.LBI1873:
	.loc 10 186 7 view .LVU261
	.loc 10 186 7 is_stmt 0 view .LVU262
.LBE1873:
.LBE1872:
.LBB1874:
.LBI1874:
	.loc 10 901 7 is_stmt 1 view .LVU263
	.loc 10 901 7 is_stmt 0 view .LVU264
.LBE1874:
	.loc 10 6473 30 view .LVU265
	ldp	x1, x2, [sp, 352]
	mov	x0, x21
.LEHB7:
	bl	_ZSt16__ostream_insertIcSt11char_traitsIcEERSt13basic_ostreamIT_T0_ES6_PKS3_l
.LVL65:
	.loc 10 6473 30 view .LVU266
.LBE1871:
.LBE1870:
.LBB1875:
.LBI1875:
	.loc 1 108 7 is_stmt 1 view .LVU267
.LBB1876:
	.loc 1 113 13 is_stmt 0 view .LVU268
	bl	_ZSt4endlIcSt11char_traitsIcEERSt13basic_ostreamIT_T0_ES6_.isra.0
.LVL66:
.LEHE7:
	.loc 1 113 13 view .LVU269
.LBE1876:
.LBE1875:
.LBB1877:
.LBI1877:
	.loc 10 657 7 is_stmt 1 view .LVU270
.LBB1878:
.LBB1879:
.LBI1879:
	.loc 10 229 7 view .LVU271
.LBB1880:
.LBB1881:
.LBI1881:
	.loc 10 221 7 view .LVU272
.LBB1882:
.LBI1882:
	.loc 10 186 7 view .LVU273
.LBB1883:
	.loc 10 187 28 is_stmt 0 view .LVU274
	ldr	x0, [sp, 352]
.LVL67:
	.loc 10 187 28 view .LVU275
.LBE1883:
.LBE1882:
.LBB1884:
.LBI1884:
	.loc 10 200 7 is_stmt 1 view .LVU276
	.loc 10 200 7 is_stmt 0 view .LVU277
.LBE1884:
.LBE1881:
	.loc 10 231 2 view .LVU278
	add	x21, sp, 368
	cmp	x0, x21
	beq	.L29
.LVL68:
.LBB1885:
.LBI1885:
	.loc 10 236 7 is_stmt 1 view .LVU279
.LBB1886:
.LBB1887:
.LBI1887:
	.file 11 "/usr/include/c++/10/bits/alloc_traits.h"
	.loc 11 491 7 view .LVU280
.LBB1888:
.LBI1888:
	.file 12 "/usr/include/c++/10/ext/new_allocator.h"
	.loc 12 120 7 view .LVU281
.LBE1888:
.LBE1887:
	.loc 10 237 34 is_stmt 0 view .LVU282
	ldr	x1, [sp, 368]
.LBB1891:
.LBB1890:
.LBB1889:
	.loc 12 133 19 view .LVU283
	add	x1, x1, 1
.LVL69:
	.loc 12 133 19 view .LVU284
	bl	_ZdlPvm
.LVL70:
.L29:
	.loc 12 133 19 view .LVU285
.LBE1889:
.LBE1890:
.LBE1891:
.LBE1886:
.LBE1885:
.LBE1880:
.LBE1879:
.LBB1892:
.LBI1892:
	.loc 10 150 14 is_stmt 1 view .LVU286
.LBB1893:
.LBI1893:
	.file 13 "/usr/include/c++/10/bits/allocator.h"
	.loc 13 162 7 view .LVU287
.LBB1894:
.LBI1894:
	.loc 12 89 7 view .LVU288
	.loc 12 89 7 is_stmt 0 view .LVU289
.LBE1894:
.LBE1893:
.LBE1892:
.LBE1878:
.LBE1877:
	.loc 9 22 2 is_stmt 1 view .LVU290
.LBB1895:
.LBI1895:
	.loc 1 606 5 view .LVU291
	.loc 1 606 5 is_stmt 0 view .LVU292
.LBE1895:
	.loc 7 364 2 is_stmt 1 view .LVU293
.LBB1897:
.LBB1896:
	.loc 1 611 18 is_stmt 0 view .LVU294
	ldr	x22, [x19, #:got_lo12:_ZSt4cout]
	mov	x2, 3
	adrp	x26, .LC3
	add	x1, x26, :lo12:.LC3
	mov	x0, x22
.LEHB8:
	bl	_ZSt16__ostream_insertIcSt11char_traitsIcEERSt13basic_ostreamIT_T0_ES6_PKS3_l
.LVL71:
	.loc 1 611 18 view .LVU295
.LBE1896:
.LBE1897:
.LBB1898:
.LBI1898:
	.loc 4 177 17 is_stmt 1 view .LVU296
.LBB1899:
	.loc 4 179 9 view .LVU297
	.loc 4 179 70 is_stmt 0 view .LVU298
	mov	x0, x24
	mov	w2, 16
	mov	w1, 4
	mov	x8, x20
	mov	w3, 6
	bl	_ZN6Vec12810ToStringFPIfEENSt7__cxx1112basic_stringIcSt11char_traitsIcESaIcEEEPKT_iii.isra.0
.LVL72:
.LEHE8:
	.loc 4 179 70 view .LVU299
.LBE1899:
.LBE1898:
.LBB1900:
.LBI1900:
	.loc 10 6468 5 is_stmt 1 view .LVU300
.LBB1901:
.LBB1902:
.LBI1902:
	.loc 10 2311 7 view .LVU301
.LBB1903:
.LBI1903:
	.loc 10 186 7 view .LVU302
	.loc 10 186 7 is_stmt 0 view .LVU303
.LBE1903:
.LBE1902:
.LBB1904:
.LBI1904:
	.loc 10 901 7 is_stmt 1 view .LVU304
	.loc 10 901 7 is_stmt 0 view .LVU305
.LBE1904:
	.loc 10 6473 30 view .LVU306
	ldp	x1, x2, [sp, 352]
	mov	x0, x22
.LEHB9:
	bl	_ZSt16__ostream_insertIcSt11char_traitsIcEERSt13basic_ostreamIT_T0_ES6_PKS3_l
.LVL73:
	.loc 10 6473 30 view .LVU307
.LBE1901:
.LBE1900:
.LBB1905:
.LBI1905:
	.loc 1 108 7 is_stmt 1 view .LVU308
.LBB1906:
	.loc 1 113 13 is_stmt 0 view .LVU309
	bl	_ZSt4endlIcSt11char_traitsIcEERSt13basic_ostreamIT_T0_ES6_.isra.0
.LVL74:
.LEHE9:
	.loc 1 113 13 view .LVU310
.LBE1906:
.LBE1905:
.LBB1907:
.LBI1907:
	.loc 10 657 7 is_stmt 1 view .LVU311
.LBB1908:
.LBB1909:
.LBI1909:
	.loc 10 229 7 view .LVU312
.LBB1910:
.LBB1911:
.LBI1911:
	.loc 10 221 7 view .LVU313
.LBB1912:
.LBI1912:
	.loc 10 186 7 view .LVU314
.LBB1913:
	.loc 10 187 28 is_stmt 0 view .LVU315
	ldr	x0, [sp, 352]
.LVL75:
	.loc 10 187 28 view .LVU316
.LBE1913:
.LBE1912:
.LBB1914:
.LBI1914:
	.loc 10 200 7 is_stmt 1 view .LVU317
	.loc 10 200 7 is_stmt 0 view .LVU318
.LBE1914:
.LBE1911:
	.loc 10 231 2 view .LVU319
	cmp	x0, x21
	beq	.L30
.LVL76:
.LBB1915:
.LBI1915:
	.loc 10 236 7 is_stmt 1 view .LVU320
.LBB1916:
.LBB1917:
.LBI1917:
	.loc 11 491 7 view .LVU321
.LBB1918:
.LBI1918:
	.loc 12 120 7 view .LVU322
.LBE1918:
.LBE1917:
	.loc 10 237 34 is_stmt 0 view .LVU323
	ldr	x1, [sp, 368]
.LBB1921:
.LBB1920:
.LBB1919:
	.loc 12 133 19 view .LVU324
	add	x1, x1, 1
.LVL77:
	.loc 12 133 19 view .LVU325
	bl	_ZdlPvm
.LVL78:
.L30:
	.loc 12 133 19 view .LVU326
.LBE1919:
.LBE1920:
.LBE1921:
.LBE1916:
.LBE1915:
.LBE1910:
.LBE1909:
.LBB1922:
.LBI1922:
	.loc 10 150 14 is_stmt 1 view .LVU327
.LBB1923:
.LBI1923:
	.loc 13 162 7 view .LVU328
.LBB1924:
.LBI1924:
	.loc 12 89 7 view .LVU329
	.loc 12 89 7 is_stmt 0 view .LVU330
.LBE1924:
.LBE1923:
.LBE1922:
.LBE1908:
.LBE1907:
	.loc 9 23 2 is_stmt 1 view .LVU331
.LBB1925:
.LBI1925:
	.loc 1 606 5 view .LVU332
	.loc 1 606 5 is_stmt 0 view .LVU333
.LBE1925:
	.loc 7 364 2 is_stmt 1 view .LVU334
.LBB1927:
.LBB1926:
	.loc 1 611 18 is_stmt 0 view .LVU335
	ldr	x22, [x19, #:got_lo12:_ZSt4cout]
	mov	x2, 4
	adrp	x24, .LC4
	add	x1, x24, :lo12:.LC4
	mov	x0, x22
.LEHB10:
	bl	_ZSt16__ostream_insertIcSt11char_traitsIcEERSt13basic_ostreamIT_T0_ES6_PKS3_l
.LVL79:
	.loc 1 611 18 view .LVU336
.LBE1926:
.LBE1927:
.LBB1928:
.LBI1928:
	.loc 4 177 17 is_stmt 1 view .LVU337
.LBB1929:
	.loc 4 179 9 view .LVU338
	.loc 4 179 70 is_stmt 0 view .LVU339
	mov	x0, x23
	mov	w2, 16
	mov	w1, 4
	mov	x8, x20
	mov	w3, 6
	bl	_ZN6Vec12810ToStringFPIfEENSt7__cxx1112basic_stringIcSt11char_traitsIcESaIcEEEPKT_iii.isra.0
.LVL80:
.LEHE10:
	.loc 4 179 70 view .LVU340
.LBE1929:
.LBE1928:
.LBB1930:
.LBI1930:
	.loc 10 6468 5 is_stmt 1 view .LVU341
.LBB1931:
.LBB1932:
.LBI1932:
	.loc 10 2311 7 view .LVU342
.LBB1933:
.LBI1933:
	.loc 10 186 7 view .LVU343
	.loc 10 186 7 is_stmt 0 view .LVU344
.LBE1933:
.LBE1932:
.LBB1934:
.LBI1934:
	.loc 10 901 7 is_stmt 1 view .LVU345
	.loc 10 901 7 is_stmt 0 view .LVU346
.LBE1934:
	.loc 10 6473 30 view .LVU347
	ldp	x1, x2, [sp, 352]
	mov	x0, x22
.LEHB11:
	bl	_ZSt16__ostream_insertIcSt11char_traitsIcEERSt13basic_ostreamIT_T0_ES6_PKS3_l
.LVL81:
	.loc 10 6473 30 view .LVU348
.LBE1931:
.LBE1930:
.LBB1935:
.LBI1935:
	.loc 1 108 7 is_stmt 1 view .LVU349
.LBB1936:
	.loc 1 113 13 is_stmt 0 view .LVU350
	bl	_ZSt4endlIcSt11char_traitsIcEERSt13basic_ostreamIT_T0_ES6_.isra.0
.LVL82:
.LEHE11:
	.loc 1 113 13 view .LVU351
.LBE1936:
.LBE1935:
.LBB1937:
.LBI1937:
	.loc 10 657 7 is_stmt 1 view .LVU352
.LBB1938:
.LBB1939:
.LBI1939:
	.loc 10 229 7 view .LVU353
.LBB1940:
.LBB1941:
.LBI1941:
	.loc 10 221 7 view .LVU354
.LBB1942:
.LBI1942:
	.loc 10 186 7 view .LVU355
.LBB1943:
	.loc 10 187 28 is_stmt 0 view .LVU356
	ldr	x0, [sp, 352]
.LVL83:
	.loc 10 187 28 view .LVU357
.LBE1943:
.LBE1942:
.LBB1944:
.LBI1944:
	.loc 10 200 7 is_stmt 1 view .LVU358
	.loc 10 200 7 is_stmt 0 view .LVU359
.LBE1944:
.LBE1941:
	.loc 10 231 2 view .LVU360
	cmp	x0, x21
	beq	.L31
.LVL84:
.LBB1945:
.LBI1945:
	.loc 10 236 7 is_stmt 1 view .LVU361
.LBB1946:
.LBB1947:
.LBI1947:
	.loc 11 491 7 view .LVU362
.LBB1948:
.LBI1948:
	.loc 12 120 7 view .LVU363
.LBE1948:
.LBE1947:
	.loc 10 237 34 is_stmt 0 view .LVU364
	ldr	x1, [sp, 368]
.LBB1951:
.LBB1950:
.LBB1949:
	.loc 12 133 19 view .LVU365
	add	x1, x1, 1
.LVL85:
	.loc 12 133 19 view .LVU366
	bl	_ZdlPvm
.LVL86:
.L31:
	.loc 12 133 19 view .LVU367
.LBE1949:
.LBE1950:
.LBE1951:
.LBE1946:
.LBE1945:
.LBE1940:
.LBE1939:
.LBB1952:
.LBI1952:
	.loc 10 150 14 is_stmt 1 view .LVU368
.LBB1953:
.LBI1953:
	.loc 13 162 7 view .LVU369
.LBB1954:
.LBI1954:
	.loc 12 89 7 view .LVU370
	.loc 12 89 7 is_stmt 0 view .LVU371
.LBE1954:
.LBE1953:
.LBE1952:
.LBE1938:
.LBE1937:
	.loc 9 24 2 is_stmt 1 view .LVU372
.LBB1955:
.LBI1955:
	.loc 1 606 5 view .LVU373
	.loc 1 606 5 is_stmt 0 view .LVU374
.LBE1955:
	.loc 7 364 2 is_stmt 1 view .LVU375
.LBB1957:
.LBB1956:
	.loc 1 611 18 is_stmt 0 view .LVU376
	ldr	x22, [x19, #:got_lo12:_ZSt4cout]
	mov	x2, 4
	adrp	x23, .LC5
	add	x1, x23, :lo12:.LC5
	mov	x0, x22
.LEHB12:
	bl	_ZSt16__ostream_insertIcSt11char_traitsIcEERSt13basic_ostreamIT_T0_ES6_PKS3_l
.LVL87:
	.loc 1 611 18 view .LVU377
.LBE1956:
.LBE1957:
.LBB1958:
.LBI1958:
	.loc 4 177 17 is_stmt 1 view .LVU378
.LBB1959:
	.loc 4 179 9 view .LVU379
	.loc 4 179 70 is_stmt 0 view .LVU380
	add	x0, sp, 224
.LVL88:
	.loc 4 179 70 view .LVU381
	mov	w2, 16
	mov	w1, 4
	mov	x8, x20
	mov	w3, 6
	bl	_ZN6Vec12810ToStringFPIfEENSt7__cxx1112basic_stringIcSt11char_traitsIcESaIcEEEPKT_iii.isra.0
.LVL89:
.LEHE12:
	.loc 4 179 70 view .LVU382
.LBE1959:
.LBE1958:
.LBB1960:
.LBI1960:
	.loc 10 6468 5 is_stmt 1 view .LVU383
.LBB1961:
.LBB1962:
.LBI1962:
	.loc 10 2311 7 view .LVU384
.LBB1963:
.LBI1963:
	.loc 10 186 7 view .LVU385
	.loc 10 186 7 is_stmt 0 view .LVU386
.LBE1963:
.LBE1962:
.LBB1964:
.LBI1964:
	.loc 10 901 7 is_stmt 1 view .LVU387
	.loc 10 901 7 is_stmt 0 view .LVU388
.LBE1964:
	.loc 10 6473 30 view .LVU389
	ldp	x1, x2, [sp, 352]
	mov	x0, x22
.LEHB13:
	bl	_ZSt16__ostream_insertIcSt11char_traitsIcEERSt13basic_ostreamIT_T0_ES6_PKS3_l
.LVL90:
	.loc 10 6473 30 view .LVU390
.LBE1961:
.LBE1960:
.LBB1965:
.LBI1965:
	.loc 1 108 7 is_stmt 1 view .LVU391
.LBB1966:
	.loc 1 113 13 is_stmt 0 view .LVU392
	bl	_ZSt4endlIcSt11char_traitsIcEERSt13basic_ostreamIT_T0_ES6_.isra.0
.LVL91:
.LEHE13:
	.loc 1 113 13 view .LVU393
.LBE1966:
.LBE1965:
.LBB1967:
.LBI1967:
	.loc 10 657 7 is_stmt 1 view .LVU394
.LBB1968:
.LBB1969:
.LBI1969:
	.loc 10 229 7 view .LVU395
.LBB1970:
.LBB1971:
.LBI1971:
	.loc 10 221 7 view .LVU396
.LBB1972:
.LBI1972:
	.loc 10 186 7 view .LVU397
.LBB1973:
	.loc 10 187 28 is_stmt 0 view .LVU398
	ldr	x0, [sp, 352]
.LVL92:
	.loc 10 187 28 view .LVU399
.LBE1973:
.LBE1972:
.LBB1974:
.LBI1974:
	.loc 10 200 7 is_stmt 1 view .LVU400
	.loc 10 200 7 is_stmt 0 view .LVU401
.LBE1974:
.LBE1971:
	.loc 10 231 2 view .LVU402
	cmp	x0, x21
	beq	.L32
.LVL93:
.LBB1975:
.LBI1975:
	.loc 10 236 7 is_stmt 1 view .LVU403
.LBB1976:
.LBB1977:
.LBI1977:
	.loc 11 491 7 view .LVU404
.LBB1978:
.LBI1978:
	.loc 12 120 7 view .LVU405
.LBE1978:
.LBE1977:
	.loc 10 237 34 is_stmt 0 view .LVU406
	ldr	x1, [sp, 368]
.LBB1981:
.LBB1980:
.LBB1979:
	.loc 12 133 19 view .LVU407
	add	x1, x1, 1
.LVL94:
	.loc 12 133 19 view .LVU408
	bl	_ZdlPvm
.LVL95:
.L32:
	.loc 12 133 19 view .LVU409
.LBE1979:
.LBE1980:
.LBE1981:
.LBE1976:
.LBE1975:
.LBE1970:
.LBE1969:
.LBB1982:
.LBI1982:
	.loc 10 150 14 is_stmt 1 view .LVU410
.LBB1983:
.LBI1983:
	.loc 13 162 7 view .LVU411
.LBB1984:
.LBI1984:
	.loc 12 89 7 view .LVU412
	.loc 12 89 7 is_stmt 0 view .LVU413
.LBE1984:
.LBE1983:
.LBE1982:
.LBE1968:
.LBE1967:
	.loc 9 25 2 is_stmt 1 view .LVU414
.LBB1985:
.LBI1985:
	.loc 1 606 5 view .LVU415
	.loc 1 606 5 is_stmt 0 view .LVU416
.LBE1985:
	.loc 7 364 2 is_stmt 1 view .LVU417
.LBB1987:
.LBB1986:
	.loc 1 611 18 is_stmt 0 view .LVU418
	ldr	x22, [x19, #:got_lo12:_ZSt4cout]
	adrp	x0, .LC6
	mov	x2, 4
	add	x1, x0, :lo12:.LC6
	mov	x0, x22
.LEHB14:
	bl	_ZSt16__ostream_insertIcSt11char_traitsIcEERSt13basic_ostreamIT_T0_ES6_PKS3_l
.LVL96:
	.loc 1 611 18 view .LVU419
.LBE1986:
.LBE1987:
.LBB1988:
.LBI1988:
	.loc 4 177 17 is_stmt 1 view .LVU420
.LBB1989:
	.loc 4 179 9 view .LVU421
	.loc 4 179 70 is_stmt 0 view .LVU422
	add	x0, sp, 240
.LVL97:
	.loc 4 179 70 view .LVU423
	mov	w2, 16
	mov	w1, 4
	mov	x8, x20
	mov	w3, 6
	bl	_ZN6Vec12810ToStringFPIfEENSt7__cxx1112basic_stringIcSt11char_traitsIcESaIcEEEPKT_iii.isra.0
.LVL98:
.LEHE14:
	.loc 4 179 70 view .LVU424
.LBE1989:
.LBE1988:
.LBB1990:
.LBI1990:
	.loc 10 6468 5 is_stmt 1 view .LVU425
.LBB1991:
.LBB1992:
.LBI1992:
	.loc 10 2311 7 view .LVU426
.LBB1993:
.LBI1993:
	.loc 10 186 7 view .LVU427
	.loc 10 186 7 is_stmt 0 view .LVU428
.LBE1993:
.LBE1992:
.LBB1994:
.LBI1994:
	.loc 10 901 7 is_stmt 1 view .LVU429
	.loc 10 901 7 is_stmt 0 view .LVU430
.LBE1994:
	.loc 10 6473 30 view .LVU431
	ldp	x1, x2, [sp, 352]
	mov	x0, x22
.LEHB15:
	bl	_ZSt16__ostream_insertIcSt11char_traitsIcEERSt13basic_ostreamIT_T0_ES6_PKS3_l
.LVL99:
	.loc 10 6473 30 view .LVU432
.LBE1991:
.LBE1990:
.LBB1995:
.LBI1995:
	.loc 1 108 7 is_stmt 1 view .LVU433
.LBB1996:
	.loc 1 113 13 is_stmt 0 view .LVU434
	bl	_ZSt4endlIcSt11char_traitsIcEERSt13basic_ostreamIT_T0_ES6_.isra.0
.LVL100:
.LEHE15:
	.loc 1 113 13 view .LVU435
.LBE1996:
.LBE1995:
.LBB1997:
.LBI1997:
	.loc 10 657 7 is_stmt 1 view .LVU436
.LBB1998:
.LBB1999:
.LBI1999:
	.loc 10 229 7 view .LVU437
.LBB2000:
.LBB2001:
.LBI2001:
	.loc 10 221 7 view .LVU438
.LBB2002:
.LBI2002:
	.loc 10 186 7 view .LVU439
.LBB2003:
	.loc 10 187 28 is_stmt 0 view .LVU440
	ldr	x0, [sp, 352]
.LVL101:
	.loc 10 187 28 view .LVU441
.LBE2003:
.LBE2002:
.LBB2004:
.LBI2004:
	.loc 10 200 7 is_stmt 1 view .LVU442
	.loc 10 200 7 is_stmt 0 view .LVU443
.LBE2004:
.LBE2001:
	.loc 10 231 2 view .LVU444
	cmp	x0, x21
	beq	.L33
.LVL102:
.LBB2005:
.LBI2005:
	.loc 10 236 7 is_stmt 1 view .LVU445
.LBB2006:
.LBB2007:
.LBI2007:
	.loc 11 491 7 view .LVU446
.LBB2008:
.LBI2008:
	.loc 12 120 7 view .LVU447
.LBE2008:
.LBE2007:
	.loc 10 237 34 is_stmt 0 view .LVU448
	ldr	x1, [sp, 368]
.LBB2011:
.LBB2010:
.LBB2009:
	.loc 12 133 19 view .LVU449
	add	x1, x1, 1
.LVL103:
	.loc 12 133 19 view .LVU450
	bl	_ZdlPvm
.LVL104:
.L33:
	.loc 12 133 19 view .LVU451
.LBE2009:
.LBE2010:
.LBE2011:
.LBE2006:
.LBE2005:
.LBE2000:
.LBE1999:
.LBB2012:
.LBI2012:
	.loc 10 150 14 is_stmt 1 view .LVU452
.LBB2013:
.LBI2013:
	.loc 13 162 7 view .LVU453
.LBB2014:
.LBI2014:
	.loc 12 89 7 view .LVU454
	.loc 12 89 7 is_stmt 0 view .LVU455
.LBE2014:
.LBE2013:
.LBE2012:
.LBE1998:
.LBE1997:
	.loc 9 26 2 is_stmt 1 view .LVU456
.LBB2015:
.LBI2015:
	.loc 1 606 5 view .LVU457
	.loc 1 606 5 is_stmt 0 view .LVU458
.LBE2015:
	.loc 7 364 2 is_stmt 1 view .LVU459
.LBB2017:
.LBB2016:
	.loc 1 611 18 is_stmt 0 view .LVU460
	ldr	x22, [x19, #:got_lo12:_ZSt4cout]
	adrp	x0, .LC7
	mov	x2, 4
	add	x1, x0, :lo12:.LC7
	mov	x0, x22
.LEHB16:
	bl	_ZSt16__ostream_insertIcSt11char_traitsIcEERSt13basic_ostreamIT_T0_ES6_PKS3_l
.LVL105:
	.loc 1 611 18 view .LVU461
.LBE2016:
.LBE2017:
.LBB2018:
.LBI2018:
	.loc 4 177 17 is_stmt 1 view .LVU462
.LBB2019:
	.loc 4 179 9 view .LVU463
	.loc 4 179 70 is_stmt 0 view .LVU464
	add	x0, sp, 256
.LVL106:
	.loc 4 179 70 view .LVU465
	mov	w2, 16
	mov	w1, 4
	mov	x8, x20
	mov	w3, 6
	bl	_ZN6Vec12810ToStringFPIfEENSt7__cxx1112basic_stringIcSt11char_traitsIcESaIcEEEPKT_iii.isra.0
.LVL107:
.LEHE16:
	.loc 4 179 70 view .LVU466
.LBE2019:
.LBE2018:
.LBB2020:
.LBI2020:
	.loc 10 6468 5 is_stmt 1 view .LVU467
.LBB2021:
.LBB2022:
.LBI2022:
	.loc 10 2311 7 view .LVU468
.LBB2023:
.LBI2023:
	.loc 10 186 7 view .LVU469
	.loc 10 186 7 is_stmt 0 view .LVU470
.LBE2023:
.LBE2022:
.LBB2024:
.LBI2024:
	.loc 10 901 7 is_stmt 1 view .LVU471
	.loc 10 901 7 is_stmt 0 view .LVU472
.LBE2024:
	.loc 10 6473 30 view .LVU473
	ldp	x1, x2, [sp, 352]
	mov	x0, x22
.LEHB17:
	bl	_ZSt16__ostream_insertIcSt11char_traitsIcEERSt13basic_ostreamIT_T0_ES6_PKS3_l
.LVL108:
	.loc 10 6473 30 view .LVU474
.LBE2021:
.LBE2020:
.LBB2025:
.LBI2025:
	.loc 1 108 7 is_stmt 1 view .LVU475
.LBB2026:
	.loc 1 113 13 is_stmt 0 view .LVU476
	bl	_ZSt4endlIcSt11char_traitsIcEERSt13basic_ostreamIT_T0_ES6_.isra.0
.LVL109:
.LEHE17:
	.loc 1 113 13 view .LVU477
.LBE2026:
.LBE2025:
.LBB2027:
.LBI2027:
	.loc 10 657 7 is_stmt 1 view .LVU478
.LBB2028:
.LBB2029:
.LBI2029:
	.loc 10 229 7 view .LVU479
.LBB2030:
.LBB2031:
.LBI2031:
	.loc 10 221 7 view .LVU480
.LBB2032:
.LBI2032:
	.loc 10 186 7 view .LVU481
.LBB2033:
	.loc 10 187 28 is_stmt 0 view .LVU482
	ldr	x0, [sp, 352]
.LVL110:
	.loc 10 187 28 view .LVU483
.LBE2033:
.LBE2032:
.LBB2034:
.LBI2034:
	.loc 10 200 7 is_stmt 1 view .LVU484
	.loc 10 200 7 is_stmt 0 view .LVU485
.LBE2034:
.LBE2031:
	.loc 10 231 2 view .LVU486
	cmp	x0, x21
	beq	.L34
.LVL111:
.LBB2035:
.LBI2035:
	.loc 10 236 7 is_stmt 1 view .LVU487
.LBB2036:
.LBB2037:
.LBI2037:
	.loc 11 491 7 view .LVU488
.LBB2038:
.LBI2038:
	.loc 12 120 7 view .LVU489
.LBE2038:
.LBE2037:
	.loc 10 237 34 is_stmt 0 view .LVU490
	ldr	x1, [sp, 368]
.LBB2041:
.LBB2040:
.LBB2039:
	.loc 12 133 19 view .LVU491
	add	x1, x1, 1
.LVL112:
	.loc 12 133 19 view .LVU492
	bl	_ZdlPvm
.LVL113:
.L34:
	.loc 12 133 19 view .LVU493
.LBE2039:
.LBE2040:
.LBE2041:
.LBE2036:
.LBE2035:
.LBE2030:
.LBE2029:
.LBB2042:
.LBI2042:
	.loc 10 150 14 is_stmt 1 view .LVU494
.LBB2043:
.LBI2043:
	.loc 13 162 7 view .LVU495
.LBB2044:
.LBI2044:
	.loc 12 89 7 view .LVU496
	.loc 12 89 7 is_stmt 0 view .LVU497
.LBE2044:
.LBE2043:
.LBE2042:
.LBE2028:
.LBE2027:
	.loc 9 27 2 is_stmt 1 view .LVU498
.LBB2045:
.LBI2045:
	.loc 1 606 5 view .LVU499
	.loc 1 606 5 is_stmt 0 view .LVU500
.LBE2045:
	.loc 7 364 2 is_stmt 1 view .LVU501
.LBB2047:
.LBB2046:
	.loc 1 611 18 is_stmt 0 view .LVU502
	ldr	x22, [x19, #:got_lo12:_ZSt4cout]
	adrp	x0, .LC8
	mov	x2, 4
	add	x1, x0, :lo12:.LC8
	mov	x0, x22
.LEHB18:
	bl	_ZSt16__ostream_insertIcSt11char_traitsIcEERSt13basic_ostreamIT_T0_ES6_PKS3_l
.LVL114:
	.loc 1 611 18 view .LVU503
.LBE2046:
.LBE2047:
.LBB2048:
.LBI2048:
	.loc 4 177 17 is_stmt 1 view .LVU504
.LBB2049:
	.loc 4 179 9 view .LVU505
	.loc 4 179 70 is_stmt 0 view .LVU506
	add	x0, sp, 272
.LVL115:
	.loc 4 179 70 view .LVU507
	mov	w2, 16
	mov	w1, 4
	mov	x8, x20
	mov	w3, 6
	bl	_ZN6Vec12810ToStringFPIfEENSt7__cxx1112basic_stringIcSt11char_traitsIcESaIcEEEPKT_iii.isra.0
.LVL116:
.LEHE18:
	.loc 4 179 70 view .LVU508
.LBE2049:
.LBE2048:
.LBB2050:
.LBI2050:
	.loc 10 6468 5 is_stmt 1 view .LVU509
.LBB2051:
.LBB2052:
.LBI2052:
	.loc 10 2311 7 view .LVU510
.LBB2053:
.LBI2053:
	.loc 10 186 7 view .LVU511
	.loc 10 186 7 is_stmt 0 view .LVU512
.LBE2053:
.LBE2052:
.LBB2054:
.LBI2054:
	.loc 10 901 7 is_stmt 1 view .LVU513
	.loc 10 901 7 is_stmt 0 view .LVU514
.LBE2054:
	.loc 10 6473 30 view .LVU515
	ldp	x1, x2, [sp, 352]
	mov	x0, x22
.LEHB19:
	bl	_ZSt16__ostream_insertIcSt11char_traitsIcEERSt13basic_ostreamIT_T0_ES6_PKS3_l
.LVL117:
	.loc 10 6473 30 view .LVU516
.LBE2051:
.LBE2050:
.LBB2055:
.LBI2055:
	.loc 1 108 7 is_stmt 1 view .LVU517
.LBB2056:
	.loc 1 113 13 is_stmt 0 view .LVU518
	bl	_ZSt4endlIcSt11char_traitsIcEERSt13basic_ostreamIT_T0_ES6_.isra.0
.LVL118:
.LEHE19:
	.loc 1 113 13 view .LVU519
.LBE2056:
.LBE2055:
.LBB2057:
.LBI2057:
	.loc 10 657 7 is_stmt 1 view .LVU520
.LBB2058:
.LBB2059:
.LBI2059:
	.loc 10 229 7 view .LVU521
.LBB2060:
.LBB2061:
.LBI2061:
	.loc 10 221 7 view .LVU522
.LBB2062:
.LBI2062:
	.loc 10 186 7 view .LVU523
.LBB2063:
	.loc 10 187 28 is_stmt 0 view .LVU524
	ldr	x0, [sp, 352]
.LVL119:
	.loc 10 187 28 view .LVU525
.LBE2063:
.LBE2062:
.LBB2064:
.LBI2064:
	.loc 10 200 7 is_stmt 1 view .LVU526
	.loc 10 200 7 is_stmt 0 view .LVU527
.LBE2064:
.LBE2061:
	.loc 10 231 2 view .LVU528
	cmp	x0, x21
	beq	.L35
.LVL120:
.LBB2065:
.LBI2065:
	.loc 10 236 7 is_stmt 1 view .LVU529
.LBB2066:
.LBB2067:
.LBI2067:
	.loc 11 491 7 view .LVU530
.LBB2068:
.LBI2068:
	.loc 12 120 7 view .LVU531
.LBE2068:
.LBE2067:
	.loc 10 237 34 is_stmt 0 view .LVU532
	ldr	x1, [sp, 368]
.LBB2071:
.LBB2070:
.LBB2069:
	.loc 12 133 19 view .LVU533
	add	x1, x1, 1
.LVL121:
	.loc 12 133 19 view .LVU534
	bl	_ZdlPvm
.LVL122:
.L35:
	.loc 12 133 19 view .LVU535
.LBE2069:
.LBE2070:
.LBE2071:
.LBE2066:
.LBE2065:
.LBE2060:
.LBE2059:
.LBB2072:
.LBI2072:
	.loc 10 150 14 is_stmt 1 view .LVU536
.LBB2073:
.LBI2073:
	.loc 13 162 7 view .LVU537
.LBB2074:
.LBI2074:
	.loc 12 89 7 view .LVU538
	.loc 12 89 7 is_stmt 0 view .LVU539
.LBE2074:
.LBE2073:
.LBE2072:
.LBE2058:
.LBE2057:
	.loc 9 28 2 is_stmt 1 view .LVU540
.LBB2075:
.LBI2075:
	.loc 1 606 5 view .LVU541
	.loc 1 606 5 is_stmt 0 view .LVU542
.LBE2075:
	.loc 7 364 2 is_stmt 1 view .LVU543
.LBB2077:
.LBB2076:
	.loc 1 611 18 is_stmt 0 view .LVU544
	ldr	x22, [x19, #:got_lo12:_ZSt4cout]
	adrp	x0, .LC9
	mov	x2, 4
	add	x1, x0, :lo12:.LC9
	mov	x0, x22
.LEHB20:
	bl	_ZSt16__ostream_insertIcSt11char_traitsIcEERSt13basic_ostreamIT_T0_ES6_PKS3_l
.LVL123:
	.loc 1 611 18 view .LVU545
.LBE2076:
.LBE2077:
.LBB2078:
.LBI2078:
	.loc 4 177 17 is_stmt 1 view .LVU546
.LBB2079:
	.loc 4 179 9 view .LVU547
	.loc 4 179 70 is_stmt 0 view .LVU548
	add	x0, sp, 288
.LVL124:
	.loc 4 179 70 view .LVU549
	mov	w2, 16
	mov	w1, 4
	mov	x8, x20
	mov	w3, 6
	bl	_ZN6Vec12810ToStringFPIfEENSt7__cxx1112basic_stringIcSt11char_traitsIcESaIcEEEPKT_iii.isra.0
.LVL125:
.LEHE20:
	.loc 4 179 70 view .LVU550
.LBE2079:
.LBE2078:
.LBB2080:
.LBI2080:
	.loc 10 6468 5 is_stmt 1 view .LVU551
.LBB2081:
.LBB2082:
.LBI2082:
	.loc 10 2311 7 view .LVU552
.LBB2083:
.LBI2083:
	.loc 10 186 7 view .LVU553
	.loc 10 186 7 is_stmt 0 view .LVU554
.LBE2083:
.LBE2082:
.LBB2084:
.LBI2084:
	.loc 10 901 7 is_stmt 1 view .LVU555
	.loc 10 901 7 is_stmt 0 view .LVU556
.LBE2084:
	.loc 10 6473 30 view .LVU557
	ldp	x1, x2, [sp, 352]
	mov	x0, x22
.LEHB21:
	bl	_ZSt16__ostream_insertIcSt11char_traitsIcEERSt13basic_ostreamIT_T0_ES6_PKS3_l
.LVL126:
	.loc 10 6473 30 view .LVU558
.LBE2081:
.LBE2080:
.LBB2085:
.LBI2085:
	.loc 1 108 7 is_stmt 1 view .LVU559
.LBB2086:
	.loc 1 113 13 is_stmt 0 view .LVU560
	bl	_ZSt4endlIcSt11char_traitsIcEERSt13basic_ostreamIT_T0_ES6_.isra.0
.LVL127:
.LEHE21:
	.loc 1 113 13 view .LVU561
.LBE2086:
.LBE2085:
.LBB2087:
.LBI2087:
	.loc 10 657 7 is_stmt 1 view .LVU562
.LBB2088:
.LBB2089:
.LBI2089:
	.loc 10 229 7 view .LVU563
.LBB2090:
.LBB2091:
.LBI2091:
	.loc 10 221 7 view .LVU564
.LBB2092:
.LBI2092:
	.loc 10 186 7 view .LVU565
.LBB2093:
	.loc 10 187 28 is_stmt 0 view .LVU566
	ldr	x0, [sp, 352]
.LVL128:
	.loc 10 187 28 view .LVU567
.LBE2093:
.LBE2092:
.LBB2094:
.LBI2094:
	.loc 10 200 7 is_stmt 1 view .LVU568
	.loc 10 200 7 is_stmt 0 view .LVU569
.LBE2094:
.LBE2091:
	.loc 10 231 2 view .LVU570
	cmp	x0, x21
	beq	.L36
.LVL129:
.LBB2095:
.LBI2095:
	.loc 10 236 7 is_stmt 1 view .LVU571
.LBB2096:
.LBB2097:
.LBI2097:
	.loc 11 491 7 view .LVU572
.LBB2098:
.LBI2098:
	.loc 12 120 7 view .LVU573
.LBE2098:
.LBE2097:
	.loc 10 237 34 is_stmt 0 view .LVU574
	ldr	x1, [sp, 368]
.LBB2101:
.LBB2100:
.LBB2099:
	.loc 12 133 19 view .LVU575
	add	x1, x1, 1
.LVL130:
	.loc 12 133 19 view .LVU576
	bl	_ZdlPvm
.LVL131:
.L36:
	.loc 12 133 19 view .LVU577
.LBE2099:
.LBE2100:
.LBE2101:
.LBE2096:
.LBE2095:
.LBE2090:
.LBE2089:
.LBB2102:
.LBI2102:
	.loc 10 150 14 is_stmt 1 view .LVU578
.LBB2103:
.LBI2103:
	.loc 13 162 7 view .LVU579
.LBB2104:
.LBI2104:
	.loc 12 89 7 view .LVU580
	.loc 12 89 7 is_stmt 0 view .LVU581
.LBE2104:
.LBE2103:
.LBE2102:
.LBE2088:
.LBE2087:
	.loc 9 29 2 is_stmt 1 view .LVU582
.LBB2105:
.LBI2105:
	.loc 1 606 5 view .LVU583
	.loc 1 606 5 is_stmt 0 view .LVU584
.LBE2105:
	.loc 7 364 2 is_stmt 1 view .LVU585
.LBB2107:
.LBB2106:
	.loc 1 611 18 is_stmt 0 view .LVU586
	ldr	x22, [x19, #:got_lo12:_ZSt4cout]
	mov	x2, 5
	adrp	x1, .LC10
	add	x1, x1, :lo12:.LC10
	mov	x0, x22
.LEHB22:
	bl	_ZSt16__ostream_insertIcSt11char_traitsIcEERSt13basic_ostreamIT_T0_ES6_PKS3_l
.LVL132:
	.loc 1 611 18 view .LVU587
.LBE2106:
.LBE2107:
.LBB2108:
.LBI2108:
	.loc 4 177 17 is_stmt 1 view .LVU588
.LBB2109:
	.loc 4 179 9 view .LVU589
	.loc 4 179 70 is_stmt 0 view .LVU590
	add	x0, sp, 304
.LVL133:
	.loc 4 179 70 view .LVU591
	mov	w2, 16
	mov	w1, 4
	mov	x8, x20
	mov	w3, 6
	bl	_ZN6Vec12810ToStringFPIfEENSt7__cxx1112basic_stringIcSt11char_traitsIcESaIcEEEPKT_iii.isra.0
.LVL134:
.LEHE22:
	.loc 4 179 70 view .LVU592
.LBE2109:
.LBE2108:
.LBB2110:
.LBI2110:
	.loc 10 6468 5 is_stmt 1 view .LVU593
.LBB2111:
.LBB2112:
.LBI2112:
	.loc 10 2311 7 view .LVU594
.LBB2113:
.LBI2113:
	.loc 10 186 7 view .LVU595
	.loc 10 186 7 is_stmt 0 view .LVU596
.LBE2113:
.LBE2112:
.LBB2114:
.LBI2114:
	.loc 10 901 7 is_stmt 1 view .LVU597
	.loc 10 901 7 is_stmt 0 view .LVU598
.LBE2114:
	.loc 10 6473 30 view .LVU599
	ldp	x1, x2, [sp, 352]
	mov	x0, x22
.LEHB23:
	bl	_ZSt16__ostream_insertIcSt11char_traitsIcEERSt13basic_ostreamIT_T0_ES6_PKS3_l
.LVL135:
	.loc 10 6473 30 view .LVU600
.LBE2111:
.LBE2110:
.LBB2115:
.LBI2115:
	.loc 1 108 7 is_stmt 1 view .LVU601
.LBB2116:
	.loc 1 113 13 is_stmt 0 view .LVU602
	bl	_ZSt4endlIcSt11char_traitsIcEERSt13basic_ostreamIT_T0_ES6_.isra.0
.LVL136:
.LEHE23:
	.loc 1 113 13 view .LVU603
.LBE2116:
.LBE2115:
.LBB2117:
.LBI2117:
	.loc 10 657 7 is_stmt 1 view .LVU604
.LBB2118:
.LBB2119:
.LBI2119:
	.loc 10 229 7 view .LVU605
.LBB2120:
.LBB2121:
.LBI2121:
	.loc 10 221 7 view .LVU606
.LBB2122:
.LBI2122:
	.loc 10 186 7 view .LVU607
.LBB2123:
	.loc 10 187 28 is_stmt 0 view .LVU608
	ldr	x0, [sp, 352]
.LVL137:
	.loc 10 187 28 view .LVU609
.LBE2123:
.LBE2122:
.LBB2124:
.LBI2124:
	.loc 10 200 7 is_stmt 1 view .LVU610
	.loc 10 200 7 is_stmt 0 view .LVU611
.LBE2124:
.LBE2121:
	.loc 10 231 2 view .LVU612
	cmp	x0, x21
	beq	.L37
.LVL138:
.LBB2125:
.LBI2125:
	.loc 10 236 7 is_stmt 1 view .LVU613
.LBB2126:
.LBB2127:
.LBI2127:
	.loc 11 491 7 view .LVU614
.LBB2128:
.LBI2128:
	.loc 12 120 7 view .LVU615
.LBE2128:
.LBE2127:
	.loc 10 237 34 is_stmt 0 view .LVU616
	ldr	x1, [sp, 368]
.LBB2131:
.LBB2130:
.LBB2129:
	.loc 12 133 19 view .LVU617
	add	x1, x1, 1
.LVL139:
	.loc 12 133 19 view .LVU618
	bl	_ZdlPvm
.LVL140:
.L37:
	.loc 12 133 19 view .LVU619
.LBE2129:
.LBE2130:
.LBE2131:
.LBE2126:
.LBE2125:
.LBE2120:
.LBE2119:
.LBB2132:
.LBI2132:
	.loc 10 150 14 is_stmt 1 view .LVU620
.LBB2133:
.LBI2133:
	.loc 13 162 7 view .LVU621
.LBB2134:
.LBI2134:
	.loc 12 89 7 view .LVU622
	.loc 12 89 7 is_stmt 0 view .LVU623
.LBE2134:
.LBE2133:
.LBE2132:
.LBE2118:
.LBE2117:
	.loc 9 30 2 is_stmt 1 view .LVU624
.LBB2135:
.LBI2135:
	.loc 1 606 5 view .LVU625
	.loc 1 606 5 is_stmt 0 view .LVU626
.LBE2135:
	.loc 7 364 2 is_stmt 1 view .LVU627
.LBB2137:
.LBB2136:
	.loc 1 611 18 is_stmt 0 view .LVU628
	ldr	x22, [x19, #:got_lo12:_ZSt4cout]
	mov	x2, 5
	adrp	x1, .LC11
	add	x1, x1, :lo12:.LC11
	mov	x0, x22
.LEHB24:
	bl	_ZSt16__ostream_insertIcSt11char_traitsIcEERSt13basic_ostreamIT_T0_ES6_PKS3_l
.LVL141:
	.loc 1 611 18 view .LVU629
.LBE2136:
.LBE2137:
.LBB2138:
.LBI2138:
	.loc 4 177 17 is_stmt 1 view .LVU630
.LBB2139:
	.loc 4 179 9 view .LVU631
	.loc 4 179 70 is_stmt 0 view .LVU632
	add	x0, sp, 320
.LVL142:
	.loc 4 179 70 view .LVU633
	mov	w2, 16
	mov	w1, 4
	mov	x8, x20
	mov	w3, 6
	bl	_ZN6Vec12810ToStringFPIfEENSt7__cxx1112basic_stringIcSt11char_traitsIcESaIcEEEPKT_iii.isra.0
.LVL143:
.LEHE24:
	.loc 4 179 70 view .LVU634
.LBE2139:
.LBE2138:
.LBB2140:
.LBI2140:
	.loc 10 6468 5 is_stmt 1 view .LVU635
.LBB2141:
.LBB2142:
.LBI2142:
	.loc 10 2311 7 view .LVU636
.LBB2143:
.LBI2143:
	.loc 10 186 7 view .LVU637
	.loc 10 186 7 is_stmt 0 view .LVU638
.LBE2143:
.LBE2142:
.LBB2144:
.LBI2144:
	.loc 10 901 7 is_stmt 1 view .LVU639
	.loc 10 901 7 is_stmt 0 view .LVU640
.LBE2144:
	.loc 10 6473 30 view .LVU641
	ldp	x1, x2, [sp, 352]
	mov	x0, x22
.LEHB25:
	bl	_ZSt16__ostream_insertIcSt11char_traitsIcEERSt13basic_ostreamIT_T0_ES6_PKS3_l
.LVL144:
	.loc 10 6473 30 view .LVU642
.LBE2141:
.LBE2140:
.LBB2145:
.LBI2145:
	.loc 1 108 7 is_stmt 1 view .LVU643
.LBB2146:
	.loc 1 113 13 is_stmt 0 view .LVU644
	bl	_ZSt4endlIcSt11char_traitsIcEERSt13basic_ostreamIT_T0_ES6_.isra.0
.LVL145:
.LEHE25:
	.loc 1 113 13 view .LVU645
.LBE2146:
.LBE2145:
.LBB2147:
.LBI2147:
	.loc 10 657 7 is_stmt 1 view .LVU646
.LBB2148:
.LBB2149:
.LBI2149:
	.loc 10 229 7 view .LVU647
.LBB2150:
.LBB2151:
.LBI2151:
	.loc 10 221 7 view .LVU648
.LBB2152:
.LBI2152:
	.loc 10 186 7 view .LVU649
.LBB2153:
	.loc 10 187 28 is_stmt 0 view .LVU650
	ldr	x0, [sp, 352]
.LVL146:
	.loc 10 187 28 view .LVU651
.LBE2153:
.LBE2152:
.LBB2154:
.LBI2154:
	.loc 10 200 7 is_stmt 1 view .LVU652
	.loc 10 200 7 is_stmt 0 view .LVU653
.LBE2154:
.LBE2151:
	.loc 10 231 2 view .LVU654
	cmp	x0, x21
	beq	.L38
.LVL147:
.LBB2155:
.LBI2155:
	.loc 10 236 7 is_stmt 1 view .LVU655
.LBB2156:
.LBB2157:
.LBI2157:
	.loc 11 491 7 view .LVU656
.LBB2158:
.LBI2158:
	.loc 12 120 7 view .LVU657
.LBE2158:
.LBE2157:
	.loc 10 237 34 is_stmt 0 view .LVU658
	ldr	x1, [sp, 368]
.LBB2161:
.LBB2160:
.LBB2159:
	.loc 12 133 19 view .LVU659
	add	x1, x1, 1
.LVL148:
	.loc 12 133 19 view .LVU660
	bl	_ZdlPvm
.LVL149:
.L38:
	.loc 12 133 19 view .LVU661
.LBE2159:
.LBE2160:
.LBE2161:
.LBE2156:
.LBE2155:
.LBE2150:
.LBE2149:
.LBB2162:
.LBI2162:
	.loc 10 150 14 is_stmt 1 view .LVU662
.LBB2163:
.LBI2163:
	.loc 13 162 7 view .LVU663
.LBB2164:
.LBI2164:
	.loc 12 89 7 view .LVU664
	.loc 12 89 7 is_stmt 0 view .LVU665
.LBE2164:
.LBE2163:
.LBE2162:
.LBE2148:
.LBE2147:
	.loc 9 32 2 is_stmt 1 view .LVU666
	.loc 9 32 31 view .LVU667
	.loc 9 33 2 view .LVU668
	.loc 9 32 13 is_stmt 0 view .LVU669
	adrp	x0, .LC16
	.loc 9 34 22 view .LVU670
	add	x3, sp, 144
	add	x25, sp, 160
	mov	x1, x3
	.loc 9 32 13 view .LVU671
	ldr	q1, [x0, #:lo12:.LC16]
	.loc 9 32 42 view .LVU672
	adrp	x0, .LC17
	.loc 9 34 22 view .LVU673
	mov	x2, x25
	str	x3, [sp, 104]
	.loc 9 32 42 view .LVU674
	ldr	q0, [x0, #:lo12:.LC17]
	.loc 9 34 22 view .LVU675
	mov	x0, x20
.LBB2165:
.LBB2166:
	.loc 4 184 72 view .LVU676
	add	x22, sp, 176
.LBE2166:
.LBE2165:
	.loc 9 32 42 view .LVU677
	stp	q1, q0, [sp, 144]
	.loc 9 34 2 is_stmt 1 view .LVU678
.LEHB26:
	.loc 9 34 22 is_stmt 0 view .LVU679
	bl	packedCompareDouble_
.LVL150:
	.loc 9 35 2 is_stmt 1 view .LVU680
.LBB2168:
.LBI2168:
	.loc 1 606 5 view .LVU681
	.loc 1 606 5 is_stmt 0 view .LVU682
.LBE2168:
	.loc 7 364 2 is_stmt 1 view .LVU683
.LBB2170:
.LBB2169:
	.loc 1 611 18 is_stmt 0 view .LVU684
	add	x1, x28, :lo12:.LC1
	ldr	x28, [x19, #:got_lo12:_ZSt4cout]
	mov	x2, 25
	mov	x0, x28
	bl	_ZSt16__ostream_insertIcSt11char_traitsIcEERSt13basic_ostreamIT_T0_ES6_PKS3_l
.LVL151:
	.loc 1 611 18 view .LVU685
.LBE2169:
.LBE2170:
.LBB2171:
.LBI2171:
	.loc 1 108 7 is_stmt 1 view .LVU686
.LBB2172:
	.loc 1 113 13 is_stmt 0 view .LVU687
	mov	x0, x28
	bl	_ZSt4endlIcSt11char_traitsIcEERSt13basic_ostreamIT_T0_ES6_.isra.0
.LVL152:
	.loc 1 113 13 view .LVU688
.LBE2172:
.LBE2171:
	.loc 9 36 2 is_stmt 1 view .LVU689
.LBB2173:
.LBI2173:
	.loc 1 606 5 view .LVU690
	.loc 1 606 5 is_stmt 0 view .LVU691
.LBE2173:
	.loc 7 364 2 is_stmt 1 view .LVU692
.LBB2175:
.LBB2174:
	.loc 1 611 18 is_stmt 0 view .LVU693
	add	x1, x27, :lo12:.LC2
	mov	x2, 3
	mov	x0, x28
	bl	_ZSt16__ostream_insertIcSt11char_traitsIcEERSt13basic_ostreamIT_T0_ES6_PKS3_l
.LVL153:
	.loc 1 611 18 view .LVU694
.LBE2174:
.LBE2175:
.LBB2176:
.LBI2165:
	.loc 4 182 17 is_stmt 1 view .LVU695
.LBB2167:
	.loc 4 184 9 view .LVU696
	.loc 4 184 72 is_stmt 0 view .LVU697
	ldr	x3, [sp, 104]
	mov	w2, 32
	mov	w1, 2
	mov	x8, x22
	mov	x0, x3
	mov	w3, 12
	bl	_ZN6Vec12810ToStringFPIdEENSt7__cxx1112basic_stringIcSt11char_traitsIcESaIcEEEPKT_iii.isra.0
.LVL154:
.LEHE26:
	.loc 4 184 72 view .LVU698
.LBE2167:
.LBE2176:
.LBB2177:
.LBI2177:
	.loc 10 6468 5 is_stmt 1 view .LVU699
.LBB2178:
.LBB2179:
.LBI2179:
	.loc 10 2311 7 view .LVU700
.LBB2180:
.LBI2180:
	.loc 10 186 7 view .LVU701
	.loc 10 186 7 is_stmt 0 view .LVU702
.LBE2180:
.LBE2179:
.LBB2181:
.LBI2181:
	.loc 10 901 7 is_stmt 1 view .LVU703
	.loc 10 901 7 is_stmt 0 view .LVU704
.LBE2181:
	.loc 10 6473 30 view .LVU705
	ldp	x1, x2, [sp, 176]
	mov	x0, x28
.LEHB27:
	bl	_ZSt16__ostream_insertIcSt11char_traitsIcEERSt13basic_ostreamIT_T0_ES6_PKS3_l
.LVL155:
	.loc 10 6473 30 view .LVU706
.LBE2178:
.LBE2177:
.LBB2182:
.LBI2182:
	.loc 1 108 7 is_stmt 1 view .LVU707
.LBB2183:
	.loc 1 113 13 is_stmt 0 view .LVU708
	bl	_ZSt4endlIcSt11char_traitsIcEERSt13basic_ostreamIT_T0_ES6_.isra.0
.LVL156:
.LEHE27:
	.loc 1 113 13 view .LVU709
.LBE2183:
.LBE2182:
.LBB2184:
.LBI2184:
	.loc 10 657 7 is_stmt 1 view .LVU710
.LBB2185:
.LBB2186:
.LBI2186:
	.loc 10 229 7 view .LVU711
.LBB2187:
.LBB2188:
.LBI2188:
	.loc 10 221 7 view .LVU712
.LBB2189:
.LBI2189:
	.loc 10 186 7 view .LVU713
.LBB2190:
	.loc 10 187 28 is_stmt 0 view .LVU714
	ldr	x0, [sp, 176]
.LVL157:
	.loc 10 187 28 view .LVU715
.LBE2190:
.LBE2189:
.LBB2191:
.LBI2191:
	.loc 10 200 7 is_stmt 1 view .LVU716
	.loc 10 200 7 is_stmt 0 view .LVU717
.LBE2191:
.LBE2188:
	.loc 10 231 2 view .LVU718
	add	x27, sp, 192
	cmp	x0, x27
	beq	.L39
.LVL158:
.LBB2192:
.LBI2192:
	.loc 10 236 7 is_stmt 1 view .LVU719
.LBB2193:
.LBB2194:
.LBI2194:
	.loc 11 491 7 view .LVU720
.LBB2195:
.LBI2195:
	.loc 12 120 7 view .LVU721
.LBE2195:
.LBE2194:
	.loc 10 237 34 is_stmt 0 view .LVU722
	ldr	x1, [sp, 192]
.LBB2198:
.LBB2197:
.LBB2196:
	.loc 12 133 19 view .LVU723
	add	x1, x1, 1
.LVL159:
	.loc 12 133 19 view .LVU724
	bl	_ZdlPvm
.LVL160:
.L39:
	.loc 12 133 19 view .LVU725
.LBE2196:
.LBE2197:
.LBE2198:
.LBE2193:
.LBE2192:
.LBE2187:
.LBE2186:
.LBB2199:
.LBI2199:
	.loc 10 150 14 is_stmt 1 view .LVU726
.LBB2200:
.LBI2200:
	.loc 13 162 7 view .LVU727
.LBB2201:
.LBI2201:
	.loc 12 89 7 view .LVU728
	.loc 12 89 7 is_stmt 0 view .LVU729
.LBE2201:
.LBE2200:
.LBE2199:
.LBE2185:
.LBE2184:
	.loc 9 37 2 is_stmt 1 view .LVU730
.LBB2202:
.LBI2202:
	.loc 1 606 5 view .LVU731
	.loc 1 606 5 is_stmt 0 view .LVU732
.LBE2202:
	.loc 7 364 2 is_stmt 1 view .LVU733
.LBB2204:
.LBB2203:
	.loc 1 611 18 is_stmt 0 view .LVU734
	ldr	x0, [x19, #:got_lo12:_ZSt4cout]
	add	x1, x26, :lo12:.LC3
	mov	x2, 3
	mov	x26, x0
.LEHB28:
	bl	_ZSt16__ostream_insertIcSt11char_traitsIcEERSt13basic_ostreamIT_T0_ES6_PKS3_l
.LVL161:
	.loc 1 611 18 view .LVU735
.LBE2203:
.LBE2204:
.LBB2205:
.LBI2205:
	.loc 4 182 17 is_stmt 1 view .LVU736
.LBB2206:
	.loc 4 184 9 view .LVU737
	.loc 4 184 72 is_stmt 0 view .LVU738
	mov	x0, x25
	mov	w2, 32
	mov	w1, 2
	mov	x8, x22
	mov	w3, 12
	bl	_ZN6Vec12810ToStringFPIdEENSt7__cxx1112basic_stringIcSt11char_traitsIcESaIcEEEPKT_iii.isra.0
.LVL162:
.LEHE28:
	.loc 4 184 72 view .LVU739
.LBE2206:
.LBE2205:
.LBB2207:
.LBI2207:
	.loc 10 6468 5 is_stmt 1 view .LVU740
.LBB2208:
.LBB2209:
.LBI2209:
	.loc 10 2311 7 view .LVU741
.LBB2210:
.LBI2210:
	.loc 10 186 7 view .LVU742
	.loc 10 186 7 is_stmt 0 view .LVU743
.LBE2210:
.LBE2209:
.LBB2211:
.LBI2211:
	.loc 10 901 7 is_stmt 1 view .LVU744
	.loc 10 901 7 is_stmt 0 view .LVU745
.LBE2211:
	.loc 10 6473 30 view .LVU746
	ldp	x1, x2, [sp, 176]
	mov	x0, x26
.LEHB29:
	bl	_ZSt16__ostream_insertIcSt11char_traitsIcEERSt13basic_ostreamIT_T0_ES6_PKS3_l
.LVL163:
	.loc 10 6473 30 view .LVU747
.LBE2208:
.LBE2207:
.LBB2212:
.LBI2212:
	.loc 1 108 7 is_stmt 1 view .LVU748
.LBB2213:
	.loc 1 113 13 is_stmt 0 view .LVU749
	bl	_ZSt4endlIcSt11char_traitsIcEERSt13basic_ostreamIT_T0_ES6_.isra.0
.LVL164:
.LEHE29:
	.loc 1 113 13 view .LVU750
.LBE2213:
.LBE2212:
.LBB2214:
.LBI2214:
	.loc 10 657 7 is_stmt 1 view .LVU751
.LBB2215:
.LBB2216:
.LBI2216:
	.loc 10 229 7 view .LVU752
.LBB2217:
.LBB2218:
.LBI2218:
	.loc 10 221 7 view .LVU753
.LBB2219:
.LBI2219:
	.loc 10 186 7 view .LVU754
.LBB2220:
	.loc 10 187 28 is_stmt 0 view .LVU755
	ldr	x0, [sp, 176]
.LVL165:
	.loc 10 187 28 view .LVU756
.LBE2220:
.LBE2219:
.LBB2221:
.LBI2221:
	.loc 10 200 7 is_stmt 1 view .LVU757
	.loc 10 200 7 is_stmt 0 view .LVU758
.LBE2221:
.LBE2218:
	.loc 10 231 2 view .LVU759
	cmp	x0, x27
	beq	.L40
.LVL166:
.LBB2222:
.LBI2222:
	.loc 10 236 7 is_stmt 1 view .LVU760
.LBB2223:
.LBB2224:
.LBI2224:
	.loc 11 491 7 view .LVU761
.LBB2225:
.LBI2225:
	.loc 12 120 7 view .LVU762
.LBE2225:
.LBE2224:
	.loc 10 237 34 is_stmt 0 view .LVU763
	ldr	x1, [sp, 192]
.LBB2228:
.LBB2227:
.LBB2226:
	.loc 12 133 19 view .LVU764
	add	x1, x1, 1
.LVL167:
	.loc 12 133 19 view .LVU765
	bl	_ZdlPvm
.LVL168:
.L40:
	.loc 12 133 19 view .LVU766
.LBE2226:
.LBE2227:
.LBE2228:
.LBE2223:
.LBE2222:
.LBE2217:
.LBE2216:
.LBB2229:
.LBI2229:
	.loc 10 150 14 is_stmt 1 view .LVU767
.LBB2230:
.LBI2230:
	.loc 13 162 7 view .LVU768
.LBB2231:
.LBI2231:
	.loc 12 89 7 view .LVU769
	.loc 12 89 7 is_stmt 0 view .LVU770
.LBE2231:
.LBE2230:
.LBE2229:
.LBE2215:
.LBE2214:
	.loc 9 38 2 is_stmt 1 view .LVU771
.LBB2232:
.LBI2232:
	.loc 1 606 5 view .LVU772
	.loc 1 606 5 is_stmt 0 view .LVU773
.LBE2232:
	.loc 7 364 2 is_stmt 1 view .LVU774
.LBB2234:
.LBB2233:
	.loc 1 611 18 is_stmt 0 view .LVU775
	ldr	x0, [x19, #:got_lo12:_ZSt4cout]
	add	x1, x24, :lo12:.LC4
	mov	x2, 4
	mov	x24, x0
.LEHB30:
	bl	_ZSt16__ostream_insertIcSt11char_traitsIcEERSt13basic_ostreamIT_T0_ES6_PKS3_l
.LVL169:
	.loc 1 611 18 view .LVU776
.LBE2233:
.LBE2234:
.LBB2235:
.LBI2235:
	.loc 4 182 17 is_stmt 1 view .LVU777
.LBB2236:
	.loc 4 184 9 view .LVU778
	.loc 4 184 72 is_stmt 0 view .LVU779
	mov	x0, x20
	mov	w2, 32
	mov	w1, 2
	mov	x8, x22
	mov	w3, 12
	bl	_ZN6Vec12810ToStringFPIdEENSt7__cxx1112basic_stringIcSt11char_traitsIcESaIcEEEPKT_iii.isra.0
.LVL170:
.LEHE30:
	.loc 4 184 72 view .LVU780
.LBE2236:
.LBE2235:
.LBB2237:
.LBI2237:
	.loc 10 6468 5 is_stmt 1 view .LVU781
.LBB2238:
.LBB2239:
.LBI2239:
	.loc 10 2311 7 view .LVU782
.LBB2240:
.LBI2240:
	.loc 10 186 7 view .LVU783
	.loc 10 186 7 is_stmt 0 view .LVU784
.LBE2240:
.LBE2239:
.LBB2241:
.LBI2241:
	.loc 10 901 7 is_stmt 1 view .LVU785
	.loc 10 901 7 is_stmt 0 view .LVU786
.LBE2241:
	.loc 10 6473 30 view .LVU787
	ldp	x1, x2, [sp, 176]
	mov	x0, x24
.LEHB31:
	bl	_ZSt16__ostream_insertIcSt11char_traitsIcEERSt13basic_ostreamIT_T0_ES6_PKS3_l
.LVL171:
	.loc 10 6473 30 view .LVU788
.LBE2238:
.LBE2237:
.LBB2242:
.LBI2242:
	.loc 1 108 7 is_stmt 1 view .LVU789
.LBB2243:
	.loc 1 113 13 is_stmt 0 view .LVU790
	bl	_ZSt4endlIcSt11char_traitsIcEERSt13basic_ostreamIT_T0_ES6_.isra.0
.LVL172:
.LEHE31:
	.loc 1 113 13 view .LVU791
.LBE2243:
.LBE2242:
.LBB2244:
.LBI2244:
	.loc 10 657 7 is_stmt 1 view .LVU792
.LBB2245:
.LBB2246:
.LBI2246:
	.loc 10 229 7 view .LVU793
.LBB2247:
.LBB2248:
.LBI2248:
	.loc 10 221 7 view .LVU794
.LBB2249:
.LBI2249:
	.loc 10 186 7 view .LVU795
.LBB2250:
	.loc 10 187 28 is_stmt 0 view .LVU796
	ldr	x0, [sp, 176]
.LVL173:
	.loc 10 187 28 view .LVU797
.LBE2250:
.LBE2249:
.LBB2251:
.LBI2251:
	.loc 10 200 7 is_stmt 1 view .LVU798
	.loc 10 200 7 is_stmt 0 view .LVU799
.LBE2251:
.LBE2248:
	.loc 10 231 2 view .LVU800
	cmp	x0, x27
	beq	.L41
.LVL174:
.LBB2252:
.LBI2252:
	.loc 10 236 7 is_stmt 1 view .LVU801
.LBB2253:
.LBB2254:
.LBI2254:
	.loc 11 491 7 view .LVU802
.LBB2255:
.LBI2255:
	.loc 12 120 7 view .LVU803
.LBE2255:
.LBE2254:
	.loc 10 237 34 is_stmt 0 view .LVU804
	ldr	x1, [sp, 192]
.LBB2258:
.LBB2257:
.LBB2256:
	.loc 12 133 19 view .LVU805
	add	x1, x1, 1
.LVL175:
	.loc 12 133 19 view .LVU806
	bl	_ZdlPvm
.LVL176:
.L41:
	.loc 12 133 19 view .LVU807
.LBE2256:
.LBE2257:
.LBE2258:
.LBE2253:
.LBE2252:
.LBE2247:
.LBE2246:
.LBB2259:
.LBI2259:
	.loc 10 150 14 is_stmt 1 view .LVU808
.LBB2260:
.LBI2260:
	.loc 13 162 7 view .LVU809
.LBB2261:
.LBI2261:
	.loc 12 89 7 view .LVU810
	.loc 12 89 7 is_stmt 0 view .LVU811
.LBE2261:
.LBE2260:
.LBE2259:
.LBE2245:
.LBE2244:
	.loc 9 39 2 is_stmt 1 view .LVU812
.LBB2262:
.LBI2262:
	.loc 1 606 5 view .LVU813
	.loc 1 606 5 is_stmt 0 view .LVU814
.LBE2262:
	.loc 7 364 2 is_stmt 1 view .LVU815
.LBB2264:
.LBB2263:
	.loc 1 611 18 is_stmt 0 view .LVU816
	ldr	x20, [x19, #:got_lo12:_ZSt4cout]
	add	x1, x23, :lo12:.LC5
	mov	x2, 4
	mov	x0, x20
.LEHB32:
	bl	_ZSt16__ostream_insertIcSt11char_traitsIcEERSt13basic_ostreamIT_T0_ES6_PKS3_l
.LVL177:
	.loc 1 611 18 view .LVU817
.LBE2263:
.LBE2264:
.LBB2265:
.LBI2265:
	.loc 4 182 17 is_stmt 1 view .LVU818
.LBB2266:
	.loc 4 184 9 view .LVU819
	.loc 4 184 72 is_stmt 0 view .LVU820
	mov	x0, x21
	mov	w2, 32
	mov	w1, 2
	mov	x8, x22
	mov	w3, 12
	bl	_ZN6Vec12810ToStringFPIdEENSt7__cxx1112basic_stringIcSt11char_traitsIcESaIcEEEPKT_iii.isra.0
.LVL178:
.LEHE32:
	.loc 4 184 72 view .LVU821
.LBE2266:
.LBE2265:
.LBB2267:
.LBI2267:
	.loc 10 6468 5 is_stmt 1 view .LVU822
.LBB2268:
.LBB2269:
.LBI2269:
	.loc 10 2311 7 view .LVU823
.LBB2270:
.LBI2270:
	.loc 10 186 7 view .LVU824
	.loc 10 186 7 is_stmt 0 view .LVU825
.LBE2270:
.LBE2269:
.LBB2271:
.LBI2271:
	.loc 10 901 7 is_stmt 1 view .LVU826
	.loc 10 901 7 is_stmt 0 view .LVU827
.LBE2271:
	.loc 10 6473 30 view .LVU828
	ldp	x1, x2, [sp, 176]
	mov	x0, x20
.LEHB33:
	bl	_ZSt16__ostream_insertIcSt11char_traitsIcEERSt13basic_ostreamIT_T0_ES6_PKS3_l
.LVL179:
	.loc 10 6473 30 view .LVU829
.LBE2268:
.LBE2267:
.LBB2272:
.LBI2272:
	.loc 1 108 7 is_stmt 1 view .LVU830
.LBB2273:
	.loc 1 113 13 is_stmt 0 view .LVU831
	bl	_ZSt4endlIcSt11char_traitsIcEERSt13basic_ostreamIT_T0_ES6_.isra.0
.LVL180:
.LEHE33:
	.loc 1 113 13 view .LVU832
.LBE2273:
.LBE2272:
.LBB2274:
.LBI2274:
	.loc 10 657 7 is_stmt 1 view .LVU833
.LBB2275:
.LBB2276:
.LBI2276:
	.loc 10 229 7 view .LVU834
.LBB2277:
.LBB2278:
.LBI2278:
	.loc 10 221 7 view .LVU835
.LBB2279:
.LBI2279:
	.loc 10 186 7 view .LVU836
.LBB2280:
	.loc 10 187 28 is_stmt 0 view .LVU837
	ldr	x0, [sp, 176]
.LVL181:
	.loc 10 187 28 view .LVU838
.LBE2280:
.LBE2279:
.LBB2281:
.LBI2281:
	.loc 10 200 7 is_stmt 1 view .LVU839
	.loc 10 200 7 is_stmt 0 view .LVU840
.LBE2281:
.LBE2278:
	.loc 10 231 2 view .LVU841
	cmp	x0, x27
	beq	.L42
.LVL182:
.LBB2282:
.LBI2282:
	.loc 10 236 7 is_stmt 1 view .LVU842
.LBB2283:
.LBB2284:
.LBI2284:
	.loc 11 491 7 view .LVU843
.LBB2285:
.LBI2285:
	.loc 12 120 7 view .LVU844
.LBE2285:
.LBE2284:
	.loc 10 237 34 is_stmt 0 view .LVU845
	ldr	x1, [sp, 192]
.LBB2288:
.LBB2287:
.LBB2286:
	.loc 12 133 19 view .LVU846
	add	x1, x1, 1
.LVL183:
	.loc 12 133 19 view .LVU847
	bl	_ZdlPvm
.LVL184:
.L42:
	.loc 12 133 19 view .LVU848
.LBE2286:
.LBE2287:
.LBE2288:
.LBE2283:
.LBE2282:
.LBE2277:
.LBE2276:
.LBB2289:
.LBI2289:
	.loc 10 150 14 is_stmt 1 view .LVU849
.LBB2290:
.LBI2290:
	.loc 13 162 7 view .LVU850
.LBB2291:
.LBI2291:
	.loc 12 89 7 view .LVU851
	.loc 12 89 7 is_stmt 0 view .LVU852
.LBE2291:
.LBE2290:
.LBE2289:
.LBE2275:
.LBE2274:
	.loc 9 40 2 is_stmt 1 view .LVU853
.LBB2292:
.LBI2292:
	.loc 1 606 5 view .LVU854
	.loc 1 606 5 is_stmt 0 view .LVU855
.LBE2292:
	.loc 7 364 2 is_stmt 1 view .LVU856
.LBB2294:
.LBB2293:
	.loc 1 611 18 is_stmt 0 view .LVU857
	ldr	x20, [x19, #:got_lo12:_ZSt4cout]
	adrp	x0, .LC6
	mov	x2, 4
	add	x1, x0, :lo12:.LC6
	mov	x0, x20
.LEHB34:
	bl	_ZSt16__ostream_insertIcSt11char_traitsIcEERSt13basic_ostreamIT_T0_ES6_PKS3_l
.LVL185:
	.loc 1 611 18 view .LVU858
.LBE2293:
.LBE2294:
.LBB2295:
.LBI2295:
	.loc 4 182 17 is_stmt 1 view .LVU859
.LBB2296:
	.loc 4 184 9 view .LVU860
	.loc 4 184 72 is_stmt 0 view .LVU861
	add	x0, sp, 384
.LVL186:
	.loc 4 184 72 view .LVU862
	mov	w2, 32
	mov	w1, 2
	mov	x8, x22
	mov	w3, 12
	bl	_ZN6Vec12810ToStringFPIdEENSt7__cxx1112basic_stringIcSt11char_traitsIcESaIcEEEPKT_iii.isra.0
.LVL187:
.LEHE34:
	.loc 4 184 72 view .LVU863
.LBE2296:
.LBE2295:
.LBB2297:
.LBI2297:
	.loc 10 6468 5 is_stmt 1 view .LVU864
.LBB2298:
.LBB2299:
.LBI2299:
	.loc 10 2311 7 view .LVU865
.LBB2300:
.LBI2300:
	.loc 10 186 7 view .LVU866
	.loc 10 186 7 is_stmt 0 view .LVU867
.LBE2300:
.LBE2299:
.LBB2301:
.LBI2301:
	.loc 10 901 7 is_stmt 1 view .LVU868
	.loc 10 901 7 is_stmt 0 view .LVU869
.LBE2301:
	.loc 10 6473 30 view .LVU870
	ldp	x1, x2, [sp, 176]
	mov	x0, x20
.LEHB35:
	bl	_ZSt16__ostream_insertIcSt11char_traitsIcEERSt13basic_ostreamIT_T0_ES6_PKS3_l
.LVL188:
	.loc 10 6473 30 view .LVU871
.LBE2298:
.LBE2297:
.LBB2302:
.LBI2302:
	.loc 1 108 7 is_stmt 1 view .LVU872
.LBB2303:
	.loc 1 113 13 is_stmt 0 view .LVU873
	bl	_ZSt4endlIcSt11char_traitsIcEERSt13basic_ostreamIT_T0_ES6_.isra.0
.LVL189:
.LEHE35:
	.loc 1 113 13 view .LVU874
.LBE2303:
.LBE2302:
.LBB2304:
.LBI2304:
	.loc 10 657 7 is_stmt 1 view .LVU875
.LBB2305:
.LBB2306:
.LBI2306:
	.loc 10 229 7 view .LVU876
.LBB2307:
.LBB2308:
.LBI2308:
	.loc 10 221 7 view .LVU877
.LBB2309:
.LBI2309:
	.loc 10 186 7 view .LVU878
.LBB2310:
	.loc 10 187 28 is_stmt 0 view .LVU879
	ldr	x0, [sp, 176]
.LVL190:
	.loc 10 187 28 view .LVU880
.LBE2310:
.LBE2309:
.LBB2311:
.LBI2311:
	.loc 10 200 7 is_stmt 1 view .LVU881
	.loc 10 200 7 is_stmt 0 view .LVU882
.LBE2311:
.LBE2308:
	.loc 10 231 2 view .LVU883
	cmp	x0, x27
	beq	.L43
.LVL191:
.LBB2312:
.LBI2312:
	.loc 10 236 7 is_stmt 1 view .LVU884
.LBB2313:
.LBB2314:
.LBI2314:
	.loc 11 491 7 view .LVU885
.LBB2315:
.LBI2315:
	.loc 12 120 7 view .LVU886
.LBE2315:
.LBE2314:
	.loc 10 237 34 is_stmt 0 view .LVU887
	ldr	x1, [sp, 192]
.LBB2318:
.LBB2317:
.LBB2316:
	.loc 12 133 19 view .LVU888
	add	x1, x1, 1
.LVL192:
	.loc 12 133 19 view .LVU889
	bl	_ZdlPvm
.LVL193:
.L43:
	.loc 12 133 19 view .LVU890
.LBE2316:
.LBE2317:
.LBE2318:
.LBE2313:
.LBE2312:
.LBE2307:
.LBE2306:
.LBB2319:
.LBI2319:
	.loc 10 150 14 is_stmt 1 view .LVU891
.LBB2320:
.LBI2320:
	.loc 13 162 7 view .LVU892
.LBB2321:
.LBI2321:
	.loc 12 89 7 view .LVU893
	.loc 12 89 7 is_stmt 0 view .LVU894
.LBE2321:
.LBE2320:
.LBE2319:
.LBE2305:
.LBE2304:
	.loc 9 41 2 is_stmt 1 view .LVU895
.LBB2322:
.LBI2322:
	.loc 1 606 5 view .LVU896
	.loc 1 606 5 is_stmt 0 view .LVU897
.LBE2322:
	.loc 7 364 2 is_stmt 1 view .LVU898
.LBB2324:
.LBB2323:
	.loc 1 611 18 is_stmt 0 view .LVU899
	ldr	x20, [x19, #:got_lo12:_ZSt4cout]
	adrp	x0, .LC7
	mov	x2, 4
	add	x1, x0, :lo12:.LC7
	mov	x0, x20
.LEHB36:
	bl	_ZSt16__ostream_insertIcSt11char_traitsIcEERSt13basic_ostreamIT_T0_ES6_PKS3_l
.LVL194:
	.loc 1 611 18 view .LVU900
.LBE2323:
.LBE2324:
.LBB2325:
.LBI2325:
	.loc 4 182 17 is_stmt 1 view .LVU901
.LBB2326:
	.loc 4 184 9 view .LVU902
	.loc 4 184 72 is_stmt 0 view .LVU903
	add	x0, sp, 400
.LVL195:
	.loc 4 184 72 view .LVU904
	mov	w2, 32
	mov	w1, 2
	mov	x8, x22
	mov	w3, 12
	bl	_ZN6Vec12810ToStringFPIdEENSt7__cxx1112basic_stringIcSt11char_traitsIcESaIcEEEPKT_iii.isra.0
.LVL196:
.LEHE36:
	.loc 4 184 72 view .LVU905
.LBE2326:
.LBE2325:
.LBB2327:
.LBI2327:
	.loc 10 6468 5 is_stmt 1 view .LVU906
.LBB2328:
.LBB2329:
.LBI2329:
	.loc 10 2311 7 view .LVU907
.LBB2330:
.LBI2330:
	.loc 10 186 7 view .LVU908
	.loc 10 186 7 is_stmt 0 view .LVU909
.LBE2330:
.LBE2329:
.LBB2331:
.LBI2331:
	.loc 10 901 7 is_stmt 1 view .LVU910
	.loc 10 901 7 is_stmt 0 view .LVU911
.LBE2331:
	.loc 10 6473 30 view .LVU912
	ldp	x1, x2, [sp, 176]
	mov	x0, x20
.LEHB37:
	bl	_ZSt16__ostream_insertIcSt11char_traitsIcEERSt13basic_ostreamIT_T0_ES6_PKS3_l
.LVL197:
	.loc 10 6473 30 view .LVU913
.LBE2328:
.LBE2327:
.LBB2332:
.LBI2332:
	.loc 1 108 7 is_stmt 1 view .LVU914
.LBB2333:
	.loc 1 113 13 is_stmt 0 view .LVU915
	bl	_ZSt4endlIcSt11char_traitsIcEERSt13basic_ostreamIT_T0_ES6_.isra.0
.LVL198:
.LEHE37:
	.loc 1 113 13 view .LVU916
.LBE2333:
.LBE2332:
.LBB2334:
.LBI2334:
	.loc 10 657 7 is_stmt 1 view .LVU917
.LBB2335:
.LBB2336:
.LBI2336:
	.loc 10 229 7 view .LVU918
.LBB2337:
.LBB2338:
.LBI2338:
	.loc 10 221 7 view .LVU919
.LBB2339:
.LBI2339:
	.loc 10 186 7 view .LVU920
.LBB2340:
	.loc 10 187 28 is_stmt 0 view .LVU921
	ldr	x0, [sp, 176]
.LVL199:
	.loc 10 187 28 view .LVU922
.LBE2340:
.LBE2339:
.LBB2341:
.LBI2341:
	.loc 10 200 7 is_stmt 1 view .LVU923
	.loc 10 200 7 is_stmt 0 view .LVU924
.LBE2341:
.LBE2338:
	.loc 10 231 2 view .LVU925
	cmp	x0, x27
	beq	.L44
.LVL200:
.LBB2342:
.LBI2342:
	.loc 10 236 7 is_stmt 1 view .LVU926
.LBB2343:
.LBB2344:
.LBI2344:
	.loc 11 491 7 view .LVU927
.LBB2345:
.LBI2345:
	.loc 12 120 7 view .LVU928
.LBE2345:
.LBE2344:
	.loc 10 237 34 is_stmt 0 view .LVU929
	ldr	x1, [sp, 192]
.LBB2348:
.LBB2347:
.LBB2346:
	.loc 12 133 19 view .LVU930
	add	x1, x1, 1
.LVL201:
	.loc 12 133 19 view .LVU931
	bl	_ZdlPvm
.LVL202:
.L44:
	.loc 12 133 19 view .LVU932
.LBE2346:
.LBE2347:
.LBE2348:
.LBE2343:
.LBE2342:
.LBE2337:
.LBE2336:
.LBB2349:
.LBI2349:
	.loc 10 150 14 is_stmt 1 view .LVU933
.LBB2350:
.LBI2350:
	.loc 13 162 7 view .LVU934
.LBB2351:
.LBI2351:
	.loc 12 89 7 view .LVU935
	.loc 12 89 7 is_stmt 0 view .LVU936
.LBE2351:
.LBE2350:
.LBE2349:
.LBE2335:
.LBE2334:
	.loc 9 42 2 is_stmt 1 view .LVU937
.LBB2352:
.LBI2352:
	.loc 1 606 5 view .LVU938
	.loc 1 606 5 is_stmt 0 view .LVU939
.LBE2352:
	.loc 7 364 2 is_stmt 1 view .LVU940
.LBB2354:
.LBB2353:
	.loc 1 611 18 is_stmt 0 view .LVU941
	ldr	x20, [x19, #:got_lo12:_ZSt4cout]
	adrp	x0, .LC8
	mov	x2, 4
	add	x1, x0, :lo12:.LC8
	mov	x0, x20
.LEHB38:
	bl	_ZSt16__ostream_insertIcSt11char_traitsIcEERSt13basic_ostreamIT_T0_ES6_PKS3_l
.LVL203:
	.loc 1 611 18 view .LVU942
.LBE2353:
.LBE2354:
.LBB2355:
.LBI2355:
	.loc 4 182 17 is_stmt 1 view .LVU943
.LBB2356:
	.loc 4 184 9 view .LVU944
	.loc 4 184 72 is_stmt 0 view .LVU945
	add	x0, sp, 416
.LVL204:
	.loc 4 184 72 view .LVU946
	mov	w2, 32
	mov	w1, 2
	mov	x8, x22
	mov	w3, 12
	bl	_ZN6Vec12810ToStringFPIdEENSt7__cxx1112basic_stringIcSt11char_traitsIcESaIcEEEPKT_iii.isra.0
.LVL205:
.LEHE38:
	.loc 4 184 72 view .LVU947
.LBE2356:
.LBE2355:
.LBB2357:
.LBI2357:
	.loc 10 6468 5 is_stmt 1 view .LVU948
.LBB2358:
.LBB2359:
.LBI2359:
	.loc 10 2311 7 view .LVU949
.LBB2360:
.LBI2360:
	.loc 10 186 7 view .LVU950
	.loc 10 186 7 is_stmt 0 view .LVU951
.LBE2360:
.LBE2359:
.LBB2361:
.LBI2361:
	.loc 10 901 7 is_stmt 1 view .LVU952
	.loc 10 901 7 is_stmt 0 view .LVU953
.LBE2361:
	.loc 10 6473 30 view .LVU954
	ldp	x1, x2, [sp, 176]
	mov	x0, x20
.LEHB39:
	bl	_ZSt16__ostream_insertIcSt11char_traitsIcEERSt13basic_ostreamIT_T0_ES6_PKS3_l
.LVL206:
	.loc 10 6473 30 view .LVU955
.LBE2358:
.LBE2357:
.LBB2362:
.LBI2362:
	.loc 1 108 7 is_stmt 1 view .LVU956
.LBB2363:
	.loc 1 113 13 is_stmt 0 view .LVU957
	bl	_ZSt4endlIcSt11char_traitsIcEERSt13basic_ostreamIT_T0_ES6_.isra.0
.LVL207:
.LEHE39:
	.loc 1 113 13 view .LVU958
.LBE2363:
.LBE2362:
.LBB2364:
.LBI2364:
	.loc 10 657 7 is_stmt 1 view .LVU959
.LBB2365:
.LBB2366:
.LBI2366:
	.loc 10 229 7 view .LVU960
.LBB2367:
.LBB2368:
.LBI2368:
	.loc 10 221 7 view .LVU961
.LBB2369:
.LBI2369:
	.loc 10 186 7 view .LVU962
.LBB2370:
	.loc 10 187 28 is_stmt 0 view .LVU963
	ldr	x0, [sp, 176]
.LVL208:
	.loc 10 187 28 view .LVU964
.LBE2370:
.LBE2369:
.LBB2371:
.LBI2371:
	.loc 10 200 7 is_stmt 1 view .LVU965
	.loc 10 200 7 is_stmt 0 view .LVU966
.LBE2371:
.LBE2368:
	.loc 10 231 2 view .LVU967
	cmp	x0, x27
	beq	.L45
.LVL209:
.LBB2372:
.LBI2372:
	.loc 10 236 7 is_stmt 1 view .LVU968
.LBB2373:
.LBB2374:
.LBI2374:
	.loc 11 491 7 view .LVU969
.LBB2375:
.LBI2375:
	.loc 12 120 7 view .LVU970
.LBE2375:
.LBE2374:
	.loc 10 237 34 is_stmt 0 view .LVU971
	ldr	x1, [sp, 192]
.LBB2378:
.LBB2377:
.LBB2376:
	.loc 12 133 19 view .LVU972
	add	x1, x1, 1
.LVL210:
	.loc 12 133 19 view .LVU973
	bl	_ZdlPvm
.LVL211:
.L45:
	.loc 12 133 19 view .LVU974
.LBE2376:
.LBE2377:
.LBE2378:
.LBE2373:
.LBE2372:
.LBE2367:
.LBE2366:
.LBB2379:
.LBI2379:
	.loc 10 150 14 is_stmt 1 view .LVU975
.LBB2380:
.LBI2380:
	.loc 13 162 7 view .LVU976
.LBB2381:
.LBI2381:
	.loc 12 89 7 view .LVU977
	.loc 12 89 7 is_stmt 0 view .LVU978
.LBE2381:
.LBE2380:
.LBE2379:
.LBE2365:
.LBE2364:
	.loc 9 43 2 is_stmt 1 view .LVU979
.LBB2382:
.LBI2382:
	.loc 1 606 5 view .LVU980
	.loc 1 606 5 is_stmt 0 view .LVU981
.LBE2382:
	.loc 7 364 2 is_stmt 1 view .LVU982
.LBB2384:
.LBB2383:
	.loc 1 611 18 is_stmt 0 view .LVU983
	ldr	x20, [x19, #:got_lo12:_ZSt4cout]
	adrp	x0, .LC9
	mov	x2, 4
	add	x1, x0, :lo12:.LC9
	mov	x0, x20
.LEHB40:
	bl	_ZSt16__ostream_insertIcSt11char_traitsIcEERSt13basic_ostreamIT_T0_ES6_PKS3_l
.LVL212:
	.loc 1 611 18 view .LVU984
.LBE2383:
.LBE2384:
.LBB2385:
.LBI2385:
	.loc 4 182 17 is_stmt 1 view .LVU985
.LBB2386:
	.loc 4 184 9 view .LVU986
	.loc 4 184 72 is_stmt 0 view .LVU987
	add	x0, sp, 432
.LVL213:
	.loc 4 184 72 view .LVU988
	mov	w2, 32
	mov	w1, 2
	mov	x8, x22
	mov	w3, 12
	bl	_ZN6Vec12810ToStringFPIdEENSt7__cxx1112basic_stringIcSt11char_traitsIcESaIcEEEPKT_iii.isra.0
.LVL214:
.LEHE40:
	.loc 4 184 72 view .LVU989
.LBE2386:
.LBE2385:
.LBB2387:
.LBI2387:
	.loc 10 6468 5 is_stmt 1 view .LVU990
.LBB2388:
.LBB2389:
.LBI2389:
	.loc 10 2311 7 view .LVU991
.LBB2390:
.LBI2390:
	.loc 10 186 7 view .LVU992
	.loc 10 186 7 is_stmt 0 view .LVU993
.LBE2390:
.LBE2389:
.LBB2391:
.LBI2391:
	.loc 10 901 7 is_stmt 1 view .LVU994
	.loc 10 901 7 is_stmt 0 view .LVU995
.LBE2391:
	.loc 10 6473 30 view .LVU996
	ldp	x1, x2, [sp, 176]
	mov	x0, x20
.LEHB41:
	bl	_ZSt16__ostream_insertIcSt11char_traitsIcEERSt13basic_ostreamIT_T0_ES6_PKS3_l
.LVL215:
	.loc 10 6473 30 view .LVU997
.LBE2388:
.LBE2387:
.LBB2392:
.LBI2392:
	.loc 1 108 7 is_stmt 1 view .LVU998
.LBB2393:
	.loc 1 113 13 is_stmt 0 view .LVU999
	bl	_ZSt4endlIcSt11char_traitsIcEERSt13basic_ostreamIT_T0_ES6_.isra.0
.LVL216:
.LEHE41:
	.loc 1 113 13 view .LVU1000
.LBE2393:
.LBE2392:
.LBB2394:
.LBI2394:
	.loc 10 657 7 is_stmt 1 view .LVU1001
.LBB2395:
.LBB2396:
.LBI2396:
	.loc 10 229 7 view .LVU1002
.LBB2397:
.LBB2398:
.LBI2398:
	.loc 10 221 7 view .LVU1003
.LBB2399:
.LBI2399:
	.loc 10 186 7 view .LVU1004
.LBB2400:
	.loc 10 187 28 is_stmt 0 view .LVU1005
	ldr	x0, [sp, 176]
.LVL217:
	.loc 10 187 28 view .LVU1006
.LBE2400:
.LBE2399:
.LBB2401:
.LBI2401:
	.loc 10 200 7 is_stmt 1 view .LVU1007
	.loc 10 200 7 is_stmt 0 view .LVU1008
.LBE2401:
.LBE2398:
	.loc 10 231 2 view .LVU1009
	cmp	x0, x27
	beq	.L46
.LVL218:
.LBB2402:
.LBI2402:
	.loc 10 236 7 is_stmt 1 view .LVU1010
.LBB2403:
.LBB2404:
.LBI2404:
	.loc 11 491 7 view .LVU1011
.LBB2405:
.LBI2405:
	.loc 12 120 7 view .LVU1012
.LBE2405:
.LBE2404:
	.loc 10 237 34 is_stmt 0 view .LVU1013
	ldr	x1, [sp, 192]
.LBB2408:
.LBB2407:
.LBB2406:
	.loc 12 133 19 view .LVU1014
	add	x1, x1, 1
.LVL219:
	.loc 12 133 19 view .LVU1015
	bl	_ZdlPvm
.LVL220:
.L46:
	.loc 12 133 19 view .LVU1016
.LBE2406:
.LBE2407:
.LBE2408:
.LBE2403:
.LBE2402:
.LBE2397:
.LBE2396:
.LBB2409:
.LBI2409:
	.loc 10 150 14 is_stmt 1 view .LVU1017
.LBB2410:
.LBI2410:
	.loc 13 162 7 view .LVU1018
.LBB2411:
.LBI2411:
	.loc 12 89 7 view .LVU1019
	.loc 12 89 7 is_stmt 0 view .LVU1020
.LBE2411:
.LBE2410:
.LBE2409:
.LBE2395:
.LBE2394:
	.loc 9 44 2 is_stmt 1 view .LVU1021
.LBB2412:
.LBI2412:
	.loc 1 606 5 view .LVU1022
	.loc 1 606 5 is_stmt 0 view .LVU1023
.LBE2412:
	.loc 7 364 2 is_stmt 1 view .LVU1024
.LBB2414:
.LBB2413:
	.loc 1 611 18 is_stmt 0 view .LVU1025
	ldr	x20, [x19, #:got_lo12:_ZSt4cout]
	mov	x2, 4
	adrp	x1, .LC12
	add	x1, x1, :lo12:.LC12
	mov	x0, x20
.LEHB42:
	bl	_ZSt16__ostream_insertIcSt11char_traitsIcEERSt13basic_ostreamIT_T0_ES6_PKS3_l
.LVL221:
	.loc 1 611 18 view .LVU1026
.LBE2413:
.LBE2414:
.LBB2415:
.LBI2415:
	.loc 4 182 17 is_stmt 1 view .LVU1027
.LBB2416:
	.loc 4 184 9 view .LVU1028
	.loc 4 184 72 is_stmt 0 view .LVU1029
	add	x0, sp, 448
.LVL222:
	.loc 4 184 72 view .LVU1030
	mov	w2, 32
	mov	w1, 2
	mov	x8, x22
	mov	w3, 12
	bl	_ZN6Vec12810ToStringFPIdEENSt7__cxx1112basic_stringIcSt11char_traitsIcESaIcEEEPKT_iii.isra.0
.LVL223:
.LEHE42:
	.loc 4 184 72 view .LVU1031
.LBE2416:
.LBE2415:
.LBB2417:
.LBI2417:
	.loc 10 6468 5 is_stmt 1 view .LVU1032
.LBB2418:
.LBB2419:
.LBI2419:
	.loc 10 2311 7 view .LVU1033
.LBB2420:
.LBI2420:
	.loc 10 186 7 view .LVU1034
	.loc 10 186 7 is_stmt 0 view .LVU1035
.LBE2420:
.LBE2419:
.LBB2421:
.LBI2421:
	.loc 10 901 7 is_stmt 1 view .LVU1036
	.loc 10 901 7 is_stmt 0 view .LVU1037
.LBE2421:
	.loc 10 6473 30 view .LVU1038
	ldp	x1, x2, [sp, 176]
	mov	x0, x20
.LEHB43:
	bl	_ZSt16__ostream_insertIcSt11char_traitsIcEERSt13basic_ostreamIT_T0_ES6_PKS3_l
.LVL224:
	.loc 10 6473 30 view .LVU1039
.LBE2418:
.LBE2417:
.LBB2422:
.LBI2422:
	.loc 1 108 7 is_stmt 1 view .LVU1040
.LBB2423:
	.loc 1 113 13 is_stmt 0 view .LVU1041
	bl	_ZSt4endlIcSt11char_traitsIcEERSt13basic_ostreamIT_T0_ES6_.isra.0
.LVL225:
.LEHE43:
	.loc 1 113 13 view .LVU1042
.LBE2423:
.LBE2422:
.LBB2424:
.LBI2424:
	.loc 10 657 7 is_stmt 1 view .LVU1043
.LBB2425:
.LBB2426:
.LBI2426:
	.loc 10 229 7 view .LVU1044
.LBB2427:
.LBB2428:
.LBI2428:
	.loc 10 221 7 view .LVU1045
.LBB2429:
.LBI2429:
	.loc 10 186 7 view .LVU1046
.LBB2430:
	.loc 10 187 28 is_stmt 0 view .LVU1047
	ldr	x0, [sp, 176]
.LVL226:
	.loc 10 187 28 view .LVU1048
.LBE2430:
.LBE2429:
.LBB2431:
.LBI2431:
	.loc 10 200 7 is_stmt 1 view .LVU1049
	.loc 10 200 7 is_stmt 0 view .LVU1050
.LBE2431:
.LBE2428:
	.loc 10 231 2 view .LVU1051
	cmp	x0, x27
	beq	.L47
.LVL227:
.LBB2432:
.LBI2432:
	.loc 10 236 7 is_stmt 1 view .LVU1052
.LBB2433:
.LBB2434:
.LBI2434:
	.loc 11 491 7 view .LVU1053
.LBB2435:
.LBI2435:
	.loc 12 120 7 view .LVU1054
.LBE2435:
.LBE2434:
	.loc 10 237 34 is_stmt 0 view .LVU1055
	ldr	x1, [sp, 192]
.LBB2438:
.LBB2437:
.LBB2436:
	.loc 12 133 19 view .LVU1056
	add	x1, x1, 1
.LVL228:
	.loc 12 133 19 view .LVU1057
	bl	_ZdlPvm
.LVL229:
.L47:
	.loc 12 133 19 view .LVU1058
.LBE2436:
.LBE2437:
.LBE2438:
.LBE2433:
.LBE2432:
.LBE2427:
.LBE2426:
.LBB2439:
.LBI2439:
	.loc 10 150 14 is_stmt 1 view .LVU1059
.LBB2440:
.LBI2440:
	.loc 13 162 7 view .LVU1060
.LBB2441:
.LBI2441:
	.loc 12 89 7 view .LVU1061
	.loc 12 89 7 is_stmt 0 view .LVU1062
.LBE2441:
.LBE2440:
.LBE2439:
.LBE2425:
.LBE2424:
	.loc 9 45 2 is_stmt 1 view .LVU1063
.LBB2442:
.LBI2442:
	.loc 1 606 5 view .LVU1064
	.loc 1 606 5 is_stmt 0 view .LVU1065
.LBE2442:
	.loc 7 364 2 is_stmt 1 view .LVU1066
.LBB2444:
.LBB2443:
	.loc 1 611 18 is_stmt 0 view .LVU1067
	ldr	x19, [x19, #:got_lo12:_ZSt4cout]
	mov	x2, 4
	adrp	x1, .LC13
	add	x1, x1, :lo12:.LC13
	mov	x0, x19
.LEHB44:
	bl	_ZSt16__ostream_insertIcSt11char_traitsIcEERSt13basic_ostreamIT_T0_ES6_PKS3_l
.LVL230:
	.loc 1 611 18 view .LVU1068
.LBE2443:
.LBE2444:
.LBB2445:
.LBI2445:
	.loc 4 182 17 is_stmt 1 view .LVU1069
.LBB2446:
	.loc 4 184 9 view .LVU1070
	.loc 4 184 72 is_stmt 0 view .LVU1071
	add	x0, sp, 464
.LVL231:
	.loc 4 184 72 view .LVU1072
	mov	w2, 32
	mov	w1, 2
	mov	x8, x22
	mov	w3, 12
	bl	_ZN6Vec12810ToStringFPIdEENSt7__cxx1112basic_stringIcSt11char_traitsIcESaIcEEEPKT_iii.isra.0
.LVL232:
.LEHE44:
	.loc 4 184 72 view .LVU1073
.LBE2446:
.LBE2445:
.LBB2447:
.LBI2447:
	.loc 10 6468 5 is_stmt 1 view .LVU1074
.LBB2448:
.LBB2449:
.LBI2449:
	.loc 10 2311 7 view .LVU1075
.LBB2450:
.LBI2450:
	.loc 10 186 7 view .LVU1076
	.loc 10 186 7 is_stmt 0 view .LVU1077
.LBE2450:
.LBE2449:
.LBB2451:
.LBI2451:
	.loc 10 901 7 is_stmt 1 view .LVU1078
	.loc 10 901 7 is_stmt 0 view .LVU1079
.LBE2451:
	.loc 10 6473 30 view .LVU1080
	ldp	x1, x2, [sp, 176]
	mov	x0, x19
.LEHB45:
	bl	_ZSt16__ostream_insertIcSt11char_traitsIcEERSt13basic_ostreamIT_T0_ES6_PKS3_l
.LVL233:
	.loc 10 6473 30 view .LVU1081
.LBE2448:
.LBE2447:
.LBB2452:
.LBI2452:
	.loc 1 108 7 is_stmt 1 view .LVU1082
.LBB2453:
	.loc 1 113 13 is_stmt 0 view .LVU1083
	bl	_ZSt4endlIcSt11char_traitsIcEERSt13basic_ostreamIT_T0_ES6_.isra.0
.LVL234:
.LEHE45:
	.loc 1 113 13 view .LVU1084
.LBE2453:
.LBE2452:
.LBB2454:
.LBI2454:
	.loc 10 657 7 is_stmt 1 view .LVU1085
.LBB2455:
.LBB2456:
.LBI2456:
	.loc 10 229 7 view .LVU1086
.LBB2457:
.LBB2458:
.LBI2458:
	.loc 10 221 7 view .LVU1087
.LBB2459:
.LBI2459:
	.loc 10 186 7 view .LVU1088
.LBB2460:
	.loc 10 187 28 is_stmt 0 view .LVU1089
	ldr	x0, [sp, 176]
.LVL235:
	.loc 10 187 28 view .LVU1090
.LBE2460:
.LBE2459:
.LBB2461:
.LBI2461:
	.loc 10 200 7 is_stmt 1 view .LVU1091
	.loc 10 200 7 is_stmt 0 view .LVU1092
.LBE2461:
.LBE2458:
	.loc 10 231 2 view .LVU1093
	cmp	x0, x27
	beq	.L109
.LVL236:
.LBB2462:
.LBI2462:
	.loc 10 236 7 is_stmt 1 view .LVU1094
.LBB2463:
.LBB2464:
.LBI2464:
	.loc 11 491 7 view .LVU1095
.LBB2465:
.LBI2465:
	.loc 12 120 7 view .LVU1096
.LBE2465:
.LBE2464:
	.loc 10 237 34 is_stmt 0 view .LVU1097
	ldr	x1, [sp, 192]
.LBB2468:
.LBB2467:
.LBB2466:
	.loc 12 133 19 view .LVU1098
	add	x1, x1, 1
.LVL237:
	.loc 12 133 19 view .LVU1099
	bl	_ZdlPvm
.LVL238:
	.loc 12 133 19 view .LVU1100
.LBE2466:
.LBE2467:
.LBE2468:
.LBE2463:
.LBE2462:
.LBE2457:
.LBE2456:
.LBB2469:
.LBI2469:
	.loc 10 150 14 is_stmt 1 view .LVU1101
.LBB2470:
.LBI2470:
	.loc 13 162 7 view .LVU1102
.LBB2471:
.LBI2471:
	.loc 12 89 7 view .LVU1103
	.loc 12 89 7 is_stmt 0 view .LVU1104
.LBE2471:
.LBE2470:
.LBE2469:
.LBE2455:
.LBE2454:
	.loc 9 47 2 is_stmt 1 view .LVU1105
.L109:
	.loc 9 48 1 is_stmt 0 view .LVU1106
	mov	w0, 0
	ldp	x19, x20, [sp, 16]
	ldp	x21, x22, [sp, 32]
	ldp	x23, x24, [sp, 48]
	ldp	x25, x26, [sp, 64]
	ldp	x27, x28, [sp, 80]
	ldp	x29, x30, [sp], 496
	.cfi_remember_state
	.cfi_restore 30
	.cfi_restore 29
	.cfi_restore 27
	.cfi_restore 28
	.cfi_restore 25
	.cfi_restore 26
	.cfi_restore 23
	.cfi_restore 24
	.cfi_restore 21
	.cfi_restore 22
	.cfi_restore 19
	.cfi_restore 20
	.cfi_def_cfa_offset 0
	ret
.L89:
	.cfi_restore_state
.LBB2472:
.LBB2473:
.LBB2474:
.LBB2475:
.LBB2476:
.LBB2477:
.LBB2478:
	.loc 10 187 28 view .LVU1107
	ldr	x2, [sp, 352]
.LBE2478:
.LBE2477:
.LBE2476:
	.loc 10 231 2 view .LVU1108
	add	x1, sp, 368
.LBB2483:
.LBB2480:
.LBB2479:
	.loc 10 187 28 view .LVU1109
	mov	x19, x0
.LVL239:
	.loc 10 187 28 view .LVU1110
.LBE2479:
.LBE2480:
.LBE2483:
.LBE2475:
.LBE2474:
.LBE2473:
.LBI2472:
	.loc 10 657 7 is_stmt 1 view .LVU1111
.LBB2487:
.LBB2486:
.LBI2474:
	.loc 10 229 7 view .LVU1112
.LBB2485:
.LBB2484:
.LBI2476:
	.loc 10 221 7 view .LVU1113
.LBB2481:
.LBI2477:
	.loc 10 186 7 view .LVU1114
	.loc 10 186 7 is_stmt 0 view .LVU1115
.LBE2481:
.LBB2482:
.LBI2482:
	.loc 10 200 7 is_stmt 1 view .LVU1116
	.loc 10 200 7 is_stmt 0 view .LVU1117
.LBE2482:
.LBE2484:
	.loc 10 231 2 view .LVU1118
	cmp	x2, x1
	beq	.L88
.LVL240:
.L111:
	.loc 10 231 2 view .LVU1119
.LBE2485:
.LBE2486:
.LBE2487:
.LBE2472:
.LBB2488:
.LBB2489:
.LBB2490:
.LBB2491:
.LBB2492:
.LBI2492:
	.loc 10 236 7 is_stmt 1 view .LVU1120
.LBB2493:
.LBB2494:
.LBI2494:
	.loc 11 491 7 view .LVU1121
.LBB2495:
.LBI2495:
	.loc 12 120 7 view .LVU1122
.LBE2495:
.LBE2494:
	.loc 10 237 34 is_stmt 0 view .LVU1123
	ldr	x1, [sp, 368]
.LBB2498:
.LBB2497:
.LBB2496:
	.loc 12 133 19 view .LVU1124
	mov	x0, x2
	add	x1, x1, 1
.LVL241:
	.loc 12 133 19 view .LVU1125
	bl	_ZdlPvm
.LVL242:
	.loc 12 133 19 view .LVU1126
.LBE2496:
.LBE2497:
.LBE2498:
.LBE2493:
.LBE2492:
.LBE2491:
.LBE2490:
.LBB2507:
.LBI2507:
	.loc 10 150 14 is_stmt 1 view .LVU1127
.LBB2508:
.LBI2508:
	.loc 13 162 7 view .LVU1128
.LBB2509:
.LBI2509:
	.loc 12 89 7 view .LVU1129
.L88:
	.loc 12 89 7 is_stmt 0 view .LVU1130
.LBE2509:
.LBE2508:
.LBE2507:
.LBE2489:
.LBE2488:
.LBB2514:
.LBB2515:
.LBB2516:
.LBI2516:
	.loc 10 150 14 is_stmt 1 view .LVU1131
.LBB2517:
.LBI2517:
	.loc 13 162 7 view .LVU1132
.LBB2518:
.LBI2518:
	.loc 12 89 7 view .LVU1133
	.loc 12 89 7 is_stmt 0 view .LVU1134
	mov	x0, x19
.LEHB46:
	bl	_Unwind_Resume
.LVL243:
.LEHE46:
.L108:
.L123:
.LBE2518:
.LBE2517:
.LBE2516:
.LBB2519:
.LBB2520:
.LBB2521:
.LBB2522:
.LBB2523:
	.loc 10 187 28 view .LVU1135
	ldr	x2, [sp, 176]
	mov	x19, x0
.LVL244:
	.loc 10 187 28 view .LVU1136
.LBE2523:
.LBE2522:
.LBE2521:
.LBE2520:
.LBE2519:
.LBE2515:
.LBI2514:
	.loc 10 657 7 is_stmt 1 view .LVU1137
.LBB2536:
.LBB2535:
.LBI2519:
	.loc 10 229 7 view .LVU1138
.LBB2534:
.LBB2526:
.LBI2521:
	.loc 10 221 7 view .LVU1139
.LBB2524:
.LBI2522:
	.loc 10 186 7 view .LVU1140
	.loc 10 186 7 is_stmt 0 view .LVU1141
.LBE2524:
.LBB2525:
.LBI2525:
	.loc 10 200 7 is_stmt 1 view .LVU1142
	.loc 10 200 7 is_stmt 0 view .LVU1143
.LBE2525:
.LBE2526:
	.loc 10 231 2 view .LVU1144
	cmp	x2, x27
	beq	.L88
.LVL245:
.L112:
.LBB2527:
.LBI2527:
	.loc 10 236 7 is_stmt 1 view .LVU1145
.LBB2528:
.LBB2529:
.LBI2529:
	.loc 11 491 7 view .LVU1146
.LBB2530:
.LBI2530:
	.loc 12 120 7 view .LVU1147
.LBE2530:
.LBE2529:
	.loc 10 237 34 is_stmt 0 view .LVU1148
	ldr	x1, [sp, 192]
.LBB2533:
.LBB2532:
.LBB2531:
	.loc 12 133 19 view .LVU1149
	mov	x0, x2
	add	x1, x1, 1
.LVL246:
	.loc 12 133 19 view .LVU1150
	bl	_ZdlPvm
.LVL247:
	.loc 12 133 19 view .LVU1151
.LBE2531:
.LBE2532:
.LBE2533:
	.loc 10 237 79 view .LVU1152
	b	.L88
.LVL248:
.L107:
	.loc 10 237 79 view .LVU1153
	b	.L123
.L106:
	b	.L123
.L105:
	b	.L123
.L97:
.L114:
.LBE2528:
.LBE2527:
.LBE2534:
.LBE2535:
.LBE2536:
.LBE2514:
.LBB2537:
.LBB2512:
.LBB2510:
.LBB2505:
.LBB2499:
.LBB2500:
.LBB2501:
	.loc 10 187 28 view .LVU1154
	ldr	x2, [sp, 352]
	mov	x19, x0
.LVL249:
	.loc 10 187 28 view .LVU1155
.LBE2501:
.LBE2500:
.LBE2499:
.LBE2505:
.LBE2510:
.LBE2512:
.LBI2488:
	.loc 10 657 7 is_stmt 1 view .LVU1156
.LBB2513:
.LBB2511:
.LBI2490:
	.loc 10 229 7 view .LVU1157
.LBB2506:
.LBB2504:
.LBI2499:
	.loc 10 221 7 view .LVU1158
.LBB2502:
.LBI2500:
	.loc 10 186 7 view .LVU1159
	.loc 10 186 7 is_stmt 0 view .LVU1160
.LBE2502:
.LBB2503:
.LBI2503:
	.loc 10 200 7 is_stmt 1 view .LVU1161
	.loc 10 200 7 is_stmt 0 view .LVU1162
.LBE2503:
.LBE2504:
	.loc 10 231 2 view .LVU1163
	cmp	x2, x21
	bne	.L111
	b	.L88
.LVL250:
.L96:
	.loc 10 231 2 view .LVU1164
	b	.L114
.L95:
	b	.L114
.L94:
	b	.L114
.L93:
	b	.L114
.L92:
	b	.L114
.L91:
	b	.L114
.L90:
	b	.L114
.L101:
	b	.L123
.L100:
	b	.L123
.L99:
.LBE2506:
.LBE2511:
.LBE2513:
.LBE2537:
.LBB2538:
.LBB2539:
.LBB2540:
.LBB2541:
.LBB2542:
.LBB2543:
.LBB2544:
	.loc 10 187 28 view .LVU1165
	ldr	x2, [sp, 176]
.LBE2544:
.LBE2543:
.LBE2542:
	.loc 10 231 2 view .LVU1166
	add	x1, sp, 192
.LBB2549:
.LBB2546:
.LBB2545:
	.loc 10 187 28 view .LVU1167
	mov	x19, x0
.LVL251:
	.loc 10 187 28 view .LVU1168
.LBE2545:
.LBE2546:
.LBE2549:
.LBE2541:
.LBE2540:
.LBE2539:
.LBI2538:
	.loc 10 657 7 is_stmt 1 view .LVU1169
.LBB2553:
.LBB2552:
.LBI2540:
	.loc 10 229 7 view .LVU1170
.LBB2551:
.LBB2550:
.LBI2542:
	.loc 10 221 7 view .LVU1171
.LBB2547:
.LBI2543:
	.loc 10 186 7 view .LVU1172
	.loc 10 186 7 is_stmt 0 view .LVU1173
.LBE2547:
.LBB2548:
.LBI2548:
	.loc 10 200 7 is_stmt 1 view .LVU1174
	.loc 10 200 7 is_stmt 0 view .LVU1175
.LBE2548:
.LBE2550:
	.loc 10 231 2 view .LVU1176
	cmp	x2, x1
	bne	.L112
	b	.L88
.LVL252:
.L98:
	.loc 10 231 2 view .LVU1177
	b	.L114
.L103:
	b	.L123
.L102:
	b	.L123
.L104:
	b	.L123
.LBE2551:
.LBE2552:
.LBE2553:
.LBE2538:
	.cfi_endproc
.LFE2425:
	.section	.gcc_except_table
.LLSDA2425:
	.byte	0xff
	.byte	0xff
	.byte	0x1
	.uleb128 .LLSDACSE2425-.LLSDACSB2425
.LLSDACSB2425:
	.uleb128 .LEHB6-.LFB2425
	.uleb128 .LEHE6-.LEHB6
	.uleb128 0
	.uleb128 0
	.uleb128 .LEHB7-.LFB2425
	.uleb128 .LEHE7-.LEHB7
	.uleb128 .L89-.LFB2425
	.uleb128 0
	.uleb128 .LEHB8-.LFB2425
	.uleb128 .LEHE8-.LEHB8
	.uleb128 0
	.uleb128 0
	.uleb128 .LEHB9-.LFB2425
	.uleb128 .LEHE9-.LEHB9
	.uleb128 .L90-.LFB2425
	.uleb128 0
	.uleb128 .LEHB10-.LFB2425
	.uleb128 .LEHE10-.LEHB10
	.uleb128 0
	.uleb128 0
	.uleb128 .LEHB11-.LFB2425
	.uleb128 .LEHE11-.LEHB11
	.uleb128 .L91-.LFB2425
	.uleb128 0
	.uleb128 .LEHB12-.LFB2425
	.uleb128 .LEHE12-.LEHB12
	.uleb128 0
	.uleb128 0
	.uleb128 .LEHB13-.LFB2425
	.uleb128 .LEHE13-.LEHB13
	.uleb128 .L92-.LFB2425
	.uleb128 0
	.uleb128 .LEHB14-.LFB2425
	.uleb128 .LEHE14-.LEHB14
	.uleb128 0
	.uleb128 0
	.uleb128 .LEHB15-.LFB2425
	.uleb128 .LEHE15-.LEHB15
	.uleb128 .L93-.LFB2425
	.uleb128 0
	.uleb128 .LEHB16-.LFB2425
	.uleb128 .LEHE16-.LEHB16
	.uleb128 0
	.uleb128 0
	.uleb128 .LEHB17-.LFB2425
	.uleb128 .LEHE17-.LEHB17
	.uleb128 .L94-.LFB2425
	.uleb128 0
	.uleb128 .LEHB18-.LFB2425
	.uleb128 .LEHE18-.LEHB18
	.uleb128 0
	.uleb128 0
	.uleb128 .LEHB19-.LFB2425
	.uleb128 .LEHE19-.LEHB19
	.uleb128 .L95-.LFB2425
	.uleb128 0
	.uleb128 .LEHB20-.LFB2425
	.uleb128 .LEHE20-.LEHB20
	.uleb128 0
	.uleb128 0
	.uleb128 .LEHB21-.LFB2425
	.uleb128 .LEHE21-.LEHB21
	.uleb128 .L96-.LFB2425
	.uleb128 0
	.uleb128 .LEHB22-.LFB2425
	.uleb128 .LEHE22-.LEHB22
	.uleb128 0
	.uleb128 0
	.uleb128 .LEHB23-.LFB2425
	.uleb128 .LEHE23-.LEHB23
	.uleb128 .L97-.LFB2425
	.uleb128 0
	.uleb128 .LEHB24-.LFB2425
	.uleb128 .LEHE24-.LEHB24
	.uleb128 0
	.uleb128 0
	.uleb128 .LEHB25-.LFB2425
	.uleb128 .LEHE25-.LEHB25
	.uleb128 .L98-.LFB2425
	.uleb128 0
	.uleb128 .LEHB26-.LFB2425
	.uleb128 .LEHE26-.LEHB26
	.uleb128 0
	.uleb128 0
	.uleb128 .LEHB27-.LFB2425
	.uleb128 .LEHE27-.LEHB27
	.uleb128 .L99-.LFB2425
	.uleb128 0
	.uleb128 .LEHB28-.LFB2425
	.uleb128 .LEHE28-.LEHB28
	.uleb128 0
	.uleb128 0
	.uleb128 .LEHB29-.LFB2425
	.uleb128 .LEHE29-.LEHB29
	.uleb128 .L100-.LFB2425
	.uleb128 0
	.uleb128 .LEHB30-.LFB2425
	.uleb128 .LEHE30-.LEHB30
	.uleb128 0
	.uleb128 0
	.uleb128 .LEHB31-.LFB2425
	.uleb128 .LEHE31-.LEHB31
	.uleb128 .L101-.LFB2425
	.uleb128 0
	.uleb128 .LEHB32-.LFB2425
	.uleb128 .LEHE32-.LEHB32
	.uleb128 0
	.uleb128 0
	.uleb128 .LEHB33-.LFB2425
	.uleb128 .LEHE33-.LEHB33
	.uleb128 .L102-.LFB2425
	.uleb128 0
	.uleb128 .LEHB34-.LFB2425
	.uleb128 .LEHE34-.LEHB34
	.uleb128 0
	.uleb128 0
	.uleb128 .LEHB35-.LFB2425
	.uleb128 .LEHE35-.LEHB35
	.uleb128 .L103-.LFB2425
	.uleb128 0
	.uleb128 .LEHB36-.LFB2425
	.uleb128 .LEHE36-.LEHB36
	.uleb128 0
	.uleb128 0
	.uleb128 .LEHB37-.LFB2425
	.uleb128 .LEHE37-.LEHB37
	.uleb128 .L104-.LFB2425
	.uleb128 0
	.uleb128 .LEHB38-.LFB2425
	.uleb128 .LEHE38-.LEHB38
	.uleb128 0
	.uleb128 0
	.uleb128 .LEHB39-.LFB2425
	.uleb128 .LEHE39-.LEHB39
	.uleb128 .L105-.LFB2425
	.uleb128 0
	.uleb128 .LEHB40-.LFB2425
	.uleb128 .LEHE40-.LEHB40
	.uleb128 0
	.uleb128 0
	.uleb128 .LEHB41-.LFB2425
	.uleb128 .LEHE41-.LEHB41
	.uleb128 .L106-.LFB2425
	.uleb128 0
	.uleb128 .LEHB42-.LFB2425
	.uleb128 .LEHE42-.LEHB42
	.uleb128 0
	.uleb128 0
	.uleb128 .LEHB43-.LFB2425
	.uleb128 .LEHE43-.LEHB43
	.uleb128 .L107-.LFB2425
	.uleb128 0
	.uleb128 .LEHB44-.LFB2425
	.uleb128 .LEHE44-.LEHB44
	.uleb128 0
	.uleb128 0
	.uleb128 .LEHB45-.LFB2425
	.uleb128 .LEHE45-.LEHB45
	.uleb128 .L108-.LFB2425
	.uleb128 0
	.uleb128 .LEHB46-.LFB2425
	.uleb128 .LEHE46-.LEHB46
	.uleb128 0
	.uleb128 0
.LLSDACSE2425:
	.section	.text.startup
	.size	main, .-main
	.align	2
	.p2align 4,,11
	.type	_GLOBAL__sub_I_cmpOps, %function
_GLOBAL__sub_I_cmpOps:
.LFB3040:
	.loc 9 48 1 is_stmt 1 view -0
	.cfi_startproc
.LVL253:
.LBB2554:
.LBI2554:
	.loc 9 48 1 view .LVU1179
.LBE2554:
	stp	x29, x30, [sp, -32]!
	.cfi_def_cfa_offset 32
	.cfi_offset 29, -32
	.cfi_offset 30, -24
	mov	x29, sp
	str	x19, [sp, 16]
	.cfi_offset 19, -16
.LBB2558:
.LBB2555:
	.file 14 "/usr/include/c++/10/iostream"
	.loc 14 74 25 is_stmt 0 view .LVU1180
	adrp	x19, .LANCHOR0
	add	x19, x19, :lo12:.LANCHOR0
	mov	x0, x19
	bl	_ZNSt8ios_base4InitC1Ev
.LVL254:
	mov	x1, x19
	adrp	x0, :got:_ZNSt8ios_base4InitD1Ev
.LBE2555:
.LBE2558:
	.loc 9 48 1 view .LVU1181
	ldr	x19, [sp, 16]
.LBB2559:
.LBB2556:
	.loc 14 74 25 view .LVU1182
	adrp	x2, __dso_handle
.LBE2556:
.LBE2559:
	.loc 9 48 1 view .LVU1183
	ldp	x29, x30, [sp], 32
	.cfi_restore 30
	.cfi_restore 29
	.cfi_restore 19
	.cfi_def_cfa_offset 0
.LBB2560:
.LBB2557:
	.loc 14 74 25 view .LVU1184
	add	x2, x2, :lo12:__dso_handle
	ldr	x0, [x0, #:got_lo12:_ZNSt8ios_base4InitD1Ev]
	b	__cxa_atexit
.LVL255:
.LBE2557:
.LBE2560:
	.cfi_endproc
.LFE3040:
	.size	_GLOBAL__sub_I_cmpOps, .-_GLOBAL__sub_I_cmpOps
	.section	.init_array,"aw"
	.align	3
	.xword	_GLOBAL__sub_I_cmpOps
	.global	cmpOps
	.section	.rodata.str1.8
	.align	3
.LC18:
	.string	"EQ"
	.align	3
.LC19:
	.string	"NE"
	.align	3
.LC20:
	.string	"GT"
	.align	3
.LC21:
	.string	"LT"
	.align	3
.LC22:
	.string	"GE"
	.align	3
.LC23:
	.string	"LE"
	.align	3
.LC24:
	.string	"a LT0"
	.align	3
.LC25:
	.string	"b GT0"
	.section	.rodata.cst16,"aM",@progbits,16
	.align	4
.LC14:
	.word	1051361018
	.word	1078532977
	.word	1092615143
	.word	869711765
	.align	4
.LC15:
	.word	-831624408
	.word	1149596986
	.word	-1025623836
	.word	1287568416
	.align	4
.LC16:
	.word	29796991
	.word	1110040253
	.word	783402035
	.word	1074340718
	.align	4
.LC17:
	.word	-838861
	.word	1104006500
	.word	941456831
	.word	-1064259929
	.bss
	.align	3
	.set	.LANCHOR0,. + 0
	.type	_ZStL8__ioinit, %object
	.size	_ZStL8__ioinit, 1
_ZStL8__ioinit:
	.zero	1
	.section	.data.rel.local,"aw"
	.align	4
	.type	cmpOps, %object
	.size	cmpOps, 64
cmpOps:
	.xword	.LC18
	.xword	.LC19
	.xword	.LC20
	.xword	.LC21
	.xword	.LC22
	.xword	.LC23
	.xword	.LC24
	.xword	.LC25
	.text
.Letext0:
	.file 15 "/usr/include/c++/10/cwchar"
	.file 16 "/usr/include/c++/10/bits/exception_ptr.h"
	.file 17 "/usr/include/aarch64-linux-gnu/c++/10/bits/c++config.h"
	.file 18 "/usr/include/c++/10/bits/stl_pair.h"
	.file 19 "/usr/include/c++/10/type_traits"
	.file 20 "/usr/include/c++/10/debug/debug.h"
	.file 21 "/usr/include/c++/10/cstdint"
	.file 22 "/usr/include/c++/10/clocale"
	.file 23 "/usr/include/c++/10/cstdlib"
	.file 24 "/usr/include/c++/10/cstdio"
	.file 25 "/usr/include/c++/10/initializer_list"
	.file 26 "/usr/include/c++/10/bits/stringfwd.h"
	.file 27 "/usr/include/c++/10/system_error"
	.file 28 "/usr/include/c++/10/cwctype"
	.file 29 "/usr/include/c++/10/bits/ostream.tcc"
	.file 30 "/usr/include/c++/10/streambuf"
	.file 31 "/usr/include/c++/10/iosfwd"
	.file 32 "/usr/include/c++/10/ctime"
	.file 33 "/usr/include/c++/10/bits/stl_iterator_base_types.h"
	.file 34 "/usr/include/c++/10/bits/uses_allocator.h"
	.file 35 "/usr/include/c++/10/tuple"
	.file 36 "/usr/include/c++/10/cmath"
	.file 37 "/usr/include/c++/10/bits/ptr_traits.h"
	.file 38 "/usr/include/c++/10/bits/move.h"
	.file 39 "/usr/include/c++/10/bits/postypes.h"
	.file 40 "/usr/include/c++/10/bits/ostream_insert.h"
	.file 41 "/usr/include/c++/10/bits/functexcept.h"
	.file 42 "/usr/include/c++/10/bits/predefined_ops.h"
	.file 43 "/usr/include/c++/10/ext/alloc_traits.h"
	.file 44 "/usr/include/c++/10/bits/stl_iterator.h"
	.file 45 "/usr/lib/gcc/aarch64-linux-gnu/10/include/stddef.h"
	.file 46 "/usr/lib/gcc/aarch64-linux-gnu/10/include/stdarg.h"
	.file 47 "/usr/include/aarch64-linux-gnu/bits/types/wint_t.h"
	.file 48 "/usr/include/aarch64-linux-gnu/bits/types/__mbstate_t.h"
	.file 49 "/usr/include/aarch64-linux-gnu/bits/types/mbstate_t.h"
	.file 50 "/usr/include/aarch64-linux-gnu/bits/types/__FILE.h"
	.file 51 "/usr/include/aarch64-linux-gnu/bits/types/struct_FILE.h"
	.file 52 "/usr/include/aarch64-linux-gnu/bits/types/FILE.h"
	.file 53 "/usr/include/wchar.h"
	.file 54 "/usr/include/aarch64-linux-gnu/bits/types/struct_tm.h"
	.file 55 "/usr/include/aarch64-linux-gnu/bits/types.h"
	.file 56 "/usr/include/aarch64-linux-gnu/bits/stdint-intn.h"
	.file 57 "/usr/include/aarch64-linux-gnu/bits/stdint-uintn.h"
	.file 58 "/usr/include/stdint.h"
	.file 59 "/usr/include/locale.h"
	.file 60 "/usr/include/aarch64-linux-gnu/bits/types/time_t.h"
	.file 61 "/usr/include/aarch64-linux-gnu/bits/types/clock_t.h"
	.file 62 "/usr/include/aarch64-linux-gnu/c++/10/bits/atomic_word.h"
	.file 63 "/usr/include/stdlib.h"
	.file 64 "/usr/include/aarch64-linux-gnu/bits/stdlib-float.h"
	.file 65 "/usr/include/aarch64-linux-gnu/bits/stdlib-bsearch.h"
	.file 66 "/usr/include/aarch64-linux-gnu/bits/types/__fpos_t.h"
	.file 67 "/usr/include/stdio.h"
	.file 68 "/usr/include/aarch64-linux-gnu/bits/stdio.h"
	.file 69 "/usr/include/aarch64-linux-gnu/bits/wctype-wchar.h"
	.file 70 "/usr/include/wctype.h"
	.file 71 "/usr/include/time.h"
	.file 72 "/usr/include/math.h"
	.file 73 "/usr/include/c++/10/new"
	.file 74 "<built-in>"
	.section	.data.rel.local.DW.ref.__gxx_personality_v0,"awG",@progbits,DW.ref.__gxx_personality_v0,comdat
	.align	3
	.type	DW.ref.__gxx_personality_v0, %object
	.size	DW.ref.__gxx_personality_v0, 8
DW.ref.__gxx_personality_v0:
	.xword	__gxx_personality_v0
	.hidden	__dso_handle
	.ident	"GCC: (Debian 10.2.1-6) 10.2.1 20210110"
	.section	.note.GNU-stack,"",@progbits
