AARCH64 GAS  obj/Ch11_03.s 			page 1


 GNU assembler version 2.35.2 (aarch64-linux-gnu)
	 using BFD version (GNU Binutils for Debian) 2.35.2.
 options passed	: -I -I -EL -march=armv8-a+simd -mabi=lp64 -aghl=obj/Ch11_03.lst 
 input file    	: obj/Ch11_03.s
 output file   	: obj/Ch11_03.o
 target        	: aarch64-unknown-linux-gnu
 time stamp    	: 2022-07-19T23:16:51.000-0400

AARCH64 GAS  obj/Ch11_03.s 			page 2


   1              		.arch armv8-a
   2              		.file	"Ch11_03.cpp"
   3              		.text
   4              	.Ltext0:
   5              		.section	.rodata.str1.8,"aMS",@progbits,1
   6              		.align	3
   7              	.LC0:
   8 0000 43616C63 		.string	"CalcQuoRemA_"
   8      51756F52 
   8      656D415F 
   8      00
   9 000d 000000   		.align	3
  10              	.LC1:
  11 0010 61203D20 		.string	"a = "
  11      00
  12 0015 000000   		.align	3
  13              	.LC2:
  14 0018 62203D20 		.string	"b = "
  14      00
  15 001d 000000   		.align	3
  16              	.LC3:
  17 0020 71756F74 		.string	"quotient = "
  17      69656E74 
  17      203D2000 
  18 002c 00000000 		.align	3
  19              	.LC4:
  20 0030 72656D61 		.string	"remainder = "
  20      696E6465 
  20      72203D20 
  20      00
  21 003d 000000   		.align	3
  22              	.LC5:
  23 0040 43616C63 		.string	"CalcQuoRemB_"
  23      51756F52 
  23      656D425F 
  23      00
  24              		.section	.text.startup,"ax",@progbits
  25              		.align	2
  26              		.p2align 4,,11
  27              		.global	main
  28              		.type	main, %function
  29              	main:
  30              	.LVL0:
  31              	.LFB1588:
  32              		.file 1 "Ch11_03.cpp"
   1:Ch11_03.cpp   **** //-------------------------------------------------
   2:Ch11_03.cpp   **** //               Ch11_03.cpp
   3:Ch11_03.cpp   **** //-------------------------------------------------
   4:Ch11_03.cpp   **** 
   5:Ch11_03.cpp   **** #include <iostream>
   6:Ch11_03.cpp   **** 
   7:Ch11_03.cpp   **** using namespace std;
   8:Ch11_03.cpp   **** 
   9:Ch11_03.cpp   **** extern "C" void CalcQuoRemA_(int a, int b, int* quo, int* rem);
  10:Ch11_03.cpp   **** extern "C" void CalcQuoRemB_(long a, long b, long* quo, long* rem);
  11:Ch11_03.cpp   **** 
  12:Ch11_03.cpp   **** template <typename T>
AARCH64 GAS  obj/Ch11_03.s 			page 3


  13:Ch11_03.cpp   **** void PrintResult(const char* msg, T a, T b, T quo, T rem)
  14:Ch11_03.cpp   **** {
  15:Ch11_03.cpp   ****     const char nl = '\n';
  16:Ch11_03.cpp   **** 
  17:Ch11_03.cpp   ****     cout << msg << nl;
  18:Ch11_03.cpp   ****     cout << "a = " << a << nl;
  19:Ch11_03.cpp   ****     cout << "b = " << b << nl;
  20:Ch11_03.cpp   ****     cout << "quotient = " << quo << nl;
  21:Ch11_03.cpp   ****     cout << "remainder = " << rem << nl;
  22:Ch11_03.cpp   ****     cout << nl;
  23:Ch11_03.cpp   **** }
  24:Ch11_03.cpp   **** 
  25:Ch11_03.cpp   **** int main(int argc, char** argv)
  26:Ch11_03.cpp   **** {
  33              		.loc 1 26 1 view -0
  34              		.cfi_startproc
  27:Ch11_03.cpp   ****     int a1 = 100, b1 = 7, quo1, rem1;
  35              		.loc 1 27 5 view .LVU1
  28:Ch11_03.cpp   ****     CalcQuoRemA_(a1, b1, &quo1, &rem1);
  36              		.loc 1 28 5 view .LVU2
  26:Ch11_03.cpp   ****     int a1 = 100, b1 = 7, quo1, rem1;
  37              		.loc 1 26 1 is_stmt 0 view .LVU3
  38 0000 FD7BB8A9 		stp	x29, x30, [sp, -128]!
  39              		.cfi_def_cfa_offset 128
  40              		.cfi_offset 29, -128
  41              		.cfi_offset 30, -120
  42              		.loc 1 28 17 view .LVU4
  43 0004 E1008052 		mov	w1, 7
  44              	.LVL1:
  45              		.loc 1 28 17 view .LVU5
  46 0008 800C8052 		mov	w0, 100
  47              	.LVL2:
  26:Ch11_03.cpp   ****     int a1 = 100, b1 = 7, quo1, rem1;
  48              		.loc 1 26 1 view .LVU6
  49 000c FD030091 		mov	x29, sp
  50 0010 F35301A9 		stp	x19, x20, [sp, 16]
  51              		.cfi_offset 19, -112
  52              		.cfi_offset 20, -104
  53              	.LBB168:
  54              	.LBB169:
  55              	.LBB170:
  56              	.LBB171:
  57              		.file 2 "/usr/include/c++/10/ostream"
   1:/usr/include/c++/10/ostream **** // Output streams -*- C++ -*-
   2:/usr/include/c++/10/ostream **** 
   3:/usr/include/c++/10/ostream **** // Copyright (C) 1997-2020 Free Software Foundation, Inc.
   4:/usr/include/c++/10/ostream **** //
   5:/usr/include/c++/10/ostream **** // This file is part of the GNU ISO C++ Library.  This library is free
   6:/usr/include/c++/10/ostream **** // software; you can redistribute it and/or modify it under the
   7:/usr/include/c++/10/ostream **** // terms of the GNU General Public License as published by the
   8:/usr/include/c++/10/ostream **** // Free Software Foundation; either version 3, or (at your option)
   9:/usr/include/c++/10/ostream **** // any later version.
  10:/usr/include/c++/10/ostream **** 
  11:/usr/include/c++/10/ostream **** // This library is distributed in the hope that it will be useful,
  12:/usr/include/c++/10/ostream **** // but WITHOUT ANY WARRANTY; without even the implied warranty of
  13:/usr/include/c++/10/ostream **** // MERCHANTABILITY or FITNESS FOR A PARTICULAR PURPOSE.  See the
  14:/usr/include/c++/10/ostream **** // GNU General Public License for more details.
AARCH64 GAS  obj/Ch11_03.s 			page 4


  15:/usr/include/c++/10/ostream **** 
  16:/usr/include/c++/10/ostream **** // Under Section 7 of GPL version 3, you are granted additional
  17:/usr/include/c++/10/ostream **** // permissions described in the GCC Runtime Library Exception, version
  18:/usr/include/c++/10/ostream **** // 3.1, as published by the Free Software Foundation.
  19:/usr/include/c++/10/ostream **** 
  20:/usr/include/c++/10/ostream **** // You should have received a copy of the GNU General Public License and
  21:/usr/include/c++/10/ostream **** // a copy of the GCC Runtime Library Exception along with this program;
  22:/usr/include/c++/10/ostream **** // see the files COPYING3 and COPYING.RUNTIME respectively.  If not, see
  23:/usr/include/c++/10/ostream **** // <http://www.gnu.org/licenses/>.
  24:/usr/include/c++/10/ostream **** 
  25:/usr/include/c++/10/ostream **** /** @file include/ostream
  26:/usr/include/c++/10/ostream ****  *  This is a Standard C++ Library header.
  27:/usr/include/c++/10/ostream ****  */
  28:/usr/include/c++/10/ostream **** 
  29:/usr/include/c++/10/ostream **** //
  30:/usr/include/c++/10/ostream **** // ISO C++ 14882: 27.6.2  Output streams
  31:/usr/include/c++/10/ostream **** //
  32:/usr/include/c++/10/ostream **** 
  33:/usr/include/c++/10/ostream **** #ifndef _GLIBCXX_OSTREAM
  34:/usr/include/c++/10/ostream **** #define _GLIBCXX_OSTREAM 1
  35:/usr/include/c++/10/ostream **** 
  36:/usr/include/c++/10/ostream **** #pragma GCC system_header
  37:/usr/include/c++/10/ostream **** 
  38:/usr/include/c++/10/ostream **** #include <ios>
  39:/usr/include/c++/10/ostream **** #include <bits/ostream_insert.h>
  40:/usr/include/c++/10/ostream **** 
  41:/usr/include/c++/10/ostream **** namespace std _GLIBCXX_VISIBILITY(default)
  42:/usr/include/c++/10/ostream **** {
  43:/usr/include/c++/10/ostream **** _GLIBCXX_BEGIN_NAMESPACE_VERSION
  44:/usr/include/c++/10/ostream **** 
  45:/usr/include/c++/10/ostream ****   /**
  46:/usr/include/c++/10/ostream ****    *  @brief  Template class basic_ostream.
  47:/usr/include/c++/10/ostream ****    *  @ingroup io
  48:/usr/include/c++/10/ostream ****    *
  49:/usr/include/c++/10/ostream ****    *  @tparam _CharT  Type of character stream.
  50:/usr/include/c++/10/ostream ****    *  @tparam _Traits  Traits for character type, defaults to
  51:/usr/include/c++/10/ostream ****    *                   char_traits<_CharT>.
  52:/usr/include/c++/10/ostream ****    *
  53:/usr/include/c++/10/ostream ****    *  This is the base class for all output streams.  It provides text
  54:/usr/include/c++/10/ostream ****    *  formatting of all builtin types, and communicates with any class
  55:/usr/include/c++/10/ostream ****    *  derived from basic_streambuf to do the actual output.
  56:/usr/include/c++/10/ostream ****   */
  57:/usr/include/c++/10/ostream ****   template<typename _CharT, typename _Traits>
  58:/usr/include/c++/10/ostream ****     class basic_ostream : virtual public basic_ios<_CharT, _Traits>
  59:/usr/include/c++/10/ostream ****     {
  60:/usr/include/c++/10/ostream ****     public:
  61:/usr/include/c++/10/ostream ****       // Types (inherited from basic_ios):
  62:/usr/include/c++/10/ostream ****       typedef _CharT			 		char_type;
  63:/usr/include/c++/10/ostream ****       typedef typename _Traits::int_type 		int_type;
  64:/usr/include/c++/10/ostream ****       typedef typename _Traits::pos_type 		pos_type;
  65:/usr/include/c++/10/ostream ****       typedef typename _Traits::off_type 		off_type;
  66:/usr/include/c++/10/ostream ****       typedef _Traits			 		traits_type;
  67:/usr/include/c++/10/ostream **** 
  68:/usr/include/c++/10/ostream ****       // Non-standard Types:
  69:/usr/include/c++/10/ostream ****       typedef basic_streambuf<_CharT, _Traits> 		__streambuf_type;
  70:/usr/include/c++/10/ostream ****       typedef basic_ios<_CharT, _Traits>		__ios_type;
  71:/usr/include/c++/10/ostream ****       typedef basic_ostream<_CharT, _Traits>		__ostream_type;
AARCH64 GAS  obj/Ch11_03.s 			page 5


  72:/usr/include/c++/10/ostream ****       typedef num_put<_CharT, ostreambuf_iterator<_CharT, _Traits> >
  73:/usr/include/c++/10/ostream ****       							__num_put_type;
  74:/usr/include/c++/10/ostream ****       typedef ctype<_CharT>	      			__ctype_type;
  75:/usr/include/c++/10/ostream **** 
  76:/usr/include/c++/10/ostream ****       /**
  77:/usr/include/c++/10/ostream ****        *  @brief  Base constructor.
  78:/usr/include/c++/10/ostream ****        *
  79:/usr/include/c++/10/ostream ****        *  This ctor is almost never called by the user directly, rather from
  80:/usr/include/c++/10/ostream ****        *  derived classes' initialization lists, which pass a pointer to
  81:/usr/include/c++/10/ostream ****        *  their own stream buffer.
  82:/usr/include/c++/10/ostream ****       */
  83:/usr/include/c++/10/ostream ****       explicit
  84:/usr/include/c++/10/ostream ****       basic_ostream(__streambuf_type* __sb)
  85:/usr/include/c++/10/ostream ****       { this->init(__sb); }
  86:/usr/include/c++/10/ostream **** 
  87:/usr/include/c++/10/ostream ****       /**
  88:/usr/include/c++/10/ostream ****        *  @brief  Base destructor.
  89:/usr/include/c++/10/ostream ****        *
  90:/usr/include/c++/10/ostream ****        *  This does very little apart from providing a virtual base dtor.
  91:/usr/include/c++/10/ostream ****       */
  92:/usr/include/c++/10/ostream ****       virtual
  93:/usr/include/c++/10/ostream ****       ~basic_ostream() { }
  94:/usr/include/c++/10/ostream **** 
  95:/usr/include/c++/10/ostream ****       /// Safe prefix/suffix operations.
  96:/usr/include/c++/10/ostream ****       class sentry;
  97:/usr/include/c++/10/ostream ****       friend class sentry;
  98:/usr/include/c++/10/ostream **** 
  99:/usr/include/c++/10/ostream ****       //@{
 100:/usr/include/c++/10/ostream ****       /**
 101:/usr/include/c++/10/ostream ****        *  @brief  Interface for manipulators.
 102:/usr/include/c++/10/ostream ****        *
 103:/usr/include/c++/10/ostream ****        *  Manipulators such as @c std::endl and @c std::hex use these
 104:/usr/include/c++/10/ostream ****        *  functions in constructs like "std::cout << std::endl".  For more
 105:/usr/include/c++/10/ostream ****        *  information, see the iomanip header.
 106:/usr/include/c++/10/ostream ****       */
 107:/usr/include/c++/10/ostream ****       __ostream_type&
 108:/usr/include/c++/10/ostream ****       operator<<(__ostream_type& (*__pf)(__ostream_type&))
 109:/usr/include/c++/10/ostream ****       {
 110:/usr/include/c++/10/ostream **** 	// _GLIBCXX_RESOLVE_LIB_DEFECTS
 111:/usr/include/c++/10/ostream **** 	// DR 60. What is a formatted input function?
 112:/usr/include/c++/10/ostream **** 	// The inserters for manipulators are *not* formatted output functions.
 113:/usr/include/c++/10/ostream **** 	return __pf(*this);
 114:/usr/include/c++/10/ostream ****       }
 115:/usr/include/c++/10/ostream **** 
 116:/usr/include/c++/10/ostream ****       __ostream_type&
 117:/usr/include/c++/10/ostream ****       operator<<(__ios_type& (*__pf)(__ios_type&))
 118:/usr/include/c++/10/ostream ****       {
 119:/usr/include/c++/10/ostream **** 	// _GLIBCXX_RESOLVE_LIB_DEFECTS
 120:/usr/include/c++/10/ostream **** 	// DR 60. What is a formatted input function?
 121:/usr/include/c++/10/ostream **** 	// The inserters for manipulators are *not* formatted output functions.
 122:/usr/include/c++/10/ostream **** 	__pf(*this);
 123:/usr/include/c++/10/ostream **** 	return *this;
 124:/usr/include/c++/10/ostream ****       }
 125:/usr/include/c++/10/ostream **** 
 126:/usr/include/c++/10/ostream ****       __ostream_type&
 127:/usr/include/c++/10/ostream ****       operator<<(ios_base& (*__pf) (ios_base&))
 128:/usr/include/c++/10/ostream ****       {
AARCH64 GAS  obj/Ch11_03.s 			page 6


 129:/usr/include/c++/10/ostream **** 	// _GLIBCXX_RESOLVE_LIB_DEFECTS
 130:/usr/include/c++/10/ostream **** 	// DR 60. What is a formatted input function?
 131:/usr/include/c++/10/ostream **** 	// The inserters for manipulators are *not* formatted output functions.
 132:/usr/include/c++/10/ostream **** 	__pf(*this);
 133:/usr/include/c++/10/ostream **** 	return *this;
 134:/usr/include/c++/10/ostream ****       }
 135:/usr/include/c++/10/ostream ****       //@}
 136:/usr/include/c++/10/ostream **** 
 137:/usr/include/c++/10/ostream ****       //@{
 138:/usr/include/c++/10/ostream ****       /**
 139:/usr/include/c++/10/ostream ****        *  @name Inserters
 140:/usr/include/c++/10/ostream ****        *
 141:/usr/include/c++/10/ostream ****        *  All the @c operator<< functions (aka <em>formatted output
 142:/usr/include/c++/10/ostream ****        *  functions</em>) have some common behavior.  Each starts by
 143:/usr/include/c++/10/ostream ****        *  constructing a temporary object of type std::basic_ostream::sentry.
 144:/usr/include/c++/10/ostream ****        *  This can have several effects, concluding with the setting of a
 145:/usr/include/c++/10/ostream ****        *  status flag; see the sentry documentation for more.
 146:/usr/include/c++/10/ostream ****        *
 147:/usr/include/c++/10/ostream ****        *  If the sentry status is good, the function tries to generate
 148:/usr/include/c++/10/ostream ****        *  whatever data is appropriate for the type of the argument.
 149:/usr/include/c++/10/ostream ****        *
 150:/usr/include/c++/10/ostream ****        *  If an exception is thrown during insertion, ios_base::badbit
 151:/usr/include/c++/10/ostream ****        *  will be turned on in the stream's error state without causing an
 152:/usr/include/c++/10/ostream ****        *  ios_base::failure to be thrown.  The original exception will then
 153:/usr/include/c++/10/ostream ****        *  be rethrown.
 154:/usr/include/c++/10/ostream ****       */
 155:/usr/include/c++/10/ostream **** 
 156:/usr/include/c++/10/ostream ****       //@{
 157:/usr/include/c++/10/ostream ****       /**
 158:/usr/include/c++/10/ostream ****        *  @brief Integer arithmetic inserters
 159:/usr/include/c++/10/ostream ****        *  @param  __n A variable of builtin integral type.
 160:/usr/include/c++/10/ostream ****        *  @return  @c *this if successful
 161:/usr/include/c++/10/ostream ****        *
 162:/usr/include/c++/10/ostream ****        *  These functions use the stream's current locale (specifically, the
 163:/usr/include/c++/10/ostream ****        *  @c num_get facet) to perform numeric formatting.
 164:/usr/include/c++/10/ostream ****       */
 165:/usr/include/c++/10/ostream ****       __ostream_type&
 166:/usr/include/c++/10/ostream ****       operator<<(long __n)
 167:/usr/include/c++/10/ostream ****       { return _M_insert(__n); }
 168:/usr/include/c++/10/ostream **** 
 169:/usr/include/c++/10/ostream ****       __ostream_type&
 170:/usr/include/c++/10/ostream ****       operator<<(unsigned long __n)
 171:/usr/include/c++/10/ostream ****       { return _M_insert(__n); }
 172:/usr/include/c++/10/ostream **** 
 173:/usr/include/c++/10/ostream ****       __ostream_type&
 174:/usr/include/c++/10/ostream ****       operator<<(bool __n)
 175:/usr/include/c++/10/ostream ****       { return _M_insert(__n); }
 176:/usr/include/c++/10/ostream **** 
 177:/usr/include/c++/10/ostream ****       __ostream_type&
 178:/usr/include/c++/10/ostream ****       operator<<(short __n);
 179:/usr/include/c++/10/ostream **** 
 180:/usr/include/c++/10/ostream ****       __ostream_type&
 181:/usr/include/c++/10/ostream ****       operator<<(unsigned short __n)
 182:/usr/include/c++/10/ostream ****       {
 183:/usr/include/c++/10/ostream **** 	// _GLIBCXX_RESOLVE_LIB_DEFECTS
 184:/usr/include/c++/10/ostream **** 	// 117. basic_ostream uses nonexistent num_put member functions.
 185:/usr/include/c++/10/ostream **** 	return _M_insert(static_cast<unsigned long>(__n));
AARCH64 GAS  obj/Ch11_03.s 			page 7


 186:/usr/include/c++/10/ostream ****       }
 187:/usr/include/c++/10/ostream **** 
 188:/usr/include/c++/10/ostream ****       __ostream_type&
 189:/usr/include/c++/10/ostream ****       operator<<(int __n);
 190:/usr/include/c++/10/ostream **** 
 191:/usr/include/c++/10/ostream ****       __ostream_type&
 192:/usr/include/c++/10/ostream ****       operator<<(unsigned int __n)
 193:/usr/include/c++/10/ostream ****       {
 194:/usr/include/c++/10/ostream **** 	// _GLIBCXX_RESOLVE_LIB_DEFECTS
 195:/usr/include/c++/10/ostream **** 	// 117. basic_ostream uses nonexistent num_put member functions.
 196:/usr/include/c++/10/ostream **** 	return _M_insert(static_cast<unsigned long>(__n));
 197:/usr/include/c++/10/ostream ****       }
 198:/usr/include/c++/10/ostream **** 
 199:/usr/include/c++/10/ostream **** #ifdef _GLIBCXX_USE_LONG_LONG
 200:/usr/include/c++/10/ostream ****       __ostream_type&
 201:/usr/include/c++/10/ostream ****       operator<<(long long __n)
 202:/usr/include/c++/10/ostream ****       { return _M_insert(__n); }
 203:/usr/include/c++/10/ostream **** 
 204:/usr/include/c++/10/ostream ****       __ostream_type&
 205:/usr/include/c++/10/ostream ****       operator<<(unsigned long long __n)
 206:/usr/include/c++/10/ostream ****       { return _M_insert(__n); }
 207:/usr/include/c++/10/ostream **** #endif
 208:/usr/include/c++/10/ostream ****       //@}
 209:/usr/include/c++/10/ostream **** 
 210:/usr/include/c++/10/ostream ****       //@{
 211:/usr/include/c++/10/ostream ****       /**
 212:/usr/include/c++/10/ostream ****        *  @brief  Floating point arithmetic inserters
 213:/usr/include/c++/10/ostream ****        *  @param  __f A variable of builtin floating point type.
 214:/usr/include/c++/10/ostream ****        *  @return  @c *this if successful
 215:/usr/include/c++/10/ostream ****        *
 216:/usr/include/c++/10/ostream ****        *  These functions use the stream's current locale (specifically, the
 217:/usr/include/c++/10/ostream ****        *  @c num_get facet) to perform numeric formatting.
 218:/usr/include/c++/10/ostream ****       */
 219:/usr/include/c++/10/ostream ****       __ostream_type&
 220:/usr/include/c++/10/ostream ****       operator<<(double __f)
 221:/usr/include/c++/10/ostream ****       { return _M_insert(__f); }
 222:/usr/include/c++/10/ostream **** 
 223:/usr/include/c++/10/ostream ****       __ostream_type&
 224:/usr/include/c++/10/ostream ****       operator<<(float __f)
 225:/usr/include/c++/10/ostream ****       {
 226:/usr/include/c++/10/ostream **** 	// _GLIBCXX_RESOLVE_LIB_DEFECTS
 227:/usr/include/c++/10/ostream **** 	// 117. basic_ostream uses nonexistent num_put member functions.
 228:/usr/include/c++/10/ostream **** 	return _M_insert(static_cast<double>(__f));
 229:/usr/include/c++/10/ostream ****       }
 230:/usr/include/c++/10/ostream **** 
 231:/usr/include/c++/10/ostream ****       __ostream_type&
 232:/usr/include/c++/10/ostream ****       operator<<(long double __f)
 233:/usr/include/c++/10/ostream ****       { return _M_insert(__f); }
 234:/usr/include/c++/10/ostream ****       //@}
 235:/usr/include/c++/10/ostream **** 
 236:/usr/include/c++/10/ostream ****       /**
 237:/usr/include/c++/10/ostream ****        *  @brief  Pointer arithmetic inserters
 238:/usr/include/c++/10/ostream ****        *  @param  __p A variable of pointer type.
 239:/usr/include/c++/10/ostream ****        *  @return  @c *this if successful
 240:/usr/include/c++/10/ostream ****        *
 241:/usr/include/c++/10/ostream ****        *  These functions use the stream's current locale (specifically, the
 242:/usr/include/c++/10/ostream ****        *  @c num_get facet) to perform numeric formatting.
AARCH64 GAS  obj/Ch11_03.s 			page 8


 243:/usr/include/c++/10/ostream ****       */
 244:/usr/include/c++/10/ostream ****       __ostream_type&
 245:/usr/include/c++/10/ostream ****       operator<<(const void* __p)
 246:/usr/include/c++/10/ostream ****       { return _M_insert(__p); }
 247:/usr/include/c++/10/ostream **** 
 248:/usr/include/c++/10/ostream **** #if __cplusplus >= 201703L
 249:/usr/include/c++/10/ostream ****       __ostream_type&
 250:/usr/include/c++/10/ostream ****       operator<<(nullptr_t)
 251:/usr/include/c++/10/ostream ****       { return *this << "nullptr"; }
 252:/usr/include/c++/10/ostream **** #endif
 253:/usr/include/c++/10/ostream **** 
 254:/usr/include/c++/10/ostream ****       /**
 255:/usr/include/c++/10/ostream ****        *  @brief  Extracting from another streambuf.
 256:/usr/include/c++/10/ostream ****        *  @param  __sb  A pointer to a streambuf
 257:/usr/include/c++/10/ostream ****        *
 258:/usr/include/c++/10/ostream ****        *  This function behaves like one of the basic arithmetic extractors,
 259:/usr/include/c++/10/ostream ****        *  in that it also constructs a sentry object and has the same error
 260:/usr/include/c++/10/ostream ****        *  handling behavior.
 261:/usr/include/c++/10/ostream ****        *
 262:/usr/include/c++/10/ostream ****        *  If @p __sb is NULL, the stream will set failbit in its error state.
 263:/usr/include/c++/10/ostream ****        *
 264:/usr/include/c++/10/ostream ****        *  Characters are extracted from @p __sb and inserted into @c *this
 265:/usr/include/c++/10/ostream ****        *  until one of the following occurs:
 266:/usr/include/c++/10/ostream ****        *
 267:/usr/include/c++/10/ostream ****        *  - the input stream reaches end-of-file,
 268:/usr/include/c++/10/ostream ****        *  - insertion into the output sequence fails (in this case, the
 269:/usr/include/c++/10/ostream ****        *    character that would have been inserted is not extracted), or
 270:/usr/include/c++/10/ostream ****        *  - an exception occurs while getting a character from @p __sb, which
 271:/usr/include/c++/10/ostream ****        *    sets failbit in the error state
 272:/usr/include/c++/10/ostream ****        *
 273:/usr/include/c++/10/ostream ****        *  If the function inserts no characters, failbit is set.
 274:/usr/include/c++/10/ostream ****       */
 275:/usr/include/c++/10/ostream ****       __ostream_type&
 276:/usr/include/c++/10/ostream ****       operator<<(__streambuf_type* __sb);
 277:/usr/include/c++/10/ostream ****       //@}
 278:/usr/include/c++/10/ostream **** 
 279:/usr/include/c++/10/ostream ****       //@{
 280:/usr/include/c++/10/ostream ****       /**
 281:/usr/include/c++/10/ostream ****        *  @name Unformatted Output Functions
 282:/usr/include/c++/10/ostream ****        *
 283:/usr/include/c++/10/ostream ****        *  All the unformatted output functions have some common behavior.
 284:/usr/include/c++/10/ostream ****        *  Each starts by constructing a temporary object of type
 285:/usr/include/c++/10/ostream ****        *  std::basic_ostream::sentry.  This has several effects, concluding
 286:/usr/include/c++/10/ostream ****        *  with the setting of a status flag; see the sentry documentation
 287:/usr/include/c++/10/ostream ****        *  for more.
 288:/usr/include/c++/10/ostream ****        *
 289:/usr/include/c++/10/ostream ****        *  If the sentry status is good, the function tries to generate
 290:/usr/include/c++/10/ostream ****        *  whatever data is appropriate for the type of the argument.
 291:/usr/include/c++/10/ostream ****        *
 292:/usr/include/c++/10/ostream ****        *  If an exception is thrown during insertion, ios_base::badbit
 293:/usr/include/c++/10/ostream ****        *  will be turned on in the stream's error state.  If badbit is on in
 294:/usr/include/c++/10/ostream ****        *  the stream's exceptions mask, the exception will be rethrown
 295:/usr/include/c++/10/ostream ****        *  without completing its actions.
 296:/usr/include/c++/10/ostream ****       */
 297:/usr/include/c++/10/ostream **** 
 298:/usr/include/c++/10/ostream ****       /**
 299:/usr/include/c++/10/ostream ****        *  @brief  Simple insertion.
AARCH64 GAS  obj/Ch11_03.s 			page 9


 300:/usr/include/c++/10/ostream ****        *  @param  __c  The character to insert.
 301:/usr/include/c++/10/ostream ****        *  @return  *this
 302:/usr/include/c++/10/ostream ****        *
 303:/usr/include/c++/10/ostream ****        *  Tries to insert @p __c.
 304:/usr/include/c++/10/ostream ****        *
 305:/usr/include/c++/10/ostream ****        *  @note  This function is not overloaded on signed char and
 306:/usr/include/c++/10/ostream ****        *         unsigned char.
 307:/usr/include/c++/10/ostream ****       */
 308:/usr/include/c++/10/ostream ****       __ostream_type&
 309:/usr/include/c++/10/ostream ****       put(char_type __c);
 310:/usr/include/c++/10/ostream **** 
 311:/usr/include/c++/10/ostream ****       /**
 312:/usr/include/c++/10/ostream ****        *  @brief  Core write functionality, without sentry.
 313:/usr/include/c++/10/ostream ****        *  @param  __s  The array to insert.
 314:/usr/include/c++/10/ostream ****        *  @param  __n  Maximum number of characters to insert.
 315:/usr/include/c++/10/ostream ****       */
 316:/usr/include/c++/10/ostream ****       void
 317:/usr/include/c++/10/ostream ****       _M_write(const char_type* __s, streamsize __n)
 318:/usr/include/c++/10/ostream ****       {
 319:/usr/include/c++/10/ostream **** 	const streamsize __put = this->rdbuf()->sputn(__s, __n);
 320:/usr/include/c++/10/ostream **** 	if (__put != __n)
 321:/usr/include/c++/10/ostream **** 	  this->setstate(ios_base::badbit);
 322:/usr/include/c++/10/ostream ****       }
 323:/usr/include/c++/10/ostream **** 
 324:/usr/include/c++/10/ostream ****       /**
 325:/usr/include/c++/10/ostream ****        *  @brief  Character string insertion.
 326:/usr/include/c++/10/ostream ****        *  @param  __s  The array to insert.
 327:/usr/include/c++/10/ostream ****        *  @param  __n  Maximum number of characters to insert.
 328:/usr/include/c++/10/ostream ****        *  @return  *this
 329:/usr/include/c++/10/ostream ****        *
 330:/usr/include/c++/10/ostream ****        *  Characters are copied from @p __s and inserted into the stream until
 331:/usr/include/c++/10/ostream ****        *  one of the following happens:
 332:/usr/include/c++/10/ostream ****        *
 333:/usr/include/c++/10/ostream ****        *  - @p __n characters are inserted
 334:/usr/include/c++/10/ostream ****        *  - inserting into the output sequence fails (in this case, badbit
 335:/usr/include/c++/10/ostream ****        *    will be set in the stream's error state)
 336:/usr/include/c++/10/ostream ****        *
 337:/usr/include/c++/10/ostream ****        *  @note  This function is not overloaded on signed char and
 338:/usr/include/c++/10/ostream ****        *         unsigned char.
 339:/usr/include/c++/10/ostream ****       */
 340:/usr/include/c++/10/ostream ****       __ostream_type&
 341:/usr/include/c++/10/ostream ****       write(const char_type* __s, streamsize __n);
 342:/usr/include/c++/10/ostream ****       //@}
 343:/usr/include/c++/10/ostream **** 
 344:/usr/include/c++/10/ostream ****       /**
 345:/usr/include/c++/10/ostream ****        *  @brief  Synchronizing the stream buffer.
 346:/usr/include/c++/10/ostream ****        *  @return  *this
 347:/usr/include/c++/10/ostream ****        *
 348:/usr/include/c++/10/ostream ****        *  If @c rdbuf() is a null pointer, changes nothing.
 349:/usr/include/c++/10/ostream ****        *
 350:/usr/include/c++/10/ostream ****        *  Otherwise, calls @c rdbuf()->pubsync(), and if that returns -1,
 351:/usr/include/c++/10/ostream ****        *  sets badbit.
 352:/usr/include/c++/10/ostream ****       */
 353:/usr/include/c++/10/ostream ****       __ostream_type&
 354:/usr/include/c++/10/ostream ****       flush();
 355:/usr/include/c++/10/ostream **** 
 356:/usr/include/c++/10/ostream ****       /**
AARCH64 GAS  obj/Ch11_03.s 			page 10


 357:/usr/include/c++/10/ostream ****        *  @brief  Getting the current write position.
 358:/usr/include/c++/10/ostream ****        *  @return  A file position object.
 359:/usr/include/c++/10/ostream ****        *
 360:/usr/include/c++/10/ostream ****        *  If @c fail() is not false, returns @c pos_type(-1) to indicate
 361:/usr/include/c++/10/ostream ****        *  failure.  Otherwise returns @c rdbuf()->pubseekoff(0,cur,out).
 362:/usr/include/c++/10/ostream ****       */
 363:/usr/include/c++/10/ostream ****       pos_type
 364:/usr/include/c++/10/ostream ****       tellp();
 365:/usr/include/c++/10/ostream **** 
 366:/usr/include/c++/10/ostream ****       /**
 367:/usr/include/c++/10/ostream ****        *  @brief  Changing the current write position.
 368:/usr/include/c++/10/ostream ****        *  @param  __pos  A file position object.
 369:/usr/include/c++/10/ostream ****        *  @return  *this
 370:/usr/include/c++/10/ostream ****        *
 371:/usr/include/c++/10/ostream ****        *  If @c fail() is not true, calls @c rdbuf()->pubseekpos(pos).  If
 372:/usr/include/c++/10/ostream ****        *  that function fails, sets failbit.
 373:/usr/include/c++/10/ostream ****       */
 374:/usr/include/c++/10/ostream ****       __ostream_type&
 375:/usr/include/c++/10/ostream ****       seekp(pos_type);
 376:/usr/include/c++/10/ostream **** 
 377:/usr/include/c++/10/ostream ****       /**
 378:/usr/include/c++/10/ostream ****        *  @brief  Changing the current write position.
 379:/usr/include/c++/10/ostream ****        *  @param  __off  A file offset object.
 380:/usr/include/c++/10/ostream ****        *  @param  __dir  The direction in which to seek.
 381:/usr/include/c++/10/ostream ****        *  @return  *this
 382:/usr/include/c++/10/ostream ****        *
 383:/usr/include/c++/10/ostream ****        *  If @c fail() is not true, calls @c rdbuf()->pubseekoff(off,dir).
 384:/usr/include/c++/10/ostream ****        *  If that function fails, sets failbit.
 385:/usr/include/c++/10/ostream ****       */
 386:/usr/include/c++/10/ostream ****        __ostream_type&
 387:/usr/include/c++/10/ostream ****       seekp(off_type, ios_base::seekdir);
 388:/usr/include/c++/10/ostream **** 
 389:/usr/include/c++/10/ostream ****     protected:
 390:/usr/include/c++/10/ostream ****       basic_ostream()
 391:/usr/include/c++/10/ostream ****       { this->init(0); }
 392:/usr/include/c++/10/ostream **** 
 393:/usr/include/c++/10/ostream **** #if __cplusplus >= 201103L
 394:/usr/include/c++/10/ostream ****       // Non-standard constructor that does not call init()
 395:/usr/include/c++/10/ostream ****       basic_ostream(basic_iostream<_CharT, _Traits>&) { }
 396:/usr/include/c++/10/ostream **** 
 397:/usr/include/c++/10/ostream ****       basic_ostream(const basic_ostream&) = delete;
 398:/usr/include/c++/10/ostream **** 
 399:/usr/include/c++/10/ostream ****       basic_ostream(basic_ostream&& __rhs)
 400:/usr/include/c++/10/ostream ****       : __ios_type()
 401:/usr/include/c++/10/ostream ****       { __ios_type::move(__rhs); }
 402:/usr/include/c++/10/ostream **** 
 403:/usr/include/c++/10/ostream ****       // 27.7.3.3 Assign/swap
 404:/usr/include/c++/10/ostream **** 
 405:/usr/include/c++/10/ostream ****       basic_ostream& operator=(const basic_ostream&) = delete;
 406:/usr/include/c++/10/ostream **** 
 407:/usr/include/c++/10/ostream ****       basic_ostream&
 408:/usr/include/c++/10/ostream ****       operator=(basic_ostream&& __rhs)
 409:/usr/include/c++/10/ostream ****       {
 410:/usr/include/c++/10/ostream **** 	swap(__rhs);
 411:/usr/include/c++/10/ostream **** 	return *this;
 412:/usr/include/c++/10/ostream ****       }
 413:/usr/include/c++/10/ostream **** 
AARCH64 GAS  obj/Ch11_03.s 			page 11


 414:/usr/include/c++/10/ostream ****       void
 415:/usr/include/c++/10/ostream ****       swap(basic_ostream& __rhs)
 416:/usr/include/c++/10/ostream ****       { __ios_type::swap(__rhs); }
 417:/usr/include/c++/10/ostream **** #endif
 418:/usr/include/c++/10/ostream **** 
 419:/usr/include/c++/10/ostream ****       template<typename _ValueT>
 420:/usr/include/c++/10/ostream **** 	__ostream_type&
 421:/usr/include/c++/10/ostream **** 	_M_insert(_ValueT __v);
 422:/usr/include/c++/10/ostream ****     };
 423:/usr/include/c++/10/ostream **** 
 424:/usr/include/c++/10/ostream ****   /**
 425:/usr/include/c++/10/ostream ****    *  @brief  Performs setup work for output streams.
 426:/usr/include/c++/10/ostream ****    *
 427:/usr/include/c++/10/ostream ****    *  Objects of this class are created before all of the standard
 428:/usr/include/c++/10/ostream ****    *  inserters are run.  It is responsible for <em>exception-safe prefix and
 429:/usr/include/c++/10/ostream ****    *  suffix operations</em>.
 430:/usr/include/c++/10/ostream ****   */
 431:/usr/include/c++/10/ostream ****   template <typename _CharT, typename _Traits>
 432:/usr/include/c++/10/ostream ****     class basic_ostream<_CharT, _Traits>::sentry
 433:/usr/include/c++/10/ostream ****     {
 434:/usr/include/c++/10/ostream ****       // Data Members.
 435:/usr/include/c++/10/ostream ****       bool 				_M_ok;
 436:/usr/include/c++/10/ostream ****       basic_ostream<_CharT, _Traits>& 	_M_os;
 437:/usr/include/c++/10/ostream **** 
 438:/usr/include/c++/10/ostream ****     public:
 439:/usr/include/c++/10/ostream ****       /**
 440:/usr/include/c++/10/ostream ****        *  @brief  The constructor performs preparatory work.
 441:/usr/include/c++/10/ostream ****        *  @param  __os  The output stream to guard.
 442:/usr/include/c++/10/ostream ****        *
 443:/usr/include/c++/10/ostream ****        *  If the stream state is good (@a __os.good() is true), then if the
 444:/usr/include/c++/10/ostream ****        *  stream is tied to another output stream, @c is.tie()->flush()
 445:/usr/include/c++/10/ostream ****        *  is called to synchronize the output sequences.
 446:/usr/include/c++/10/ostream ****        *
 447:/usr/include/c++/10/ostream ****        *  If the stream state is still good, then the sentry state becomes
 448:/usr/include/c++/10/ostream ****        *  true (@a okay).
 449:/usr/include/c++/10/ostream ****       */
 450:/usr/include/c++/10/ostream ****       explicit
 451:/usr/include/c++/10/ostream ****       sentry(basic_ostream<_CharT, _Traits>& __os);
 452:/usr/include/c++/10/ostream **** 
 453:/usr/include/c++/10/ostream **** #pragma GCC diagnostic push
 454:/usr/include/c++/10/ostream **** #pragma GCC diagnostic ignored "-Wdeprecated-declarations"
 455:/usr/include/c++/10/ostream ****       /**
 456:/usr/include/c++/10/ostream ****        *  @brief  Possibly flushes the stream.
 457:/usr/include/c++/10/ostream ****        *
 458:/usr/include/c++/10/ostream ****        *  If @c ios_base::unitbuf is set in @c os.flags(), and
 459:/usr/include/c++/10/ostream ****        *  @c std::uncaught_exception() is true, the sentry destructor calls
 460:/usr/include/c++/10/ostream ****        *  @c flush() on the output stream.
 461:/usr/include/c++/10/ostream ****       */
 462:/usr/include/c++/10/ostream ****       ~sentry()
 463:/usr/include/c++/10/ostream ****       {
 464:/usr/include/c++/10/ostream **** 	// XXX MT
 465:/usr/include/c++/10/ostream **** 	if (bool(_M_os.flags() & ios_base::unitbuf) && !uncaught_exception())
 466:/usr/include/c++/10/ostream **** 	  {
 467:/usr/include/c++/10/ostream **** 	    // Can't call flush directly or else will get into recursive lock.
 468:/usr/include/c++/10/ostream **** 	    if (_M_os.rdbuf() && _M_os.rdbuf()->pubsync() == -1)
 469:/usr/include/c++/10/ostream **** 	      _M_os.setstate(ios_base::badbit);
 470:/usr/include/c++/10/ostream **** 	  }
AARCH64 GAS  obj/Ch11_03.s 			page 12


 471:/usr/include/c++/10/ostream ****       }
 472:/usr/include/c++/10/ostream **** #pragma GCC diagnostic pop
 473:/usr/include/c++/10/ostream **** 
 474:/usr/include/c++/10/ostream ****       /**
 475:/usr/include/c++/10/ostream ****        *  @brief  Quick status checking.
 476:/usr/include/c++/10/ostream ****        *  @return  The sentry state.
 477:/usr/include/c++/10/ostream ****        *
 478:/usr/include/c++/10/ostream ****        *  For ease of use, sentries may be converted to booleans.  The
 479:/usr/include/c++/10/ostream ****        *  return value is that of the sentry state (true == okay).
 480:/usr/include/c++/10/ostream ****       */
 481:/usr/include/c++/10/ostream **** #if __cplusplus >= 201103L
 482:/usr/include/c++/10/ostream ****       explicit
 483:/usr/include/c++/10/ostream **** #endif
 484:/usr/include/c++/10/ostream ****       operator bool() const
 485:/usr/include/c++/10/ostream ****       { return _M_ok; }
 486:/usr/include/c++/10/ostream ****     };
 487:/usr/include/c++/10/ostream **** 
 488:/usr/include/c++/10/ostream ****   //@{
 489:/usr/include/c++/10/ostream ****   /**
 490:/usr/include/c++/10/ostream ****    *  @brief  Character inserters
 491:/usr/include/c++/10/ostream ****    *  @param  __out  An output stream.
 492:/usr/include/c++/10/ostream ****    *  @param  __c  A character.
 493:/usr/include/c++/10/ostream ****    *  @return  out
 494:/usr/include/c++/10/ostream ****    *
 495:/usr/include/c++/10/ostream ****    *  Behaves like one of the formatted arithmetic inserters described in
 496:/usr/include/c++/10/ostream ****    *  std::basic_ostream.  After constructing a sentry object with good
 497:/usr/include/c++/10/ostream ****    *  status, this function inserts a single character and any required
 498:/usr/include/c++/10/ostream ****    *  padding (as determined by [22.2.2.2.2]).  @c __out.width(0) is then
 499:/usr/include/c++/10/ostream ****    *  called.
 500:/usr/include/c++/10/ostream ****    *
 501:/usr/include/c++/10/ostream ****    *  If @p __c is of type @c char and the character type of the stream is not
 502:/usr/include/c++/10/ostream ****    *  @c char, the character is widened before insertion.
 503:/usr/include/c++/10/ostream ****   */
 504:/usr/include/c++/10/ostream ****   template<typename _CharT, typename _Traits>
 505:/usr/include/c++/10/ostream ****     inline basic_ostream<_CharT, _Traits>&
 506:/usr/include/c++/10/ostream ****     operator<<(basic_ostream<_CharT, _Traits>& __out, _CharT __c)
 507:/usr/include/c++/10/ostream ****     { return __ostream_insert(__out, &__c, 1); }
 508:/usr/include/c++/10/ostream **** 
 509:/usr/include/c++/10/ostream ****   template<typename _CharT, typename _Traits>
 510:/usr/include/c++/10/ostream ****     inline basic_ostream<_CharT, _Traits>&
 511:/usr/include/c++/10/ostream ****     operator<<(basic_ostream<_CharT, _Traits>& __out, char __c)
 512:/usr/include/c++/10/ostream ****     { return (__out << __out.widen(__c)); }
 513:/usr/include/c++/10/ostream **** 
 514:/usr/include/c++/10/ostream ****   // Specialization
 515:/usr/include/c++/10/ostream ****   template<typename _Traits>
 516:/usr/include/c++/10/ostream ****     inline basic_ostream<char, _Traits>&
 517:/usr/include/c++/10/ostream ****     operator<<(basic_ostream<char, _Traits>& __out, char __c)
 518:/usr/include/c++/10/ostream ****     { return __ostream_insert(__out, &__c, 1); }
 519:/usr/include/c++/10/ostream **** 
 520:/usr/include/c++/10/ostream ****   // Signed and unsigned
 521:/usr/include/c++/10/ostream ****   template<typename _Traits>
 522:/usr/include/c++/10/ostream ****     inline basic_ostream<char, _Traits>&
 523:/usr/include/c++/10/ostream ****     operator<<(basic_ostream<char, _Traits>& __out, signed char __c)
 524:/usr/include/c++/10/ostream ****     { return (__out << static_cast<char>(__c)); }
 525:/usr/include/c++/10/ostream **** 
 526:/usr/include/c++/10/ostream ****   template<typename _Traits>
 527:/usr/include/c++/10/ostream ****     inline basic_ostream<char, _Traits>&
AARCH64 GAS  obj/Ch11_03.s 			page 13


 528:/usr/include/c++/10/ostream ****     operator<<(basic_ostream<char, _Traits>& __out, unsigned char __c)
 529:/usr/include/c++/10/ostream ****     { return (__out << static_cast<char>(__c)); }
 530:/usr/include/c++/10/ostream **** 
 531:/usr/include/c++/10/ostream **** #if __cplusplus > 201703L
 532:/usr/include/c++/10/ostream ****   // The following deleted overloads prevent formatting character values as
 533:/usr/include/c++/10/ostream ****   // numeric values.
 534:/usr/include/c++/10/ostream **** 
 535:/usr/include/c++/10/ostream **** #ifdef _GLIBCXX_USE_WCHAR_T
 536:/usr/include/c++/10/ostream ****   template<typename _Traits>
 537:/usr/include/c++/10/ostream ****     basic_ostream<char, _Traits>&
 538:/usr/include/c++/10/ostream ****     operator<<(basic_ostream<char, _Traits>&, wchar_t) = delete;
 539:/usr/include/c++/10/ostream **** #endif // _GLIBCXX_USE_WCHAR_T
 540:/usr/include/c++/10/ostream **** 
 541:/usr/include/c++/10/ostream **** #ifdef _GLIBCXX_USE_CHAR8_T
 542:/usr/include/c++/10/ostream ****   template<typename _Traits>
 543:/usr/include/c++/10/ostream ****     basic_ostream<char, _Traits>&
 544:/usr/include/c++/10/ostream ****     operator<<(basic_ostream<char, _Traits>&, char8_t) = delete;
 545:/usr/include/c++/10/ostream **** #endif
 546:/usr/include/c++/10/ostream **** 
 547:/usr/include/c++/10/ostream ****   template<typename _Traits>
 548:/usr/include/c++/10/ostream ****     basic_ostream<char, _Traits>&
 549:/usr/include/c++/10/ostream ****     operator<<(basic_ostream<char, _Traits>&, char16_t) = delete;
 550:/usr/include/c++/10/ostream **** 
 551:/usr/include/c++/10/ostream ****   template<typename _Traits>
 552:/usr/include/c++/10/ostream ****     basic_ostream<char, _Traits>&
 553:/usr/include/c++/10/ostream ****     operator<<(basic_ostream<char, _Traits>&, char32_t) = delete;
 554:/usr/include/c++/10/ostream **** 
 555:/usr/include/c++/10/ostream **** #ifdef _GLIBCXX_USE_WCHAR_T
 556:/usr/include/c++/10/ostream **** #ifdef _GLIBCXX_USE_CHAR8_T
 557:/usr/include/c++/10/ostream ****   template<typename _Traits>
 558:/usr/include/c++/10/ostream ****     basic_ostream<wchar_t, _Traits>&
 559:/usr/include/c++/10/ostream ****     operator<<(basic_ostream<wchar_t, _Traits>&, char8_t) = delete;
 560:/usr/include/c++/10/ostream **** #endif // _GLIBCXX_USE_CHAR8_T
 561:/usr/include/c++/10/ostream **** 
 562:/usr/include/c++/10/ostream ****   template<typename _Traits>
 563:/usr/include/c++/10/ostream ****     basic_ostream<wchar_t, _Traits>&
 564:/usr/include/c++/10/ostream ****     operator<<(basic_ostream<wchar_t, _Traits>&, char16_t) = delete;
 565:/usr/include/c++/10/ostream **** 
 566:/usr/include/c++/10/ostream ****   template<typename _Traits>
 567:/usr/include/c++/10/ostream ****     basic_ostream<wchar_t, _Traits>&
 568:/usr/include/c++/10/ostream ****     operator<<(basic_ostream<wchar_t, _Traits>&, char32_t) = delete;
 569:/usr/include/c++/10/ostream **** #endif // _GLIBCXX_USE_WCHAR_T
 570:/usr/include/c++/10/ostream **** #endif // C++20
 571:/usr/include/c++/10/ostream ****   //@}
 572:/usr/include/c++/10/ostream **** 
 573:/usr/include/c++/10/ostream ****   //@{
 574:/usr/include/c++/10/ostream ****   /**
 575:/usr/include/c++/10/ostream ****    *  @brief  String inserters
 576:/usr/include/c++/10/ostream ****    *  @param  __out  An output stream.
 577:/usr/include/c++/10/ostream ****    *  @param  __s  A character string.
 578:/usr/include/c++/10/ostream ****    *  @return  out
 579:/usr/include/c++/10/ostream ****    *  @pre  @p __s must be a non-NULL pointer
 580:/usr/include/c++/10/ostream ****    *
 581:/usr/include/c++/10/ostream ****    *  Behaves like one of the formatted arithmetic inserters described in
 582:/usr/include/c++/10/ostream ****    *  std::basic_ostream.  After constructing a sentry object with good
 583:/usr/include/c++/10/ostream ****    *  status, this function inserts @c traits::length(__s) characters starting
 584:/usr/include/c++/10/ostream ****    *  at @p __s, widened if necessary, followed by any required padding (as
AARCH64 GAS  obj/Ch11_03.s 			page 14


 585:/usr/include/c++/10/ostream ****    *  determined by [22.2.2.2.2]).  @c __out.width(0) is then called.
 586:/usr/include/c++/10/ostream ****   */
 587:/usr/include/c++/10/ostream ****   template<typename _CharT, typename _Traits>
 588:/usr/include/c++/10/ostream ****     inline basic_ostream<_CharT, _Traits>&
 589:/usr/include/c++/10/ostream ****     operator<<(basic_ostream<_CharT, _Traits>& __out, const _CharT* __s)
 590:/usr/include/c++/10/ostream ****     {
 591:/usr/include/c++/10/ostream ****       if (!__s)
 592:/usr/include/c++/10/ostream **** 	__out.setstate(ios_base::badbit);
 593:/usr/include/c++/10/ostream ****       else
 594:/usr/include/c++/10/ostream **** 	__ostream_insert(__out, __s,
 595:/usr/include/c++/10/ostream **** 			 static_cast<streamsize>(_Traits::length(__s)));
 596:/usr/include/c++/10/ostream ****       return __out;
 597:/usr/include/c++/10/ostream ****     }
 598:/usr/include/c++/10/ostream **** 
 599:/usr/include/c++/10/ostream ****   template<typename _CharT, typename _Traits>
 600:/usr/include/c++/10/ostream ****     basic_ostream<_CharT, _Traits> &
 601:/usr/include/c++/10/ostream ****     operator<<(basic_ostream<_CharT, _Traits>& __out, const char* __s);
 602:/usr/include/c++/10/ostream **** 
 603:/usr/include/c++/10/ostream ****   // Partial specializations
 604:/usr/include/c++/10/ostream ****   template<typename _Traits>
 605:/usr/include/c++/10/ostream ****     inline basic_ostream<char, _Traits>&
 606:/usr/include/c++/10/ostream ****     operator<<(basic_ostream<char, _Traits>& __out, const char* __s)
 607:/usr/include/c++/10/ostream ****     {
 608:/usr/include/c++/10/ostream ****       if (!__s)
 609:/usr/include/c++/10/ostream **** 	__out.setstate(ios_base::badbit);
 610:/usr/include/c++/10/ostream ****       else
 611:/usr/include/c++/10/ostream **** 	__ostream_insert(__out, __s,
  58              		.loc 2 611 18 view .LVU7
  59 0014 13000090 		adrp	x19, :got:_ZSt4cout
  60              	.LBE171:
  61              	.LBE170:
  62              	.LBE169:
  63              	.LBE168:
  64              		.loc 1 28 17 view .LVU8
  65 0018 E3B30191 		add	x3, sp, 108
  66 001c E2A30191 		add	x2, sp, 104
  26:Ch11_03.cpp   ****     int a1 = 100, b1 = 7, quo1, rem1;
  67              		.loc 1 26 1 view .LVU9
  68 0020 F55B02A9 		stp	x21, x22, [sp, 32]
  69              		.cfi_offset 21, -96
  70              		.cfi_offset 22, -88
  71              	.LBB221:
  72              	.LBB210:
  73              	.LBB174:
  74              	.LBB175:
 518:/usr/include/c++/10/ostream **** 
  75              		.loc 2 518 30 view .LVU10
  76 0024 F5E30191 		add	x21, sp, 120
  77              	.LBE175:
  78              	.LBE174:
  79              	.LBE210:
  80              	.LBE221:
  26:Ch11_03.cpp   ****     int a1 = 100, b1 = 7, quo1, rem1;
  81              		.loc 1 26 1 view .LVU11
  82 0028 F76303A9 		stp	x23, x24, [sp, 48]
  83 002c 54018052 		mov	w20, 10
  84              		.cfi_offset 23, -80
AARCH64 GAS  obj/Ch11_03.s 			page 15


  85              		.cfi_offset 24, -72
  86              	.LBB222:
  87              	.LBB211:
  88              	.LBB178:
  89              	.LBB179:
  90              		.loc 2 611 18 view .LVU12
  91 0030 18000090 		adrp	x24, .LC3
  92              	.LBE179:
  93              	.LBE178:
  94              	.LBE211:
  95              	.LBE222:
  26:Ch11_03.cpp   ****     int a1 = 100, b1 = 7, quo1, rem1;
  96              		.loc 1 26 1 view .LVU13
  97 0034 F96B04A9 		stp	x25, x26, [sp, 64]
  98              		.cfi_offset 25, -64
  99              		.cfi_offset 26, -56
 100              	.LBB223:
 101              	.LBB212:
 102              	.LBB181:
 103              	.LBB182:
 104              		.loc 2 611 18 view .LVU14
 105 0038 1A000090 		adrp	x26, .LC1
 106 003c 5A030091 		add	x26, x26, :lo12:.LC1
 107              	.LBE182:
 108              	.LBE181:
 109              	.LBE212:
 110              	.LBE223:
  26:Ch11_03.cpp   ****     int a1 = 100, b1 = 7, quo1, rem1;
 111              		.loc 1 26 1 view .LVU15
 112 0040 FB7305A9 		stp	x27, x28, [sp, 80]
 113              		.cfi_offset 27, -48
 114              		.cfi_offset 28, -40
 115              		.loc 1 28 17 view .LVU16
 116 0044 00000094 		bl	CalcQuoRemA_
 117              	.LVL3:
  29:Ch11_03.cpp   ****     PrintResult("CalcQuoRemA_", a1, b1, quo1, rem1);
 118              		.loc 1 29 5 is_stmt 1 view .LVU17
 119              	.LBB224:
 120              	.LBB213:
 121              	.LBB184:
 122              	.LBB172:
 123              		.loc 2 611 18 is_stmt 0 view .LVU18
 124 0048 820180D2 		mov	x2, 12
 125 004c 730240F9 		ldr	x19, [x19, #:got_lo12:_ZSt4cout]
 126 0050 01000090 		adrp	x1, .LC0
 127              	.LBE172:
 128              	.LBE184:
 129              	.LBE213:
 130              	.LBE224:
 131              		.loc 1 29 16 view .LVU19
 132 0054 F7734D29 		ldp	w23, w28, [sp, 104]
 133              	.LVL4:
 134              	.LBB225:
 135              	.LBI168:
  13:Ch11_03.cpp   **** {
 136              		.loc 1 13 6 is_stmt 1 view .LVU20
 137              	.LBB214:
AARCH64 GAS  obj/Ch11_03.s 			page 16


 138              	.LBB185:
 139              	.LBI170:
 606:/usr/include/c++/10/ostream ****     {
 140              		.loc 2 606 5 view .LVU21
 606:/usr/include/c++/10/ostream ****     {
 141              		.loc 2 606 5 is_stmt 0 view .LVU22
 142              	.LBE185:
 143              	.LBE214:
 144              	.LBE225:
 145              		.file 3 "/usr/include/c++/10/bits/char_traits.h"
   1:/usr/include/c++/10/bits/char_traits.h **** // Character Traits for use by standard string and iostream -*- C++ -*-
   2:/usr/include/c++/10/bits/char_traits.h **** 
   3:/usr/include/c++/10/bits/char_traits.h **** // Copyright (C) 1997-2020 Free Software Foundation, Inc.
   4:/usr/include/c++/10/bits/char_traits.h **** //
   5:/usr/include/c++/10/bits/char_traits.h **** // This file is part of the GNU ISO C++ Library.  This library is free
   6:/usr/include/c++/10/bits/char_traits.h **** // software; you can redistribute it and/or modify it under the
   7:/usr/include/c++/10/bits/char_traits.h **** // terms of the GNU General Public License as published by the
   8:/usr/include/c++/10/bits/char_traits.h **** // Free Software Foundation; either version 3, or (at your option)
   9:/usr/include/c++/10/bits/char_traits.h **** // any later version.
  10:/usr/include/c++/10/bits/char_traits.h **** 
  11:/usr/include/c++/10/bits/char_traits.h **** // This library is distributed in the hope that it will be useful,
  12:/usr/include/c++/10/bits/char_traits.h **** // but WITHOUT ANY WARRANTY; without even the implied warranty of
  13:/usr/include/c++/10/bits/char_traits.h **** // MERCHANTABILITY or FITNESS FOR A PARTICULAR PURPOSE.  See the
  14:/usr/include/c++/10/bits/char_traits.h **** // GNU General Public License for more details.
  15:/usr/include/c++/10/bits/char_traits.h **** 
  16:/usr/include/c++/10/bits/char_traits.h **** // Under Section 7 of GPL version 3, you are granted additional
  17:/usr/include/c++/10/bits/char_traits.h **** // permissions described in the GCC Runtime Library Exception, version
  18:/usr/include/c++/10/bits/char_traits.h **** // 3.1, as published by the Free Software Foundation.
  19:/usr/include/c++/10/bits/char_traits.h **** 
  20:/usr/include/c++/10/bits/char_traits.h **** // You should have received a copy of the GNU General Public License and
  21:/usr/include/c++/10/bits/char_traits.h **** // a copy of the GCC Runtime Library Exception along with this program;
  22:/usr/include/c++/10/bits/char_traits.h **** // see the files COPYING3 and COPYING.RUNTIME respectively.  If not, see
  23:/usr/include/c++/10/bits/char_traits.h **** // <http://www.gnu.org/licenses/>.
  24:/usr/include/c++/10/bits/char_traits.h **** 
  25:/usr/include/c++/10/bits/char_traits.h **** /** @file bits/char_traits.h
  26:/usr/include/c++/10/bits/char_traits.h ****  *  This is an internal header file, included by other library headers.
  27:/usr/include/c++/10/bits/char_traits.h ****  *  Do not attempt to use it directly. @headername{string}
  28:/usr/include/c++/10/bits/char_traits.h ****  */
  29:/usr/include/c++/10/bits/char_traits.h **** 
  30:/usr/include/c++/10/bits/char_traits.h **** //
  31:/usr/include/c++/10/bits/char_traits.h **** // ISO C++ 14882: 21  Strings library
  32:/usr/include/c++/10/bits/char_traits.h **** //
  33:/usr/include/c++/10/bits/char_traits.h **** 
  34:/usr/include/c++/10/bits/char_traits.h **** #ifndef _CHAR_TRAITS_H
  35:/usr/include/c++/10/bits/char_traits.h **** #define _CHAR_TRAITS_H 1
  36:/usr/include/c++/10/bits/char_traits.h **** 
  37:/usr/include/c++/10/bits/char_traits.h **** #pragma GCC system_header
  38:/usr/include/c++/10/bits/char_traits.h **** 
  39:/usr/include/c++/10/bits/char_traits.h **** #include <bits/stl_algobase.h>  // std::copy, std::fill_n
  40:/usr/include/c++/10/bits/char_traits.h **** #include <bits/postypes.h>      // For streampos
  41:/usr/include/c++/10/bits/char_traits.h **** #include <cwchar>               // For WEOF, wmemmove, wmemset, etc.
  42:/usr/include/c++/10/bits/char_traits.h **** #if __cplusplus > 201703L
  43:/usr/include/c++/10/bits/char_traits.h **** # include <compare>
  44:/usr/include/c++/10/bits/char_traits.h **** #endif
  45:/usr/include/c++/10/bits/char_traits.h **** 
  46:/usr/include/c++/10/bits/char_traits.h **** #ifndef _GLIBCXX_ALWAYS_INLINE
  47:/usr/include/c++/10/bits/char_traits.h **** # define _GLIBCXX_ALWAYS_INLINE inline __attribute__((__always_inline__))
AARCH64 GAS  obj/Ch11_03.s 			page 17


  48:/usr/include/c++/10/bits/char_traits.h **** #endif
  49:/usr/include/c++/10/bits/char_traits.h **** 
  50:/usr/include/c++/10/bits/char_traits.h **** namespace __gnu_cxx _GLIBCXX_VISIBILITY(default)
  51:/usr/include/c++/10/bits/char_traits.h **** {
  52:/usr/include/c++/10/bits/char_traits.h **** _GLIBCXX_BEGIN_NAMESPACE_VERSION
  53:/usr/include/c++/10/bits/char_traits.h **** 
  54:/usr/include/c++/10/bits/char_traits.h ****   /**
  55:/usr/include/c++/10/bits/char_traits.h ****    *  @brief  Mapping from character type to associated types.
  56:/usr/include/c++/10/bits/char_traits.h ****    *
  57:/usr/include/c++/10/bits/char_traits.h ****    *  @note This is an implementation class for the generic version
  58:/usr/include/c++/10/bits/char_traits.h ****    *  of char_traits.  It defines int_type, off_type, pos_type, and
  59:/usr/include/c++/10/bits/char_traits.h ****    *  state_type.  By default these are unsigned long, streamoff,
  60:/usr/include/c++/10/bits/char_traits.h ****    *  streampos, and mbstate_t.  Users who need a different set of
  61:/usr/include/c++/10/bits/char_traits.h ****    *  types, but who don't need to change the definitions of any function
  62:/usr/include/c++/10/bits/char_traits.h ****    *  defined in char_traits, can specialize __gnu_cxx::_Char_types
  63:/usr/include/c++/10/bits/char_traits.h ****    *  while leaving __gnu_cxx::char_traits alone. */
  64:/usr/include/c++/10/bits/char_traits.h ****   template<typename _CharT>
  65:/usr/include/c++/10/bits/char_traits.h ****     struct _Char_types
  66:/usr/include/c++/10/bits/char_traits.h ****     {
  67:/usr/include/c++/10/bits/char_traits.h ****       typedef unsigned long   int_type;
  68:/usr/include/c++/10/bits/char_traits.h ****       typedef std::streampos  pos_type;
  69:/usr/include/c++/10/bits/char_traits.h ****       typedef std::streamoff  off_type;
  70:/usr/include/c++/10/bits/char_traits.h ****       typedef std::mbstate_t  state_type;
  71:/usr/include/c++/10/bits/char_traits.h ****     };
  72:/usr/include/c++/10/bits/char_traits.h **** 
  73:/usr/include/c++/10/bits/char_traits.h **** 
  74:/usr/include/c++/10/bits/char_traits.h ****   /**
  75:/usr/include/c++/10/bits/char_traits.h ****    *  @brief  Base class used to implement std::char_traits.
  76:/usr/include/c++/10/bits/char_traits.h ****    *
  77:/usr/include/c++/10/bits/char_traits.h ****    *  @note For any given actual character type, this definition is
  78:/usr/include/c++/10/bits/char_traits.h ****    *  probably wrong.  (Most of the member functions are likely to be
  79:/usr/include/c++/10/bits/char_traits.h ****    *  right, but the int_type and state_type typedefs, and the eof()
  80:/usr/include/c++/10/bits/char_traits.h ****    *  member function, are likely to be wrong.)  The reason this class
  81:/usr/include/c++/10/bits/char_traits.h ****    *  exists is so users can specialize it.  Classes in namespace std
  82:/usr/include/c++/10/bits/char_traits.h ****    *  may not be specialized for fundamental types, but classes in
  83:/usr/include/c++/10/bits/char_traits.h ****    *  namespace __gnu_cxx may be.
  84:/usr/include/c++/10/bits/char_traits.h ****    *
  85:/usr/include/c++/10/bits/char_traits.h ****    *  See https://gcc.gnu.org/onlinedocs/libstdc++/manual/strings.html#strings.string.character_typ
  86:/usr/include/c++/10/bits/char_traits.h ****    *  for advice on how to make use of this class for @a unusual character
  87:/usr/include/c++/10/bits/char_traits.h ****    *  types. Also, check out include/ext/pod_char_traits.h.  
  88:/usr/include/c++/10/bits/char_traits.h ****    */
  89:/usr/include/c++/10/bits/char_traits.h ****   template<typename _CharT>
  90:/usr/include/c++/10/bits/char_traits.h ****     struct char_traits
  91:/usr/include/c++/10/bits/char_traits.h ****     {
  92:/usr/include/c++/10/bits/char_traits.h ****       typedef _CharT                                    char_type;
  93:/usr/include/c++/10/bits/char_traits.h ****       typedef typename _Char_types<_CharT>::int_type    int_type;
  94:/usr/include/c++/10/bits/char_traits.h ****       typedef typename _Char_types<_CharT>::pos_type    pos_type;
  95:/usr/include/c++/10/bits/char_traits.h ****       typedef typename _Char_types<_CharT>::off_type    off_type;
  96:/usr/include/c++/10/bits/char_traits.h ****       typedef typename _Char_types<_CharT>::state_type  state_type;
  97:/usr/include/c++/10/bits/char_traits.h **** #if __cpp_lib_three_way_comparison
  98:/usr/include/c++/10/bits/char_traits.h ****       using comparison_category = std::strong_ordering;
  99:/usr/include/c++/10/bits/char_traits.h **** #endif
 100:/usr/include/c++/10/bits/char_traits.h **** 
 101:/usr/include/c++/10/bits/char_traits.h ****       static _GLIBCXX14_CONSTEXPR void
 102:/usr/include/c++/10/bits/char_traits.h ****       assign(char_type& __c1, const char_type& __c2)
 103:/usr/include/c++/10/bits/char_traits.h ****       { __c1 = __c2; }
 104:/usr/include/c++/10/bits/char_traits.h **** 
AARCH64 GAS  obj/Ch11_03.s 			page 18


 105:/usr/include/c++/10/bits/char_traits.h ****       static _GLIBCXX_CONSTEXPR bool
 106:/usr/include/c++/10/bits/char_traits.h ****       eq(const char_type& __c1, const char_type& __c2)
 107:/usr/include/c++/10/bits/char_traits.h ****       { return __c1 == __c2; }
 108:/usr/include/c++/10/bits/char_traits.h **** 
 109:/usr/include/c++/10/bits/char_traits.h ****       static _GLIBCXX_CONSTEXPR bool
 110:/usr/include/c++/10/bits/char_traits.h ****       lt(const char_type& __c1, const char_type& __c2)
 111:/usr/include/c++/10/bits/char_traits.h ****       { return __c1 < __c2; }
 112:/usr/include/c++/10/bits/char_traits.h **** 
 113:/usr/include/c++/10/bits/char_traits.h ****       static _GLIBCXX14_CONSTEXPR int
 114:/usr/include/c++/10/bits/char_traits.h ****       compare(const char_type* __s1, const char_type* __s2, std::size_t __n);
 115:/usr/include/c++/10/bits/char_traits.h **** 
 116:/usr/include/c++/10/bits/char_traits.h ****       static _GLIBCXX14_CONSTEXPR std::size_t
 117:/usr/include/c++/10/bits/char_traits.h ****       length(const char_type* __s);
 118:/usr/include/c++/10/bits/char_traits.h **** 
 119:/usr/include/c++/10/bits/char_traits.h ****       static _GLIBCXX14_CONSTEXPR const char_type*
 120:/usr/include/c++/10/bits/char_traits.h ****       find(const char_type* __s, std::size_t __n, const char_type& __a);
 121:/usr/include/c++/10/bits/char_traits.h **** 
 122:/usr/include/c++/10/bits/char_traits.h ****       static _GLIBCXX20_CONSTEXPR char_type*
 123:/usr/include/c++/10/bits/char_traits.h ****       move(char_type* __s1, const char_type* __s2, std::size_t __n);
 124:/usr/include/c++/10/bits/char_traits.h **** 
 125:/usr/include/c++/10/bits/char_traits.h ****       static _GLIBCXX20_CONSTEXPR char_type*
 126:/usr/include/c++/10/bits/char_traits.h ****       copy(char_type* __s1, const char_type* __s2, std::size_t __n);
 127:/usr/include/c++/10/bits/char_traits.h **** 
 128:/usr/include/c++/10/bits/char_traits.h ****       static _GLIBCXX20_CONSTEXPR char_type*
 129:/usr/include/c++/10/bits/char_traits.h ****       assign(char_type* __s, std::size_t __n, char_type __a);
 130:/usr/include/c++/10/bits/char_traits.h **** 
 131:/usr/include/c++/10/bits/char_traits.h ****       static _GLIBCXX_CONSTEXPR char_type
 132:/usr/include/c++/10/bits/char_traits.h ****       to_char_type(const int_type& __c)
 133:/usr/include/c++/10/bits/char_traits.h ****       { return static_cast<char_type>(__c); }
 134:/usr/include/c++/10/bits/char_traits.h **** 
 135:/usr/include/c++/10/bits/char_traits.h ****       static _GLIBCXX_CONSTEXPR int_type
 136:/usr/include/c++/10/bits/char_traits.h ****       to_int_type(const char_type& __c)
 137:/usr/include/c++/10/bits/char_traits.h ****       { return static_cast<int_type>(__c); }
 138:/usr/include/c++/10/bits/char_traits.h **** 
 139:/usr/include/c++/10/bits/char_traits.h ****       static _GLIBCXX_CONSTEXPR bool
 140:/usr/include/c++/10/bits/char_traits.h ****       eq_int_type(const int_type& __c1, const int_type& __c2)
 141:/usr/include/c++/10/bits/char_traits.h ****       { return __c1 == __c2; }
 142:/usr/include/c++/10/bits/char_traits.h **** 
 143:/usr/include/c++/10/bits/char_traits.h ****       static _GLIBCXX_CONSTEXPR int_type
 144:/usr/include/c++/10/bits/char_traits.h ****       eof()
 145:/usr/include/c++/10/bits/char_traits.h ****       { return static_cast<int_type>(_GLIBCXX_STDIO_EOF); }
 146:/usr/include/c++/10/bits/char_traits.h **** 
 147:/usr/include/c++/10/bits/char_traits.h ****       static _GLIBCXX_CONSTEXPR int_type
 148:/usr/include/c++/10/bits/char_traits.h ****       not_eof(const int_type& __c)
 149:/usr/include/c++/10/bits/char_traits.h ****       { return !eq_int_type(__c, eof()) ? __c : to_int_type(char_type()); }
 150:/usr/include/c++/10/bits/char_traits.h ****     };
 151:/usr/include/c++/10/bits/char_traits.h **** 
 152:/usr/include/c++/10/bits/char_traits.h ****   template<typename _CharT>
 153:/usr/include/c++/10/bits/char_traits.h ****     _GLIBCXX14_CONSTEXPR int
 154:/usr/include/c++/10/bits/char_traits.h ****     char_traits<_CharT>::
 155:/usr/include/c++/10/bits/char_traits.h ****     compare(const char_type* __s1, const char_type* __s2, std::size_t __n)
 156:/usr/include/c++/10/bits/char_traits.h ****     {
 157:/usr/include/c++/10/bits/char_traits.h ****       for (std::size_t __i = 0; __i < __n; ++__i)
 158:/usr/include/c++/10/bits/char_traits.h **** 	if (lt(__s1[__i], __s2[__i]))
 159:/usr/include/c++/10/bits/char_traits.h **** 	  return -1;
 160:/usr/include/c++/10/bits/char_traits.h **** 	else if (lt(__s2[__i], __s1[__i]))
 161:/usr/include/c++/10/bits/char_traits.h **** 	  return 1;
AARCH64 GAS  obj/Ch11_03.s 			page 19


 162:/usr/include/c++/10/bits/char_traits.h ****       return 0;
 163:/usr/include/c++/10/bits/char_traits.h ****     }
 164:/usr/include/c++/10/bits/char_traits.h **** 
 165:/usr/include/c++/10/bits/char_traits.h ****   template<typename _CharT>
 166:/usr/include/c++/10/bits/char_traits.h ****     _GLIBCXX14_CONSTEXPR std::size_t
 167:/usr/include/c++/10/bits/char_traits.h ****     char_traits<_CharT>::
 168:/usr/include/c++/10/bits/char_traits.h ****     length(const char_type* __p)
 169:/usr/include/c++/10/bits/char_traits.h ****     {
 170:/usr/include/c++/10/bits/char_traits.h ****       std::size_t __i = 0;
 171:/usr/include/c++/10/bits/char_traits.h ****       while (!eq(__p[__i], char_type()))
 172:/usr/include/c++/10/bits/char_traits.h ****         ++__i;
 173:/usr/include/c++/10/bits/char_traits.h ****       return __i;
 174:/usr/include/c++/10/bits/char_traits.h ****     }
 175:/usr/include/c++/10/bits/char_traits.h **** 
 176:/usr/include/c++/10/bits/char_traits.h ****   template<typename _CharT>
 177:/usr/include/c++/10/bits/char_traits.h ****     _GLIBCXX14_CONSTEXPR const typename char_traits<_CharT>::char_type*
 178:/usr/include/c++/10/bits/char_traits.h ****     char_traits<_CharT>::
 179:/usr/include/c++/10/bits/char_traits.h ****     find(const char_type* __s, std::size_t __n, const char_type& __a)
 180:/usr/include/c++/10/bits/char_traits.h ****     {
 181:/usr/include/c++/10/bits/char_traits.h ****       for (std::size_t __i = 0; __i < __n; ++__i)
 182:/usr/include/c++/10/bits/char_traits.h ****         if (eq(__s[__i], __a))
 183:/usr/include/c++/10/bits/char_traits.h ****           return __s + __i;
 184:/usr/include/c++/10/bits/char_traits.h ****       return 0;
 185:/usr/include/c++/10/bits/char_traits.h ****     }
 186:/usr/include/c++/10/bits/char_traits.h **** 
 187:/usr/include/c++/10/bits/char_traits.h ****   template<typename _CharT>
 188:/usr/include/c++/10/bits/char_traits.h ****     _GLIBCXX20_CONSTEXPR
 189:/usr/include/c++/10/bits/char_traits.h ****     typename char_traits<_CharT>::char_type*
 190:/usr/include/c++/10/bits/char_traits.h ****     char_traits<_CharT>::
 191:/usr/include/c++/10/bits/char_traits.h ****     move(char_type* __s1, const char_type* __s2, std::size_t __n)
 192:/usr/include/c++/10/bits/char_traits.h ****     {
 193:/usr/include/c++/10/bits/char_traits.h ****       if (__n == 0)
 194:/usr/include/c++/10/bits/char_traits.h **** 	return __s1;
 195:/usr/include/c++/10/bits/char_traits.h **** #ifdef __cpp_lib_is_constant_evaluated
 196:/usr/include/c++/10/bits/char_traits.h ****       if (std::is_constant_evaluated())
 197:/usr/include/c++/10/bits/char_traits.h **** 	{
 198:/usr/include/c++/10/bits/char_traits.h **** 	  if (__s1 > __s2 && __s1 < __s2 + __n)
 199:/usr/include/c++/10/bits/char_traits.h **** 	    std::copy_backward(__s2, __s2 + __n, __s1);
 200:/usr/include/c++/10/bits/char_traits.h **** 	  else
 201:/usr/include/c++/10/bits/char_traits.h **** 	    std::copy(__s2, __s2 + __n, __s1);
 202:/usr/include/c++/10/bits/char_traits.h **** 	  return __s1;
 203:/usr/include/c++/10/bits/char_traits.h **** 	}
 204:/usr/include/c++/10/bits/char_traits.h **** #endif
 205:/usr/include/c++/10/bits/char_traits.h ****       return static_cast<_CharT*>(__builtin_memmove(__s1, __s2,
 206:/usr/include/c++/10/bits/char_traits.h **** 						    __n * sizeof(char_type)));
 207:/usr/include/c++/10/bits/char_traits.h ****     }
 208:/usr/include/c++/10/bits/char_traits.h **** 
 209:/usr/include/c++/10/bits/char_traits.h ****   template<typename _CharT>
 210:/usr/include/c++/10/bits/char_traits.h ****     _GLIBCXX20_CONSTEXPR
 211:/usr/include/c++/10/bits/char_traits.h ****     typename char_traits<_CharT>::char_type*
 212:/usr/include/c++/10/bits/char_traits.h ****     char_traits<_CharT>::
 213:/usr/include/c++/10/bits/char_traits.h ****     copy(char_type* __s1, const char_type* __s2, std::size_t __n)
 214:/usr/include/c++/10/bits/char_traits.h ****     {
 215:/usr/include/c++/10/bits/char_traits.h ****       // NB: Inline std::copy so no recursive dependencies.
 216:/usr/include/c++/10/bits/char_traits.h ****       std::copy(__s2, __s2 + __n, __s1);
 217:/usr/include/c++/10/bits/char_traits.h ****       return __s1;
 218:/usr/include/c++/10/bits/char_traits.h ****     }
AARCH64 GAS  obj/Ch11_03.s 			page 20


 219:/usr/include/c++/10/bits/char_traits.h **** 
 220:/usr/include/c++/10/bits/char_traits.h ****   template<typename _CharT>
 221:/usr/include/c++/10/bits/char_traits.h ****     _GLIBCXX20_CONSTEXPR
 222:/usr/include/c++/10/bits/char_traits.h ****     typename char_traits<_CharT>::char_type*
 223:/usr/include/c++/10/bits/char_traits.h ****     char_traits<_CharT>::
 224:/usr/include/c++/10/bits/char_traits.h ****     assign(char_type* __s, std::size_t __n, char_type __a)
 225:/usr/include/c++/10/bits/char_traits.h ****     {
 226:/usr/include/c++/10/bits/char_traits.h ****       // NB: Inline std::fill_n so no recursive dependencies.
 227:/usr/include/c++/10/bits/char_traits.h ****       std::fill_n(__s, __n, __a);
 228:/usr/include/c++/10/bits/char_traits.h ****       return __s;
 229:/usr/include/c++/10/bits/char_traits.h ****     }
 230:/usr/include/c++/10/bits/char_traits.h **** 
 231:/usr/include/c++/10/bits/char_traits.h **** _GLIBCXX_END_NAMESPACE_VERSION
 232:/usr/include/c++/10/bits/char_traits.h **** } // namespace
 233:/usr/include/c++/10/bits/char_traits.h **** 
 234:/usr/include/c++/10/bits/char_traits.h **** namespace std _GLIBCXX_VISIBILITY(default)
 235:/usr/include/c++/10/bits/char_traits.h **** {
 236:/usr/include/c++/10/bits/char_traits.h **** _GLIBCXX_BEGIN_NAMESPACE_VERSION
 237:/usr/include/c++/10/bits/char_traits.h **** 
 238:/usr/include/c++/10/bits/char_traits.h **** #if __cplusplus >= 201703L
 239:/usr/include/c++/10/bits/char_traits.h **** 
 240:/usr/include/c++/10/bits/char_traits.h **** #if __cplusplus == 201703L
 241:/usr/include/c++/10/bits/char_traits.h **** // Unofficial macro indicating P0426R1 support
 242:/usr/include/c++/10/bits/char_traits.h **** # define __cpp_lib_constexpr_char_traits 201611L
 243:/usr/include/c++/10/bits/char_traits.h **** #else
 244:/usr/include/c++/10/bits/char_traits.h **** // Also support P1032R1 in C++20
 245:/usr/include/c++/10/bits/char_traits.h **** # define __cpp_lib_constexpr_char_traits 201811L
 246:/usr/include/c++/10/bits/char_traits.h **** #endif
 247:/usr/include/c++/10/bits/char_traits.h **** 
 248:/usr/include/c++/10/bits/char_traits.h ****   /**
 249:/usr/include/c++/10/bits/char_traits.h ****    *  @brief Determine whether the characters of a NULL-terminated
 250:/usr/include/c++/10/bits/char_traits.h ****    *  string are known at compile time.
 251:/usr/include/c++/10/bits/char_traits.h ****    *  @param  __s  The string.
 252:/usr/include/c++/10/bits/char_traits.h ****    *
 253:/usr/include/c++/10/bits/char_traits.h ****    *  Assumes that _CharT is a built-in character type.
 254:/usr/include/c++/10/bits/char_traits.h ****    */
 255:/usr/include/c++/10/bits/char_traits.h ****   template<typename _CharT>
 256:/usr/include/c++/10/bits/char_traits.h ****     static _GLIBCXX_ALWAYS_INLINE constexpr bool
 257:/usr/include/c++/10/bits/char_traits.h ****     __constant_string_p(const _CharT* __s)
 258:/usr/include/c++/10/bits/char_traits.h ****     {
 259:/usr/include/c++/10/bits/char_traits.h **** #ifdef _GLIBCXX_HAVE_BUILTIN_IS_CONSTANT_EVALUATED
 260:/usr/include/c++/10/bits/char_traits.h ****       (void) __s;
 261:/usr/include/c++/10/bits/char_traits.h ****       // In constexpr contexts all strings should be constant.
 262:/usr/include/c++/10/bits/char_traits.h ****       return __builtin_is_constant_evaluated();
 263:/usr/include/c++/10/bits/char_traits.h **** #else
 264:/usr/include/c++/10/bits/char_traits.h ****       while (__builtin_constant_p(*__s) && *__s)
 265:/usr/include/c++/10/bits/char_traits.h **** 	__s++;
 266:/usr/include/c++/10/bits/char_traits.h ****       return __builtin_constant_p(*__s);
 267:/usr/include/c++/10/bits/char_traits.h **** #endif
 268:/usr/include/c++/10/bits/char_traits.h ****     }
 269:/usr/include/c++/10/bits/char_traits.h **** 
 270:/usr/include/c++/10/bits/char_traits.h ****   /**
 271:/usr/include/c++/10/bits/char_traits.h ****    *  @brief Determine whether the characters of a character array are
 272:/usr/include/c++/10/bits/char_traits.h ****    *  known at compile time.
 273:/usr/include/c++/10/bits/char_traits.h ****    *  @param  __a  The character array.
 274:/usr/include/c++/10/bits/char_traits.h ****    *  @param  __n  Number of characters.
 275:/usr/include/c++/10/bits/char_traits.h ****    *
AARCH64 GAS  obj/Ch11_03.s 			page 21


 276:/usr/include/c++/10/bits/char_traits.h ****    *  Assumes that _CharT is a built-in character type.
 277:/usr/include/c++/10/bits/char_traits.h ****    */
 278:/usr/include/c++/10/bits/char_traits.h ****   template<typename _CharT>
 279:/usr/include/c++/10/bits/char_traits.h ****     static _GLIBCXX_ALWAYS_INLINE constexpr bool
 280:/usr/include/c++/10/bits/char_traits.h ****     __constant_char_array_p(const _CharT* __a, size_t __n)
 281:/usr/include/c++/10/bits/char_traits.h ****     {
 282:/usr/include/c++/10/bits/char_traits.h **** #ifdef _GLIBCXX_HAVE_BUILTIN_IS_CONSTANT_EVALUATED
 283:/usr/include/c++/10/bits/char_traits.h ****       (void) __a;
 284:/usr/include/c++/10/bits/char_traits.h ****       (void) __n;
 285:/usr/include/c++/10/bits/char_traits.h ****       // In constexpr contexts all character arrays should be constant.
 286:/usr/include/c++/10/bits/char_traits.h ****       return __builtin_is_constant_evaluated();
 287:/usr/include/c++/10/bits/char_traits.h **** #else
 288:/usr/include/c++/10/bits/char_traits.h ****       size_t __i = 0;
 289:/usr/include/c++/10/bits/char_traits.h ****       while (__i < __n && __builtin_constant_p(__a[__i]))
 290:/usr/include/c++/10/bits/char_traits.h **** 	__i++;
 291:/usr/include/c++/10/bits/char_traits.h ****       return __i == __n;
 292:/usr/include/c++/10/bits/char_traits.h **** #endif
 293:/usr/include/c++/10/bits/char_traits.h ****     }
 294:/usr/include/c++/10/bits/char_traits.h **** #endif
 295:/usr/include/c++/10/bits/char_traits.h **** 
 296:/usr/include/c++/10/bits/char_traits.h ****   // 21.1
 297:/usr/include/c++/10/bits/char_traits.h ****   /**
 298:/usr/include/c++/10/bits/char_traits.h ****    *  @brief  Basis for explicit traits specializations.
 299:/usr/include/c++/10/bits/char_traits.h ****    *
 300:/usr/include/c++/10/bits/char_traits.h ****    *  @note  For any given actual character type, this definition is
 301:/usr/include/c++/10/bits/char_traits.h ****    *  probably wrong.  Since this is just a thin wrapper around
 302:/usr/include/c++/10/bits/char_traits.h ****    *  __gnu_cxx::char_traits, it is possible to achieve a more
 303:/usr/include/c++/10/bits/char_traits.h ****    *  appropriate definition by specializing __gnu_cxx::char_traits.
 304:/usr/include/c++/10/bits/char_traits.h ****    *
 305:/usr/include/c++/10/bits/char_traits.h ****    *  See https://gcc.gnu.org/onlinedocs/libstdc++/manual/strings.html#strings.string.character_typ
 306:/usr/include/c++/10/bits/char_traits.h ****    *  for advice on how to make use of this class for @a unusual character
 307:/usr/include/c++/10/bits/char_traits.h ****    *  types. Also, check out include/ext/pod_char_traits.h.
 308:/usr/include/c++/10/bits/char_traits.h ****   */
 309:/usr/include/c++/10/bits/char_traits.h ****   template<class _CharT>
 310:/usr/include/c++/10/bits/char_traits.h ****     struct char_traits : public __gnu_cxx::char_traits<_CharT>
 311:/usr/include/c++/10/bits/char_traits.h ****     { };
 312:/usr/include/c++/10/bits/char_traits.h **** 
 313:/usr/include/c++/10/bits/char_traits.h **** 
 314:/usr/include/c++/10/bits/char_traits.h ****   /// 21.1.3.1  char_traits specializations
 315:/usr/include/c++/10/bits/char_traits.h ****   template<>
 316:/usr/include/c++/10/bits/char_traits.h ****     struct char_traits<char>
 317:/usr/include/c++/10/bits/char_traits.h ****     {
 318:/usr/include/c++/10/bits/char_traits.h ****       typedef char              char_type;
 319:/usr/include/c++/10/bits/char_traits.h ****       typedef int               int_type;
 320:/usr/include/c++/10/bits/char_traits.h ****       typedef streampos         pos_type;
 321:/usr/include/c++/10/bits/char_traits.h ****       typedef streamoff         off_type;
 322:/usr/include/c++/10/bits/char_traits.h ****       typedef mbstate_t         state_type;
 323:/usr/include/c++/10/bits/char_traits.h **** #if __cpp_lib_three_way_comparison
 324:/usr/include/c++/10/bits/char_traits.h ****       using comparison_category = strong_ordering;
 325:/usr/include/c++/10/bits/char_traits.h **** #endif
 326:/usr/include/c++/10/bits/char_traits.h **** 
 327:/usr/include/c++/10/bits/char_traits.h ****       static _GLIBCXX17_CONSTEXPR void
 328:/usr/include/c++/10/bits/char_traits.h ****       assign(char_type& __c1, const char_type& __c2) _GLIBCXX_NOEXCEPT
 329:/usr/include/c++/10/bits/char_traits.h ****       { __c1 = __c2; }
 330:/usr/include/c++/10/bits/char_traits.h **** 
 331:/usr/include/c++/10/bits/char_traits.h ****       static _GLIBCXX_CONSTEXPR bool
 332:/usr/include/c++/10/bits/char_traits.h ****       eq(const char_type& __c1, const char_type& __c2) _GLIBCXX_NOEXCEPT
AARCH64 GAS  obj/Ch11_03.s 			page 22


 333:/usr/include/c++/10/bits/char_traits.h ****       { return __c1 == __c2; }
 334:/usr/include/c++/10/bits/char_traits.h **** 
 335:/usr/include/c++/10/bits/char_traits.h ****       static _GLIBCXX_CONSTEXPR bool
 336:/usr/include/c++/10/bits/char_traits.h ****       lt(const char_type& __c1, const char_type& __c2) _GLIBCXX_NOEXCEPT
 337:/usr/include/c++/10/bits/char_traits.h ****       {
 338:/usr/include/c++/10/bits/char_traits.h **** 	// LWG 467.
 339:/usr/include/c++/10/bits/char_traits.h **** 	return (static_cast<unsigned char>(__c1)
 340:/usr/include/c++/10/bits/char_traits.h **** 		< static_cast<unsigned char>(__c2));
 341:/usr/include/c++/10/bits/char_traits.h ****       }
 342:/usr/include/c++/10/bits/char_traits.h **** 
 343:/usr/include/c++/10/bits/char_traits.h ****       static _GLIBCXX17_CONSTEXPR int
 344:/usr/include/c++/10/bits/char_traits.h ****       compare(const char_type* __s1, const char_type* __s2, size_t __n)
 345:/usr/include/c++/10/bits/char_traits.h ****       {
 346:/usr/include/c++/10/bits/char_traits.h **** 	if (__n == 0)
 347:/usr/include/c++/10/bits/char_traits.h **** 	  return 0;
 348:/usr/include/c++/10/bits/char_traits.h **** #if __cplusplus >= 201703L
 349:/usr/include/c++/10/bits/char_traits.h **** 	if (__builtin_constant_p(__n)
 350:/usr/include/c++/10/bits/char_traits.h **** 	    && __constant_char_array_p(__s1, __n)
 351:/usr/include/c++/10/bits/char_traits.h **** 	    && __constant_char_array_p(__s2, __n))
 352:/usr/include/c++/10/bits/char_traits.h **** 	  return __gnu_cxx::char_traits<char_type>::compare(__s1, __s2, __n);
 353:/usr/include/c++/10/bits/char_traits.h **** #endif
 354:/usr/include/c++/10/bits/char_traits.h **** 	return __builtin_memcmp(__s1, __s2, __n);
 355:/usr/include/c++/10/bits/char_traits.h ****       }
 356:/usr/include/c++/10/bits/char_traits.h **** 
 357:/usr/include/c++/10/bits/char_traits.h ****       static _GLIBCXX17_CONSTEXPR size_t
 358:/usr/include/c++/10/bits/char_traits.h ****       length(const char_type* __s)
 359:/usr/include/c++/10/bits/char_traits.h ****       {
 360:/usr/include/c++/10/bits/char_traits.h **** #if __cplusplus >= 201703L
 361:/usr/include/c++/10/bits/char_traits.h **** 	if (__constant_string_p(__s))
 362:/usr/include/c++/10/bits/char_traits.h **** 	  return __gnu_cxx::char_traits<char_type>::length(__s);
 363:/usr/include/c++/10/bits/char_traits.h **** #endif
 364:/usr/include/c++/10/bits/char_traits.h **** 	return __builtin_strlen(__s);
 146              		.loc 3 364 2 is_stmt 1 view .LVU23
 147              	.LBB226:
 148              	.LBB215:
 149              	.LBB186:
 150              	.LBB173:
 151              		.loc 2 611 18 is_stmt 0 view .LVU24
 152 0058 21000091 		add	x1, x1, :lo12:.LC0
 153 005c E00313AA 		mov	x0, x19
 154 0060 00000094 		bl	_ZSt16__ostream_insertIcSt11char_traitsIcEERSt13basic_ostreamIT_T0_ES6_PKS3_l
 155              	.LVL5:
 156              		.loc 2 611 18 view .LVU25
 157              	.LBE173:
 158              	.LBE186:
 159              	.LBB187:
 160              	.LBB176:
 518:/usr/include/c++/10/ostream **** 
 161              		.loc 2 518 30 view .LVU26
 162 0064 E10315AA 		mov	x1, x21
 163 0068 E00313AA 		mov	x0, x19
 164 006c 220080D2 		mov	x2, 1
 165 0070 F4E30139 		strb	w20, [sp, 120]
 166              	.LVL6:
 518:/usr/include/c++/10/ostream **** 
 167              		.loc 2 518 30 view .LVU27
 168              	.LBE176:
AARCH64 GAS  obj/Ch11_03.s 			page 23


 169              	.LBI174:
 517:/usr/include/c++/10/ostream ****     { return __ostream_insert(__out, &__c, 1); }
 170              		.loc 2 517 5 is_stmt 1 view .LVU28
 171              	.LBB177:
 518:/usr/include/c++/10/ostream **** 
 172              		.loc 2 518 30 is_stmt 0 view .LVU29
 173 0074 00000094 		bl	_ZSt16__ostream_insertIcSt11char_traitsIcEERSt13basic_ostreamIT_T0_ES6_PKS3_l
 174              	.LVL7:
 518:/usr/include/c++/10/ostream **** 
 175              		.loc 2 518 30 view .LVU30
 176              	.LBE177:
 177              	.LBE187:
 178              	.LBB188:
 179              	.LBI181:
 606:/usr/include/c++/10/ostream ****     {
 180              		.loc 2 606 5 is_stmt 1 view .LVU31
 606:/usr/include/c++/10/ostream ****     {
 181              		.loc 2 606 5 is_stmt 0 view .LVU32
 182              	.LBE188:
 183              	.LBE215:
 184              	.LBE226:
 185              		.loc 3 364 2 is_stmt 1 view .LVU33
 186              	.LBB227:
 187              	.LBB216:
 188              	.LBB189:
 189              	.LBB190:
 190              		.loc 2 611 18 is_stmt 0 view .LVU34
 191 0078 19000090 		adrp	x25, .LC2
 192              	.LBE190:
 193              	.LBE189:
 194              	.LBB192:
 195              	.LBB183:
 196 007c 820080D2 		mov	x2, 4
 197 0080 E1031AAA 		mov	x1, x26
 198 0084 E00313AA 		mov	x0, x19
 199 0088 00000094 		bl	_ZSt16__ostream_insertIcSt11char_traitsIcEERSt13basic_ostreamIT_T0_ES6_PKS3_l
 200              	.LVL8:
 201              		.loc 2 611 18 view .LVU35
 202              	.LBE183:
 203              	.LBE192:
  18:Ch11_03.cpp   ****     cout << "b = " << b << nl;
 204              		.loc 1 18 25 view .LVU36
 205 008c E00313AA 		mov	x0, x19
 206 0090 810C8052 		mov	w1, 100
 207 0094 00000094 		bl	_ZNSolsEi
 208              	.LVL9:
  18:Ch11_03.cpp   ****     cout << "b = " << b << nl;
 209              		.loc 1 18 25 view .LVU37
 210 0098 F4E30139 		strb	w20, [sp, 120]
 211              	.LVL10:
 212              	.LBB193:
 213              	.LBI193:
 517:/usr/include/c++/10/ostream ****     { return __ostream_insert(__out, &__c, 1); }
 214              		.loc 2 517 5 is_stmt 1 view .LVU38
 215              	.LBB194:
 518:/usr/include/c++/10/ostream **** 
 216              		.loc 2 518 30 is_stmt 0 view .LVU39
AARCH64 GAS  obj/Ch11_03.s 			page 24


 217 009c E10315AA 		mov	x1, x21
 218 00a0 220080D2 		mov	x2, 1
 219 00a4 00000094 		bl	_ZSt16__ostream_insertIcSt11char_traitsIcEERSt13basic_ostreamIT_T0_ES6_PKS3_l
 220              	.LVL11:
 518:/usr/include/c++/10/ostream **** 
 221              		.loc 2 518 30 view .LVU40
 222              	.LBE194:
 223              	.LBE193:
 224              	.LBB195:
 225              	.LBI189:
 606:/usr/include/c++/10/ostream ****     {
 226              		.loc 2 606 5 is_stmt 1 view .LVU41
 606:/usr/include/c++/10/ostream ****     {
 227              		.loc 2 606 5 is_stmt 0 view .LVU42
 228              	.LBE195:
 229              	.LBE216:
 230              	.LBE227:
 231              		.loc 3 364 2 is_stmt 1 view .LVU43
 232              	.LBB228:
 233              	.LBB217:
 234              	.LBB196:
 235              	.LBB191:
 236              		.loc 2 611 18 is_stmt 0 view .LVU44
 237 00a8 39030091 		add	x25, x25, :lo12:.LC2
 238 00ac 820080D2 		mov	x2, 4
 239 00b0 E10319AA 		mov	x1, x25
 240 00b4 E00313AA 		mov	x0, x19
 241 00b8 00000094 		bl	_ZSt16__ostream_insertIcSt11char_traitsIcEERSt13basic_ostreamIT_T0_ES6_PKS3_l
 242              	.LVL12:
 243              		.loc 2 611 18 view .LVU45
 244              	.LBE191:
 245              	.LBE196:
  19:Ch11_03.cpp   ****     cout << "quotient = " << quo << nl;
 246              		.loc 1 19 25 view .LVU46
 247 00bc E00313AA 		mov	x0, x19
 248 00c0 E1008052 		mov	w1, 7
 249 00c4 00000094 		bl	_ZNSolsEi
 250              	.LVL13:
  19:Ch11_03.cpp   ****     cout << "quotient = " << quo << nl;
 251              		.loc 1 19 25 view .LVU47
 252 00c8 F4E30139 		strb	w20, [sp, 120]
 253              	.LVL14:
 254              	.LBB197:
 255              	.LBI197:
 517:/usr/include/c++/10/ostream ****     { return __ostream_insert(__out, &__c, 1); }
 256              		.loc 2 517 5 is_stmt 1 view .LVU48
 257              	.LBB198:
 518:/usr/include/c++/10/ostream **** 
 258              		.loc 2 518 30 is_stmt 0 view .LVU49
 259 00cc E10315AA 		mov	x1, x21
 260 00d0 220080D2 		mov	x2, 1
 261 00d4 00000094 		bl	_ZSt16__ostream_insertIcSt11char_traitsIcEERSt13basic_ostreamIT_T0_ES6_PKS3_l
 262              	.LVL15:
 518:/usr/include/c++/10/ostream **** 
 263              		.loc 2 518 30 view .LVU50
 264              	.LBE198:
 265              	.LBE197:
AARCH64 GAS  obj/Ch11_03.s 			page 25


 266              	.LBB199:
 267              	.LBI178:
 606:/usr/include/c++/10/ostream ****     {
 268              		.loc 2 606 5 is_stmt 1 view .LVU51
 606:/usr/include/c++/10/ostream ****     {
 269              		.loc 2 606 5 is_stmt 0 view .LVU52
 270              	.LBE199:
 271              	.LBE217:
 272              	.LBE228:
 273              		.loc 3 364 2 is_stmt 1 view .LVU53
 274              	.LBB229:
 275              	.LBB218:
 276              	.LBB200:
 277              	.LBB180:
 278              		.loc 2 611 18 is_stmt 0 view .LVU54
 279 00d8 18030091 		add	x24, x24, :lo12:.LC3
 280 00dc 620180D2 		mov	x2, 11
 281 00e0 E10318AA 		mov	x1, x24
 282 00e4 E00313AA 		mov	x0, x19
 283 00e8 00000094 		bl	_ZSt16__ostream_insertIcSt11char_traitsIcEERSt13basic_ostreamIT_T0_ES6_PKS3_l
 284              	.LVL16:
 285              		.loc 2 611 18 view .LVU55
 286              	.LBE180:
 287              	.LBE200:
  20:Ch11_03.cpp   ****     cout << "remainder = " << rem << nl;
 288              		.loc 1 20 34 view .LVU56
 289 00ec E103172A 		mov	w1, w23
 290 00f0 E00313AA 		mov	x0, x19
 291 00f4 00000094 		bl	_ZNSolsEi
 292              	.LVL17:
  20:Ch11_03.cpp   ****     cout << "remainder = " << rem << nl;
 293              		.loc 1 20 34 view .LVU57
 294 00f8 F4E30139 		strb	w20, [sp, 120]
 295              	.LVL18:
 296              	.LBB201:
 297              	.LBI201:
 517:/usr/include/c++/10/ostream ****     { return __ostream_insert(__out, &__c, 1); }
 298              		.loc 2 517 5 is_stmt 1 view .LVU58
 299              	.LBB202:
 518:/usr/include/c++/10/ostream **** 
 300              		.loc 2 518 30 is_stmt 0 view .LVU59
 301 00fc E10315AA 		mov	x1, x21
 302 0100 220080D2 		mov	x2, 1
 303 0104 00000094 		bl	_ZSt16__ostream_insertIcSt11char_traitsIcEERSt13basic_ostreamIT_T0_ES6_PKS3_l
 304              	.LVL19:
 518:/usr/include/c++/10/ostream **** 
 305              		.loc 2 518 30 view .LVU60
 306              	.LBE202:
 307              	.LBE201:
 308              	.LBB203:
 309              	.LBI203:
 606:/usr/include/c++/10/ostream ****     {
 310              		.loc 2 606 5 is_stmt 1 view .LVU61
 606:/usr/include/c++/10/ostream ****     {
 311              		.loc 2 606 5 is_stmt 0 view .LVU62
 312              	.LBE203:
 313              	.LBE218:
AARCH64 GAS  obj/Ch11_03.s 			page 26


 314              	.LBE229:
 315              		.loc 3 364 2 is_stmt 1 view .LVU63
 316              	.LBB230:
 317              	.LBB219:
 318              	.LBB205:
 319              	.LBB204:
 320              		.loc 2 611 18 is_stmt 0 view .LVU64
 321 0108 17000090 		adrp	x23, .LC4
 322              	.LVL20:
 323              		.loc 2 611 18 view .LVU65
 324 010c 820180D2 		mov	x2, 12
 325 0110 F7020091 		add	x23, x23, :lo12:.LC4
 326 0114 E10317AA 		mov	x1, x23
 327 0118 E00313AA 		mov	x0, x19
 328 011c 00000094 		bl	_ZSt16__ostream_insertIcSt11char_traitsIcEERSt13basic_ostreamIT_T0_ES6_PKS3_l
 329              	.LVL21:
 330              		.loc 2 611 18 view .LVU66
 331              	.LBE204:
 332              	.LBE205:
 333              	.LBE219:
 334              	.LBE230:
  30:Ch11_03.cpp   **** 
  31:Ch11_03.cpp   ****     long a2 = -2000000000, b2 = 11, quo2, rem2;
  32:Ch11_03.cpp   ****     CalcQuoRemB_(a2, b2, &quo2, &rem2);
 335              		.loc 1 32 17 view .LVU67
 336 0120 FB7F9292 		mov	x27, -37888
 337              	.LBB231:
 338              	.LBB220:
  21:Ch11_03.cpp   ****     cout << nl;
 339              		.loc 1 21 35 view .LVU68
 340 0124 E1031C2A 		mov	w1, w28
 341 0128 E00313AA 		mov	x0, x19
 342 012c 00000094 		bl	_ZNSolsEi
 343              	.LVL22:
  21:Ch11_03.cpp   ****     cout << nl;
 344              		.loc 1 21 35 view .LVU69
 345 0130 F4E30139 		strb	w20, [sp, 120]
 346              	.LVL23:
 347              	.LBB206:
 348              	.LBI206:
 517:/usr/include/c++/10/ostream ****     { return __ostream_insert(__out, &__c, 1); }
 349              		.loc 2 517 5 is_stmt 1 view .LVU70
 350              	.LBB207:
 518:/usr/include/c++/10/ostream **** 
 351              		.loc 2 518 30 is_stmt 0 view .LVU71
 352 0134 E10315AA 		mov	x1, x21
 353 0138 220080D2 		mov	x2, 1
 354 013c 00000094 		bl	_ZSt16__ostream_insertIcSt11char_traitsIcEERSt13basic_ostreamIT_T0_ES6_PKS3_l
 355              	.LVL24:
 518:/usr/include/c++/10/ostream **** 
 356              		.loc 2 518 30 view .LVU72
 357 0140 F4E30139 		strb	w20, [sp, 120]
 358              	.LVL25:
 518:/usr/include/c++/10/ostream **** 
 359              		.loc 2 518 30 view .LVU73
 360              	.LBE207:
 361              	.LBE206:
AARCH64 GAS  obj/Ch11_03.s 			page 27


 362              	.LBB208:
 363              	.LBI208:
 517:/usr/include/c++/10/ostream ****     { return __ostream_insert(__out, &__c, 1); }
 364              		.loc 2 517 5 is_stmt 1 view .LVU74
 365              	.LBB209:
 518:/usr/include/c++/10/ostream **** 
 366              		.loc 2 518 30 is_stmt 0 view .LVU75
 367 0144 E10315AA 		mov	x1, x21
 368 0148 E00313AA 		mov	x0, x19
 369 014c 220080D2 		mov	x2, 1
 370 0150 00000094 		bl	_ZSt16__ostream_insertIcSt11char_traitsIcEERSt13basic_ostreamIT_T0_ES6_PKS3_l
 371              	.LVL26:
 518:/usr/include/c++/10/ostream **** 
 372              		.loc 2 518 30 view .LVU76
 373              	.LBE209:
 374              	.LBE208:
 375              	.LBE220:
 376              	.LBE231:
  31:Ch11_03.cpp   ****     CalcQuoRemB_(a2, b2, &quo2, &rem2);
 377              		.loc 1 31 5 is_stmt 1 view .LVU77
 378              		.loc 1 32 5 view .LVU78
 379              		.loc 1 32 17 is_stmt 0 view .LVU79
 380 0154 E30315AA 		mov	x3, x21
 381 0158 E2C30191 		add	x2, sp, 112
 382 015c 5B19B1F2 		movk	x27, 0x88ca, lsl 16
 383 0160 610180D2 		mov	x1, 11
 384 0164 E0031BAA 		mov	x0, x27
 385 0168 00000094 		bl	CalcQuoRemB_
 386              	.LVL27:
  33:Ch11_03.cpp   ****     PrintResult("CalcQuoRemB_", a2, b2, quo2, rem2);
 387              		.loc 1 33 5 is_stmt 1 view .LVU80
 388              	.LBB232:
 389              	.LBB233:
 390              	.LBB234:
 391              	.LBB235:
 518:/usr/include/c++/10/ostream **** 
 392              		.loc 2 518 30 is_stmt 0 view .LVU81
 393 016c F69F0191 		add	x22, sp, 103
 394              	.LBE235:
 395              	.LBE234:
 396              	.LBB238:
 397              	.LBB239:
 398              		.loc 2 611 18 view .LVU82
 399 0170 E00313AA 		mov	x0, x19
 400 0174 820180D2 		mov	x2, 12
 401 0178 01000090 		adrp	x1, .LC5
 402 017c 21000091 		add	x1, x1, :lo12:.LC5
 403              	.LBE239:
 404              	.LBE238:
 405              	.LBE233:
 406              	.LBE232:
 407              		.loc 1 33 16 view .LVU83
 408 0180 F57347A9 		ldp	x21, x28, [sp, 112]
 409              	.LVL28:
 410              	.LBB280:
 411              	.LBI232:
  13:Ch11_03.cpp   **** {
AARCH64 GAS  obj/Ch11_03.s 			page 28


 412              		.loc 1 13 6 is_stmt 1 view .LVU84
 413              	.LBB274:
 414              	.LBB241:
 415              	.LBI238:
 606:/usr/include/c++/10/ostream ****     {
 416              		.loc 2 606 5 view .LVU85
 606:/usr/include/c++/10/ostream ****     {
 417              		.loc 2 606 5 is_stmt 0 view .LVU86
 418              	.LBE241:
 419              	.LBE274:
 420              	.LBE280:
 421              		.loc 3 364 2 is_stmt 1 view .LVU87
 422              	.LBB281:
 423              	.LBB275:
 424              	.LBB242:
 425              	.LBB240:
 426              		.loc 2 611 18 is_stmt 0 view .LVU88
 427 0184 00000094 		bl	_ZSt16__ostream_insertIcSt11char_traitsIcEERSt13basic_ostreamIT_T0_ES6_PKS3_l
 428              	.LVL29:
 429              		.loc 2 611 18 view .LVU89
 430              	.LBE240:
 431              	.LBE242:
 432              	.LBB243:
 433              	.LBB236:
 518:/usr/include/c++/10/ostream **** 
 434              		.loc 2 518 30 view .LVU90
 435 0188 E10316AA 		mov	x1, x22
 436 018c E00313AA 		mov	x0, x19
 437 0190 220080D2 		mov	x2, 1
 438 0194 F49F0139 		strb	w20, [sp, 103]
 439              	.LVL30:
 518:/usr/include/c++/10/ostream **** 
 440              		.loc 2 518 30 view .LVU91
 441              	.LBE236:
 442              	.LBI234:
 517:/usr/include/c++/10/ostream ****     { return __ostream_insert(__out, &__c, 1); }
 443              		.loc 2 517 5 is_stmt 1 view .LVU92
 444              	.LBB237:
 518:/usr/include/c++/10/ostream **** 
 445              		.loc 2 518 30 is_stmt 0 view .LVU93
 446 0198 00000094 		bl	_ZSt16__ostream_insertIcSt11char_traitsIcEERSt13basic_ostreamIT_T0_ES6_PKS3_l
 447              	.LVL31:
 518:/usr/include/c++/10/ostream **** 
 448              		.loc 2 518 30 view .LVU94
 449              	.LBE237:
 450              	.LBE243:
 451              	.LBB244:
 452              	.LBI244:
 606:/usr/include/c++/10/ostream ****     {
 453              		.loc 2 606 5 is_stmt 1 view .LVU95
 606:/usr/include/c++/10/ostream ****     {
 454              		.loc 2 606 5 is_stmt 0 view .LVU96
 455              	.LBE244:
 456              	.LBE275:
 457              	.LBE281:
 458              		.loc 3 364 2 is_stmt 1 view .LVU97
 459              	.LBB282:
AARCH64 GAS  obj/Ch11_03.s 			page 29


 460              	.LBB276:
 461              	.LBB246:
 462              	.LBB245:
 463              		.loc 2 611 18 is_stmt 0 view .LVU98
 464 019c 820080D2 		mov	x2, 4
 465 01a0 E1031AAA 		mov	x1, x26
 466 01a4 E00313AA 		mov	x0, x19
 467 01a8 00000094 		bl	_ZSt16__ostream_insertIcSt11char_traitsIcEERSt13basic_ostreamIT_T0_ES6_PKS3_l
 468              	.LVL32:
 469              		.loc 2 611 18 view .LVU99
 470              	.LBE245:
 471              	.LBE246:
 472              	.LBB247:
 473              	.LBI247:
 166:/usr/include/c++/10/ostream ****       { return _M_insert(__n); }
 474              		.loc 2 166 7 is_stmt 1 view .LVU100
 475              	.LBB248:
 167:/usr/include/c++/10/ostream **** 
 476              		.loc 2 167 25 is_stmt 0 view .LVU101
 477 01ac E1031BAA 		mov	x1, x27
 478 01b0 E00313AA 		mov	x0, x19
 479 01b4 00000094 		bl	_ZNSo9_M_insertIlEERSoT_
 480              	.LVL33:
 167:/usr/include/c++/10/ostream **** 
 481              		.loc 2 167 25 view .LVU102
 482 01b8 F49F0139 		strb	w20, [sp, 103]
 483              	.LVL34:
 167:/usr/include/c++/10/ostream **** 
 484              		.loc 2 167 25 view .LVU103
 485              	.LBE248:
 486              	.LBE247:
 487              	.LBB249:
 488              	.LBI249:
 517:/usr/include/c++/10/ostream ****     { return __ostream_insert(__out, &__c, 1); }
 489              		.loc 2 517 5 is_stmt 1 view .LVU104
 490              	.LBB250:
 518:/usr/include/c++/10/ostream **** 
 491              		.loc 2 518 30 is_stmt 0 view .LVU105
 492 01bc E10316AA 		mov	x1, x22
 493 01c0 220080D2 		mov	x2, 1
 494 01c4 00000094 		bl	_ZSt16__ostream_insertIcSt11char_traitsIcEERSt13basic_ostreamIT_T0_ES6_PKS3_l
 495              	.LVL35:
 518:/usr/include/c++/10/ostream **** 
 496              		.loc 2 518 30 view .LVU106
 497              	.LBE250:
 498              	.LBE249:
 499              	.LBB251:
 500              	.LBI251:
 606:/usr/include/c++/10/ostream ****     {
 501              		.loc 2 606 5 is_stmt 1 view .LVU107
 606:/usr/include/c++/10/ostream ****     {
 502              		.loc 2 606 5 is_stmt 0 view .LVU108
 503              	.LBE251:
 504              	.LBE276:
 505              	.LBE282:
 506              		.loc 3 364 2 is_stmt 1 view .LVU109
 507              	.LBB283:
AARCH64 GAS  obj/Ch11_03.s 			page 30


 508              	.LBB277:
 509              	.LBB253:
 510              	.LBB252:
 511              		.loc 2 611 18 is_stmt 0 view .LVU110
 512 01c8 820080D2 		mov	x2, 4
 513 01cc E10319AA 		mov	x1, x25
 514 01d0 E00313AA 		mov	x0, x19
 515 01d4 00000094 		bl	_ZSt16__ostream_insertIcSt11char_traitsIcEERSt13basic_ostreamIT_T0_ES6_PKS3_l
 516              	.LVL36:
 517              		.loc 2 611 18 view .LVU111
 518              	.LBE252:
 519              	.LBE253:
 520              	.LBB254:
 521              	.LBI254:
 166:/usr/include/c++/10/ostream ****       { return _M_insert(__n); }
 522              		.loc 2 166 7 is_stmt 1 view .LVU112
 523              	.LBB255:
 167:/usr/include/c++/10/ostream **** 
 524              		.loc 2 167 25 is_stmt 0 view .LVU113
 525 01d8 E00313AA 		mov	x0, x19
 526 01dc 610180D2 		mov	x1, 11
 527 01e0 00000094 		bl	_ZNSo9_M_insertIlEERSoT_
 528              	.LVL37:
 167:/usr/include/c++/10/ostream **** 
 529              		.loc 2 167 25 view .LVU114
 530 01e4 F49F0139 		strb	w20, [sp, 103]
 531              	.LVL38:
 167:/usr/include/c++/10/ostream **** 
 532              		.loc 2 167 25 view .LVU115
 533              	.LBE255:
 534              	.LBE254:
 535              	.LBB256:
 536              	.LBI256:
 517:/usr/include/c++/10/ostream ****     { return __ostream_insert(__out, &__c, 1); }
 537              		.loc 2 517 5 is_stmt 1 view .LVU116
 538              	.LBB257:
 518:/usr/include/c++/10/ostream **** 
 539              		.loc 2 518 30 is_stmt 0 view .LVU117
 540 01e8 E10316AA 		mov	x1, x22
 541 01ec 220080D2 		mov	x2, 1
 542 01f0 00000094 		bl	_ZSt16__ostream_insertIcSt11char_traitsIcEERSt13basic_ostreamIT_T0_ES6_PKS3_l
 543              	.LVL39:
 518:/usr/include/c++/10/ostream **** 
 544              		.loc 2 518 30 view .LVU118
 545              	.LBE257:
 546              	.LBE256:
 547              	.LBB258:
 548              	.LBI258:
 606:/usr/include/c++/10/ostream ****     {
 549              		.loc 2 606 5 is_stmt 1 view .LVU119
 606:/usr/include/c++/10/ostream ****     {
 550              		.loc 2 606 5 is_stmt 0 view .LVU120
 551              	.LBE258:
 552              	.LBE277:
 553              	.LBE283:
 554              		.loc 3 364 2 is_stmt 1 view .LVU121
 555              	.LBB284:
AARCH64 GAS  obj/Ch11_03.s 			page 31


 556              	.LBB278:
 557              	.LBB260:
 558              	.LBB259:
 559              		.loc 2 611 18 is_stmt 0 view .LVU122
 560 01f4 620180D2 		mov	x2, 11
 561 01f8 E10318AA 		mov	x1, x24
 562 01fc E00313AA 		mov	x0, x19
 563 0200 00000094 		bl	_ZSt16__ostream_insertIcSt11char_traitsIcEERSt13basic_ostreamIT_T0_ES6_PKS3_l
 564              	.LVL40:
 565              		.loc 2 611 18 view .LVU123
 566              	.LBE259:
 567              	.LBE260:
 568              	.LBB261:
 569              	.LBI261:
 166:/usr/include/c++/10/ostream ****       { return _M_insert(__n); }
 570              		.loc 2 166 7 is_stmt 1 view .LVU124
 571              	.LBB262:
 167:/usr/include/c++/10/ostream **** 
 572              		.loc 2 167 25 is_stmt 0 view .LVU125
 573 0204 E10315AA 		mov	x1, x21
 574 0208 E00313AA 		mov	x0, x19
 575 020c 00000094 		bl	_ZNSo9_M_insertIlEERSoT_
 576              	.LVL41:
 167:/usr/include/c++/10/ostream **** 
 577              		.loc 2 167 25 view .LVU126
 578 0210 F49F0139 		strb	w20, [sp, 103]
 579              	.LVL42:
 167:/usr/include/c++/10/ostream **** 
 580              		.loc 2 167 25 view .LVU127
 581              	.LBE262:
 582              	.LBE261:
 583              	.LBB263:
 584              	.LBI263:
 517:/usr/include/c++/10/ostream ****     { return __ostream_insert(__out, &__c, 1); }
 585              		.loc 2 517 5 is_stmt 1 view .LVU128
 586              	.LBB264:
 518:/usr/include/c++/10/ostream **** 
 587              		.loc 2 518 30 is_stmt 0 view .LVU129
 588 0214 E10316AA 		mov	x1, x22
 589 0218 220080D2 		mov	x2, 1
 590 021c 00000094 		bl	_ZSt16__ostream_insertIcSt11char_traitsIcEERSt13basic_ostreamIT_T0_ES6_PKS3_l
 591              	.LVL43:
 518:/usr/include/c++/10/ostream **** 
 592              		.loc 2 518 30 view .LVU130
 593              	.LBE264:
 594              	.LBE263:
 595              	.LBB265:
 596              	.LBI265:
 606:/usr/include/c++/10/ostream ****     {
 597              		.loc 2 606 5 is_stmt 1 view .LVU131
 606:/usr/include/c++/10/ostream ****     {
 598              		.loc 2 606 5 is_stmt 0 view .LVU132
 599              	.LBE265:
 600              	.LBE278:
 601              	.LBE284:
 602              		.loc 3 364 2 is_stmt 1 view .LVU133
 603              	.LBB285:
AARCH64 GAS  obj/Ch11_03.s 			page 32


 604              	.LBB279:
 605              	.LBB267:
 606              	.LBB266:
 607              		.loc 2 611 18 is_stmt 0 view .LVU134
 608 0220 820180D2 		mov	x2, 12
 609 0224 E10317AA 		mov	x1, x23
 610 0228 E00313AA 		mov	x0, x19
 611 022c 00000094 		bl	_ZSt16__ostream_insertIcSt11char_traitsIcEERSt13basic_ostreamIT_T0_ES6_PKS3_l
 612              	.LVL44:
 613              		.loc 2 611 18 view .LVU135
 614              	.LBE266:
 615              	.LBE267:
 616              	.LBB268:
 617              	.LBI268:
 166:/usr/include/c++/10/ostream ****       { return _M_insert(__n); }
 618              		.loc 2 166 7 is_stmt 1 view .LVU136
 619              	.LBB269:
 167:/usr/include/c++/10/ostream **** 
 620              		.loc 2 167 25 is_stmt 0 view .LVU137
 621 0230 E1031CAA 		mov	x1, x28
 622 0234 E00313AA 		mov	x0, x19
 623 0238 00000094 		bl	_ZNSo9_M_insertIlEERSoT_
 624              	.LVL45:
 167:/usr/include/c++/10/ostream **** 
 625              		.loc 2 167 25 view .LVU138
 626 023c F49F0139 		strb	w20, [sp, 103]
 627              	.LVL46:
 167:/usr/include/c++/10/ostream **** 
 628              		.loc 2 167 25 view .LVU139
 629              	.LBE269:
 630              	.LBE268:
 631              	.LBB270:
 632              	.LBI270:
 517:/usr/include/c++/10/ostream ****     { return __ostream_insert(__out, &__c, 1); }
 633              		.loc 2 517 5 is_stmt 1 view .LVU140
 634              	.LBB271:
 518:/usr/include/c++/10/ostream **** 
 635              		.loc 2 518 30 is_stmt 0 view .LVU141
 636 0240 E10316AA 		mov	x1, x22
 637 0244 220080D2 		mov	x2, 1
 638 0248 00000094 		bl	_ZSt16__ostream_insertIcSt11char_traitsIcEERSt13basic_ostreamIT_T0_ES6_PKS3_l
 639              	.LVL47:
 518:/usr/include/c++/10/ostream **** 
 640              		.loc 2 518 30 view .LVU142
 641 024c F49F0139 		strb	w20, [sp, 103]
 642              	.LVL48:
 518:/usr/include/c++/10/ostream **** 
 643              		.loc 2 518 30 view .LVU143
 644              	.LBE271:
 645              	.LBE270:
 646              	.LBB272:
 647              	.LBI272:
 517:/usr/include/c++/10/ostream ****     { return __ostream_insert(__out, &__c, 1); }
 648              		.loc 2 517 5 is_stmt 1 view .LVU144
 649              	.LBB273:
 518:/usr/include/c++/10/ostream **** 
 650              		.loc 2 518 30 is_stmt 0 view .LVU145
AARCH64 GAS  obj/Ch11_03.s 			page 33


 651 0250 E10316AA 		mov	x1, x22
 652 0254 E00313AA 		mov	x0, x19
 653 0258 220080D2 		mov	x2, 1
 654 025c 00000094 		bl	_ZSt16__ostream_insertIcSt11char_traitsIcEERSt13basic_ostreamIT_T0_ES6_PKS3_l
 655              	.LVL49:
 518:/usr/include/c++/10/ostream **** 
 656              		.loc 2 518 30 view .LVU146
 657              	.LBE273:
 658              	.LBE272:
 659              	.LBE279:
 660              	.LBE285:
  34:Ch11_03.cpp   **** }
 661              		.loc 1 34 1 view .LVU147
 662 0260 00008052 		mov	w0, 0
 663 0264 F35341A9 		ldp	x19, x20, [sp, 16]
 664 0268 F55B42A9 		ldp	x21, x22, [sp, 32]
 665 026c F76343A9 		ldp	x23, x24, [sp, 48]
 666 0270 F96B44A9 		ldp	x25, x26, [sp, 64]
 667 0274 FB7345A9 		ldp	x27, x28, [sp, 80]
 668 0278 FD7BC8A8 		ldp	x29, x30, [sp], 128
 669              		.cfi_restore 30
 670              		.cfi_restore 29
 671              		.cfi_restore 27
 672              		.cfi_restore 28
 673              		.cfi_restore 25
 674              		.cfi_restore 26
 675              		.cfi_restore 23
 676              		.cfi_restore 24
 677              		.cfi_restore 21
 678              		.cfi_restore 22
 679              		.cfi_restore 19
 680              		.cfi_restore 20
 681              		.cfi_def_cfa_offset 0
 682 027c C0035FD6 		ret
 683              		.cfi_endproc
 684              	.LFE1588:
 685              		.size	main, .-main
 686              		.align	2
 687              		.p2align 4,,11
 688              		.type	_GLOBAL__sub_I_main, %function
 689              	_GLOBAL__sub_I_main:
 690              	.LFB2088:
 691              		.loc 1 34 1 is_stmt 1 view -0
 692              		.cfi_startproc
 693              	.LVL50:
 694              	.LBB286:
 695              	.LBI286:
 696              		.loc 1 34 1 view .LVU149
 697              	.LBE286:
 698 0280 FD7BBEA9 		stp	x29, x30, [sp, -32]!
 699              		.cfi_def_cfa_offset 32
 700              		.cfi_offset 29, -32
 701              		.cfi_offset 30, -24
 702 0284 FD030091 		mov	x29, sp
 703 0288 F30B00F9 		str	x19, [sp, 16]
 704              		.cfi_offset 19, -16
 705              	.LBB290:
AARCH64 GAS  obj/Ch11_03.s 			page 34


 706              	.LBB287:
 707              		.file 4 "/usr/include/c++/10/iostream"
   1:/usr/include/c++/10/iostream **** // Standard iostream objects -*- C++ -*-
   2:/usr/include/c++/10/iostream **** 
   3:/usr/include/c++/10/iostream **** // Copyright (C) 1997-2020 Free Software Foundation, Inc.
   4:/usr/include/c++/10/iostream **** //
   5:/usr/include/c++/10/iostream **** // This file is part of the GNU ISO C++ Library.  This library is free
   6:/usr/include/c++/10/iostream **** // software; you can redistribute it and/or modify it under the
   7:/usr/include/c++/10/iostream **** // terms of the GNU General Public License as published by the
   8:/usr/include/c++/10/iostream **** // Free Software Foundation; either version 3, or (at your option)
   9:/usr/include/c++/10/iostream **** // any later version.
  10:/usr/include/c++/10/iostream **** 
  11:/usr/include/c++/10/iostream **** // This library is distributed in the hope that it will be useful,
  12:/usr/include/c++/10/iostream **** // but WITHOUT ANY WARRANTY; without even the implied warranty of
  13:/usr/include/c++/10/iostream **** // MERCHANTABILITY or FITNESS FOR A PARTICULAR PURPOSE.  See the
  14:/usr/include/c++/10/iostream **** // GNU General Public License for more details.
  15:/usr/include/c++/10/iostream **** 
  16:/usr/include/c++/10/iostream **** // Under Section 7 of GPL version 3, you are granted additional
  17:/usr/include/c++/10/iostream **** // permissions described in the GCC Runtime Library Exception, version
  18:/usr/include/c++/10/iostream **** // 3.1, as published by the Free Software Foundation.
  19:/usr/include/c++/10/iostream **** 
  20:/usr/include/c++/10/iostream **** // You should have received a copy of the GNU General Public License and
  21:/usr/include/c++/10/iostream **** // a copy of the GCC Runtime Library Exception along with this program;
  22:/usr/include/c++/10/iostream **** // see the files COPYING3 and COPYING.RUNTIME respectively.  If not, see
  23:/usr/include/c++/10/iostream **** // <http://www.gnu.org/licenses/>.
  24:/usr/include/c++/10/iostream **** 
  25:/usr/include/c++/10/iostream **** /** @file include/iostream
  26:/usr/include/c++/10/iostream ****  *  This is a Standard C++ Library header.
  27:/usr/include/c++/10/iostream ****  */
  28:/usr/include/c++/10/iostream **** 
  29:/usr/include/c++/10/iostream **** //
  30:/usr/include/c++/10/iostream **** // ISO C++ 14882: 27.3  Standard iostream objects
  31:/usr/include/c++/10/iostream **** //
  32:/usr/include/c++/10/iostream **** 
  33:/usr/include/c++/10/iostream **** #ifndef _GLIBCXX_IOSTREAM
  34:/usr/include/c++/10/iostream **** #define _GLIBCXX_IOSTREAM 1
  35:/usr/include/c++/10/iostream **** 
  36:/usr/include/c++/10/iostream **** #pragma GCC system_header
  37:/usr/include/c++/10/iostream **** 
  38:/usr/include/c++/10/iostream **** #include <bits/c++config.h>
  39:/usr/include/c++/10/iostream **** #include <ostream>
  40:/usr/include/c++/10/iostream **** #include <istream>
  41:/usr/include/c++/10/iostream **** 
  42:/usr/include/c++/10/iostream **** namespace std _GLIBCXX_VISIBILITY(default)
  43:/usr/include/c++/10/iostream **** {
  44:/usr/include/c++/10/iostream **** _GLIBCXX_BEGIN_NAMESPACE_VERSION
  45:/usr/include/c++/10/iostream **** 
  46:/usr/include/c++/10/iostream ****   /**
  47:/usr/include/c++/10/iostream ****    *  @name Standard Stream Objects
  48:/usr/include/c++/10/iostream ****    *
  49:/usr/include/c++/10/iostream ****    *  The &lt;iostream&gt; header declares the eight <em>standard stream
  50:/usr/include/c++/10/iostream ****    *  objects</em>.  For other declarations, see
  51:/usr/include/c++/10/iostream ****    *  http://gcc.gnu.org/onlinedocs/libstdc++/manual/io.html
  52:/usr/include/c++/10/iostream ****    *  and the @link iosfwd I/O forward declarations @endlink
  53:/usr/include/c++/10/iostream ****    *
  54:/usr/include/c++/10/iostream ****    *  They are required by default to cooperate with the global C
  55:/usr/include/c++/10/iostream ****    *  library's @c FILE streams, and to be available during program
AARCH64 GAS  obj/Ch11_03.s 			page 35


  56:/usr/include/c++/10/iostream ****    *  startup and termination. For more information, see the section of the
  57:/usr/include/c++/10/iostream ****    *  manual linked to above.
  58:/usr/include/c++/10/iostream ****   */
  59:/usr/include/c++/10/iostream ****   //@{
  60:/usr/include/c++/10/iostream ****   extern istream cin;		/// Linked to standard input
  61:/usr/include/c++/10/iostream ****   extern ostream cout;		/// Linked to standard output
  62:/usr/include/c++/10/iostream ****   extern ostream cerr;		/// Linked to standard error (unbuffered)
  63:/usr/include/c++/10/iostream ****   extern ostream clog;		/// Linked to standard error (buffered)
  64:/usr/include/c++/10/iostream **** 
  65:/usr/include/c++/10/iostream **** #ifdef _GLIBCXX_USE_WCHAR_T
  66:/usr/include/c++/10/iostream ****   extern wistream wcin;		/// Linked to standard input
  67:/usr/include/c++/10/iostream ****   extern wostream wcout;	/// Linked to standard output
  68:/usr/include/c++/10/iostream ****   extern wostream wcerr;	/// Linked to standard error (unbuffered)
  69:/usr/include/c++/10/iostream ****   extern wostream wclog;	/// Linked to standard error (buffered)
  70:/usr/include/c++/10/iostream **** #endif
  71:/usr/include/c++/10/iostream ****   //@}
  72:/usr/include/c++/10/iostream **** 
  73:/usr/include/c++/10/iostream ****   // For construction of filebuffers for cout, cin, cerr, clog et. al.
  74:/usr/include/c++/10/iostream ****   static ios_base::Init __ioinit;
 708              		.loc 4 74 25 is_stmt 0 view .LVU150
 709 028c 13000090 		adrp	x19, .LANCHOR0
 710 0290 73020091 		add	x19, x19, :lo12:.LANCHOR0
 711 0294 E00313AA 		mov	x0, x19
 712 0298 00000094 		bl	_ZNSt8ios_base4InitC1Ev
 713              	.LVL51:
 714 029c E10313AA 		mov	x1, x19
 715 02a0 00000090 		adrp	x0, :got:_ZNSt8ios_base4InitD1Ev
 716              	.LBE287:
 717              	.LBE290:
 718              		.loc 1 34 1 view .LVU151
 719 02a4 F30B40F9 		ldr	x19, [sp, 16]
 720              	.LBB291:
 721              	.LBB288:
 722              		.loc 4 74 25 view .LVU152
 723 02a8 02000090 		adrp	x2, __dso_handle
 724              	.LBE288:
 725              	.LBE291:
 726              		.loc 1 34 1 view .LVU153
 727 02ac FD7BC2A8 		ldp	x29, x30, [sp], 32
 728              		.cfi_restore 30
 729              		.cfi_restore 29
 730              		.cfi_restore 19
 731              		.cfi_def_cfa_offset 0
 732              	.LBB292:
 733              	.LBB289:
 734              		.loc 4 74 25 view .LVU154
 735 02b0 42000091 		add	x2, x2, :lo12:__dso_handle
 736 02b4 000040F9 		ldr	x0, [x0, #:got_lo12:_ZNSt8ios_base4InitD1Ev]
 737 02b8 00000014 		b	__cxa_atexit
 738              	.LVL52:
 739              	.LBE289:
 740              	.LBE292:
 741              		.cfi_endproc
 742              	.LFE2088:
 743              		.size	_GLOBAL__sub_I_main, .-_GLOBAL__sub_I_main
 744              		.section	.init_array,"aw"
 745              		.align	3
AARCH64 GAS  obj/Ch11_03.s 			page 36


 746 0000 00000000 		.xword	_GLOBAL__sub_I_main
 746      00000000 
 747              		.bss
 748              		.align	3
 749              		.set	.LANCHOR0,. + 0
 750              		.type	_ZStL8__ioinit, %object
 751              		.size	_ZStL8__ioinit, 1
 752              	_ZStL8__ioinit:
 753 0000 00       		.zero	1
 754              		.text
 755              	.Letext0:
 756              		.file 5 "/usr/include/c++/10/cwchar"
 757              		.file 6 "/usr/include/c++/10/bits/exception_ptr.h"
 758              		.file 7 "/usr/include/aarch64-linux-gnu/c++/10/bits/c++config.h"
 759              		.file 8 "/usr/include/c++/10/bits/stl_pair.h"
 760              		.file 9 "/usr/include/c++/10/type_traits"
 761              		.file 10 "/usr/include/c++/10/debug/debug.h"
 762              		.file 11 "/usr/include/c++/10/cstdint"
 763              		.file 12 "/usr/include/c++/10/clocale"
 764              		.file 13 "/usr/include/c++/10/cstdlib"
 765              		.file 14 "/usr/include/c++/10/cstdio"
 766              		.file 15 "/usr/include/c++/10/bits/basic_string.h"
 767              		.file 16 "/usr/include/c++/10/system_error"
 768              		.file 17 "/usr/include/c++/10/bits/ios_base.h"
 769              		.file 18 "/usr/include/c++/10/cwctype"
 770              		.file 19 "/usr/include/c++/10/bits/ostream.tcc"
 771              		.file 20 "/usr/include/c++/10/iosfwd"
 772              		.file 21 "/usr/include/c++/10/bits/basic_ios.h"
 773              		.file 22 "/usr/include/c++/10/bits/ostream_insert.h"
 774              		.file 23 "/usr/include/c++/10/bits/predefined_ops.h"
 775              		.file 24 "/usr/lib/gcc/aarch64-linux-gnu/10/include/stddef.h"
 776              		.file 25 "/usr/lib/gcc/aarch64-linux-gnu/10/include/stdarg.h"
 777              		.file 26 "/usr/include/aarch64-linux-gnu/bits/types/wint_t.h"
 778              		.file 27 "/usr/include/aarch64-linux-gnu/bits/types/__mbstate_t.h"
 779              		.file 28 "/usr/include/aarch64-linux-gnu/bits/types/mbstate_t.h"
 780              		.file 29 "/usr/include/aarch64-linux-gnu/bits/types/__FILE.h"
 781              		.file 30 "/usr/include/aarch64-linux-gnu/bits/types/struct_FILE.h"
 782              		.file 31 "/usr/include/aarch64-linux-gnu/bits/types/FILE.h"
 783              		.file 32 "/usr/include/wchar.h"
 784              		.file 33 "/usr/include/aarch64-linux-gnu/bits/types/struct_tm.h"
 785              		.file 34 "/usr/include/aarch64-linux-gnu/bits/types.h"
 786              		.file 35 "/usr/include/aarch64-linux-gnu/bits/stdint-intn.h"
 787              		.file 36 "/usr/include/aarch64-linux-gnu/bits/stdint-uintn.h"
 788              		.file 37 "/usr/include/stdint.h"
 789              		.file 38 "/usr/include/locale.h"
 790              		.file 39 "/usr/include/aarch64-linux-gnu/c++/10/bits/atomic_word.h"
 791              		.file 40 "/usr/include/stdlib.h"
 792              		.file 41 "/usr/include/aarch64-linux-gnu/bits/stdlib-float.h"
 793              		.file 42 "/usr/include/aarch64-linux-gnu/bits/stdlib-bsearch.h"
 794              		.file 43 "/usr/include/aarch64-linux-gnu/bits/types/__fpos_t.h"
 795              		.file 44 "/usr/include/stdio.h"
 796              		.file 45 "/usr/include/aarch64-linux-gnu/bits/stdio.h"
 797              		.file 46 "/usr/include/aarch64-linux-gnu/bits/wctype-wchar.h"
 798              		.file 47 "/usr/include/wctype.h"
 799              		.file 48 "<built-in>"
 10254              		.section	.note.GNU-stack,"",@progbits
