AARCH64 GAS  obj/Chapter13_4.s 			page 1


 GNU assembler version 2.35.2 (aarch64-linux-gnu)
	 using BFD version (GNU Binutils for Debian) 2.35.2.
 options passed	: -I -I -EL -march=armv8-a+simd -mabi=lp64 -aghl=obj/Chapter13_4.lst 
 input file    	: obj/Chapter13_4.s
 output file   	: obj/Chapter13_4.o
 target        	: aarch64-unknown-linux-gnu
 time stamp    	: 2022-07-23T14:30:29.000-0400

AARCH64 GAS  obj/Chapter13_4.s 			page 2


   1              		.arch armv8-a
   2              		.file	"Chapter13_4.cpp"
   3              		.section	.rodata.str1.8,"aMS",@progbits,1
   4              		.align	3
   5              	.LC0:
   6 0000 455100   		.string	"EQ"
   7 0003 00000000 		.align	3
   7      00
   8              	.LC1:
   9 0008 4E4500   		.string	"NE"
  10 000b 00000000 		.align	3
  10      00
  11              	.LC2:
  12 0010 475400   		.string	"GT"
  13 0013 00000000 		.align	3
  13      00
  14              	.LC3:
  15 0018 4C5400   		.string	"LT"
  16 001b 00000000 		.align	3
  16      00
  17              	.LC4:
  18 0020 474500   		.string	"GE"
  19 0023 00000000 		.align	3
  19      00
  20              	.LC5:
  21 0028 4C4500   		.string	"LE"
  22 002b 00000000 		.align	3
  22      00
  23              	.LC6:
  24 0030 553000   		.string	"U0"
  25              		.text
  26              	.Ltext0:
  27              		.section	.rodata.str1.8
  28 0033 00000000 		.align	3
  28      00
  29              	.LC11:
  30 0038 61203D00 		.string	"a ="
  31 003c 00000000 		.align	3
  32              	.LC12:
  33 0040 2C00     		.string	","
  34 0042 00000000 		.align	3
  34      0000
  35              	.LC13:
  36 0048 62203D00 		.string	"b ="
  37 004c 00000000 		.align	3
  38              	.LC14:
  39 0050 203D2000 		.string	" = "
  40              		.section	.text.startup,"ax",@progbits
  41              		.align	2
  42              		.p2align 4,,11
  43              		.global	main
  44              		.type	main, %function
  45              	main:
  46              	.LVL0:
  47              	.LFB2373:
  48              		.file 1 "Chapter13_4.cpp"
   1:Chapter13_4.cpp **** #include<iostream>
AARCH64 GAS  obj/Chapter13_4.s 			page 3


   2:Chapter13_4.cpp **** #include<iomanip>
   3:Chapter13_4.cpp **** #include<string>
   4:Chapter13_4.cpp **** #include<limits>
   5:Chapter13_4.cpp **** 
   6:Chapter13_4.cpp **** using namespace std;
   7:Chapter13_4.cpp **** 
   8:Chapter13_4.cpp **** extern "C" void comapareFloat_(float a,float b,bool* results);
   9:Chapter13_4.cpp **** 
  10:Chapter13_4.cpp **** int main(int argc,char** argv){
  49              		.loc 1 10 31 view -0
  50              		.cfi_startproc
  11:Chapter13_4.cpp **** 	const char* ops[]={"EQ","NE","GT","LT","GE","LE","U0"};
  51              		.loc 1 11 2 view .LVU1
  10:Chapter13_4.cpp **** 	const char* ops[]={"EQ","NE","GT","LT","GE","LE","U0"};
  52              		.loc 1 10 31 is_stmt 0 view .LVU2
  53 0000 FD7BB0A9 		stp	x29, x30, [sp, -256]!
  54              		.cfi_def_cfa_offset 256
  55              		.cfi_offset 29, -256
  56              		.cfi_offset 30, -248
  12:Chapter13_4.cpp **** 	size_t n_ops = sizeof(ops)/sizeof(float);
  13:Chapter13_4.cpp **** 	bool results[7];
  14:Chapter13_4.cpp **** 	
  15:Chapter13_4.cpp **** 	float f_a[]{-77.45,100.45,0.00001,44546738903.23423,8.324,0.0};
  57              		.loc 1 15 8 view .LVU3
  58 0004 01000090 		adrp	x1, .LANCHOR1
  59              	.LVL1:
  60              		.loc 1 15 8 view .LVU4
  61 0008 21000091 		add	x1, x1, :lo12:.LANCHOR1
  62              	.LBB124:
  63              	.LBB125:
  64              	.LBB126:
  65              	.LBB127:
  66              	.LBB128:
  67              		.file 2 "/usr/include/c++/10/ostream"
   1:/usr/include/c++/10/ostream **** // Output streams -*- C++ -*-
   2:/usr/include/c++/10/ostream **** 
   3:/usr/include/c++/10/ostream **** // Copyright (C) 1997-2020 Free Software Foundation, Inc.
   4:/usr/include/c++/10/ostream **** //
   5:/usr/include/c++/10/ostream **** // This file is part of the GNU ISO C++ Library.  This library is free
   6:/usr/include/c++/10/ostream **** // software; you can redistribute it and/or modify it under the
   7:/usr/include/c++/10/ostream **** // terms of the GNU General Public License as published by the
   8:/usr/include/c++/10/ostream **** // Free Software Foundation; either version 3, or (at your option)
   9:/usr/include/c++/10/ostream **** // any later version.
  10:/usr/include/c++/10/ostream **** 
  11:/usr/include/c++/10/ostream **** // This library is distributed in the hope that it will be useful,
  12:/usr/include/c++/10/ostream **** // but WITHOUT ANY WARRANTY; without even the implied warranty of
  13:/usr/include/c++/10/ostream **** // MERCHANTABILITY or FITNESS FOR A PARTICULAR PURPOSE.  See the
  14:/usr/include/c++/10/ostream **** // GNU General Public License for more details.
  15:/usr/include/c++/10/ostream **** 
  16:/usr/include/c++/10/ostream **** // Under Section 7 of GPL version 3, you are granted additional
  17:/usr/include/c++/10/ostream **** // permissions described in the GCC Runtime Library Exception, version
  18:/usr/include/c++/10/ostream **** // 3.1, as published by the Free Software Foundation.
  19:/usr/include/c++/10/ostream **** 
  20:/usr/include/c++/10/ostream **** // You should have received a copy of the GNU General Public License and
  21:/usr/include/c++/10/ostream **** // a copy of the GCC Runtime Library Exception along with this program;
  22:/usr/include/c++/10/ostream **** // see the files COPYING3 and COPYING.RUNTIME respectively.  If not, see
  23:/usr/include/c++/10/ostream **** // <http://www.gnu.org/licenses/>.
AARCH64 GAS  obj/Chapter13_4.s 			page 4


  24:/usr/include/c++/10/ostream **** 
  25:/usr/include/c++/10/ostream **** /** @file include/ostream
  26:/usr/include/c++/10/ostream ****  *  This is a Standard C++ Library header.
  27:/usr/include/c++/10/ostream ****  */
  28:/usr/include/c++/10/ostream **** 
  29:/usr/include/c++/10/ostream **** //
  30:/usr/include/c++/10/ostream **** // ISO C++ 14882: 27.6.2  Output streams
  31:/usr/include/c++/10/ostream **** //
  32:/usr/include/c++/10/ostream **** 
  33:/usr/include/c++/10/ostream **** #ifndef _GLIBCXX_OSTREAM
  34:/usr/include/c++/10/ostream **** #define _GLIBCXX_OSTREAM 1
  35:/usr/include/c++/10/ostream **** 
  36:/usr/include/c++/10/ostream **** #pragma GCC system_header
  37:/usr/include/c++/10/ostream **** 
  38:/usr/include/c++/10/ostream **** #include <ios>
  39:/usr/include/c++/10/ostream **** #include <bits/ostream_insert.h>
  40:/usr/include/c++/10/ostream **** 
  41:/usr/include/c++/10/ostream **** namespace std _GLIBCXX_VISIBILITY(default)
  42:/usr/include/c++/10/ostream **** {
  43:/usr/include/c++/10/ostream **** _GLIBCXX_BEGIN_NAMESPACE_VERSION
  44:/usr/include/c++/10/ostream **** 
  45:/usr/include/c++/10/ostream ****   /**
  46:/usr/include/c++/10/ostream ****    *  @brief  Template class basic_ostream.
  47:/usr/include/c++/10/ostream ****    *  @ingroup io
  48:/usr/include/c++/10/ostream ****    *
  49:/usr/include/c++/10/ostream ****    *  @tparam _CharT  Type of character stream.
  50:/usr/include/c++/10/ostream ****    *  @tparam _Traits  Traits for character type, defaults to
  51:/usr/include/c++/10/ostream ****    *                   char_traits<_CharT>.
  52:/usr/include/c++/10/ostream ****    *
  53:/usr/include/c++/10/ostream ****    *  This is the base class for all output streams.  It provides text
  54:/usr/include/c++/10/ostream ****    *  formatting of all builtin types, and communicates with any class
  55:/usr/include/c++/10/ostream ****    *  derived from basic_streambuf to do the actual output.
  56:/usr/include/c++/10/ostream ****   */
  57:/usr/include/c++/10/ostream ****   template<typename _CharT, typename _Traits>
  58:/usr/include/c++/10/ostream ****     class basic_ostream : virtual public basic_ios<_CharT, _Traits>
  59:/usr/include/c++/10/ostream ****     {
  60:/usr/include/c++/10/ostream ****     public:
  61:/usr/include/c++/10/ostream ****       // Types (inherited from basic_ios):
  62:/usr/include/c++/10/ostream ****       typedef _CharT			 		char_type;
  63:/usr/include/c++/10/ostream ****       typedef typename _Traits::int_type 		int_type;
  64:/usr/include/c++/10/ostream ****       typedef typename _Traits::pos_type 		pos_type;
  65:/usr/include/c++/10/ostream ****       typedef typename _Traits::off_type 		off_type;
  66:/usr/include/c++/10/ostream ****       typedef _Traits			 		traits_type;
  67:/usr/include/c++/10/ostream **** 
  68:/usr/include/c++/10/ostream ****       // Non-standard Types:
  69:/usr/include/c++/10/ostream ****       typedef basic_streambuf<_CharT, _Traits> 		__streambuf_type;
  70:/usr/include/c++/10/ostream ****       typedef basic_ios<_CharT, _Traits>		__ios_type;
  71:/usr/include/c++/10/ostream ****       typedef basic_ostream<_CharT, _Traits>		__ostream_type;
  72:/usr/include/c++/10/ostream ****       typedef num_put<_CharT, ostreambuf_iterator<_CharT, _Traits> >
  73:/usr/include/c++/10/ostream ****       							__num_put_type;
  74:/usr/include/c++/10/ostream ****       typedef ctype<_CharT>	      			__ctype_type;
  75:/usr/include/c++/10/ostream **** 
  76:/usr/include/c++/10/ostream ****       /**
  77:/usr/include/c++/10/ostream ****        *  @brief  Base constructor.
  78:/usr/include/c++/10/ostream ****        *
  79:/usr/include/c++/10/ostream ****        *  This ctor is almost never called by the user directly, rather from
  80:/usr/include/c++/10/ostream ****        *  derived classes' initialization lists, which pass a pointer to
AARCH64 GAS  obj/Chapter13_4.s 			page 5


  81:/usr/include/c++/10/ostream ****        *  their own stream buffer.
  82:/usr/include/c++/10/ostream ****       */
  83:/usr/include/c++/10/ostream ****       explicit
  84:/usr/include/c++/10/ostream ****       basic_ostream(__streambuf_type* __sb)
  85:/usr/include/c++/10/ostream ****       { this->init(__sb); }
  86:/usr/include/c++/10/ostream **** 
  87:/usr/include/c++/10/ostream ****       /**
  88:/usr/include/c++/10/ostream ****        *  @brief  Base destructor.
  89:/usr/include/c++/10/ostream ****        *
  90:/usr/include/c++/10/ostream ****        *  This does very little apart from providing a virtual base dtor.
  91:/usr/include/c++/10/ostream ****       */
  92:/usr/include/c++/10/ostream ****       virtual
  93:/usr/include/c++/10/ostream ****       ~basic_ostream() { }
  94:/usr/include/c++/10/ostream **** 
  95:/usr/include/c++/10/ostream ****       /// Safe prefix/suffix operations.
  96:/usr/include/c++/10/ostream ****       class sentry;
  97:/usr/include/c++/10/ostream ****       friend class sentry;
  98:/usr/include/c++/10/ostream **** 
  99:/usr/include/c++/10/ostream ****       //@{
 100:/usr/include/c++/10/ostream ****       /**
 101:/usr/include/c++/10/ostream ****        *  @brief  Interface for manipulators.
 102:/usr/include/c++/10/ostream ****        *
 103:/usr/include/c++/10/ostream ****        *  Manipulators such as @c std::endl and @c std::hex use these
 104:/usr/include/c++/10/ostream ****        *  functions in constructs like "std::cout << std::endl".  For more
 105:/usr/include/c++/10/ostream ****        *  information, see the iomanip header.
 106:/usr/include/c++/10/ostream ****       */
 107:/usr/include/c++/10/ostream ****       __ostream_type&
 108:/usr/include/c++/10/ostream ****       operator<<(__ostream_type& (*__pf)(__ostream_type&))
 109:/usr/include/c++/10/ostream ****       {
 110:/usr/include/c++/10/ostream **** 	// _GLIBCXX_RESOLVE_LIB_DEFECTS
 111:/usr/include/c++/10/ostream **** 	// DR 60. What is a formatted input function?
 112:/usr/include/c++/10/ostream **** 	// The inserters for manipulators are *not* formatted output functions.
 113:/usr/include/c++/10/ostream **** 	return __pf(*this);
 114:/usr/include/c++/10/ostream ****       }
 115:/usr/include/c++/10/ostream **** 
 116:/usr/include/c++/10/ostream ****       __ostream_type&
 117:/usr/include/c++/10/ostream ****       operator<<(__ios_type& (*__pf)(__ios_type&))
 118:/usr/include/c++/10/ostream ****       {
 119:/usr/include/c++/10/ostream **** 	// _GLIBCXX_RESOLVE_LIB_DEFECTS
 120:/usr/include/c++/10/ostream **** 	// DR 60. What is a formatted input function?
 121:/usr/include/c++/10/ostream **** 	// The inserters for manipulators are *not* formatted output functions.
 122:/usr/include/c++/10/ostream **** 	__pf(*this);
 123:/usr/include/c++/10/ostream **** 	return *this;
 124:/usr/include/c++/10/ostream ****       }
 125:/usr/include/c++/10/ostream **** 
 126:/usr/include/c++/10/ostream ****       __ostream_type&
 127:/usr/include/c++/10/ostream ****       operator<<(ios_base& (*__pf) (ios_base&))
 128:/usr/include/c++/10/ostream ****       {
 129:/usr/include/c++/10/ostream **** 	// _GLIBCXX_RESOLVE_LIB_DEFECTS
 130:/usr/include/c++/10/ostream **** 	// DR 60. What is a formatted input function?
 131:/usr/include/c++/10/ostream **** 	// The inserters for manipulators are *not* formatted output functions.
 132:/usr/include/c++/10/ostream **** 	__pf(*this);
 133:/usr/include/c++/10/ostream **** 	return *this;
 134:/usr/include/c++/10/ostream ****       }
 135:/usr/include/c++/10/ostream ****       //@}
 136:/usr/include/c++/10/ostream **** 
 137:/usr/include/c++/10/ostream ****       //@{
AARCH64 GAS  obj/Chapter13_4.s 			page 6


 138:/usr/include/c++/10/ostream ****       /**
 139:/usr/include/c++/10/ostream ****        *  @name Inserters
 140:/usr/include/c++/10/ostream ****        *
 141:/usr/include/c++/10/ostream ****        *  All the @c operator<< functions (aka <em>formatted output
 142:/usr/include/c++/10/ostream ****        *  functions</em>) have some common behavior.  Each starts by
 143:/usr/include/c++/10/ostream ****        *  constructing a temporary object of type std::basic_ostream::sentry.
 144:/usr/include/c++/10/ostream ****        *  This can have several effects, concluding with the setting of a
 145:/usr/include/c++/10/ostream ****        *  status flag; see the sentry documentation for more.
 146:/usr/include/c++/10/ostream ****        *
 147:/usr/include/c++/10/ostream ****        *  If the sentry status is good, the function tries to generate
 148:/usr/include/c++/10/ostream ****        *  whatever data is appropriate for the type of the argument.
 149:/usr/include/c++/10/ostream ****        *
 150:/usr/include/c++/10/ostream ****        *  If an exception is thrown during insertion, ios_base::badbit
 151:/usr/include/c++/10/ostream ****        *  will be turned on in the stream's error state without causing an
 152:/usr/include/c++/10/ostream ****        *  ios_base::failure to be thrown.  The original exception will then
 153:/usr/include/c++/10/ostream ****        *  be rethrown.
 154:/usr/include/c++/10/ostream ****       */
 155:/usr/include/c++/10/ostream **** 
 156:/usr/include/c++/10/ostream ****       //@{
 157:/usr/include/c++/10/ostream ****       /**
 158:/usr/include/c++/10/ostream ****        *  @brief Integer arithmetic inserters
 159:/usr/include/c++/10/ostream ****        *  @param  __n A variable of builtin integral type.
 160:/usr/include/c++/10/ostream ****        *  @return  @c *this if successful
 161:/usr/include/c++/10/ostream ****        *
 162:/usr/include/c++/10/ostream ****        *  These functions use the stream's current locale (specifically, the
 163:/usr/include/c++/10/ostream ****        *  @c num_get facet) to perform numeric formatting.
 164:/usr/include/c++/10/ostream ****       */
 165:/usr/include/c++/10/ostream ****       __ostream_type&
 166:/usr/include/c++/10/ostream ****       operator<<(long __n)
 167:/usr/include/c++/10/ostream ****       { return _M_insert(__n); }
 168:/usr/include/c++/10/ostream **** 
 169:/usr/include/c++/10/ostream ****       __ostream_type&
 170:/usr/include/c++/10/ostream ****       operator<<(unsigned long __n)
 171:/usr/include/c++/10/ostream ****       { return _M_insert(__n); }
 172:/usr/include/c++/10/ostream **** 
 173:/usr/include/c++/10/ostream ****       __ostream_type&
 174:/usr/include/c++/10/ostream ****       operator<<(bool __n)
 175:/usr/include/c++/10/ostream ****       { return _M_insert(__n); }
 176:/usr/include/c++/10/ostream **** 
 177:/usr/include/c++/10/ostream ****       __ostream_type&
 178:/usr/include/c++/10/ostream ****       operator<<(short __n);
 179:/usr/include/c++/10/ostream **** 
 180:/usr/include/c++/10/ostream ****       __ostream_type&
 181:/usr/include/c++/10/ostream ****       operator<<(unsigned short __n)
 182:/usr/include/c++/10/ostream ****       {
 183:/usr/include/c++/10/ostream **** 	// _GLIBCXX_RESOLVE_LIB_DEFECTS
 184:/usr/include/c++/10/ostream **** 	// 117. basic_ostream uses nonexistent num_put member functions.
 185:/usr/include/c++/10/ostream **** 	return _M_insert(static_cast<unsigned long>(__n));
 186:/usr/include/c++/10/ostream ****       }
 187:/usr/include/c++/10/ostream **** 
 188:/usr/include/c++/10/ostream ****       __ostream_type&
 189:/usr/include/c++/10/ostream ****       operator<<(int __n);
 190:/usr/include/c++/10/ostream **** 
 191:/usr/include/c++/10/ostream ****       __ostream_type&
 192:/usr/include/c++/10/ostream ****       operator<<(unsigned int __n)
 193:/usr/include/c++/10/ostream ****       {
 194:/usr/include/c++/10/ostream **** 	// _GLIBCXX_RESOLVE_LIB_DEFECTS
AARCH64 GAS  obj/Chapter13_4.s 			page 7


 195:/usr/include/c++/10/ostream **** 	// 117. basic_ostream uses nonexistent num_put member functions.
 196:/usr/include/c++/10/ostream **** 	return _M_insert(static_cast<unsigned long>(__n));
 197:/usr/include/c++/10/ostream ****       }
 198:/usr/include/c++/10/ostream **** 
 199:/usr/include/c++/10/ostream **** #ifdef _GLIBCXX_USE_LONG_LONG
 200:/usr/include/c++/10/ostream ****       __ostream_type&
 201:/usr/include/c++/10/ostream ****       operator<<(long long __n)
 202:/usr/include/c++/10/ostream ****       { return _M_insert(__n); }
 203:/usr/include/c++/10/ostream **** 
 204:/usr/include/c++/10/ostream ****       __ostream_type&
 205:/usr/include/c++/10/ostream ****       operator<<(unsigned long long __n)
 206:/usr/include/c++/10/ostream ****       { return _M_insert(__n); }
 207:/usr/include/c++/10/ostream **** #endif
 208:/usr/include/c++/10/ostream ****       //@}
 209:/usr/include/c++/10/ostream **** 
 210:/usr/include/c++/10/ostream ****       //@{
 211:/usr/include/c++/10/ostream ****       /**
 212:/usr/include/c++/10/ostream ****        *  @brief  Floating point arithmetic inserters
 213:/usr/include/c++/10/ostream ****        *  @param  __f A variable of builtin floating point type.
 214:/usr/include/c++/10/ostream ****        *  @return  @c *this if successful
 215:/usr/include/c++/10/ostream ****        *
 216:/usr/include/c++/10/ostream ****        *  These functions use the stream's current locale (specifically, the
 217:/usr/include/c++/10/ostream ****        *  @c num_get facet) to perform numeric formatting.
 218:/usr/include/c++/10/ostream ****       */
 219:/usr/include/c++/10/ostream ****       __ostream_type&
 220:/usr/include/c++/10/ostream ****       operator<<(double __f)
 221:/usr/include/c++/10/ostream ****       { return _M_insert(__f); }
 222:/usr/include/c++/10/ostream **** 
 223:/usr/include/c++/10/ostream ****       __ostream_type&
 224:/usr/include/c++/10/ostream ****       operator<<(float __f)
 225:/usr/include/c++/10/ostream ****       {
 226:/usr/include/c++/10/ostream **** 	// _GLIBCXX_RESOLVE_LIB_DEFECTS
 227:/usr/include/c++/10/ostream **** 	// 117. basic_ostream uses nonexistent num_put member functions.
 228:/usr/include/c++/10/ostream **** 	return _M_insert(static_cast<double>(__f));
 229:/usr/include/c++/10/ostream ****       }
 230:/usr/include/c++/10/ostream **** 
 231:/usr/include/c++/10/ostream ****       __ostream_type&
 232:/usr/include/c++/10/ostream ****       operator<<(long double __f)
 233:/usr/include/c++/10/ostream ****       { return _M_insert(__f); }
 234:/usr/include/c++/10/ostream ****       //@}
 235:/usr/include/c++/10/ostream **** 
 236:/usr/include/c++/10/ostream ****       /**
 237:/usr/include/c++/10/ostream ****        *  @brief  Pointer arithmetic inserters
 238:/usr/include/c++/10/ostream ****        *  @param  __p A variable of pointer type.
 239:/usr/include/c++/10/ostream ****        *  @return  @c *this if successful
 240:/usr/include/c++/10/ostream ****        *
 241:/usr/include/c++/10/ostream ****        *  These functions use the stream's current locale (specifically, the
 242:/usr/include/c++/10/ostream ****        *  @c num_get facet) to perform numeric formatting.
 243:/usr/include/c++/10/ostream ****       */
 244:/usr/include/c++/10/ostream ****       __ostream_type&
 245:/usr/include/c++/10/ostream ****       operator<<(const void* __p)
 246:/usr/include/c++/10/ostream ****       { return _M_insert(__p); }
 247:/usr/include/c++/10/ostream **** 
 248:/usr/include/c++/10/ostream **** #if __cplusplus >= 201703L
 249:/usr/include/c++/10/ostream ****       __ostream_type&
 250:/usr/include/c++/10/ostream ****       operator<<(nullptr_t)
 251:/usr/include/c++/10/ostream ****       { return *this << "nullptr"; }
AARCH64 GAS  obj/Chapter13_4.s 			page 8


 252:/usr/include/c++/10/ostream **** #endif
 253:/usr/include/c++/10/ostream **** 
 254:/usr/include/c++/10/ostream ****       /**
 255:/usr/include/c++/10/ostream ****        *  @brief  Extracting from another streambuf.
 256:/usr/include/c++/10/ostream ****        *  @param  __sb  A pointer to a streambuf
 257:/usr/include/c++/10/ostream ****        *
 258:/usr/include/c++/10/ostream ****        *  This function behaves like one of the basic arithmetic extractors,
 259:/usr/include/c++/10/ostream ****        *  in that it also constructs a sentry object and has the same error
 260:/usr/include/c++/10/ostream ****        *  handling behavior.
 261:/usr/include/c++/10/ostream ****        *
 262:/usr/include/c++/10/ostream ****        *  If @p __sb is NULL, the stream will set failbit in its error state.
 263:/usr/include/c++/10/ostream ****        *
 264:/usr/include/c++/10/ostream ****        *  Characters are extracted from @p __sb and inserted into @c *this
 265:/usr/include/c++/10/ostream ****        *  until one of the following occurs:
 266:/usr/include/c++/10/ostream ****        *
 267:/usr/include/c++/10/ostream ****        *  - the input stream reaches end-of-file,
 268:/usr/include/c++/10/ostream ****        *  - insertion into the output sequence fails (in this case, the
 269:/usr/include/c++/10/ostream ****        *    character that would have been inserted is not extracted), or
 270:/usr/include/c++/10/ostream ****        *  - an exception occurs while getting a character from @p __sb, which
 271:/usr/include/c++/10/ostream ****        *    sets failbit in the error state
 272:/usr/include/c++/10/ostream ****        *
 273:/usr/include/c++/10/ostream ****        *  If the function inserts no characters, failbit is set.
 274:/usr/include/c++/10/ostream ****       */
 275:/usr/include/c++/10/ostream ****       __ostream_type&
 276:/usr/include/c++/10/ostream ****       operator<<(__streambuf_type* __sb);
 277:/usr/include/c++/10/ostream ****       //@}
 278:/usr/include/c++/10/ostream **** 
 279:/usr/include/c++/10/ostream ****       //@{
 280:/usr/include/c++/10/ostream ****       /**
 281:/usr/include/c++/10/ostream ****        *  @name Unformatted Output Functions
 282:/usr/include/c++/10/ostream ****        *
 283:/usr/include/c++/10/ostream ****        *  All the unformatted output functions have some common behavior.
 284:/usr/include/c++/10/ostream ****        *  Each starts by constructing a temporary object of type
 285:/usr/include/c++/10/ostream ****        *  std::basic_ostream::sentry.  This has several effects, concluding
 286:/usr/include/c++/10/ostream ****        *  with the setting of a status flag; see the sentry documentation
 287:/usr/include/c++/10/ostream ****        *  for more.
 288:/usr/include/c++/10/ostream ****        *
 289:/usr/include/c++/10/ostream ****        *  If the sentry status is good, the function tries to generate
 290:/usr/include/c++/10/ostream ****        *  whatever data is appropriate for the type of the argument.
 291:/usr/include/c++/10/ostream ****        *
 292:/usr/include/c++/10/ostream ****        *  If an exception is thrown during insertion, ios_base::badbit
 293:/usr/include/c++/10/ostream ****        *  will be turned on in the stream's error state.  If badbit is on in
 294:/usr/include/c++/10/ostream ****        *  the stream's exceptions mask, the exception will be rethrown
 295:/usr/include/c++/10/ostream ****        *  without completing its actions.
 296:/usr/include/c++/10/ostream ****       */
 297:/usr/include/c++/10/ostream **** 
 298:/usr/include/c++/10/ostream ****       /**
 299:/usr/include/c++/10/ostream ****        *  @brief  Simple insertion.
 300:/usr/include/c++/10/ostream ****        *  @param  __c  The character to insert.
 301:/usr/include/c++/10/ostream ****        *  @return  *this
 302:/usr/include/c++/10/ostream ****        *
 303:/usr/include/c++/10/ostream ****        *  Tries to insert @p __c.
 304:/usr/include/c++/10/ostream ****        *
 305:/usr/include/c++/10/ostream ****        *  @note  This function is not overloaded on signed char and
 306:/usr/include/c++/10/ostream ****        *         unsigned char.
 307:/usr/include/c++/10/ostream ****       */
 308:/usr/include/c++/10/ostream ****       __ostream_type&
AARCH64 GAS  obj/Chapter13_4.s 			page 9


 309:/usr/include/c++/10/ostream ****       put(char_type __c);
 310:/usr/include/c++/10/ostream **** 
 311:/usr/include/c++/10/ostream ****       /**
 312:/usr/include/c++/10/ostream ****        *  @brief  Core write functionality, without sentry.
 313:/usr/include/c++/10/ostream ****        *  @param  __s  The array to insert.
 314:/usr/include/c++/10/ostream ****        *  @param  __n  Maximum number of characters to insert.
 315:/usr/include/c++/10/ostream ****       */
 316:/usr/include/c++/10/ostream ****       void
 317:/usr/include/c++/10/ostream ****       _M_write(const char_type* __s, streamsize __n)
 318:/usr/include/c++/10/ostream ****       {
 319:/usr/include/c++/10/ostream **** 	const streamsize __put = this->rdbuf()->sputn(__s, __n);
 320:/usr/include/c++/10/ostream **** 	if (__put != __n)
 321:/usr/include/c++/10/ostream **** 	  this->setstate(ios_base::badbit);
 322:/usr/include/c++/10/ostream ****       }
 323:/usr/include/c++/10/ostream **** 
 324:/usr/include/c++/10/ostream ****       /**
 325:/usr/include/c++/10/ostream ****        *  @brief  Character string insertion.
 326:/usr/include/c++/10/ostream ****        *  @param  __s  The array to insert.
 327:/usr/include/c++/10/ostream ****        *  @param  __n  Maximum number of characters to insert.
 328:/usr/include/c++/10/ostream ****        *  @return  *this
 329:/usr/include/c++/10/ostream ****        *
 330:/usr/include/c++/10/ostream ****        *  Characters are copied from @p __s and inserted into the stream until
 331:/usr/include/c++/10/ostream ****        *  one of the following happens:
 332:/usr/include/c++/10/ostream ****        *
 333:/usr/include/c++/10/ostream ****        *  - @p __n characters are inserted
 334:/usr/include/c++/10/ostream ****        *  - inserting into the output sequence fails (in this case, badbit
 335:/usr/include/c++/10/ostream ****        *    will be set in the stream's error state)
 336:/usr/include/c++/10/ostream ****        *
 337:/usr/include/c++/10/ostream ****        *  @note  This function is not overloaded on signed char and
 338:/usr/include/c++/10/ostream ****        *         unsigned char.
 339:/usr/include/c++/10/ostream ****       */
 340:/usr/include/c++/10/ostream ****       __ostream_type&
 341:/usr/include/c++/10/ostream ****       write(const char_type* __s, streamsize __n);
 342:/usr/include/c++/10/ostream ****       //@}
 343:/usr/include/c++/10/ostream **** 
 344:/usr/include/c++/10/ostream ****       /**
 345:/usr/include/c++/10/ostream ****        *  @brief  Synchronizing the stream buffer.
 346:/usr/include/c++/10/ostream ****        *  @return  *this
 347:/usr/include/c++/10/ostream ****        *
 348:/usr/include/c++/10/ostream ****        *  If @c rdbuf() is a null pointer, changes nothing.
 349:/usr/include/c++/10/ostream ****        *
 350:/usr/include/c++/10/ostream ****        *  Otherwise, calls @c rdbuf()->pubsync(), and if that returns -1,
 351:/usr/include/c++/10/ostream ****        *  sets badbit.
 352:/usr/include/c++/10/ostream ****       */
 353:/usr/include/c++/10/ostream ****       __ostream_type&
 354:/usr/include/c++/10/ostream ****       flush();
 355:/usr/include/c++/10/ostream **** 
 356:/usr/include/c++/10/ostream ****       /**
 357:/usr/include/c++/10/ostream ****        *  @brief  Getting the current write position.
 358:/usr/include/c++/10/ostream ****        *  @return  A file position object.
 359:/usr/include/c++/10/ostream ****        *
 360:/usr/include/c++/10/ostream ****        *  If @c fail() is not false, returns @c pos_type(-1) to indicate
 361:/usr/include/c++/10/ostream ****        *  failure.  Otherwise returns @c rdbuf()->pubseekoff(0,cur,out).
 362:/usr/include/c++/10/ostream ****       */
 363:/usr/include/c++/10/ostream ****       pos_type
 364:/usr/include/c++/10/ostream ****       tellp();
 365:/usr/include/c++/10/ostream **** 
AARCH64 GAS  obj/Chapter13_4.s 			page 10


 366:/usr/include/c++/10/ostream ****       /**
 367:/usr/include/c++/10/ostream ****        *  @brief  Changing the current write position.
 368:/usr/include/c++/10/ostream ****        *  @param  __pos  A file position object.
 369:/usr/include/c++/10/ostream ****        *  @return  *this
 370:/usr/include/c++/10/ostream ****        *
 371:/usr/include/c++/10/ostream ****        *  If @c fail() is not true, calls @c rdbuf()->pubseekpos(pos).  If
 372:/usr/include/c++/10/ostream ****        *  that function fails, sets failbit.
 373:/usr/include/c++/10/ostream ****       */
 374:/usr/include/c++/10/ostream ****       __ostream_type&
 375:/usr/include/c++/10/ostream ****       seekp(pos_type);
 376:/usr/include/c++/10/ostream **** 
 377:/usr/include/c++/10/ostream ****       /**
 378:/usr/include/c++/10/ostream ****        *  @brief  Changing the current write position.
 379:/usr/include/c++/10/ostream ****        *  @param  __off  A file offset object.
 380:/usr/include/c++/10/ostream ****        *  @param  __dir  The direction in which to seek.
 381:/usr/include/c++/10/ostream ****        *  @return  *this
 382:/usr/include/c++/10/ostream ****        *
 383:/usr/include/c++/10/ostream ****        *  If @c fail() is not true, calls @c rdbuf()->pubseekoff(off,dir).
 384:/usr/include/c++/10/ostream ****        *  If that function fails, sets failbit.
 385:/usr/include/c++/10/ostream ****       */
 386:/usr/include/c++/10/ostream ****        __ostream_type&
 387:/usr/include/c++/10/ostream ****       seekp(off_type, ios_base::seekdir);
 388:/usr/include/c++/10/ostream **** 
 389:/usr/include/c++/10/ostream ****     protected:
 390:/usr/include/c++/10/ostream ****       basic_ostream()
 391:/usr/include/c++/10/ostream ****       { this->init(0); }
 392:/usr/include/c++/10/ostream **** 
 393:/usr/include/c++/10/ostream **** #if __cplusplus >= 201103L
 394:/usr/include/c++/10/ostream ****       // Non-standard constructor that does not call init()
 395:/usr/include/c++/10/ostream ****       basic_ostream(basic_iostream<_CharT, _Traits>&) { }
 396:/usr/include/c++/10/ostream **** 
 397:/usr/include/c++/10/ostream ****       basic_ostream(const basic_ostream&) = delete;
 398:/usr/include/c++/10/ostream **** 
 399:/usr/include/c++/10/ostream ****       basic_ostream(basic_ostream&& __rhs)
 400:/usr/include/c++/10/ostream ****       : __ios_type()
 401:/usr/include/c++/10/ostream ****       { __ios_type::move(__rhs); }
 402:/usr/include/c++/10/ostream **** 
 403:/usr/include/c++/10/ostream ****       // 27.7.3.3 Assign/swap
 404:/usr/include/c++/10/ostream **** 
 405:/usr/include/c++/10/ostream ****       basic_ostream& operator=(const basic_ostream&) = delete;
 406:/usr/include/c++/10/ostream **** 
 407:/usr/include/c++/10/ostream ****       basic_ostream&
 408:/usr/include/c++/10/ostream ****       operator=(basic_ostream&& __rhs)
 409:/usr/include/c++/10/ostream ****       {
 410:/usr/include/c++/10/ostream **** 	swap(__rhs);
 411:/usr/include/c++/10/ostream **** 	return *this;
 412:/usr/include/c++/10/ostream ****       }
 413:/usr/include/c++/10/ostream **** 
 414:/usr/include/c++/10/ostream ****       void
 415:/usr/include/c++/10/ostream ****       swap(basic_ostream& __rhs)
 416:/usr/include/c++/10/ostream ****       { __ios_type::swap(__rhs); }
 417:/usr/include/c++/10/ostream **** #endif
 418:/usr/include/c++/10/ostream **** 
 419:/usr/include/c++/10/ostream ****       template<typename _ValueT>
 420:/usr/include/c++/10/ostream **** 	__ostream_type&
 421:/usr/include/c++/10/ostream **** 	_M_insert(_ValueT __v);
 422:/usr/include/c++/10/ostream ****     };
AARCH64 GAS  obj/Chapter13_4.s 			page 11


 423:/usr/include/c++/10/ostream **** 
 424:/usr/include/c++/10/ostream ****   /**
 425:/usr/include/c++/10/ostream ****    *  @brief  Performs setup work for output streams.
 426:/usr/include/c++/10/ostream ****    *
 427:/usr/include/c++/10/ostream ****    *  Objects of this class are created before all of the standard
 428:/usr/include/c++/10/ostream ****    *  inserters are run.  It is responsible for <em>exception-safe prefix and
 429:/usr/include/c++/10/ostream ****    *  suffix operations</em>.
 430:/usr/include/c++/10/ostream ****   */
 431:/usr/include/c++/10/ostream ****   template <typename _CharT, typename _Traits>
 432:/usr/include/c++/10/ostream ****     class basic_ostream<_CharT, _Traits>::sentry
 433:/usr/include/c++/10/ostream ****     {
 434:/usr/include/c++/10/ostream ****       // Data Members.
 435:/usr/include/c++/10/ostream ****       bool 				_M_ok;
 436:/usr/include/c++/10/ostream ****       basic_ostream<_CharT, _Traits>& 	_M_os;
 437:/usr/include/c++/10/ostream **** 
 438:/usr/include/c++/10/ostream ****     public:
 439:/usr/include/c++/10/ostream ****       /**
 440:/usr/include/c++/10/ostream ****        *  @brief  The constructor performs preparatory work.
 441:/usr/include/c++/10/ostream ****        *  @param  __os  The output stream to guard.
 442:/usr/include/c++/10/ostream ****        *
 443:/usr/include/c++/10/ostream ****        *  If the stream state is good (@a __os.good() is true), then if the
 444:/usr/include/c++/10/ostream ****        *  stream is tied to another output stream, @c is.tie()->flush()
 445:/usr/include/c++/10/ostream ****        *  is called to synchronize the output sequences.
 446:/usr/include/c++/10/ostream ****        *
 447:/usr/include/c++/10/ostream ****        *  If the stream state is still good, then the sentry state becomes
 448:/usr/include/c++/10/ostream ****        *  true (@a okay).
 449:/usr/include/c++/10/ostream ****       */
 450:/usr/include/c++/10/ostream ****       explicit
 451:/usr/include/c++/10/ostream ****       sentry(basic_ostream<_CharT, _Traits>& __os);
 452:/usr/include/c++/10/ostream **** 
 453:/usr/include/c++/10/ostream **** #pragma GCC diagnostic push
 454:/usr/include/c++/10/ostream **** #pragma GCC diagnostic ignored "-Wdeprecated-declarations"
 455:/usr/include/c++/10/ostream ****       /**
 456:/usr/include/c++/10/ostream ****        *  @brief  Possibly flushes the stream.
 457:/usr/include/c++/10/ostream ****        *
 458:/usr/include/c++/10/ostream ****        *  If @c ios_base::unitbuf is set in @c os.flags(), and
 459:/usr/include/c++/10/ostream ****        *  @c std::uncaught_exception() is true, the sentry destructor calls
 460:/usr/include/c++/10/ostream ****        *  @c flush() on the output stream.
 461:/usr/include/c++/10/ostream ****       */
 462:/usr/include/c++/10/ostream ****       ~sentry()
 463:/usr/include/c++/10/ostream ****       {
 464:/usr/include/c++/10/ostream **** 	// XXX MT
 465:/usr/include/c++/10/ostream **** 	if (bool(_M_os.flags() & ios_base::unitbuf) && !uncaught_exception())
 466:/usr/include/c++/10/ostream **** 	  {
 467:/usr/include/c++/10/ostream **** 	    // Can't call flush directly or else will get into recursive lock.
 468:/usr/include/c++/10/ostream **** 	    if (_M_os.rdbuf() && _M_os.rdbuf()->pubsync() == -1)
 469:/usr/include/c++/10/ostream **** 	      _M_os.setstate(ios_base::badbit);
 470:/usr/include/c++/10/ostream **** 	  }
 471:/usr/include/c++/10/ostream ****       }
 472:/usr/include/c++/10/ostream **** #pragma GCC diagnostic pop
 473:/usr/include/c++/10/ostream **** 
 474:/usr/include/c++/10/ostream ****       /**
 475:/usr/include/c++/10/ostream ****        *  @brief  Quick status checking.
 476:/usr/include/c++/10/ostream ****        *  @return  The sentry state.
 477:/usr/include/c++/10/ostream ****        *
 478:/usr/include/c++/10/ostream ****        *  For ease of use, sentries may be converted to booleans.  The
 479:/usr/include/c++/10/ostream ****        *  return value is that of the sentry state (true == okay).
AARCH64 GAS  obj/Chapter13_4.s 			page 12


 480:/usr/include/c++/10/ostream ****       */
 481:/usr/include/c++/10/ostream **** #if __cplusplus >= 201103L
 482:/usr/include/c++/10/ostream ****       explicit
 483:/usr/include/c++/10/ostream **** #endif
 484:/usr/include/c++/10/ostream ****       operator bool() const
 485:/usr/include/c++/10/ostream ****       { return _M_ok; }
 486:/usr/include/c++/10/ostream ****     };
 487:/usr/include/c++/10/ostream **** 
 488:/usr/include/c++/10/ostream ****   //@{
 489:/usr/include/c++/10/ostream ****   /**
 490:/usr/include/c++/10/ostream ****    *  @brief  Character inserters
 491:/usr/include/c++/10/ostream ****    *  @param  __out  An output stream.
 492:/usr/include/c++/10/ostream ****    *  @param  __c  A character.
 493:/usr/include/c++/10/ostream ****    *  @return  out
 494:/usr/include/c++/10/ostream ****    *
 495:/usr/include/c++/10/ostream ****    *  Behaves like one of the formatted arithmetic inserters described in
 496:/usr/include/c++/10/ostream ****    *  std::basic_ostream.  After constructing a sentry object with good
 497:/usr/include/c++/10/ostream ****    *  status, this function inserts a single character and any required
 498:/usr/include/c++/10/ostream ****    *  padding (as determined by [22.2.2.2.2]).  @c __out.width(0) is then
 499:/usr/include/c++/10/ostream ****    *  called.
 500:/usr/include/c++/10/ostream ****    *
 501:/usr/include/c++/10/ostream ****    *  If @p __c is of type @c char and the character type of the stream is not
 502:/usr/include/c++/10/ostream ****    *  @c char, the character is widened before insertion.
 503:/usr/include/c++/10/ostream ****   */
 504:/usr/include/c++/10/ostream ****   template<typename _CharT, typename _Traits>
 505:/usr/include/c++/10/ostream ****     inline basic_ostream<_CharT, _Traits>&
 506:/usr/include/c++/10/ostream ****     operator<<(basic_ostream<_CharT, _Traits>& __out, _CharT __c)
 507:/usr/include/c++/10/ostream ****     { return __ostream_insert(__out, &__c, 1); }
 508:/usr/include/c++/10/ostream **** 
 509:/usr/include/c++/10/ostream ****   template<typename _CharT, typename _Traits>
 510:/usr/include/c++/10/ostream ****     inline basic_ostream<_CharT, _Traits>&
 511:/usr/include/c++/10/ostream ****     operator<<(basic_ostream<_CharT, _Traits>& __out, char __c)
 512:/usr/include/c++/10/ostream ****     { return (__out << __out.widen(__c)); }
 513:/usr/include/c++/10/ostream **** 
 514:/usr/include/c++/10/ostream ****   // Specialization
 515:/usr/include/c++/10/ostream ****   template<typename _Traits>
 516:/usr/include/c++/10/ostream ****     inline basic_ostream<char, _Traits>&
 517:/usr/include/c++/10/ostream ****     operator<<(basic_ostream<char, _Traits>& __out, char __c)
 518:/usr/include/c++/10/ostream ****     { return __ostream_insert(__out, &__c, 1); }
 519:/usr/include/c++/10/ostream **** 
 520:/usr/include/c++/10/ostream ****   // Signed and unsigned
 521:/usr/include/c++/10/ostream ****   template<typename _Traits>
 522:/usr/include/c++/10/ostream ****     inline basic_ostream<char, _Traits>&
 523:/usr/include/c++/10/ostream ****     operator<<(basic_ostream<char, _Traits>& __out, signed char __c)
 524:/usr/include/c++/10/ostream ****     { return (__out << static_cast<char>(__c)); }
 525:/usr/include/c++/10/ostream **** 
 526:/usr/include/c++/10/ostream ****   template<typename _Traits>
 527:/usr/include/c++/10/ostream ****     inline basic_ostream<char, _Traits>&
 528:/usr/include/c++/10/ostream ****     operator<<(basic_ostream<char, _Traits>& __out, unsigned char __c)
 529:/usr/include/c++/10/ostream ****     { return (__out << static_cast<char>(__c)); }
 530:/usr/include/c++/10/ostream **** 
 531:/usr/include/c++/10/ostream **** #if __cplusplus > 201703L
 532:/usr/include/c++/10/ostream ****   // The following deleted overloads prevent formatting character values as
 533:/usr/include/c++/10/ostream ****   // numeric values.
 534:/usr/include/c++/10/ostream **** 
 535:/usr/include/c++/10/ostream **** #ifdef _GLIBCXX_USE_WCHAR_T
 536:/usr/include/c++/10/ostream ****   template<typename _Traits>
AARCH64 GAS  obj/Chapter13_4.s 			page 13


 537:/usr/include/c++/10/ostream ****     basic_ostream<char, _Traits>&
 538:/usr/include/c++/10/ostream ****     operator<<(basic_ostream<char, _Traits>&, wchar_t) = delete;
 539:/usr/include/c++/10/ostream **** #endif // _GLIBCXX_USE_WCHAR_T
 540:/usr/include/c++/10/ostream **** 
 541:/usr/include/c++/10/ostream **** #ifdef _GLIBCXX_USE_CHAR8_T
 542:/usr/include/c++/10/ostream ****   template<typename _Traits>
 543:/usr/include/c++/10/ostream ****     basic_ostream<char, _Traits>&
 544:/usr/include/c++/10/ostream ****     operator<<(basic_ostream<char, _Traits>&, char8_t) = delete;
 545:/usr/include/c++/10/ostream **** #endif
 546:/usr/include/c++/10/ostream **** 
 547:/usr/include/c++/10/ostream ****   template<typename _Traits>
 548:/usr/include/c++/10/ostream ****     basic_ostream<char, _Traits>&
 549:/usr/include/c++/10/ostream ****     operator<<(basic_ostream<char, _Traits>&, char16_t) = delete;
 550:/usr/include/c++/10/ostream **** 
 551:/usr/include/c++/10/ostream ****   template<typename _Traits>
 552:/usr/include/c++/10/ostream ****     basic_ostream<char, _Traits>&
 553:/usr/include/c++/10/ostream ****     operator<<(basic_ostream<char, _Traits>&, char32_t) = delete;
 554:/usr/include/c++/10/ostream **** 
 555:/usr/include/c++/10/ostream **** #ifdef _GLIBCXX_USE_WCHAR_T
 556:/usr/include/c++/10/ostream **** #ifdef _GLIBCXX_USE_CHAR8_T
 557:/usr/include/c++/10/ostream ****   template<typename _Traits>
 558:/usr/include/c++/10/ostream ****     basic_ostream<wchar_t, _Traits>&
 559:/usr/include/c++/10/ostream ****     operator<<(basic_ostream<wchar_t, _Traits>&, char8_t) = delete;
 560:/usr/include/c++/10/ostream **** #endif // _GLIBCXX_USE_CHAR8_T
 561:/usr/include/c++/10/ostream **** 
 562:/usr/include/c++/10/ostream ****   template<typename _Traits>
 563:/usr/include/c++/10/ostream ****     basic_ostream<wchar_t, _Traits>&
 564:/usr/include/c++/10/ostream ****     operator<<(basic_ostream<wchar_t, _Traits>&, char16_t) = delete;
 565:/usr/include/c++/10/ostream **** 
 566:/usr/include/c++/10/ostream ****   template<typename _Traits>
 567:/usr/include/c++/10/ostream ****     basic_ostream<wchar_t, _Traits>&
 568:/usr/include/c++/10/ostream ****     operator<<(basic_ostream<wchar_t, _Traits>&, char32_t) = delete;
 569:/usr/include/c++/10/ostream **** #endif // _GLIBCXX_USE_WCHAR_T
 570:/usr/include/c++/10/ostream **** #endif // C++20
 571:/usr/include/c++/10/ostream ****   //@}
 572:/usr/include/c++/10/ostream **** 
 573:/usr/include/c++/10/ostream ****   //@{
 574:/usr/include/c++/10/ostream ****   /**
 575:/usr/include/c++/10/ostream ****    *  @brief  String inserters
 576:/usr/include/c++/10/ostream ****    *  @param  __out  An output stream.
 577:/usr/include/c++/10/ostream ****    *  @param  __s  A character string.
 578:/usr/include/c++/10/ostream ****    *  @return  out
 579:/usr/include/c++/10/ostream ****    *  @pre  @p __s must be a non-NULL pointer
 580:/usr/include/c++/10/ostream ****    *
 581:/usr/include/c++/10/ostream ****    *  Behaves like one of the formatted arithmetic inserters described in
 582:/usr/include/c++/10/ostream ****    *  std::basic_ostream.  After constructing a sentry object with good
 583:/usr/include/c++/10/ostream ****    *  status, this function inserts @c traits::length(__s) characters starting
 584:/usr/include/c++/10/ostream ****    *  at @p __s, widened if necessary, followed by any required padding (as
 585:/usr/include/c++/10/ostream ****    *  determined by [22.2.2.2.2]).  @c __out.width(0) is then called.
 586:/usr/include/c++/10/ostream ****   */
 587:/usr/include/c++/10/ostream ****   template<typename _CharT, typename _Traits>
 588:/usr/include/c++/10/ostream ****     inline basic_ostream<_CharT, _Traits>&
 589:/usr/include/c++/10/ostream ****     operator<<(basic_ostream<_CharT, _Traits>& __out, const _CharT* __s)
 590:/usr/include/c++/10/ostream ****     {
 591:/usr/include/c++/10/ostream ****       if (!__s)
 592:/usr/include/c++/10/ostream **** 	__out.setstate(ios_base::badbit);
 593:/usr/include/c++/10/ostream ****       else
AARCH64 GAS  obj/Chapter13_4.s 			page 14


 594:/usr/include/c++/10/ostream **** 	__ostream_insert(__out, __s,
 595:/usr/include/c++/10/ostream **** 			 static_cast<streamsize>(_Traits::length(__s)));
 596:/usr/include/c++/10/ostream ****       return __out;
 597:/usr/include/c++/10/ostream ****     }
 598:/usr/include/c++/10/ostream **** 
 599:/usr/include/c++/10/ostream ****   template<typename _CharT, typename _Traits>
 600:/usr/include/c++/10/ostream ****     basic_ostream<_CharT, _Traits> &
 601:/usr/include/c++/10/ostream ****     operator<<(basic_ostream<_CharT, _Traits>& __out, const char* __s);
 602:/usr/include/c++/10/ostream **** 
 603:/usr/include/c++/10/ostream ****   // Partial specializations
 604:/usr/include/c++/10/ostream ****   template<typename _Traits>
 605:/usr/include/c++/10/ostream ****     inline basic_ostream<char, _Traits>&
 606:/usr/include/c++/10/ostream ****     operator<<(basic_ostream<char, _Traits>& __out, const char* __s)
 607:/usr/include/c++/10/ostream ****     {
 608:/usr/include/c++/10/ostream ****       if (!__s)
 609:/usr/include/c++/10/ostream **** 	__out.setstate(ios_base::badbit);
 610:/usr/include/c++/10/ostream ****       else
 611:/usr/include/c++/10/ostream **** 	__ostream_insert(__out, __s,
  68              		.loc 2 611 18 view .LVU5
  69 000c 02000090 		adrp	x2, :got:_ZSt4cout
  70              	.LBE128:
  71              	.LBE127:
  72              	.LBE126:
  73              	.LBE125:
  74              	.LBE124:
  10:Chapter13_4.cpp **** 	const char* ops[]={"EQ","NE","GT","LT","GE","LE","U0"};
  75              		.loc 1 10 31 view .LVU6
  76 0010 FD030091 		mov	x29, sp
  11:Chapter13_4.cpp **** 	size_t n_ops = sizeof(ops)/sizeof(float);
  77              		.loc 1 11 14 view .LVU7
  78 0014 00000090 		adrp	x0, .LANCHOR0
  79              	.LVL2:
  10:Chapter13_4.cpp **** 	const char* ops[]={"EQ","NE","GT","LT","GE","LE","U0"};
  80              		.loc 1 10 31 view .LVU8
  11:Chapter13_4.cpp **** 	size_t n_ops = sizeof(ops)/sizeof(float);
  81              		.loc 1 11 14 view .LVU9
  82 0018 00000091 		add	x0, x0, :lo12:.LANCHOR0
  10:Chapter13_4.cpp **** 	const char* ops[]={"EQ","NE","GT","LT","GE","LE","U0"};
  83              		.loc 1 10 31 view .LVU10
  84 001c F76303A9 		stp	x23, x24, [sp, 48]
  85              		.cfi_offset 23, -208
  86              		.cfi_offset 24, -200
  11:Chapter13_4.cpp **** 	size_t n_ops = sizeof(ops)/sizeof(float);
  87              		.loc 1 11 14 view .LVU11
  88 0020 F7230391 		add	x23, sp, 200
  89              	.LBB209:
  90              	.LBB200:
  91              	.LBB176:
  92              	.LBB143:
  93              	.LBB140:
  94              		.loc 2 611 18 view .LVU12
  95 0024 580040F9 		ldr	x24, [x2, #:got_lo12:_ZSt4cout]
  96              	.LBE140:
  97              	.LBE143:
  98              	.LBE176:
  99              	.LBE200:
 100              	.LBE209:
AARCH64 GAS  obj/Chapter13_4.s 			page 15


  16:Chapter13_4.cpp **** 	float f_b[]{777.45,100.05,0.000011,44546738903.23423,-88.324,69.0};
  17:Chapter13_4.cpp **** 	f_a[5] = numeric_limits<float>::quiet_NaN();
 101              		.loc 1 17 9 view .LVU13
 102 0028 02F8AF52 		mov	w2, 2143289344
  15:Chapter13_4.cpp **** 	float f_b[]{777.45,100.05,0.000011,44546738903.23423,-88.324,69.0};
 103              		.loc 1 15 8 view .LVU14
 104 002c 241440A9 		ldp	x4, x5, [x1]
 105              		.loc 1 17 9 view .LVU15
 106 0030 4000271E 		fmov	s0, w2
  10:Chapter13_4.cpp **** 	const char* ops[]={"EQ","NE","GT","LT","GE","LE","U0"};
 107              		.loc 1 10 31 view .LVU16
 108 0034 F35301A9 		stp	x19, x20, [sp, 16]
  15:Chapter13_4.cpp **** 	float f_b[]{777.45,100.05,0.000011,44546738903.23423,-88.324,69.0};
 109              		.loc 1 15 8 view .LVU17
 110 0038 EA630291 		add	x10, sp, 152
  16:Chapter13_4.cpp **** 	float f_b[]{777.45,100.05,0.000011,44546738903.23423,-88.324,69.0};
 111              		.loc 1 16 8 view .LVU18
 112 003c EBC30291 		add	x11, sp, 176
  10:Chapter13_4.cpp **** 	const char* ops[]={"EQ","NE","GT","LT","GE","LE","U0"};
 113              		.loc 1 10 31 view .LVU19
 114 0040 F55B02A9 		stp	x21, x22, [sp, 32]
 115              		.cfi_offset 19, -240
 116              		.cfi_offset 20, -232
 117              		.cfi_offset 21, -224
 118              		.cfi_offset 22, -216
 119 0044 F43F0291 		add	x20, sp, 143
 120 0048 F5430291 		add	x21, sp, 144
 121 004c F96B04A9 		stp	x25, x26, [sp, 64]
 122              		.cfi_offset 25, -192
 123              		.cfi_offset 26, -184
 124              		.loc 1 17 9 view .LVU20
 125 0050 390080D2 		mov	x25, 1
 126 0054 5A018052 		mov	w26, 10
  10:Chapter13_4.cpp **** 	const char* ops[]={"EQ","NE","GT","LT","GE","LE","U0"};
 127              		.loc 1 10 31 view .LVU21
 128 0058 FB7305A9 		stp	x27, x28, [sp, 80]
 129 005c E827066D 		stp	d8, d9, [sp, 96]
 130              		.cfi_offset 27, -176
 131              		.cfi_offset 28, -168
 132              		.cfi_offset 72, -160
 133              		.cfi_offset 73, -152
  15:Chapter13_4.cpp **** 	float f_b[]{777.45,100.05,0.000011,44546738903.23423,-88.324,69.0};
 134              		.loc 1 15 8 view .LVU22
 135 0060 E49709A9 		stp	x4, x5, [sp, 152]
  11:Chapter13_4.cpp **** 	size_t n_ops = sizeof(ops)/sizeof(float);
 136              		.loc 1 11 14 view .LVU23
 137 0064 020C40A9 		ldp	x2, x3, [x0]
  15:Chapter13_4.cpp **** 	float f_b[]{777.45,100.05,0.000011,44546738903.23423,-88.324,69.0};
 138              		.loc 1 15 8 view .LVU24
 139 0068 EB2B07A9 		stp	x11, x10, [sp, 112]
 140 006c 290840F9 		ldr	x9, [x1, 16]
 141 0070 E95700F9 		str	x9, [sp, 168]
  11:Chapter13_4.cpp **** 	size_t n_ops = sizeof(ops)/sizeof(float);
 142              		.loc 1 11 14 view .LVU25
 143 0074 061C41A9 		ldp	x6, x7, [x0, 16]
 144 0078 E61E01A9 		stp	x6, x7, [x23, 16]
  16:Chapter13_4.cpp **** 	f_a[5] = numeric_limits<float>::quiet_NaN();
AARCH64 GAS  obj/Chapter13_4.s 			page 16


 145              		.loc 1 16 8 view .LVU26
 146 007c 249441A9 		ldp	x4, x5, [x1, 24]
 147 0080 E4170BA9 		stp	x4, x5, [sp, 176]
 148 0084 281440F9 		ldr	x8, [x1, 40]
 149 0088 E86300F9 		str	x8, [sp, 192]
  11:Chapter13_4.cpp **** 	size_t n_ops = sizeof(ops)/sizeof(float);
 150              		.loc 1 11 14 view .LVU27
 151 008c E28F0CA9 		stp	x2, x3, [sp, 200]
 152 0090 020C42A9 		ldp	x2, x3, [x0, 32]
 153 0094 011840F9 		ldr	x1, [x0, 48]
 154 0098 E20E02A9 		stp	x2, x3, [x23, 32]
 155 009c E11A00F9 		str	x1, [x23, 48]
  12:Chapter13_4.cpp **** 	bool results[7];
 156              		.loc 1 12 2 is_stmt 1 view .LVU28
 157              	.LVL3:
  13:Chapter13_4.cpp **** 	
 158              		.loc 1 13 2 view .LVU29
  15:Chapter13_4.cpp **** 	float f_b[]{777.45,100.05,0.000011,44546738903.23423,-88.324,69.0};
 159              		.loc 1 15 2 view .LVU30
  16:Chapter13_4.cpp **** 	f_a[5] = numeric_limits<float>::quiet_NaN();
 160              		.loc 1 16 2 view .LVU31
 161              		.loc 1 17 2 view .LVU32
 162              		.loc 1 17 9 is_stmt 0 view .LVU33
 163 00a0 E0AF00BD 		str	s0, [sp, 172]
  18:Chapter13_4.cpp **** 	for(size_t i=0;i<6;i++){
 164              		.loc 1 18 2 is_stmt 1 view .LVU34
 165              	.LVL4:
 166              	.LBB210:
 167              		.loc 1 18 18 view .LVU35
 168 00a4 1F2003D5 		.p2align 3,,7
 169              	.L5:
 170              	.LBB201:
  19:Chapter13_4.cpp **** 		comapareFloat_(f_a[i],f_b[i],results);
 171              		.loc 1 19 3 view .LVU36
 172              		.loc 1 19 17 is_stmt 0 view .LVU37
 173 00a8 E30B47A9 		ldp	x3, x2, [sp, 112]
 174 00ac 21F77ED3 		lsl	x1, x25, 2
 175 00b0 E00315AA 		mov	x0, x21
  20:Chapter13_4.cpp **** 		cout<<"a ="<<f_a[i]<<","<<"b ="<<f_b[i]<<'\n';
 176              		.loc 1 20 44 view .LVU38
 177 00b4 330080D2 		mov	x19, 1
  19:Chapter13_4.cpp **** 		comapareFloat_(f_a[i],f_b[i],results);
 178              		.loc 1 19 17 view .LVU39
 179 00b8 4200018B 		add	x2, x2, x1
 180 00bc 6100018B 		add	x1, x3, x1
 181              	.LBB177:
 182              	.LBB144:
 183              	.LBB145:
 184              		.loc 2 611 18 view .LVU40
 185 00c0 03000090 		adrp	x3, .LC14
 186 00c4 76000091 		add	x22, x3, :lo12:.LC14
 187              	.LBE145:
 188              	.LBE144:
 189              	.LBE177:
  19:Chapter13_4.cpp **** 		comapareFloat_(f_a[i],f_b[i],results);
 190              		.loc 1 19 17 view .LVU41
 191 00c8 28C05FBC 		ldr	s8, [x1, -4]
AARCH64 GAS  obj/Chapter13_4.s 			page 17


 192 00cc 49C05FBC 		ldr	s9, [x2, -4]
 193 00d0 0141201E 		fmov	s1, s8
 194 00d4 2041201E 		fmov	s0, s9
 195 00d8 00000094 		bl	comapareFloat_
 196              	.LVL5:
 197              		.loc 1 20 3 is_stmt 1 view .LVU42
 198              	.LBB178:
 199              	.LBI178:
 606:/usr/include/c++/10/ostream ****     {
 200              		.loc 2 606 5 view .LVU43
 606:/usr/include/c++/10/ostream ****     {
 201              		.loc 2 606 5 is_stmt 0 view .LVU44
 202              	.LBE178:
 203              	.LBE201:
 204              	.LBE210:
 205              		.file 3 "/usr/include/c++/10/bits/char_traits.h"
   1:/usr/include/c++/10/bits/char_traits.h **** // Character Traits for use by standard string and iostream -*- C++ -*-
   2:/usr/include/c++/10/bits/char_traits.h **** 
   3:/usr/include/c++/10/bits/char_traits.h **** // Copyright (C) 1997-2020 Free Software Foundation, Inc.
   4:/usr/include/c++/10/bits/char_traits.h **** //
   5:/usr/include/c++/10/bits/char_traits.h **** // This file is part of the GNU ISO C++ Library.  This library is free
   6:/usr/include/c++/10/bits/char_traits.h **** // software; you can redistribute it and/or modify it under the
   7:/usr/include/c++/10/bits/char_traits.h **** // terms of the GNU General Public License as published by the
   8:/usr/include/c++/10/bits/char_traits.h **** // Free Software Foundation; either version 3, or (at your option)
   9:/usr/include/c++/10/bits/char_traits.h **** // any later version.
  10:/usr/include/c++/10/bits/char_traits.h **** 
  11:/usr/include/c++/10/bits/char_traits.h **** // This library is distributed in the hope that it will be useful,
  12:/usr/include/c++/10/bits/char_traits.h **** // but WITHOUT ANY WARRANTY; without even the implied warranty of
  13:/usr/include/c++/10/bits/char_traits.h **** // MERCHANTABILITY or FITNESS FOR A PARTICULAR PURPOSE.  See the
  14:/usr/include/c++/10/bits/char_traits.h **** // GNU General Public License for more details.
  15:/usr/include/c++/10/bits/char_traits.h **** 
  16:/usr/include/c++/10/bits/char_traits.h **** // Under Section 7 of GPL version 3, you are granted additional
  17:/usr/include/c++/10/bits/char_traits.h **** // permissions described in the GCC Runtime Library Exception, version
  18:/usr/include/c++/10/bits/char_traits.h **** // 3.1, as published by the Free Software Foundation.
  19:/usr/include/c++/10/bits/char_traits.h **** 
  20:/usr/include/c++/10/bits/char_traits.h **** // You should have received a copy of the GNU General Public License and
  21:/usr/include/c++/10/bits/char_traits.h **** // a copy of the GCC Runtime Library Exception along with this program;
  22:/usr/include/c++/10/bits/char_traits.h **** // see the files COPYING3 and COPYING.RUNTIME respectively.  If not, see
  23:/usr/include/c++/10/bits/char_traits.h **** // <http://www.gnu.org/licenses/>.
  24:/usr/include/c++/10/bits/char_traits.h **** 
  25:/usr/include/c++/10/bits/char_traits.h **** /** @file bits/char_traits.h
  26:/usr/include/c++/10/bits/char_traits.h ****  *  This is an internal header file, included by other library headers.
  27:/usr/include/c++/10/bits/char_traits.h ****  *  Do not attempt to use it directly. @headername{string}
  28:/usr/include/c++/10/bits/char_traits.h ****  */
  29:/usr/include/c++/10/bits/char_traits.h **** 
  30:/usr/include/c++/10/bits/char_traits.h **** //
  31:/usr/include/c++/10/bits/char_traits.h **** // ISO C++ 14882: 21  Strings library
  32:/usr/include/c++/10/bits/char_traits.h **** //
  33:/usr/include/c++/10/bits/char_traits.h **** 
  34:/usr/include/c++/10/bits/char_traits.h **** #ifndef _CHAR_TRAITS_H
  35:/usr/include/c++/10/bits/char_traits.h **** #define _CHAR_TRAITS_H 1
  36:/usr/include/c++/10/bits/char_traits.h **** 
  37:/usr/include/c++/10/bits/char_traits.h **** #pragma GCC system_header
  38:/usr/include/c++/10/bits/char_traits.h **** 
  39:/usr/include/c++/10/bits/char_traits.h **** #include <bits/stl_algobase.h>  // std::copy, std::fill_n
  40:/usr/include/c++/10/bits/char_traits.h **** #include <bits/postypes.h>      // For streampos
  41:/usr/include/c++/10/bits/char_traits.h **** #include <cwchar>               // For WEOF, wmemmove, wmemset, etc.
AARCH64 GAS  obj/Chapter13_4.s 			page 18


  42:/usr/include/c++/10/bits/char_traits.h **** #if __cplusplus > 201703L
  43:/usr/include/c++/10/bits/char_traits.h **** # include <compare>
  44:/usr/include/c++/10/bits/char_traits.h **** #endif
  45:/usr/include/c++/10/bits/char_traits.h **** 
  46:/usr/include/c++/10/bits/char_traits.h **** #ifndef _GLIBCXX_ALWAYS_INLINE
  47:/usr/include/c++/10/bits/char_traits.h **** # define _GLIBCXX_ALWAYS_INLINE inline __attribute__((__always_inline__))
  48:/usr/include/c++/10/bits/char_traits.h **** #endif
  49:/usr/include/c++/10/bits/char_traits.h **** 
  50:/usr/include/c++/10/bits/char_traits.h **** namespace __gnu_cxx _GLIBCXX_VISIBILITY(default)
  51:/usr/include/c++/10/bits/char_traits.h **** {
  52:/usr/include/c++/10/bits/char_traits.h **** _GLIBCXX_BEGIN_NAMESPACE_VERSION
  53:/usr/include/c++/10/bits/char_traits.h **** 
  54:/usr/include/c++/10/bits/char_traits.h ****   /**
  55:/usr/include/c++/10/bits/char_traits.h ****    *  @brief  Mapping from character type to associated types.
  56:/usr/include/c++/10/bits/char_traits.h ****    *
  57:/usr/include/c++/10/bits/char_traits.h ****    *  @note This is an implementation class for the generic version
  58:/usr/include/c++/10/bits/char_traits.h ****    *  of char_traits.  It defines int_type, off_type, pos_type, and
  59:/usr/include/c++/10/bits/char_traits.h ****    *  state_type.  By default these are unsigned long, streamoff,
  60:/usr/include/c++/10/bits/char_traits.h ****    *  streampos, and mbstate_t.  Users who need a different set of
  61:/usr/include/c++/10/bits/char_traits.h ****    *  types, but who don't need to change the definitions of any function
  62:/usr/include/c++/10/bits/char_traits.h ****    *  defined in char_traits, can specialize __gnu_cxx::_Char_types
  63:/usr/include/c++/10/bits/char_traits.h ****    *  while leaving __gnu_cxx::char_traits alone. */
  64:/usr/include/c++/10/bits/char_traits.h ****   template<typename _CharT>
  65:/usr/include/c++/10/bits/char_traits.h ****     struct _Char_types
  66:/usr/include/c++/10/bits/char_traits.h ****     {
  67:/usr/include/c++/10/bits/char_traits.h ****       typedef unsigned long   int_type;
  68:/usr/include/c++/10/bits/char_traits.h ****       typedef std::streampos  pos_type;
  69:/usr/include/c++/10/bits/char_traits.h ****       typedef std::streamoff  off_type;
  70:/usr/include/c++/10/bits/char_traits.h ****       typedef std::mbstate_t  state_type;
  71:/usr/include/c++/10/bits/char_traits.h ****     };
  72:/usr/include/c++/10/bits/char_traits.h **** 
  73:/usr/include/c++/10/bits/char_traits.h **** 
  74:/usr/include/c++/10/bits/char_traits.h ****   /**
  75:/usr/include/c++/10/bits/char_traits.h ****    *  @brief  Base class used to implement std::char_traits.
  76:/usr/include/c++/10/bits/char_traits.h ****    *
  77:/usr/include/c++/10/bits/char_traits.h ****    *  @note For any given actual character type, this definition is
  78:/usr/include/c++/10/bits/char_traits.h ****    *  probably wrong.  (Most of the member functions are likely to be
  79:/usr/include/c++/10/bits/char_traits.h ****    *  right, but the int_type and state_type typedefs, and the eof()
  80:/usr/include/c++/10/bits/char_traits.h ****    *  member function, are likely to be wrong.)  The reason this class
  81:/usr/include/c++/10/bits/char_traits.h ****    *  exists is so users can specialize it.  Classes in namespace std
  82:/usr/include/c++/10/bits/char_traits.h ****    *  may not be specialized for fundamental types, but classes in
  83:/usr/include/c++/10/bits/char_traits.h ****    *  namespace __gnu_cxx may be.
  84:/usr/include/c++/10/bits/char_traits.h ****    *
  85:/usr/include/c++/10/bits/char_traits.h ****    *  See https://gcc.gnu.org/onlinedocs/libstdc++/manual/strings.html#strings.string.character_typ
  86:/usr/include/c++/10/bits/char_traits.h ****    *  for advice on how to make use of this class for @a unusual character
  87:/usr/include/c++/10/bits/char_traits.h ****    *  types. Also, check out include/ext/pod_char_traits.h.  
  88:/usr/include/c++/10/bits/char_traits.h ****    */
  89:/usr/include/c++/10/bits/char_traits.h ****   template<typename _CharT>
  90:/usr/include/c++/10/bits/char_traits.h ****     struct char_traits
  91:/usr/include/c++/10/bits/char_traits.h ****     {
  92:/usr/include/c++/10/bits/char_traits.h ****       typedef _CharT                                    char_type;
  93:/usr/include/c++/10/bits/char_traits.h ****       typedef typename _Char_types<_CharT>::int_type    int_type;
  94:/usr/include/c++/10/bits/char_traits.h ****       typedef typename _Char_types<_CharT>::pos_type    pos_type;
  95:/usr/include/c++/10/bits/char_traits.h ****       typedef typename _Char_types<_CharT>::off_type    off_type;
  96:/usr/include/c++/10/bits/char_traits.h ****       typedef typename _Char_types<_CharT>::state_type  state_type;
  97:/usr/include/c++/10/bits/char_traits.h **** #if __cpp_lib_three_way_comparison
  98:/usr/include/c++/10/bits/char_traits.h ****       using comparison_category = std::strong_ordering;
AARCH64 GAS  obj/Chapter13_4.s 			page 19


  99:/usr/include/c++/10/bits/char_traits.h **** #endif
 100:/usr/include/c++/10/bits/char_traits.h **** 
 101:/usr/include/c++/10/bits/char_traits.h ****       static _GLIBCXX14_CONSTEXPR void
 102:/usr/include/c++/10/bits/char_traits.h ****       assign(char_type& __c1, const char_type& __c2)
 103:/usr/include/c++/10/bits/char_traits.h ****       { __c1 = __c2; }
 104:/usr/include/c++/10/bits/char_traits.h **** 
 105:/usr/include/c++/10/bits/char_traits.h ****       static _GLIBCXX_CONSTEXPR bool
 106:/usr/include/c++/10/bits/char_traits.h ****       eq(const char_type& __c1, const char_type& __c2)
 107:/usr/include/c++/10/bits/char_traits.h ****       { return __c1 == __c2; }
 108:/usr/include/c++/10/bits/char_traits.h **** 
 109:/usr/include/c++/10/bits/char_traits.h ****       static _GLIBCXX_CONSTEXPR bool
 110:/usr/include/c++/10/bits/char_traits.h ****       lt(const char_type& __c1, const char_type& __c2)
 111:/usr/include/c++/10/bits/char_traits.h ****       { return __c1 < __c2; }
 112:/usr/include/c++/10/bits/char_traits.h **** 
 113:/usr/include/c++/10/bits/char_traits.h ****       static _GLIBCXX14_CONSTEXPR int
 114:/usr/include/c++/10/bits/char_traits.h ****       compare(const char_type* __s1, const char_type* __s2, std::size_t __n);
 115:/usr/include/c++/10/bits/char_traits.h **** 
 116:/usr/include/c++/10/bits/char_traits.h ****       static _GLIBCXX14_CONSTEXPR std::size_t
 117:/usr/include/c++/10/bits/char_traits.h ****       length(const char_type* __s);
 118:/usr/include/c++/10/bits/char_traits.h **** 
 119:/usr/include/c++/10/bits/char_traits.h ****       static _GLIBCXX14_CONSTEXPR const char_type*
 120:/usr/include/c++/10/bits/char_traits.h ****       find(const char_type* __s, std::size_t __n, const char_type& __a);
 121:/usr/include/c++/10/bits/char_traits.h **** 
 122:/usr/include/c++/10/bits/char_traits.h ****       static _GLIBCXX20_CONSTEXPR char_type*
 123:/usr/include/c++/10/bits/char_traits.h ****       move(char_type* __s1, const char_type* __s2, std::size_t __n);
 124:/usr/include/c++/10/bits/char_traits.h **** 
 125:/usr/include/c++/10/bits/char_traits.h ****       static _GLIBCXX20_CONSTEXPR char_type*
 126:/usr/include/c++/10/bits/char_traits.h ****       copy(char_type* __s1, const char_type* __s2, std::size_t __n);
 127:/usr/include/c++/10/bits/char_traits.h **** 
 128:/usr/include/c++/10/bits/char_traits.h ****       static _GLIBCXX20_CONSTEXPR char_type*
 129:/usr/include/c++/10/bits/char_traits.h ****       assign(char_type* __s, std::size_t __n, char_type __a);
 130:/usr/include/c++/10/bits/char_traits.h **** 
 131:/usr/include/c++/10/bits/char_traits.h ****       static _GLIBCXX_CONSTEXPR char_type
 132:/usr/include/c++/10/bits/char_traits.h ****       to_char_type(const int_type& __c)
 133:/usr/include/c++/10/bits/char_traits.h ****       { return static_cast<char_type>(__c); }
 134:/usr/include/c++/10/bits/char_traits.h **** 
 135:/usr/include/c++/10/bits/char_traits.h ****       static _GLIBCXX_CONSTEXPR int_type
 136:/usr/include/c++/10/bits/char_traits.h ****       to_int_type(const char_type& __c)
 137:/usr/include/c++/10/bits/char_traits.h ****       { return static_cast<int_type>(__c); }
 138:/usr/include/c++/10/bits/char_traits.h **** 
 139:/usr/include/c++/10/bits/char_traits.h ****       static _GLIBCXX_CONSTEXPR bool
 140:/usr/include/c++/10/bits/char_traits.h ****       eq_int_type(const int_type& __c1, const int_type& __c2)
 141:/usr/include/c++/10/bits/char_traits.h ****       { return __c1 == __c2; }
 142:/usr/include/c++/10/bits/char_traits.h **** 
 143:/usr/include/c++/10/bits/char_traits.h ****       static _GLIBCXX_CONSTEXPR int_type
 144:/usr/include/c++/10/bits/char_traits.h ****       eof()
 145:/usr/include/c++/10/bits/char_traits.h ****       { return static_cast<int_type>(_GLIBCXX_STDIO_EOF); }
 146:/usr/include/c++/10/bits/char_traits.h **** 
 147:/usr/include/c++/10/bits/char_traits.h ****       static _GLIBCXX_CONSTEXPR int_type
 148:/usr/include/c++/10/bits/char_traits.h ****       not_eof(const int_type& __c)
 149:/usr/include/c++/10/bits/char_traits.h ****       { return !eq_int_type(__c, eof()) ? __c : to_int_type(char_type()); }
 150:/usr/include/c++/10/bits/char_traits.h ****     };
 151:/usr/include/c++/10/bits/char_traits.h **** 
 152:/usr/include/c++/10/bits/char_traits.h ****   template<typename _CharT>
 153:/usr/include/c++/10/bits/char_traits.h ****     _GLIBCXX14_CONSTEXPR int
 154:/usr/include/c++/10/bits/char_traits.h ****     char_traits<_CharT>::
 155:/usr/include/c++/10/bits/char_traits.h ****     compare(const char_type* __s1, const char_type* __s2, std::size_t __n)
AARCH64 GAS  obj/Chapter13_4.s 			page 20


 156:/usr/include/c++/10/bits/char_traits.h ****     {
 157:/usr/include/c++/10/bits/char_traits.h ****       for (std::size_t __i = 0; __i < __n; ++__i)
 158:/usr/include/c++/10/bits/char_traits.h **** 	if (lt(__s1[__i], __s2[__i]))
 159:/usr/include/c++/10/bits/char_traits.h **** 	  return -1;
 160:/usr/include/c++/10/bits/char_traits.h **** 	else if (lt(__s2[__i], __s1[__i]))
 161:/usr/include/c++/10/bits/char_traits.h **** 	  return 1;
 162:/usr/include/c++/10/bits/char_traits.h ****       return 0;
 163:/usr/include/c++/10/bits/char_traits.h ****     }
 164:/usr/include/c++/10/bits/char_traits.h **** 
 165:/usr/include/c++/10/bits/char_traits.h ****   template<typename _CharT>
 166:/usr/include/c++/10/bits/char_traits.h ****     _GLIBCXX14_CONSTEXPR std::size_t
 167:/usr/include/c++/10/bits/char_traits.h ****     char_traits<_CharT>::
 168:/usr/include/c++/10/bits/char_traits.h ****     length(const char_type* __p)
 169:/usr/include/c++/10/bits/char_traits.h ****     {
 170:/usr/include/c++/10/bits/char_traits.h ****       std::size_t __i = 0;
 171:/usr/include/c++/10/bits/char_traits.h ****       while (!eq(__p[__i], char_type()))
 172:/usr/include/c++/10/bits/char_traits.h ****         ++__i;
 173:/usr/include/c++/10/bits/char_traits.h ****       return __i;
 174:/usr/include/c++/10/bits/char_traits.h ****     }
 175:/usr/include/c++/10/bits/char_traits.h **** 
 176:/usr/include/c++/10/bits/char_traits.h ****   template<typename _CharT>
 177:/usr/include/c++/10/bits/char_traits.h ****     _GLIBCXX14_CONSTEXPR const typename char_traits<_CharT>::char_type*
 178:/usr/include/c++/10/bits/char_traits.h ****     char_traits<_CharT>::
 179:/usr/include/c++/10/bits/char_traits.h ****     find(const char_type* __s, std::size_t __n, const char_type& __a)
 180:/usr/include/c++/10/bits/char_traits.h ****     {
 181:/usr/include/c++/10/bits/char_traits.h ****       for (std::size_t __i = 0; __i < __n; ++__i)
 182:/usr/include/c++/10/bits/char_traits.h ****         if (eq(__s[__i], __a))
 183:/usr/include/c++/10/bits/char_traits.h ****           return __s + __i;
 184:/usr/include/c++/10/bits/char_traits.h ****       return 0;
 185:/usr/include/c++/10/bits/char_traits.h ****     }
 186:/usr/include/c++/10/bits/char_traits.h **** 
 187:/usr/include/c++/10/bits/char_traits.h ****   template<typename _CharT>
 188:/usr/include/c++/10/bits/char_traits.h ****     _GLIBCXX20_CONSTEXPR
 189:/usr/include/c++/10/bits/char_traits.h ****     typename char_traits<_CharT>::char_type*
 190:/usr/include/c++/10/bits/char_traits.h ****     char_traits<_CharT>::
 191:/usr/include/c++/10/bits/char_traits.h ****     move(char_type* __s1, const char_type* __s2, std::size_t __n)
 192:/usr/include/c++/10/bits/char_traits.h ****     {
 193:/usr/include/c++/10/bits/char_traits.h ****       if (__n == 0)
 194:/usr/include/c++/10/bits/char_traits.h **** 	return __s1;
 195:/usr/include/c++/10/bits/char_traits.h **** #ifdef __cpp_lib_is_constant_evaluated
 196:/usr/include/c++/10/bits/char_traits.h ****       if (std::is_constant_evaluated())
 197:/usr/include/c++/10/bits/char_traits.h **** 	{
 198:/usr/include/c++/10/bits/char_traits.h **** 	  if (__s1 > __s2 && __s1 < __s2 + __n)
 199:/usr/include/c++/10/bits/char_traits.h **** 	    std::copy_backward(__s2, __s2 + __n, __s1);
 200:/usr/include/c++/10/bits/char_traits.h **** 	  else
 201:/usr/include/c++/10/bits/char_traits.h **** 	    std::copy(__s2, __s2 + __n, __s1);
 202:/usr/include/c++/10/bits/char_traits.h **** 	  return __s1;
 203:/usr/include/c++/10/bits/char_traits.h **** 	}
 204:/usr/include/c++/10/bits/char_traits.h **** #endif
 205:/usr/include/c++/10/bits/char_traits.h ****       return static_cast<_CharT*>(__builtin_memmove(__s1, __s2,
 206:/usr/include/c++/10/bits/char_traits.h **** 						    __n * sizeof(char_type)));
 207:/usr/include/c++/10/bits/char_traits.h ****     }
 208:/usr/include/c++/10/bits/char_traits.h **** 
 209:/usr/include/c++/10/bits/char_traits.h ****   template<typename _CharT>
 210:/usr/include/c++/10/bits/char_traits.h ****     _GLIBCXX20_CONSTEXPR
 211:/usr/include/c++/10/bits/char_traits.h ****     typename char_traits<_CharT>::char_type*
 212:/usr/include/c++/10/bits/char_traits.h ****     char_traits<_CharT>::
AARCH64 GAS  obj/Chapter13_4.s 			page 21


 213:/usr/include/c++/10/bits/char_traits.h ****     copy(char_type* __s1, const char_type* __s2, std::size_t __n)
 214:/usr/include/c++/10/bits/char_traits.h ****     {
 215:/usr/include/c++/10/bits/char_traits.h ****       // NB: Inline std::copy so no recursive dependencies.
 216:/usr/include/c++/10/bits/char_traits.h ****       std::copy(__s2, __s2 + __n, __s1);
 217:/usr/include/c++/10/bits/char_traits.h ****       return __s1;
 218:/usr/include/c++/10/bits/char_traits.h ****     }
 219:/usr/include/c++/10/bits/char_traits.h **** 
 220:/usr/include/c++/10/bits/char_traits.h ****   template<typename _CharT>
 221:/usr/include/c++/10/bits/char_traits.h ****     _GLIBCXX20_CONSTEXPR
 222:/usr/include/c++/10/bits/char_traits.h ****     typename char_traits<_CharT>::char_type*
 223:/usr/include/c++/10/bits/char_traits.h ****     char_traits<_CharT>::
 224:/usr/include/c++/10/bits/char_traits.h ****     assign(char_type* __s, std::size_t __n, char_type __a)
 225:/usr/include/c++/10/bits/char_traits.h ****     {
 226:/usr/include/c++/10/bits/char_traits.h ****       // NB: Inline std::fill_n so no recursive dependencies.
 227:/usr/include/c++/10/bits/char_traits.h ****       std::fill_n(__s, __n, __a);
 228:/usr/include/c++/10/bits/char_traits.h ****       return __s;
 229:/usr/include/c++/10/bits/char_traits.h ****     }
 230:/usr/include/c++/10/bits/char_traits.h **** 
 231:/usr/include/c++/10/bits/char_traits.h **** _GLIBCXX_END_NAMESPACE_VERSION
 232:/usr/include/c++/10/bits/char_traits.h **** } // namespace
 233:/usr/include/c++/10/bits/char_traits.h **** 
 234:/usr/include/c++/10/bits/char_traits.h **** namespace std _GLIBCXX_VISIBILITY(default)
 235:/usr/include/c++/10/bits/char_traits.h **** {
 236:/usr/include/c++/10/bits/char_traits.h **** _GLIBCXX_BEGIN_NAMESPACE_VERSION
 237:/usr/include/c++/10/bits/char_traits.h **** 
 238:/usr/include/c++/10/bits/char_traits.h **** #if __cplusplus >= 201703L
 239:/usr/include/c++/10/bits/char_traits.h **** 
 240:/usr/include/c++/10/bits/char_traits.h **** #if __cplusplus == 201703L
 241:/usr/include/c++/10/bits/char_traits.h **** // Unofficial macro indicating P0426R1 support
 242:/usr/include/c++/10/bits/char_traits.h **** # define __cpp_lib_constexpr_char_traits 201611L
 243:/usr/include/c++/10/bits/char_traits.h **** #else
 244:/usr/include/c++/10/bits/char_traits.h **** // Also support P1032R1 in C++20
 245:/usr/include/c++/10/bits/char_traits.h **** # define __cpp_lib_constexpr_char_traits 201811L
 246:/usr/include/c++/10/bits/char_traits.h **** #endif
 247:/usr/include/c++/10/bits/char_traits.h **** 
 248:/usr/include/c++/10/bits/char_traits.h ****   /**
 249:/usr/include/c++/10/bits/char_traits.h ****    *  @brief Determine whether the characters of a NULL-terminated
 250:/usr/include/c++/10/bits/char_traits.h ****    *  string are known at compile time.
 251:/usr/include/c++/10/bits/char_traits.h ****    *  @param  __s  The string.
 252:/usr/include/c++/10/bits/char_traits.h ****    *
 253:/usr/include/c++/10/bits/char_traits.h ****    *  Assumes that _CharT is a built-in character type.
 254:/usr/include/c++/10/bits/char_traits.h ****    */
 255:/usr/include/c++/10/bits/char_traits.h ****   template<typename _CharT>
 256:/usr/include/c++/10/bits/char_traits.h ****     static _GLIBCXX_ALWAYS_INLINE constexpr bool
 257:/usr/include/c++/10/bits/char_traits.h ****     __constant_string_p(const _CharT* __s)
 258:/usr/include/c++/10/bits/char_traits.h ****     {
 259:/usr/include/c++/10/bits/char_traits.h **** #ifdef _GLIBCXX_HAVE_BUILTIN_IS_CONSTANT_EVALUATED
 260:/usr/include/c++/10/bits/char_traits.h ****       (void) __s;
 261:/usr/include/c++/10/bits/char_traits.h ****       // In constexpr contexts all strings should be constant.
 262:/usr/include/c++/10/bits/char_traits.h ****       return __builtin_is_constant_evaluated();
 263:/usr/include/c++/10/bits/char_traits.h **** #else
 264:/usr/include/c++/10/bits/char_traits.h ****       while (__builtin_constant_p(*__s) && *__s)
 265:/usr/include/c++/10/bits/char_traits.h **** 	__s++;
 266:/usr/include/c++/10/bits/char_traits.h ****       return __builtin_constant_p(*__s);
 267:/usr/include/c++/10/bits/char_traits.h **** #endif
 268:/usr/include/c++/10/bits/char_traits.h ****     }
 269:/usr/include/c++/10/bits/char_traits.h **** 
AARCH64 GAS  obj/Chapter13_4.s 			page 22


 270:/usr/include/c++/10/bits/char_traits.h ****   /**
 271:/usr/include/c++/10/bits/char_traits.h ****    *  @brief Determine whether the characters of a character array are
 272:/usr/include/c++/10/bits/char_traits.h ****    *  known at compile time.
 273:/usr/include/c++/10/bits/char_traits.h ****    *  @param  __a  The character array.
 274:/usr/include/c++/10/bits/char_traits.h ****    *  @param  __n  Number of characters.
 275:/usr/include/c++/10/bits/char_traits.h ****    *
 276:/usr/include/c++/10/bits/char_traits.h ****    *  Assumes that _CharT is a built-in character type.
 277:/usr/include/c++/10/bits/char_traits.h ****    */
 278:/usr/include/c++/10/bits/char_traits.h ****   template<typename _CharT>
 279:/usr/include/c++/10/bits/char_traits.h ****     static _GLIBCXX_ALWAYS_INLINE constexpr bool
 280:/usr/include/c++/10/bits/char_traits.h ****     __constant_char_array_p(const _CharT* __a, size_t __n)
 281:/usr/include/c++/10/bits/char_traits.h ****     {
 282:/usr/include/c++/10/bits/char_traits.h **** #ifdef _GLIBCXX_HAVE_BUILTIN_IS_CONSTANT_EVALUATED
 283:/usr/include/c++/10/bits/char_traits.h ****       (void) __a;
 284:/usr/include/c++/10/bits/char_traits.h ****       (void) __n;
 285:/usr/include/c++/10/bits/char_traits.h ****       // In constexpr contexts all character arrays should be constant.
 286:/usr/include/c++/10/bits/char_traits.h ****       return __builtin_is_constant_evaluated();
 287:/usr/include/c++/10/bits/char_traits.h **** #else
 288:/usr/include/c++/10/bits/char_traits.h ****       size_t __i = 0;
 289:/usr/include/c++/10/bits/char_traits.h ****       while (__i < __n && __builtin_constant_p(__a[__i]))
 290:/usr/include/c++/10/bits/char_traits.h **** 	__i++;
 291:/usr/include/c++/10/bits/char_traits.h ****       return __i == __n;
 292:/usr/include/c++/10/bits/char_traits.h **** #endif
 293:/usr/include/c++/10/bits/char_traits.h ****     }
 294:/usr/include/c++/10/bits/char_traits.h **** #endif
 295:/usr/include/c++/10/bits/char_traits.h **** 
 296:/usr/include/c++/10/bits/char_traits.h ****   // 21.1
 297:/usr/include/c++/10/bits/char_traits.h ****   /**
 298:/usr/include/c++/10/bits/char_traits.h ****    *  @brief  Basis for explicit traits specializations.
 299:/usr/include/c++/10/bits/char_traits.h ****    *
 300:/usr/include/c++/10/bits/char_traits.h ****    *  @note  For any given actual character type, this definition is
 301:/usr/include/c++/10/bits/char_traits.h ****    *  probably wrong.  Since this is just a thin wrapper around
 302:/usr/include/c++/10/bits/char_traits.h ****    *  __gnu_cxx::char_traits, it is possible to achieve a more
 303:/usr/include/c++/10/bits/char_traits.h ****    *  appropriate definition by specializing __gnu_cxx::char_traits.
 304:/usr/include/c++/10/bits/char_traits.h ****    *
 305:/usr/include/c++/10/bits/char_traits.h ****    *  See https://gcc.gnu.org/onlinedocs/libstdc++/manual/strings.html#strings.string.character_typ
 306:/usr/include/c++/10/bits/char_traits.h ****    *  for advice on how to make use of this class for @a unusual character
 307:/usr/include/c++/10/bits/char_traits.h ****    *  types. Also, check out include/ext/pod_char_traits.h.
 308:/usr/include/c++/10/bits/char_traits.h ****   */
 309:/usr/include/c++/10/bits/char_traits.h ****   template<class _CharT>
 310:/usr/include/c++/10/bits/char_traits.h ****     struct char_traits : public __gnu_cxx::char_traits<_CharT>
 311:/usr/include/c++/10/bits/char_traits.h ****     { };
 312:/usr/include/c++/10/bits/char_traits.h **** 
 313:/usr/include/c++/10/bits/char_traits.h **** 
 314:/usr/include/c++/10/bits/char_traits.h ****   /// 21.1.3.1  char_traits specializations
 315:/usr/include/c++/10/bits/char_traits.h ****   template<>
 316:/usr/include/c++/10/bits/char_traits.h ****     struct char_traits<char>
 317:/usr/include/c++/10/bits/char_traits.h ****     {
 318:/usr/include/c++/10/bits/char_traits.h ****       typedef char              char_type;
 319:/usr/include/c++/10/bits/char_traits.h ****       typedef int               int_type;
 320:/usr/include/c++/10/bits/char_traits.h ****       typedef streampos         pos_type;
 321:/usr/include/c++/10/bits/char_traits.h ****       typedef streamoff         off_type;
 322:/usr/include/c++/10/bits/char_traits.h ****       typedef mbstate_t         state_type;
 323:/usr/include/c++/10/bits/char_traits.h **** #if __cpp_lib_three_way_comparison
 324:/usr/include/c++/10/bits/char_traits.h ****       using comparison_category = strong_ordering;
 325:/usr/include/c++/10/bits/char_traits.h **** #endif
 326:/usr/include/c++/10/bits/char_traits.h **** 
AARCH64 GAS  obj/Chapter13_4.s 			page 23


 327:/usr/include/c++/10/bits/char_traits.h ****       static _GLIBCXX17_CONSTEXPR void
 328:/usr/include/c++/10/bits/char_traits.h ****       assign(char_type& __c1, const char_type& __c2) _GLIBCXX_NOEXCEPT
 329:/usr/include/c++/10/bits/char_traits.h ****       { __c1 = __c2; }
 330:/usr/include/c++/10/bits/char_traits.h **** 
 331:/usr/include/c++/10/bits/char_traits.h ****       static _GLIBCXX_CONSTEXPR bool
 332:/usr/include/c++/10/bits/char_traits.h ****       eq(const char_type& __c1, const char_type& __c2) _GLIBCXX_NOEXCEPT
 333:/usr/include/c++/10/bits/char_traits.h ****       { return __c1 == __c2; }
 334:/usr/include/c++/10/bits/char_traits.h **** 
 335:/usr/include/c++/10/bits/char_traits.h ****       static _GLIBCXX_CONSTEXPR bool
 336:/usr/include/c++/10/bits/char_traits.h ****       lt(const char_type& __c1, const char_type& __c2) _GLIBCXX_NOEXCEPT
 337:/usr/include/c++/10/bits/char_traits.h ****       {
 338:/usr/include/c++/10/bits/char_traits.h **** 	// LWG 467.
 339:/usr/include/c++/10/bits/char_traits.h **** 	return (static_cast<unsigned char>(__c1)
 340:/usr/include/c++/10/bits/char_traits.h **** 		< static_cast<unsigned char>(__c2));
 341:/usr/include/c++/10/bits/char_traits.h ****       }
 342:/usr/include/c++/10/bits/char_traits.h **** 
 343:/usr/include/c++/10/bits/char_traits.h ****       static _GLIBCXX17_CONSTEXPR int
 344:/usr/include/c++/10/bits/char_traits.h ****       compare(const char_type* __s1, const char_type* __s2, size_t __n)
 345:/usr/include/c++/10/bits/char_traits.h ****       {
 346:/usr/include/c++/10/bits/char_traits.h **** 	if (__n == 0)
 347:/usr/include/c++/10/bits/char_traits.h **** 	  return 0;
 348:/usr/include/c++/10/bits/char_traits.h **** #if __cplusplus >= 201703L
 349:/usr/include/c++/10/bits/char_traits.h **** 	if (__builtin_constant_p(__n)
 350:/usr/include/c++/10/bits/char_traits.h **** 	    && __constant_char_array_p(__s1, __n)
 351:/usr/include/c++/10/bits/char_traits.h **** 	    && __constant_char_array_p(__s2, __n))
 352:/usr/include/c++/10/bits/char_traits.h **** 	  return __gnu_cxx::char_traits<char_type>::compare(__s1, __s2, __n);
 353:/usr/include/c++/10/bits/char_traits.h **** #endif
 354:/usr/include/c++/10/bits/char_traits.h **** 	return __builtin_memcmp(__s1, __s2, __n);
 355:/usr/include/c++/10/bits/char_traits.h ****       }
 356:/usr/include/c++/10/bits/char_traits.h **** 
 357:/usr/include/c++/10/bits/char_traits.h ****       static _GLIBCXX17_CONSTEXPR size_t
 358:/usr/include/c++/10/bits/char_traits.h ****       length(const char_type* __s)
 359:/usr/include/c++/10/bits/char_traits.h ****       {
 360:/usr/include/c++/10/bits/char_traits.h **** #if __cplusplus >= 201703L
 361:/usr/include/c++/10/bits/char_traits.h **** 	if (__constant_string_p(__s))
 362:/usr/include/c++/10/bits/char_traits.h **** 	  return __gnu_cxx::char_traits<char_type>::length(__s);
 363:/usr/include/c++/10/bits/char_traits.h **** #endif
 364:/usr/include/c++/10/bits/char_traits.h **** 	return __builtin_strlen(__s);
 206              		.loc 3 364 2 is_stmt 1 view .LVU45
 207              	.LBB211:
 208              	.LBB202:
 209              	.LBB180:
 210              	.LBB179:
 211              		.loc 2 611 18 is_stmt 0 view .LVU46
 212 00dc 00000090 		adrp	x0, :got:_ZSt4cout
 213 00e0 620080D2 		mov	x2, 3
 214 00e4 1B0040F9 		ldr	x27, [x0, #:got_lo12:_ZSt4cout]
 215 00e8 00000090 		adrp	x0, .LC11
 216 00ec 01000091 		add	x1, x0, :lo12:.LC11
 217 00f0 E0031BAA 		mov	x0, x27
 218 00f4 00000094 		bl	_ZSt16__ostream_insertIcSt11char_traitsIcEERSt13basic_ostreamIT_T0_ES6_PKS3_l
 219              	.LVL6:
 220              		.loc 2 611 18 view .LVU47
 221              	.LBE179:
 222              	.LBE180:
 223              	.LBB181:
 224              	.LBI181:
AARCH64 GAS  obj/Chapter13_4.s 			page 24


 224:/usr/include/c++/10/ostream ****       {
 225              		.loc 2 224 7 is_stmt 1 view .LVU48
 226              	.LBB182:
 228:/usr/include/c++/10/ostream ****       }
 227              		.loc 2 228 18 is_stmt 0 view .LVU49
 228 00f8 20C1221E 		fcvt	d0, s9
 229 00fc E0031BAA 		mov	x0, x27
 230 0100 00000094 		bl	_ZNSo9_M_insertIdEERSoT_
 231              	.LVL7:
 232 0104 FC0300AA 		mov	x28, x0
 233              	.LVL8:
 228:/usr/include/c++/10/ostream ****       }
 234              		.loc 2 228 18 view .LVU50
 235              	.LBE182:
 236              	.LBE181:
 237              	.LBB183:
 238              	.LBI183:
 606:/usr/include/c++/10/ostream ****     {
 239              		.loc 2 606 5 is_stmt 1 view .LVU51
 606:/usr/include/c++/10/ostream ****     {
 240              		.loc 2 606 5 is_stmt 0 view .LVU52
 241              	.LBE183:
 242              	.LBE202:
 243              	.LBE211:
 244              		.loc 3 364 2 is_stmt 1 view .LVU53
 245              	.LBB212:
 246              	.LBB203:
 247              	.LBB185:
 248              	.LBB184:
 249              		.loc 2 611 18 is_stmt 0 view .LVU54
 250 0108 E20313AA 		mov	x2, x19
 251 010c 01000090 		adrp	x1, .LC12
 252 0110 21000091 		add	x1, x1, :lo12:.LC12
 253 0114 00000094 		bl	_ZSt16__ostream_insertIcSt11char_traitsIcEERSt13basic_ostreamIT_T0_ES6_PKS3_l
 254              	.LVL9:
 255              		.loc 2 611 18 view .LVU55
 256              	.LBE184:
 257              	.LBE185:
 258              	.LBB186:
 259              	.LBI186:
 606:/usr/include/c++/10/ostream ****     {
 260              		.loc 2 606 5 is_stmt 1 view .LVU56
 606:/usr/include/c++/10/ostream ****     {
 261              		.loc 2 606 5 is_stmt 0 view .LVU57
 262              	.LBE186:
 263              	.LBE203:
 264              	.LBE212:
 265              		.loc 3 364 2 is_stmt 1 view .LVU58
 266              	.LBB213:
 267              	.LBB204:
 268              	.LBB188:
 269              	.LBB187:
 270              		.loc 2 611 18 is_stmt 0 view .LVU59
 271 0118 620080D2 		mov	x2, 3
 272 011c E0031CAA 		mov	x0, x28
 273 0120 01000090 		adrp	x1, .LC13
 274 0124 21000091 		add	x1, x1, :lo12:.LC13
AARCH64 GAS  obj/Chapter13_4.s 			page 25


 275 0128 00000094 		bl	_ZSt16__ostream_insertIcSt11char_traitsIcEERSt13basic_ostreamIT_T0_ES6_PKS3_l
 276              	.LVL10:
 277              		.loc 2 611 18 view .LVU60
 278              	.LBE187:
 279              	.LBE188:
 280              	.LBB189:
 281              	.LBI189:
 224:/usr/include/c++/10/ostream ****       {
 282              		.loc 2 224 7 is_stmt 1 view .LVU61
 283              	.LBB190:
 228:/usr/include/c++/10/ostream ****       }
 284              		.loc 2 228 18 is_stmt 0 view .LVU62
 285 012c 00C1221E 		fcvt	d0, s8
 286 0130 E0031CAA 		mov	x0, x28
 287 0134 00000094 		bl	_ZNSo9_M_insertIdEERSoT_
 288              	.LVL11:
 228:/usr/include/c++/10/ostream ****       }
 289              		.loc 2 228 18 view .LVU63
 290 0138 FA3F0239 		strb	w26, [sp, 143]
 291              	.LVL12:
 228:/usr/include/c++/10/ostream ****       }
 292              		.loc 2 228 18 view .LVU64
 293              	.LBE190:
 294              	.LBE189:
 295              	.LBB191:
 296              	.LBI191:
 517:/usr/include/c++/10/ostream ****     { return __ostream_insert(__out, &__c, 1); }
 297              		.loc 2 517 5 is_stmt 1 view .LVU65
 298              	.LBB192:
 518:/usr/include/c++/10/ostream **** 
 299              		.loc 2 518 30 is_stmt 0 view .LVU66
 300 013c E20313AA 		mov	x2, x19
 301 0140 E10314AA 		mov	x1, x20
 302 0144 00000094 		bl	_ZSt16__ostream_insertIcSt11char_traitsIcEERSt13basic_ostreamIT_T0_ES6_PKS3_l
 303              	.LVL13:
 518:/usr/include/c++/10/ostream **** 
 304              		.loc 2 518 30 view .LVU67
 305              	.LBE192:
 306              	.LBE191:
  21:Chapter13_4.cpp **** 		for(size_t j=0;j<7;j++){
 307              		.loc 1 21 3 is_stmt 1 view .LVU68
 308              	.LBB193:
 309              		.loc 1 21 19 view .LVU69
 310 0148 1C000014 		b	.L4
 311              	.LVL14:
 312              		.p2align 2,,3
 313              	.L2:
 314              	.LBB147:
 315              	.LBB141:
 316              	.LBB129:
 317              	.LBB130:
 318              		.loc 3 364 25 is_stmt 0 view .LVU70
 319 014c 00000094 		bl	strlen
 320              	.LVL15:
 321              		.loc 3 364 25 view .LVU71
 322              	.LBE130:
 323              	.LBE129:
AARCH64 GAS  obj/Chapter13_4.s 			page 26


 324              		.loc 2 611 18 view .LVU72
 325 0150 E20300AA 		mov	x2, x0
 326 0154 E1031CAA 		mov	x1, x28
 327 0158 E00318AA 		mov	x0, x24
 328 015c 00000094 		bl	_ZSt16__ostream_insertIcSt11char_traitsIcEERSt13basic_ostreamIT_T0_ES6_PKS3_l
 329              	.LVL16:
 330              	.L3:
 331              		.loc 2 611 18 view .LVU73
 332              	.LBE141:
 333              	.LBE147:
 334              	.LBB148:
 335              	.LBI144:
 606:/usr/include/c++/10/ostream ****     {
 336              		.loc 2 606 5 is_stmt 1 view .LVU74
 606:/usr/include/c++/10/ostream ****     {
 337              		.loc 2 606 5 is_stmt 0 view .LVU75
 338              	.LBE148:
 339              	.LBE193:
 340              	.LBE204:
 341              	.LBE213:
 342              		.loc 3 364 2 is_stmt 1 view .LVU76
 343              	.LBB214:
 344              	.LBB205:
 345              	.LBB194:
 346              	.LBB149:
 347              	.LBB146:
 348              		.loc 2 611 18 is_stmt 0 view .LVU77
 349 0160 E10316AA 		mov	x1, x22
 350 0164 620080D2 		mov	x2, 3
 351 0168 E0031BAA 		mov	x0, x27
 352 016c 00000094 		bl	_ZSt16__ostream_insertIcSt11char_traitsIcEERSt13basic_ostreamIT_T0_ES6_PKS3_l
 353              	.LVL17:
 354              		.loc 2 611 18 view .LVU78
 355              	.LBE146:
 356              	.LBE149:
 357              	.LBB150:
 358              	.LBI150:
 127:/usr/include/c++/10/ostream ****       {
 359              		.loc 2 127 7 is_stmt 1 view .LVU79
 360              	.LBB151:
 132:/usr/include/c++/10/ostream **** 	return *this;
 361              		.loc 2 132 6 is_stmt 0 view .LVU80
 362 0170 620340F9 		ldr	x2, [x27]
 363              	.LBE151:
 364              	.LBE150:
  22:Chapter13_4.cpp **** 			cout<<ops[j]<<" = "<<boolalpha<<results[j]<<' ';
 365              		.loc 1 22 45 view .LVU81
 366 0174 A102138B 		add	x1, x21, x19
 367              	.LBB163:
 368              	.LBB164:
 175:/usr/include/c++/10/ostream **** 
 369              		.loc 2 175 25 view .LVU82
 370 0178 E0031BAA 		mov	x0, x27
 371              	.LBE164:
 372              	.LBE163:
  21:Chapter13_4.cpp **** 			cout<<ops[j]<<" = "<<boolalpha<<results[j]<<' ';
 373              		.loc 1 21 19 view .LVU83
AARCH64 GAS  obj/Chapter13_4.s 			page 27


 374 017c 73060091 		add	x19, x19, 1
 375              	.LVL18:
 376              	.LBB167:
 377              	.LBB160:
 132:/usr/include/c++/10/ostream **** 	return *this;
 378              		.loc 2 132 6 view .LVU84
 379 0180 42805EF8 		ldr	x2, [x2, -24]
 380              	.LBE160:
 381              	.LBE167:
 382              	.LBB168:
 383              	.LBB165:
 175:/usr/include/c++/10/ostream **** 
 384              		.loc 2 175 25 view .LVU85
 385 0184 21F05F38 		ldrb	w1, [x1, -1]
 386              	.LBE165:
 387              	.LBE168:
 388              	.LBB169:
 389              	.LBB161:
 132:/usr/include/c++/10/ostream **** 	return *this;
 390              		.loc 2 132 6 view .LVU86
 391 0188 6203028B 		add	x2, x27, x2
 392              	.LVL19:
 393              	.LBB152:
 394              	.LBI152:
 395              		.file 4 "/usr/include/c++/10/bits/ios_base.h"
   1:/usr/include/c++/10/bits/ios_base.h **** // Iostreams base classes -*- C++ -*-
   2:/usr/include/c++/10/bits/ios_base.h **** 
   3:/usr/include/c++/10/bits/ios_base.h **** // Copyright (C) 1997-2020 Free Software Foundation, Inc.
   4:/usr/include/c++/10/bits/ios_base.h **** //
   5:/usr/include/c++/10/bits/ios_base.h **** // This file is part of the GNU ISO C++ Library.  This library is free
   6:/usr/include/c++/10/bits/ios_base.h **** // software; you can redistribute it and/or modify it under the
   7:/usr/include/c++/10/bits/ios_base.h **** // terms of the GNU General Public License as published by the
   8:/usr/include/c++/10/bits/ios_base.h **** // Free Software Foundation; either version 3, or (at your option)
   9:/usr/include/c++/10/bits/ios_base.h **** // any later version.
  10:/usr/include/c++/10/bits/ios_base.h **** 
  11:/usr/include/c++/10/bits/ios_base.h **** // This library is distributed in the hope that it will be useful,
  12:/usr/include/c++/10/bits/ios_base.h **** // but WITHOUT ANY WARRANTY; without even the implied warranty of
  13:/usr/include/c++/10/bits/ios_base.h **** // MERCHANTABILITY or FITNESS FOR A PARTICULAR PURPOSE.  See the
  14:/usr/include/c++/10/bits/ios_base.h **** // GNU General Public License for more details.
  15:/usr/include/c++/10/bits/ios_base.h **** 
  16:/usr/include/c++/10/bits/ios_base.h **** // Under Section 7 of GPL version 3, you are granted additional
  17:/usr/include/c++/10/bits/ios_base.h **** // permissions described in the GCC Runtime Library Exception, version
  18:/usr/include/c++/10/bits/ios_base.h **** // 3.1, as published by the Free Software Foundation.
  19:/usr/include/c++/10/bits/ios_base.h **** 
  20:/usr/include/c++/10/bits/ios_base.h **** // You should have received a copy of the GNU General Public License and
  21:/usr/include/c++/10/bits/ios_base.h **** // a copy of the GCC Runtime Library Exception along with this program;
  22:/usr/include/c++/10/bits/ios_base.h **** // see the files COPYING3 and COPYING.RUNTIME respectively.  If not, see
  23:/usr/include/c++/10/bits/ios_base.h **** // <http://www.gnu.org/licenses/>.
  24:/usr/include/c++/10/bits/ios_base.h **** 
  25:/usr/include/c++/10/bits/ios_base.h **** /** @file bits/ios_base.h
  26:/usr/include/c++/10/bits/ios_base.h ****  *  This is an internal header file, included by other library headers.
  27:/usr/include/c++/10/bits/ios_base.h ****  *  Do not attempt to use it directly. @headername{ios}
  28:/usr/include/c++/10/bits/ios_base.h ****  */
  29:/usr/include/c++/10/bits/ios_base.h **** 
  30:/usr/include/c++/10/bits/ios_base.h **** //
  31:/usr/include/c++/10/bits/ios_base.h **** // ISO C++ 14882: 27.4  Iostreams base classes
  32:/usr/include/c++/10/bits/ios_base.h **** //
AARCH64 GAS  obj/Chapter13_4.s 			page 28


  33:/usr/include/c++/10/bits/ios_base.h **** 
  34:/usr/include/c++/10/bits/ios_base.h **** #ifndef _IOS_BASE_H
  35:/usr/include/c++/10/bits/ios_base.h **** #define _IOS_BASE_H 1
  36:/usr/include/c++/10/bits/ios_base.h **** 
  37:/usr/include/c++/10/bits/ios_base.h **** #pragma GCC system_header
  38:/usr/include/c++/10/bits/ios_base.h **** 
  39:/usr/include/c++/10/bits/ios_base.h **** #include <ext/atomicity.h>
  40:/usr/include/c++/10/bits/ios_base.h **** #include <bits/localefwd.h>
  41:/usr/include/c++/10/bits/ios_base.h **** #include <bits/locale_classes.h>
  42:/usr/include/c++/10/bits/ios_base.h **** 
  43:/usr/include/c++/10/bits/ios_base.h **** #if __cplusplus < 201103L
  44:/usr/include/c++/10/bits/ios_base.h **** # include <stdexcept>
  45:/usr/include/c++/10/bits/ios_base.h **** #else
  46:/usr/include/c++/10/bits/ios_base.h **** # include <system_error>
  47:/usr/include/c++/10/bits/ios_base.h **** #endif
  48:/usr/include/c++/10/bits/ios_base.h **** 
  49:/usr/include/c++/10/bits/ios_base.h **** namespace std _GLIBCXX_VISIBILITY(default)
  50:/usr/include/c++/10/bits/ios_base.h **** {
  51:/usr/include/c++/10/bits/ios_base.h **** _GLIBCXX_BEGIN_NAMESPACE_VERSION
  52:/usr/include/c++/10/bits/ios_base.h **** 
  53:/usr/include/c++/10/bits/ios_base.h ****   // The following definitions of bitmask types are enums, not ints,
  54:/usr/include/c++/10/bits/ios_base.h ****   // as permitted (but not required) in the standard, in order to provide
  55:/usr/include/c++/10/bits/ios_base.h ****   // better type safety in iostream calls.  A side effect is that in C++98
  56:/usr/include/c++/10/bits/ios_base.h ****   // expressions involving them are not compile-time constants.
  57:/usr/include/c++/10/bits/ios_base.h ****   enum _Ios_Fmtflags 
  58:/usr/include/c++/10/bits/ios_base.h ****     { 
  59:/usr/include/c++/10/bits/ios_base.h ****       _S_boolalpha 	= 1L << 0,
  60:/usr/include/c++/10/bits/ios_base.h ****       _S_dec 		= 1L << 1,
  61:/usr/include/c++/10/bits/ios_base.h ****       _S_fixed 		= 1L << 2,
  62:/usr/include/c++/10/bits/ios_base.h ****       _S_hex 		= 1L << 3,
  63:/usr/include/c++/10/bits/ios_base.h ****       _S_internal 	= 1L << 4,
  64:/usr/include/c++/10/bits/ios_base.h ****       _S_left 		= 1L << 5,
  65:/usr/include/c++/10/bits/ios_base.h ****       _S_oct 		= 1L << 6,
  66:/usr/include/c++/10/bits/ios_base.h ****       _S_right 		= 1L << 7,
  67:/usr/include/c++/10/bits/ios_base.h ****       _S_scientific 	= 1L << 8,
  68:/usr/include/c++/10/bits/ios_base.h ****       _S_showbase 	= 1L << 9,
  69:/usr/include/c++/10/bits/ios_base.h ****       _S_showpoint 	= 1L << 10,
  70:/usr/include/c++/10/bits/ios_base.h ****       _S_showpos 	= 1L << 11,
  71:/usr/include/c++/10/bits/ios_base.h ****       _S_skipws 	= 1L << 12,
  72:/usr/include/c++/10/bits/ios_base.h ****       _S_unitbuf 	= 1L << 13,
  73:/usr/include/c++/10/bits/ios_base.h ****       _S_uppercase 	= 1L << 14,
  74:/usr/include/c++/10/bits/ios_base.h ****       _S_adjustfield 	= _S_left | _S_right | _S_internal,
  75:/usr/include/c++/10/bits/ios_base.h ****       _S_basefield 	= _S_dec | _S_oct | _S_hex,
  76:/usr/include/c++/10/bits/ios_base.h ****       _S_floatfield 	= _S_scientific | _S_fixed,
  77:/usr/include/c++/10/bits/ios_base.h ****       _S_ios_fmtflags_end = 1L << 16,
  78:/usr/include/c++/10/bits/ios_base.h ****       _S_ios_fmtflags_max = __INT_MAX__,
  79:/usr/include/c++/10/bits/ios_base.h ****       _S_ios_fmtflags_min = ~__INT_MAX__
  80:/usr/include/c++/10/bits/ios_base.h ****     };
  81:/usr/include/c++/10/bits/ios_base.h **** 
  82:/usr/include/c++/10/bits/ios_base.h ****   inline _GLIBCXX_CONSTEXPR _Ios_Fmtflags
  83:/usr/include/c++/10/bits/ios_base.h ****   operator&(_Ios_Fmtflags __a, _Ios_Fmtflags __b)
  84:/usr/include/c++/10/bits/ios_base.h ****   { return _Ios_Fmtflags(static_cast<int>(__a) & static_cast<int>(__b)); }
  85:/usr/include/c++/10/bits/ios_base.h **** 
  86:/usr/include/c++/10/bits/ios_base.h ****   inline _GLIBCXX_CONSTEXPR _Ios_Fmtflags
  87:/usr/include/c++/10/bits/ios_base.h ****   operator|(_Ios_Fmtflags __a, _Ios_Fmtflags __b)
  88:/usr/include/c++/10/bits/ios_base.h ****   { return _Ios_Fmtflags(static_cast<int>(__a) | static_cast<int>(__b)); }
  89:/usr/include/c++/10/bits/ios_base.h **** 
AARCH64 GAS  obj/Chapter13_4.s 			page 29


  90:/usr/include/c++/10/bits/ios_base.h ****   inline _GLIBCXX_CONSTEXPR _Ios_Fmtflags
  91:/usr/include/c++/10/bits/ios_base.h ****   operator^(_Ios_Fmtflags __a, _Ios_Fmtflags __b)
  92:/usr/include/c++/10/bits/ios_base.h ****   { return _Ios_Fmtflags(static_cast<int>(__a) ^ static_cast<int>(__b)); }
  93:/usr/include/c++/10/bits/ios_base.h **** 
  94:/usr/include/c++/10/bits/ios_base.h ****   inline _GLIBCXX_CONSTEXPR _Ios_Fmtflags
  95:/usr/include/c++/10/bits/ios_base.h ****   operator~(_Ios_Fmtflags __a)
  96:/usr/include/c++/10/bits/ios_base.h ****   { return _Ios_Fmtflags(~static_cast<int>(__a)); }
  97:/usr/include/c++/10/bits/ios_base.h **** 
  98:/usr/include/c++/10/bits/ios_base.h ****   inline const _Ios_Fmtflags&
  99:/usr/include/c++/10/bits/ios_base.h ****   operator|=(_Ios_Fmtflags& __a, _Ios_Fmtflags __b)
 100:/usr/include/c++/10/bits/ios_base.h ****   { return __a = __a | __b; }
 101:/usr/include/c++/10/bits/ios_base.h **** 
 102:/usr/include/c++/10/bits/ios_base.h ****   inline const _Ios_Fmtflags&
 103:/usr/include/c++/10/bits/ios_base.h ****   operator&=(_Ios_Fmtflags& __a, _Ios_Fmtflags __b)
 104:/usr/include/c++/10/bits/ios_base.h ****   { return __a = __a & __b; }
 105:/usr/include/c++/10/bits/ios_base.h **** 
 106:/usr/include/c++/10/bits/ios_base.h ****   inline const _Ios_Fmtflags&
 107:/usr/include/c++/10/bits/ios_base.h ****   operator^=(_Ios_Fmtflags& __a, _Ios_Fmtflags __b)
 108:/usr/include/c++/10/bits/ios_base.h ****   { return __a = __a ^ __b; }
 109:/usr/include/c++/10/bits/ios_base.h **** 
 110:/usr/include/c++/10/bits/ios_base.h **** 
 111:/usr/include/c++/10/bits/ios_base.h ****   enum _Ios_Openmode 
 112:/usr/include/c++/10/bits/ios_base.h ****     { 
 113:/usr/include/c++/10/bits/ios_base.h ****       _S_app 		= 1L << 0,
 114:/usr/include/c++/10/bits/ios_base.h ****       _S_ate 		= 1L << 1,
 115:/usr/include/c++/10/bits/ios_base.h ****       _S_bin 		= 1L << 2,
 116:/usr/include/c++/10/bits/ios_base.h ****       _S_in 		= 1L << 3,
 117:/usr/include/c++/10/bits/ios_base.h ****       _S_out 		= 1L << 4,
 118:/usr/include/c++/10/bits/ios_base.h ****       _S_trunc 		= 1L << 5,
 119:/usr/include/c++/10/bits/ios_base.h ****       _S_ios_openmode_end = 1L << 16,
 120:/usr/include/c++/10/bits/ios_base.h ****       _S_ios_openmode_max = __INT_MAX__,
 121:/usr/include/c++/10/bits/ios_base.h ****       _S_ios_openmode_min = ~__INT_MAX__
 122:/usr/include/c++/10/bits/ios_base.h ****     };
 123:/usr/include/c++/10/bits/ios_base.h **** 
 124:/usr/include/c++/10/bits/ios_base.h ****   inline _GLIBCXX_CONSTEXPR _Ios_Openmode
 125:/usr/include/c++/10/bits/ios_base.h ****   operator&(_Ios_Openmode __a, _Ios_Openmode __b)
 126:/usr/include/c++/10/bits/ios_base.h ****   { return _Ios_Openmode(static_cast<int>(__a) & static_cast<int>(__b)); }
 127:/usr/include/c++/10/bits/ios_base.h **** 
 128:/usr/include/c++/10/bits/ios_base.h ****   inline _GLIBCXX_CONSTEXPR _Ios_Openmode
 129:/usr/include/c++/10/bits/ios_base.h ****   operator|(_Ios_Openmode __a, _Ios_Openmode __b)
 130:/usr/include/c++/10/bits/ios_base.h ****   { return _Ios_Openmode(static_cast<int>(__a) | static_cast<int>(__b)); }
 131:/usr/include/c++/10/bits/ios_base.h **** 
 132:/usr/include/c++/10/bits/ios_base.h ****   inline _GLIBCXX_CONSTEXPR _Ios_Openmode
 133:/usr/include/c++/10/bits/ios_base.h ****   operator^(_Ios_Openmode __a, _Ios_Openmode __b)
 134:/usr/include/c++/10/bits/ios_base.h ****   { return _Ios_Openmode(static_cast<int>(__a) ^ static_cast<int>(__b)); }
 135:/usr/include/c++/10/bits/ios_base.h **** 
 136:/usr/include/c++/10/bits/ios_base.h ****   inline _GLIBCXX_CONSTEXPR _Ios_Openmode
 137:/usr/include/c++/10/bits/ios_base.h ****   operator~(_Ios_Openmode __a)
 138:/usr/include/c++/10/bits/ios_base.h ****   { return _Ios_Openmode(~static_cast<int>(__a)); }
 139:/usr/include/c++/10/bits/ios_base.h **** 
 140:/usr/include/c++/10/bits/ios_base.h ****   inline const _Ios_Openmode&
 141:/usr/include/c++/10/bits/ios_base.h ****   operator|=(_Ios_Openmode& __a, _Ios_Openmode __b)
 142:/usr/include/c++/10/bits/ios_base.h ****   { return __a = __a | __b; }
 143:/usr/include/c++/10/bits/ios_base.h **** 
 144:/usr/include/c++/10/bits/ios_base.h ****   inline const _Ios_Openmode&
 145:/usr/include/c++/10/bits/ios_base.h ****   operator&=(_Ios_Openmode& __a, _Ios_Openmode __b)
 146:/usr/include/c++/10/bits/ios_base.h ****   { return __a = __a & __b; }
AARCH64 GAS  obj/Chapter13_4.s 			page 30


 147:/usr/include/c++/10/bits/ios_base.h **** 
 148:/usr/include/c++/10/bits/ios_base.h ****   inline const _Ios_Openmode&
 149:/usr/include/c++/10/bits/ios_base.h ****   operator^=(_Ios_Openmode& __a, _Ios_Openmode __b)
 150:/usr/include/c++/10/bits/ios_base.h ****   { return __a = __a ^ __b; }
 151:/usr/include/c++/10/bits/ios_base.h **** 
 152:/usr/include/c++/10/bits/ios_base.h **** 
 153:/usr/include/c++/10/bits/ios_base.h ****   enum _Ios_Iostate
 154:/usr/include/c++/10/bits/ios_base.h ****     { 
 155:/usr/include/c++/10/bits/ios_base.h ****       _S_goodbit 		= 0,
 156:/usr/include/c++/10/bits/ios_base.h ****       _S_badbit 		= 1L << 0,
 157:/usr/include/c++/10/bits/ios_base.h ****       _S_eofbit 		= 1L << 1,
 158:/usr/include/c++/10/bits/ios_base.h ****       _S_failbit		= 1L << 2,
 159:/usr/include/c++/10/bits/ios_base.h ****       _S_ios_iostate_end = 1L << 16,
 160:/usr/include/c++/10/bits/ios_base.h ****       _S_ios_iostate_max = __INT_MAX__,
 161:/usr/include/c++/10/bits/ios_base.h ****       _S_ios_iostate_min = ~__INT_MAX__
 162:/usr/include/c++/10/bits/ios_base.h ****     };
 163:/usr/include/c++/10/bits/ios_base.h **** 
 164:/usr/include/c++/10/bits/ios_base.h ****   inline _GLIBCXX_CONSTEXPR _Ios_Iostate
 165:/usr/include/c++/10/bits/ios_base.h ****   operator&(_Ios_Iostate __a, _Ios_Iostate __b)
 166:/usr/include/c++/10/bits/ios_base.h ****   { return _Ios_Iostate(static_cast<int>(__a) & static_cast<int>(__b)); }
 167:/usr/include/c++/10/bits/ios_base.h **** 
 168:/usr/include/c++/10/bits/ios_base.h ****   inline _GLIBCXX_CONSTEXPR _Ios_Iostate
 169:/usr/include/c++/10/bits/ios_base.h ****   operator|(_Ios_Iostate __a, _Ios_Iostate __b)
 170:/usr/include/c++/10/bits/ios_base.h ****   { return _Ios_Iostate(static_cast<int>(__a) | static_cast<int>(__b)); }
 171:/usr/include/c++/10/bits/ios_base.h **** 
 172:/usr/include/c++/10/bits/ios_base.h ****   inline _GLIBCXX_CONSTEXPR _Ios_Iostate
 173:/usr/include/c++/10/bits/ios_base.h ****   operator^(_Ios_Iostate __a, _Ios_Iostate __b)
 174:/usr/include/c++/10/bits/ios_base.h ****   { return _Ios_Iostate(static_cast<int>(__a) ^ static_cast<int>(__b)); }
 175:/usr/include/c++/10/bits/ios_base.h **** 
 176:/usr/include/c++/10/bits/ios_base.h ****   inline _GLIBCXX_CONSTEXPR _Ios_Iostate
 177:/usr/include/c++/10/bits/ios_base.h ****   operator~(_Ios_Iostate __a)
 178:/usr/include/c++/10/bits/ios_base.h ****   { return _Ios_Iostate(~static_cast<int>(__a)); }
 179:/usr/include/c++/10/bits/ios_base.h **** 
 180:/usr/include/c++/10/bits/ios_base.h ****   inline const _Ios_Iostate&
 181:/usr/include/c++/10/bits/ios_base.h ****   operator|=(_Ios_Iostate& __a, _Ios_Iostate __b)
 182:/usr/include/c++/10/bits/ios_base.h ****   { return __a = __a | __b; }
 183:/usr/include/c++/10/bits/ios_base.h **** 
 184:/usr/include/c++/10/bits/ios_base.h ****   inline const _Ios_Iostate&
 185:/usr/include/c++/10/bits/ios_base.h ****   operator&=(_Ios_Iostate& __a, _Ios_Iostate __b)
 186:/usr/include/c++/10/bits/ios_base.h ****   { return __a = __a & __b; }
 187:/usr/include/c++/10/bits/ios_base.h **** 
 188:/usr/include/c++/10/bits/ios_base.h ****   inline const  _Ios_Iostate&
 189:/usr/include/c++/10/bits/ios_base.h ****   operator^=(_Ios_Iostate& __a, _Ios_Iostate __b)
 190:/usr/include/c++/10/bits/ios_base.h ****   { return __a = __a ^ __b; }
 191:/usr/include/c++/10/bits/ios_base.h **** 
 192:/usr/include/c++/10/bits/ios_base.h **** 
 193:/usr/include/c++/10/bits/ios_base.h ****   enum _Ios_Seekdir 
 194:/usr/include/c++/10/bits/ios_base.h ****     { 
 195:/usr/include/c++/10/bits/ios_base.h ****       _S_beg = 0,
 196:/usr/include/c++/10/bits/ios_base.h ****       _S_cur = _GLIBCXX_STDIO_SEEK_CUR,
 197:/usr/include/c++/10/bits/ios_base.h ****       _S_end = _GLIBCXX_STDIO_SEEK_END,
 198:/usr/include/c++/10/bits/ios_base.h ****       _S_ios_seekdir_end = 1L << 16 
 199:/usr/include/c++/10/bits/ios_base.h ****     };
 200:/usr/include/c++/10/bits/ios_base.h **** 
 201:/usr/include/c++/10/bits/ios_base.h **** #if __cplusplus >= 201103L
 202:/usr/include/c++/10/bits/ios_base.h ****   /// I/O error code
 203:/usr/include/c++/10/bits/ios_base.h ****   enum class io_errc { stream = 1 };
AARCH64 GAS  obj/Chapter13_4.s 			page 31


 204:/usr/include/c++/10/bits/ios_base.h **** 
 205:/usr/include/c++/10/bits/ios_base.h ****   template <> struct is_error_code_enum<io_errc> : public true_type { };
 206:/usr/include/c++/10/bits/ios_base.h **** 
 207:/usr/include/c++/10/bits/ios_base.h ****   const error_category& iostream_category() noexcept;
 208:/usr/include/c++/10/bits/ios_base.h **** 
 209:/usr/include/c++/10/bits/ios_base.h ****   inline error_code
 210:/usr/include/c++/10/bits/ios_base.h ****   make_error_code(io_errc __e) noexcept
 211:/usr/include/c++/10/bits/ios_base.h ****   { return error_code(static_cast<int>(__e), iostream_category()); }
 212:/usr/include/c++/10/bits/ios_base.h **** 
 213:/usr/include/c++/10/bits/ios_base.h ****   inline error_condition
 214:/usr/include/c++/10/bits/ios_base.h ****   make_error_condition(io_errc __e) noexcept
 215:/usr/include/c++/10/bits/ios_base.h ****   { return error_condition(static_cast<int>(__e), iostream_category()); }
 216:/usr/include/c++/10/bits/ios_base.h **** #endif
 217:/usr/include/c++/10/bits/ios_base.h **** 
 218:/usr/include/c++/10/bits/ios_base.h ****   // 27.4.2  Class ios_base
 219:/usr/include/c++/10/bits/ios_base.h ****   /**
 220:/usr/include/c++/10/bits/ios_base.h ****    *  @brief  The base of the I/O class hierarchy.
 221:/usr/include/c++/10/bits/ios_base.h ****    *  @ingroup io
 222:/usr/include/c++/10/bits/ios_base.h ****    *
 223:/usr/include/c++/10/bits/ios_base.h ****    *  This class defines everything that can be defined about I/O that does
 224:/usr/include/c++/10/bits/ios_base.h ****    *  not depend on the type of characters being input or output.  Most
 225:/usr/include/c++/10/bits/ios_base.h ****    *  people will only see @c ios_base when they need to specify the full
 226:/usr/include/c++/10/bits/ios_base.h ****    *  name of the various I/O flags (e.g., the openmodes).
 227:/usr/include/c++/10/bits/ios_base.h ****   */
 228:/usr/include/c++/10/bits/ios_base.h ****   class ios_base
 229:/usr/include/c++/10/bits/ios_base.h ****   {
 230:/usr/include/c++/10/bits/ios_base.h **** #if _GLIBCXX_USE_CXX11_ABI
 231:/usr/include/c++/10/bits/ios_base.h **** #if __cplusplus < 201103L
 232:/usr/include/c++/10/bits/ios_base.h ****     // Type that is layout-compatible with std::system_error
 233:/usr/include/c++/10/bits/ios_base.h ****     struct system_error : std::runtime_error
 234:/usr/include/c++/10/bits/ios_base.h ****     {
 235:/usr/include/c++/10/bits/ios_base.h ****       // Type that is layout-compatible with std::error_code
 236:/usr/include/c++/10/bits/ios_base.h ****       struct error_code
 237:/usr/include/c++/10/bits/ios_base.h ****       {
 238:/usr/include/c++/10/bits/ios_base.h **** 	error_code() { }
 239:/usr/include/c++/10/bits/ios_base.h ****       private:
 240:/usr/include/c++/10/bits/ios_base.h **** 	int		_M_value;
 241:/usr/include/c++/10/bits/ios_base.h **** 	const void*	_M_cat;
 242:/usr/include/c++/10/bits/ios_base.h ****       } _M_code;
 243:/usr/include/c++/10/bits/ios_base.h ****     };
 244:/usr/include/c++/10/bits/ios_base.h **** #endif
 245:/usr/include/c++/10/bits/ios_base.h **** #endif
 246:/usr/include/c++/10/bits/ios_base.h ****   public:
 247:/usr/include/c++/10/bits/ios_base.h **** 
 248:/usr/include/c++/10/bits/ios_base.h ****     /** 
 249:/usr/include/c++/10/bits/ios_base.h ****      *  @brief These are thrown to indicate problems with io.
 250:/usr/include/c++/10/bits/ios_base.h ****      *  @ingroup exceptions
 251:/usr/include/c++/10/bits/ios_base.h ****      *
 252:/usr/include/c++/10/bits/ios_base.h ****      *  27.4.2.1.1  Class ios_base::failure
 253:/usr/include/c++/10/bits/ios_base.h ****      */
 254:/usr/include/c++/10/bits/ios_base.h **** #if _GLIBCXX_USE_CXX11_ABI
 255:/usr/include/c++/10/bits/ios_base.h ****     class _GLIBCXX_ABI_TAG_CXX11 failure : public system_error
 256:/usr/include/c++/10/bits/ios_base.h ****     {
 257:/usr/include/c++/10/bits/ios_base.h ****     public:
 258:/usr/include/c++/10/bits/ios_base.h ****       explicit
 259:/usr/include/c++/10/bits/ios_base.h ****       failure(const string& __str);
 260:/usr/include/c++/10/bits/ios_base.h **** 
AARCH64 GAS  obj/Chapter13_4.s 			page 32


 261:/usr/include/c++/10/bits/ios_base.h **** #if __cplusplus >= 201103L
 262:/usr/include/c++/10/bits/ios_base.h ****       explicit
 263:/usr/include/c++/10/bits/ios_base.h ****       failure(const string&, const error_code&);
 264:/usr/include/c++/10/bits/ios_base.h **** 
 265:/usr/include/c++/10/bits/ios_base.h ****       explicit
 266:/usr/include/c++/10/bits/ios_base.h ****       failure(const char*, const error_code& = io_errc::stream);
 267:/usr/include/c++/10/bits/ios_base.h **** #endif
 268:/usr/include/c++/10/bits/ios_base.h **** 
 269:/usr/include/c++/10/bits/ios_base.h ****       virtual
 270:/usr/include/c++/10/bits/ios_base.h ****       ~failure() throw();
 271:/usr/include/c++/10/bits/ios_base.h **** 
 272:/usr/include/c++/10/bits/ios_base.h ****       virtual const char*
 273:/usr/include/c++/10/bits/ios_base.h ****       what() const throw();
 274:/usr/include/c++/10/bits/ios_base.h ****     };
 275:/usr/include/c++/10/bits/ios_base.h **** #else
 276:/usr/include/c++/10/bits/ios_base.h ****     class failure : public exception
 277:/usr/include/c++/10/bits/ios_base.h ****     {
 278:/usr/include/c++/10/bits/ios_base.h ****     public:
 279:/usr/include/c++/10/bits/ios_base.h ****       // _GLIBCXX_RESOLVE_LIB_DEFECTS
 280:/usr/include/c++/10/bits/ios_base.h ****       // 48.  Use of non-existent exception constructor
 281:/usr/include/c++/10/bits/ios_base.h ****       explicit
 282:/usr/include/c++/10/bits/ios_base.h ****       failure(const string& __str) throw();
 283:/usr/include/c++/10/bits/ios_base.h **** 
 284:/usr/include/c++/10/bits/ios_base.h ****       // This declaration is not useless:
 285:/usr/include/c++/10/bits/ios_base.h ****       // http://gcc.gnu.org/onlinedocs/gcc-4.3.2/gcc/Vague-Linkage.html
 286:/usr/include/c++/10/bits/ios_base.h ****       virtual
 287:/usr/include/c++/10/bits/ios_base.h ****       ~failure() throw();
 288:/usr/include/c++/10/bits/ios_base.h **** 
 289:/usr/include/c++/10/bits/ios_base.h ****       virtual const char*
 290:/usr/include/c++/10/bits/ios_base.h ****       what() const throw();
 291:/usr/include/c++/10/bits/ios_base.h **** 
 292:/usr/include/c++/10/bits/ios_base.h **** #if __cplusplus >= 201103L
 293:/usr/include/c++/10/bits/ios_base.h ****       // Define the new members required by C++11,
 294:/usr/include/c++/10/bits/ios_base.h ****       // even though the error_code cannot be stored.
 295:/usr/include/c++/10/bits/ios_base.h **** 
 296:/usr/include/c++/10/bits/ios_base.h ****       explicit
 297:/usr/include/c++/10/bits/ios_base.h ****       failure(const string& __s, const error_code&) noexcept
 298:/usr/include/c++/10/bits/ios_base.h ****       : failure(__s)
 299:/usr/include/c++/10/bits/ios_base.h ****       { }
 300:/usr/include/c++/10/bits/ios_base.h **** 
 301:/usr/include/c++/10/bits/ios_base.h ****       explicit
 302:/usr/include/c++/10/bits/ios_base.h ****       failure(const char* __s, const error_code& = error_code{})
 303:/usr/include/c++/10/bits/ios_base.h ****       : failure(string(__s))
 304:/usr/include/c++/10/bits/ios_base.h ****       { }
 305:/usr/include/c++/10/bits/ios_base.h **** 
 306:/usr/include/c++/10/bits/ios_base.h ****       // Stand-in for system_error::code() but returning by value.
 307:/usr/include/c++/10/bits/ios_base.h ****       error_code code() const noexcept { return error_code{}; }
 308:/usr/include/c++/10/bits/ios_base.h **** #endif
 309:/usr/include/c++/10/bits/ios_base.h **** 
 310:/usr/include/c++/10/bits/ios_base.h ****     private:
 311:/usr/include/c++/10/bits/ios_base.h ****       string _M_msg;
 312:/usr/include/c++/10/bits/ios_base.h ****     };
 313:/usr/include/c++/10/bits/ios_base.h **** #endif
 314:/usr/include/c++/10/bits/ios_base.h **** 
 315:/usr/include/c++/10/bits/ios_base.h ****     // 27.4.2.1.2  Type ios_base::fmtflags
 316:/usr/include/c++/10/bits/ios_base.h ****     /**
 317:/usr/include/c++/10/bits/ios_base.h ****      *  @brief This is a bitmask type.
AARCH64 GAS  obj/Chapter13_4.s 			page 33


 318:/usr/include/c++/10/bits/ios_base.h ****      *
 319:/usr/include/c++/10/bits/ios_base.h ****      *  @c @a _Ios_Fmtflags is implementation-defined, but it is valid to
 320:/usr/include/c++/10/bits/ios_base.h ****      *  perform bitwise operations on these values and expect the Right
 321:/usr/include/c++/10/bits/ios_base.h ****      *  Thing to happen.  Defined objects of type fmtflags are:
 322:/usr/include/c++/10/bits/ios_base.h ****      *  - boolalpha
 323:/usr/include/c++/10/bits/ios_base.h ****      *  - dec
 324:/usr/include/c++/10/bits/ios_base.h ****      *  - fixed
 325:/usr/include/c++/10/bits/ios_base.h ****      *  - hex
 326:/usr/include/c++/10/bits/ios_base.h ****      *  - internal
 327:/usr/include/c++/10/bits/ios_base.h ****      *  - left
 328:/usr/include/c++/10/bits/ios_base.h ****      *  - oct
 329:/usr/include/c++/10/bits/ios_base.h ****      *  - right
 330:/usr/include/c++/10/bits/ios_base.h ****      *  - scientific
 331:/usr/include/c++/10/bits/ios_base.h ****      *  - showbase
 332:/usr/include/c++/10/bits/ios_base.h ****      *  - showpoint
 333:/usr/include/c++/10/bits/ios_base.h ****      *  - showpos
 334:/usr/include/c++/10/bits/ios_base.h ****      *  - skipws
 335:/usr/include/c++/10/bits/ios_base.h ****      *  - unitbuf
 336:/usr/include/c++/10/bits/ios_base.h ****      *  - uppercase
 337:/usr/include/c++/10/bits/ios_base.h ****      *  - adjustfield
 338:/usr/include/c++/10/bits/ios_base.h ****      *  - basefield
 339:/usr/include/c++/10/bits/ios_base.h ****      *  - floatfield
 340:/usr/include/c++/10/bits/ios_base.h ****     */
 341:/usr/include/c++/10/bits/ios_base.h ****     typedef _Ios_Fmtflags fmtflags;
 342:/usr/include/c++/10/bits/ios_base.h **** 
 343:/usr/include/c++/10/bits/ios_base.h ****     /// Insert/extract @c bool in alphabetic rather than numeric format.
 344:/usr/include/c++/10/bits/ios_base.h ****     static const fmtflags boolalpha =   _S_boolalpha;
 345:/usr/include/c++/10/bits/ios_base.h **** 
 346:/usr/include/c++/10/bits/ios_base.h ****     /// Converts integer input or generates integer output in decimal base.
 347:/usr/include/c++/10/bits/ios_base.h ****     static const fmtflags dec =         _S_dec;
 348:/usr/include/c++/10/bits/ios_base.h **** 
 349:/usr/include/c++/10/bits/ios_base.h ****     /// Generate floating-point output in fixed-point notation.
 350:/usr/include/c++/10/bits/ios_base.h ****     static const fmtflags fixed =       _S_fixed;
 351:/usr/include/c++/10/bits/ios_base.h **** 
 352:/usr/include/c++/10/bits/ios_base.h ****     /// Converts integer input or generates integer output in hexadecimal base.
 353:/usr/include/c++/10/bits/ios_base.h ****     static const fmtflags hex =         _S_hex;
 354:/usr/include/c++/10/bits/ios_base.h **** 
 355:/usr/include/c++/10/bits/ios_base.h ****     /// Adds fill characters at a designated internal point in certain
 356:/usr/include/c++/10/bits/ios_base.h ****     /// generated output, or identical to @c right if no such point is
 357:/usr/include/c++/10/bits/ios_base.h ****     /// designated.
 358:/usr/include/c++/10/bits/ios_base.h ****     static const fmtflags internal =    _S_internal;
 359:/usr/include/c++/10/bits/ios_base.h **** 
 360:/usr/include/c++/10/bits/ios_base.h ****     /// Adds fill characters on the right (final positions) of certain
 361:/usr/include/c++/10/bits/ios_base.h ****     /// generated output.  (I.e., the thing you print is flush left.)
 362:/usr/include/c++/10/bits/ios_base.h ****     static const fmtflags left =        _S_left;
 363:/usr/include/c++/10/bits/ios_base.h **** 
 364:/usr/include/c++/10/bits/ios_base.h ****     /// Converts integer input or generates integer output in octal base.
 365:/usr/include/c++/10/bits/ios_base.h ****     static const fmtflags oct =         _S_oct;
 366:/usr/include/c++/10/bits/ios_base.h **** 
 367:/usr/include/c++/10/bits/ios_base.h ****     /// Adds fill characters on the left (initial positions) of certain
 368:/usr/include/c++/10/bits/ios_base.h ****     /// generated output.  (I.e., the thing you print is flush right.)
 369:/usr/include/c++/10/bits/ios_base.h ****     static const fmtflags right =       _S_right;
 370:/usr/include/c++/10/bits/ios_base.h **** 
 371:/usr/include/c++/10/bits/ios_base.h ****     /// Generates floating-point output in scientific notation.
 372:/usr/include/c++/10/bits/ios_base.h ****     static const fmtflags scientific =  _S_scientific;
 373:/usr/include/c++/10/bits/ios_base.h **** 
 374:/usr/include/c++/10/bits/ios_base.h ****     /// Generates a prefix indicating the numeric base of generated integer
AARCH64 GAS  obj/Chapter13_4.s 			page 34


 375:/usr/include/c++/10/bits/ios_base.h ****     /// output.
 376:/usr/include/c++/10/bits/ios_base.h ****     static const fmtflags showbase =    _S_showbase;
 377:/usr/include/c++/10/bits/ios_base.h **** 
 378:/usr/include/c++/10/bits/ios_base.h ****     /// Generates a decimal-point character unconditionally in generated
 379:/usr/include/c++/10/bits/ios_base.h ****     /// floating-point output.
 380:/usr/include/c++/10/bits/ios_base.h ****     static const fmtflags showpoint =   _S_showpoint;
 381:/usr/include/c++/10/bits/ios_base.h **** 
 382:/usr/include/c++/10/bits/ios_base.h ****     /// Generates a + sign in non-negative generated numeric output.
 383:/usr/include/c++/10/bits/ios_base.h ****     static const fmtflags showpos =     _S_showpos;
 384:/usr/include/c++/10/bits/ios_base.h **** 
 385:/usr/include/c++/10/bits/ios_base.h ****     /// Skips leading white space before certain input operations.
 386:/usr/include/c++/10/bits/ios_base.h ****     static const fmtflags skipws =      _S_skipws;
 387:/usr/include/c++/10/bits/ios_base.h **** 
 388:/usr/include/c++/10/bits/ios_base.h ****     /// Flushes output after each output operation.
 389:/usr/include/c++/10/bits/ios_base.h ****     static const fmtflags unitbuf =     _S_unitbuf;
 390:/usr/include/c++/10/bits/ios_base.h **** 
 391:/usr/include/c++/10/bits/ios_base.h ****     /// Replaces certain lowercase letters with their uppercase equivalents
 392:/usr/include/c++/10/bits/ios_base.h ****     /// in generated output.
 393:/usr/include/c++/10/bits/ios_base.h ****     static const fmtflags uppercase =   _S_uppercase;
 394:/usr/include/c++/10/bits/ios_base.h **** 
 395:/usr/include/c++/10/bits/ios_base.h ****     /// A mask of left|right|internal.  Useful for the 2-arg form of @c setf.
 396:/usr/include/c++/10/bits/ios_base.h ****     static const fmtflags adjustfield = _S_adjustfield;
 397:/usr/include/c++/10/bits/ios_base.h **** 
 398:/usr/include/c++/10/bits/ios_base.h ****     /// A mask of dec|oct|hex.  Useful for the 2-arg form of @c setf.
 399:/usr/include/c++/10/bits/ios_base.h ****     static const fmtflags basefield =   _S_basefield;
 400:/usr/include/c++/10/bits/ios_base.h **** 
 401:/usr/include/c++/10/bits/ios_base.h ****     /// A mask of scientific|fixed.  Useful for the 2-arg form of @c setf.
 402:/usr/include/c++/10/bits/ios_base.h ****     static const fmtflags floatfield =  _S_floatfield;
 403:/usr/include/c++/10/bits/ios_base.h **** 
 404:/usr/include/c++/10/bits/ios_base.h ****     // 27.4.2.1.3  Type ios_base::iostate
 405:/usr/include/c++/10/bits/ios_base.h ****     /**
 406:/usr/include/c++/10/bits/ios_base.h ****      *  @brief This is a bitmask type.
 407:/usr/include/c++/10/bits/ios_base.h ****      *
 408:/usr/include/c++/10/bits/ios_base.h ****      *  @c @a _Ios_Iostate is implementation-defined, but it is valid to
 409:/usr/include/c++/10/bits/ios_base.h ****      *  perform bitwise operations on these values and expect the Right
 410:/usr/include/c++/10/bits/ios_base.h ****      *  Thing to happen.  Defined objects of type iostate are:
 411:/usr/include/c++/10/bits/ios_base.h ****      *  - badbit
 412:/usr/include/c++/10/bits/ios_base.h ****      *  - eofbit
 413:/usr/include/c++/10/bits/ios_base.h ****      *  - failbit
 414:/usr/include/c++/10/bits/ios_base.h ****      *  - goodbit
 415:/usr/include/c++/10/bits/ios_base.h ****     */
 416:/usr/include/c++/10/bits/ios_base.h ****     typedef _Ios_Iostate iostate;
 417:/usr/include/c++/10/bits/ios_base.h **** 
 418:/usr/include/c++/10/bits/ios_base.h ****     /// Indicates a loss of integrity in an input or output sequence (such
 419:/usr/include/c++/10/bits/ios_base.h ****     /// as an irrecoverable read error from a file).
 420:/usr/include/c++/10/bits/ios_base.h ****     static const iostate badbit =	_S_badbit;
 421:/usr/include/c++/10/bits/ios_base.h **** 
 422:/usr/include/c++/10/bits/ios_base.h ****     /// Indicates that an input operation reached the end of an input sequence.
 423:/usr/include/c++/10/bits/ios_base.h ****     static const iostate eofbit =	_S_eofbit;
 424:/usr/include/c++/10/bits/ios_base.h **** 
 425:/usr/include/c++/10/bits/ios_base.h ****     /// Indicates that an input operation failed to read the expected
 426:/usr/include/c++/10/bits/ios_base.h ****     /// characters, or that an output operation failed to generate the
 427:/usr/include/c++/10/bits/ios_base.h ****     /// desired characters.
 428:/usr/include/c++/10/bits/ios_base.h ****     static const iostate failbit =	_S_failbit;
 429:/usr/include/c++/10/bits/ios_base.h **** 
 430:/usr/include/c++/10/bits/ios_base.h ****     /// Indicates all is well.
 431:/usr/include/c++/10/bits/ios_base.h ****     static const iostate goodbit =	_S_goodbit;
AARCH64 GAS  obj/Chapter13_4.s 			page 35


 432:/usr/include/c++/10/bits/ios_base.h **** 
 433:/usr/include/c++/10/bits/ios_base.h ****     // 27.4.2.1.4  Type ios_base::openmode
 434:/usr/include/c++/10/bits/ios_base.h ****     /**
 435:/usr/include/c++/10/bits/ios_base.h ****      *  @brief This is a bitmask type.
 436:/usr/include/c++/10/bits/ios_base.h ****      *
 437:/usr/include/c++/10/bits/ios_base.h ****      *  @c @a _Ios_Openmode is implementation-defined, but it is valid to
 438:/usr/include/c++/10/bits/ios_base.h ****      *  perform bitwise operations on these values and expect the Right
 439:/usr/include/c++/10/bits/ios_base.h ****      *  Thing to happen.  Defined objects of type openmode are:
 440:/usr/include/c++/10/bits/ios_base.h ****      *  - app
 441:/usr/include/c++/10/bits/ios_base.h ****      *  - ate
 442:/usr/include/c++/10/bits/ios_base.h ****      *  - binary
 443:/usr/include/c++/10/bits/ios_base.h ****      *  - in
 444:/usr/include/c++/10/bits/ios_base.h ****      *  - out
 445:/usr/include/c++/10/bits/ios_base.h ****      *  - trunc
 446:/usr/include/c++/10/bits/ios_base.h ****     */
 447:/usr/include/c++/10/bits/ios_base.h ****     typedef _Ios_Openmode openmode;
 448:/usr/include/c++/10/bits/ios_base.h **** 
 449:/usr/include/c++/10/bits/ios_base.h ****     /// Seek to end before each write.
 450:/usr/include/c++/10/bits/ios_base.h ****     static const openmode app =		_S_app;
 451:/usr/include/c++/10/bits/ios_base.h **** 
 452:/usr/include/c++/10/bits/ios_base.h ****     /// Open and seek to end immediately after opening.
 453:/usr/include/c++/10/bits/ios_base.h ****     static const openmode ate =		_S_ate;
 454:/usr/include/c++/10/bits/ios_base.h **** 
 455:/usr/include/c++/10/bits/ios_base.h ****     /// Perform input and output in binary mode (as opposed to text mode).
 456:/usr/include/c++/10/bits/ios_base.h ****     /// This is probably not what you think it is; see
 457:/usr/include/c++/10/bits/ios_base.h ****     /// https://gcc.gnu.org/onlinedocs/libstdc++/manual/fstreams.html#std.io.filestreams.binary
 458:/usr/include/c++/10/bits/ios_base.h ****     static const openmode binary =	_S_bin;
 459:/usr/include/c++/10/bits/ios_base.h **** 
 460:/usr/include/c++/10/bits/ios_base.h ****     /// Open for input.  Default for @c ifstream and fstream.
 461:/usr/include/c++/10/bits/ios_base.h ****     static const openmode in =		_S_in;
 462:/usr/include/c++/10/bits/ios_base.h **** 
 463:/usr/include/c++/10/bits/ios_base.h ****     /// Open for output.  Default for @c ofstream and fstream.
 464:/usr/include/c++/10/bits/ios_base.h ****     static const openmode out =		_S_out;
 465:/usr/include/c++/10/bits/ios_base.h **** 
 466:/usr/include/c++/10/bits/ios_base.h ****     /// Truncate an existing stream when opening.  Default for @c ofstream.
 467:/usr/include/c++/10/bits/ios_base.h ****     static const openmode trunc =	_S_trunc;
 468:/usr/include/c++/10/bits/ios_base.h **** 
 469:/usr/include/c++/10/bits/ios_base.h ****     // 27.4.2.1.5  Type ios_base::seekdir
 470:/usr/include/c++/10/bits/ios_base.h ****     /**
 471:/usr/include/c++/10/bits/ios_base.h ****      *  @brief This is an enumerated type.
 472:/usr/include/c++/10/bits/ios_base.h ****      *
 473:/usr/include/c++/10/bits/ios_base.h ****      *  @c @a _Ios_Seekdir is implementation-defined.  Defined values
 474:/usr/include/c++/10/bits/ios_base.h ****      *  of type seekdir are:
 475:/usr/include/c++/10/bits/ios_base.h ****      *  - beg
 476:/usr/include/c++/10/bits/ios_base.h ****      *  - cur, equivalent to @c SEEK_CUR in the C standard library.
 477:/usr/include/c++/10/bits/ios_base.h ****      *  - end, equivalent to @c SEEK_END in the C standard library.
 478:/usr/include/c++/10/bits/ios_base.h ****     */
 479:/usr/include/c++/10/bits/ios_base.h ****     typedef _Ios_Seekdir seekdir;
 480:/usr/include/c++/10/bits/ios_base.h **** 
 481:/usr/include/c++/10/bits/ios_base.h ****     /// Request a seek relative to the beginning of the stream.
 482:/usr/include/c++/10/bits/ios_base.h ****     static const seekdir beg =		_S_beg;
 483:/usr/include/c++/10/bits/ios_base.h **** 
 484:/usr/include/c++/10/bits/ios_base.h ****     /// Request a seek relative to the current position within the sequence.
 485:/usr/include/c++/10/bits/ios_base.h ****     static const seekdir cur =		_S_cur;
 486:/usr/include/c++/10/bits/ios_base.h **** 
 487:/usr/include/c++/10/bits/ios_base.h ****     /// Request a seek relative to the current end of the sequence.
 488:/usr/include/c++/10/bits/ios_base.h ****     static const seekdir end =		_S_end;
AARCH64 GAS  obj/Chapter13_4.s 			page 36


 489:/usr/include/c++/10/bits/ios_base.h **** 
 490:/usr/include/c++/10/bits/ios_base.h **** #if __cplusplus <= 201402L
 491:/usr/include/c++/10/bits/ios_base.h ****     // Annex D.6 (removed in C++17)
 492:/usr/include/c++/10/bits/ios_base.h ****     typedef int io_state
 493:/usr/include/c++/10/bits/ios_base.h ****       _GLIBCXX_DEPRECATED_SUGGEST("std::iostate");
 494:/usr/include/c++/10/bits/ios_base.h ****     typedef int open_mode
 495:/usr/include/c++/10/bits/ios_base.h ****       _GLIBCXX_DEPRECATED_SUGGEST("std::openmode");
 496:/usr/include/c++/10/bits/ios_base.h ****     typedef int seek_dir
 497:/usr/include/c++/10/bits/ios_base.h ****       _GLIBCXX_DEPRECATED_SUGGEST("std::seekdir");
 498:/usr/include/c++/10/bits/ios_base.h **** 
 499:/usr/include/c++/10/bits/ios_base.h ****     typedef std::streampos streampos
 500:/usr/include/c++/10/bits/ios_base.h ****       _GLIBCXX_DEPRECATED_SUGGEST("std::streampos");
 501:/usr/include/c++/10/bits/ios_base.h ****     typedef std::streamoff streamoff
 502:/usr/include/c++/10/bits/ios_base.h ****       _GLIBCXX_DEPRECATED_SUGGEST("std::streamoff");
 503:/usr/include/c++/10/bits/ios_base.h **** #endif
 504:/usr/include/c++/10/bits/ios_base.h **** 
 505:/usr/include/c++/10/bits/ios_base.h ****     // Callbacks;
 506:/usr/include/c++/10/bits/ios_base.h ****     /**
 507:/usr/include/c++/10/bits/ios_base.h ****      *  @brief  The set of events that may be passed to an event callback.
 508:/usr/include/c++/10/bits/ios_base.h ****      *
 509:/usr/include/c++/10/bits/ios_base.h ****      *  erase_event is used during ~ios() and copyfmt().  imbue_event is used
 510:/usr/include/c++/10/bits/ios_base.h ****      *  during imbue().  copyfmt_event is used during copyfmt().
 511:/usr/include/c++/10/bits/ios_base.h ****     */
 512:/usr/include/c++/10/bits/ios_base.h ****     enum event
 513:/usr/include/c++/10/bits/ios_base.h ****     {
 514:/usr/include/c++/10/bits/ios_base.h ****       erase_event,
 515:/usr/include/c++/10/bits/ios_base.h ****       imbue_event,
 516:/usr/include/c++/10/bits/ios_base.h ****       copyfmt_event
 517:/usr/include/c++/10/bits/ios_base.h ****     };
 518:/usr/include/c++/10/bits/ios_base.h **** 
 519:/usr/include/c++/10/bits/ios_base.h ****     /**
 520:/usr/include/c++/10/bits/ios_base.h ****      *  @brief  The type of an event callback function.
 521:/usr/include/c++/10/bits/ios_base.h ****      *  @param  __e  One of the members of the event enum.
 522:/usr/include/c++/10/bits/ios_base.h ****      *  @param  __b  Reference to the ios_base object.
 523:/usr/include/c++/10/bits/ios_base.h ****      *  @param  __i  The integer provided when the callback was registered.
 524:/usr/include/c++/10/bits/ios_base.h ****      *
 525:/usr/include/c++/10/bits/ios_base.h ****      *  Event callbacks are user defined functions that get called during
 526:/usr/include/c++/10/bits/ios_base.h ****      *  several ios_base and basic_ios functions, specifically imbue(),
 527:/usr/include/c++/10/bits/ios_base.h ****      *  copyfmt(), and ~ios().
 528:/usr/include/c++/10/bits/ios_base.h ****     */
 529:/usr/include/c++/10/bits/ios_base.h ****     typedef void (*event_callback) (event __e, ios_base& __b, int __i);
 530:/usr/include/c++/10/bits/ios_base.h **** 
 531:/usr/include/c++/10/bits/ios_base.h ****     /**
 532:/usr/include/c++/10/bits/ios_base.h ****      *  @brief  Add the callback __fn with parameter __index.
 533:/usr/include/c++/10/bits/ios_base.h ****      *  @param  __fn  The function to add.
 534:/usr/include/c++/10/bits/ios_base.h ****      *  @param  __index  The integer to pass to the function when invoked.
 535:/usr/include/c++/10/bits/ios_base.h ****      *
 536:/usr/include/c++/10/bits/ios_base.h ****      *  Registers a function as an event callback with an integer parameter to
 537:/usr/include/c++/10/bits/ios_base.h ****      *  be passed to the function when invoked.  Multiple copies of the
 538:/usr/include/c++/10/bits/ios_base.h ****      *  function are allowed.  If there are multiple callbacks, they are
 539:/usr/include/c++/10/bits/ios_base.h ****      *  invoked in the order they were registered.
 540:/usr/include/c++/10/bits/ios_base.h ****     */
 541:/usr/include/c++/10/bits/ios_base.h ****     void
 542:/usr/include/c++/10/bits/ios_base.h ****     register_callback(event_callback __fn, int __index);
 543:/usr/include/c++/10/bits/ios_base.h **** 
 544:/usr/include/c++/10/bits/ios_base.h ****   protected:
 545:/usr/include/c++/10/bits/ios_base.h ****     streamsize		_M_precision;
AARCH64 GAS  obj/Chapter13_4.s 			page 37


 546:/usr/include/c++/10/bits/ios_base.h ****     streamsize		_M_width;
 547:/usr/include/c++/10/bits/ios_base.h ****     fmtflags		_M_flags;
 548:/usr/include/c++/10/bits/ios_base.h ****     iostate		_M_exception;
 549:/usr/include/c++/10/bits/ios_base.h ****     iostate		_M_streambuf_state;
 550:/usr/include/c++/10/bits/ios_base.h **** 
 551:/usr/include/c++/10/bits/ios_base.h ****     // 27.4.2.6  Members for callbacks
 552:/usr/include/c++/10/bits/ios_base.h ****     // 27.4.2.6  ios_base callbacks
 553:/usr/include/c++/10/bits/ios_base.h ****     struct _Callback_list
 554:/usr/include/c++/10/bits/ios_base.h ****     {
 555:/usr/include/c++/10/bits/ios_base.h ****       // Data Members
 556:/usr/include/c++/10/bits/ios_base.h ****       _Callback_list*		_M_next;
 557:/usr/include/c++/10/bits/ios_base.h ****       ios_base::event_callback	_M_fn;
 558:/usr/include/c++/10/bits/ios_base.h ****       int			_M_index;
 559:/usr/include/c++/10/bits/ios_base.h ****       _Atomic_word		_M_refcount;  // 0 means one reference.
 560:/usr/include/c++/10/bits/ios_base.h **** 
 561:/usr/include/c++/10/bits/ios_base.h ****       _Callback_list(ios_base::event_callback __fn, int __index,
 562:/usr/include/c++/10/bits/ios_base.h **** 		     _Callback_list* __cb)
 563:/usr/include/c++/10/bits/ios_base.h ****       : _M_next(__cb), _M_fn(__fn), _M_index(__index), _M_refcount(0) { }
 564:/usr/include/c++/10/bits/ios_base.h **** 
 565:/usr/include/c++/10/bits/ios_base.h ****       void
 566:/usr/include/c++/10/bits/ios_base.h ****       _M_add_reference() { __gnu_cxx::__atomic_add_dispatch(&_M_refcount, 1); }
 567:/usr/include/c++/10/bits/ios_base.h **** 
 568:/usr/include/c++/10/bits/ios_base.h ****       // 0 => OK to delete.
 569:/usr/include/c++/10/bits/ios_base.h ****       int
 570:/usr/include/c++/10/bits/ios_base.h ****       _M_remove_reference() 
 571:/usr/include/c++/10/bits/ios_base.h ****       {
 572:/usr/include/c++/10/bits/ios_base.h ****         // Be race-detector-friendly.  For more info see bits/c++config.
 573:/usr/include/c++/10/bits/ios_base.h ****         _GLIBCXX_SYNCHRONIZATION_HAPPENS_BEFORE(&_M_refcount);
 574:/usr/include/c++/10/bits/ios_base.h ****         int __res = __gnu_cxx::__exchange_and_add_dispatch(&_M_refcount, -1);
 575:/usr/include/c++/10/bits/ios_base.h ****         if (__res == 0)
 576:/usr/include/c++/10/bits/ios_base.h ****           {
 577:/usr/include/c++/10/bits/ios_base.h ****             _GLIBCXX_SYNCHRONIZATION_HAPPENS_AFTER(&_M_refcount);
 578:/usr/include/c++/10/bits/ios_base.h ****           }
 579:/usr/include/c++/10/bits/ios_base.h ****         return __res;
 580:/usr/include/c++/10/bits/ios_base.h ****       }
 581:/usr/include/c++/10/bits/ios_base.h ****     };
 582:/usr/include/c++/10/bits/ios_base.h **** 
 583:/usr/include/c++/10/bits/ios_base.h ****      _Callback_list*	_M_callbacks;
 584:/usr/include/c++/10/bits/ios_base.h **** 
 585:/usr/include/c++/10/bits/ios_base.h ****     void
 586:/usr/include/c++/10/bits/ios_base.h ****     _M_call_callbacks(event __ev) throw();
 587:/usr/include/c++/10/bits/ios_base.h **** 
 588:/usr/include/c++/10/bits/ios_base.h ****     void
 589:/usr/include/c++/10/bits/ios_base.h ****     _M_dispose_callbacks(void) throw();
 590:/usr/include/c++/10/bits/ios_base.h **** 
 591:/usr/include/c++/10/bits/ios_base.h ****     // 27.4.2.5  Members for iword/pword storage
 592:/usr/include/c++/10/bits/ios_base.h ****     struct _Words
 593:/usr/include/c++/10/bits/ios_base.h ****     {
 594:/usr/include/c++/10/bits/ios_base.h ****       void*	_M_pword;
 595:/usr/include/c++/10/bits/ios_base.h ****       long	_M_iword;
 596:/usr/include/c++/10/bits/ios_base.h ****       _Words() : _M_pword(0), _M_iword(0) { }
 597:/usr/include/c++/10/bits/ios_base.h ****     };
 598:/usr/include/c++/10/bits/ios_base.h **** 
 599:/usr/include/c++/10/bits/ios_base.h ****     // Only for failed iword/pword calls.
 600:/usr/include/c++/10/bits/ios_base.h ****     _Words		_M_word_zero;
 601:/usr/include/c++/10/bits/ios_base.h **** 
 602:/usr/include/c++/10/bits/ios_base.h ****     // Guaranteed storage.
AARCH64 GAS  obj/Chapter13_4.s 			page 38


 603:/usr/include/c++/10/bits/ios_base.h ****     // The first 5 iword and pword slots are reserved for internal use.
 604:/usr/include/c++/10/bits/ios_base.h ****     enum { _S_local_word_size = 8 };
 605:/usr/include/c++/10/bits/ios_base.h ****     _Words		_M_local_word[_S_local_word_size];
 606:/usr/include/c++/10/bits/ios_base.h **** 
 607:/usr/include/c++/10/bits/ios_base.h ****     // Allocated storage.
 608:/usr/include/c++/10/bits/ios_base.h ****     int			_M_word_size;
 609:/usr/include/c++/10/bits/ios_base.h ****     _Words*		_M_word;
 610:/usr/include/c++/10/bits/ios_base.h **** 
 611:/usr/include/c++/10/bits/ios_base.h ****     _Words&
 612:/usr/include/c++/10/bits/ios_base.h ****     _M_grow_words(int __index, bool __iword);
 613:/usr/include/c++/10/bits/ios_base.h **** 
 614:/usr/include/c++/10/bits/ios_base.h ****     // Members for locale and locale caching.
 615:/usr/include/c++/10/bits/ios_base.h ****     locale		_M_ios_locale;
 616:/usr/include/c++/10/bits/ios_base.h **** 
 617:/usr/include/c++/10/bits/ios_base.h ****     void
 618:/usr/include/c++/10/bits/ios_base.h ****     _M_init() throw();
 619:/usr/include/c++/10/bits/ios_base.h **** 
 620:/usr/include/c++/10/bits/ios_base.h ****   public:
 621:/usr/include/c++/10/bits/ios_base.h **** 
 622:/usr/include/c++/10/bits/ios_base.h ****     // 27.4.2.1.6  Class ios_base::Init
 623:/usr/include/c++/10/bits/ios_base.h ****     // Used to initialize standard streams. In theory, g++ could use
 624:/usr/include/c++/10/bits/ios_base.h ****     // -finit-priority to order this stuff correctly without going
 625:/usr/include/c++/10/bits/ios_base.h ****     // through these machinations.
 626:/usr/include/c++/10/bits/ios_base.h ****     class Init
 627:/usr/include/c++/10/bits/ios_base.h ****     {
 628:/usr/include/c++/10/bits/ios_base.h ****       friend class ios_base;
 629:/usr/include/c++/10/bits/ios_base.h ****     public:
 630:/usr/include/c++/10/bits/ios_base.h ****       Init();
 631:/usr/include/c++/10/bits/ios_base.h ****       ~Init();
 632:/usr/include/c++/10/bits/ios_base.h **** 
 633:/usr/include/c++/10/bits/ios_base.h **** #if __cplusplus >= 201103L
 634:/usr/include/c++/10/bits/ios_base.h ****       Init(const Init&) = default;
 635:/usr/include/c++/10/bits/ios_base.h ****       Init& operator=(const Init&) = default;
 636:/usr/include/c++/10/bits/ios_base.h **** #endif
 637:/usr/include/c++/10/bits/ios_base.h **** 
 638:/usr/include/c++/10/bits/ios_base.h ****     private:
 639:/usr/include/c++/10/bits/ios_base.h ****       static _Atomic_word	_S_refcount;
 640:/usr/include/c++/10/bits/ios_base.h ****       static bool		_S_synced_with_stdio;
 641:/usr/include/c++/10/bits/ios_base.h ****     };
 642:/usr/include/c++/10/bits/ios_base.h **** 
 643:/usr/include/c++/10/bits/ios_base.h ****     // [27.4.2.2] fmtflags state functions
 644:/usr/include/c++/10/bits/ios_base.h ****     /**
 645:/usr/include/c++/10/bits/ios_base.h ****      *  @brief  Access to format flags.
 646:/usr/include/c++/10/bits/ios_base.h ****      *  @return  The format control flags for both input and output.
 647:/usr/include/c++/10/bits/ios_base.h ****     */
 648:/usr/include/c++/10/bits/ios_base.h ****     fmtflags
 649:/usr/include/c++/10/bits/ios_base.h ****     flags() const
 650:/usr/include/c++/10/bits/ios_base.h ****     { return _M_flags; }
 651:/usr/include/c++/10/bits/ios_base.h **** 
 652:/usr/include/c++/10/bits/ios_base.h ****     /**
 653:/usr/include/c++/10/bits/ios_base.h ****      *  @brief  Setting new format flags all at once.
 654:/usr/include/c++/10/bits/ios_base.h ****      *  @param  __fmtfl  The new flags to set.
 655:/usr/include/c++/10/bits/ios_base.h ****      *  @return  The previous format control flags.
 656:/usr/include/c++/10/bits/ios_base.h ****      *
 657:/usr/include/c++/10/bits/ios_base.h ****      *  This function overwrites all the format flags with @a __fmtfl.
 658:/usr/include/c++/10/bits/ios_base.h ****     */
 659:/usr/include/c++/10/bits/ios_base.h ****     fmtflags
AARCH64 GAS  obj/Chapter13_4.s 			page 39


 660:/usr/include/c++/10/bits/ios_base.h ****     flags(fmtflags __fmtfl)
 661:/usr/include/c++/10/bits/ios_base.h ****     {
 662:/usr/include/c++/10/bits/ios_base.h ****       fmtflags __old = _M_flags;
 663:/usr/include/c++/10/bits/ios_base.h ****       _M_flags = __fmtfl;
 664:/usr/include/c++/10/bits/ios_base.h ****       return __old;
 665:/usr/include/c++/10/bits/ios_base.h ****     }
 666:/usr/include/c++/10/bits/ios_base.h **** 
 667:/usr/include/c++/10/bits/ios_base.h ****     /**
 668:/usr/include/c++/10/bits/ios_base.h ****      *  @brief  Setting new format flags.
 669:/usr/include/c++/10/bits/ios_base.h ****      *  @param  __fmtfl  Additional flags to set.
 670:/usr/include/c++/10/bits/ios_base.h ****      *  @return  The previous format control flags.
 671:/usr/include/c++/10/bits/ios_base.h ****      *
 672:/usr/include/c++/10/bits/ios_base.h ****      *  This function sets additional flags in format control.  Flags that
 673:/usr/include/c++/10/bits/ios_base.h ****      *  were previously set remain set.
 674:/usr/include/c++/10/bits/ios_base.h ****     */
 675:/usr/include/c++/10/bits/ios_base.h ****     fmtflags
 676:/usr/include/c++/10/bits/ios_base.h ****     setf(fmtflags __fmtfl)
 677:/usr/include/c++/10/bits/ios_base.h ****     {
 678:/usr/include/c++/10/bits/ios_base.h ****       fmtflags __old = _M_flags;
 679:/usr/include/c++/10/bits/ios_base.h ****       _M_flags |= __fmtfl;
 680:/usr/include/c++/10/bits/ios_base.h ****       return __old;
 681:/usr/include/c++/10/bits/ios_base.h ****     }
 682:/usr/include/c++/10/bits/ios_base.h **** 
 683:/usr/include/c++/10/bits/ios_base.h ****     /**
 684:/usr/include/c++/10/bits/ios_base.h ****      *  @brief  Setting new format flags.
 685:/usr/include/c++/10/bits/ios_base.h ****      *  @param  __fmtfl  Additional flags to set.
 686:/usr/include/c++/10/bits/ios_base.h ****      *  @param  __mask  The flags mask for @a fmtfl.
 687:/usr/include/c++/10/bits/ios_base.h ****      *  @return  The previous format control flags.
 688:/usr/include/c++/10/bits/ios_base.h ****      *
 689:/usr/include/c++/10/bits/ios_base.h ****      *  This function clears @a mask in the format flags, then sets
 690:/usr/include/c++/10/bits/ios_base.h ****      *  @a fmtfl @c & @a mask.  An example mask is @c ios_base::adjustfield.
 691:/usr/include/c++/10/bits/ios_base.h ****     */
 692:/usr/include/c++/10/bits/ios_base.h ****     fmtflags
 693:/usr/include/c++/10/bits/ios_base.h ****     setf(fmtflags __fmtfl, fmtflags __mask)
 694:/usr/include/c++/10/bits/ios_base.h ****     {
 695:/usr/include/c++/10/bits/ios_base.h ****       fmtflags __old = _M_flags;
 696:/usr/include/c++/10/bits/ios_base.h ****       _M_flags &= ~__mask;
 697:/usr/include/c++/10/bits/ios_base.h ****       _M_flags |= (__fmtfl & __mask);
 698:/usr/include/c++/10/bits/ios_base.h ****       return __old;
 699:/usr/include/c++/10/bits/ios_base.h ****     }
 700:/usr/include/c++/10/bits/ios_base.h **** 
 701:/usr/include/c++/10/bits/ios_base.h ****     /**
 702:/usr/include/c++/10/bits/ios_base.h ****      *  @brief  Clearing format flags.
 703:/usr/include/c++/10/bits/ios_base.h ****      *  @param  __mask  The flags to unset.
 704:/usr/include/c++/10/bits/ios_base.h ****      *
 705:/usr/include/c++/10/bits/ios_base.h ****      *  This function clears @a __mask in the format flags.
 706:/usr/include/c++/10/bits/ios_base.h ****     */
 707:/usr/include/c++/10/bits/ios_base.h ****     void
 708:/usr/include/c++/10/bits/ios_base.h ****     unsetf(fmtflags __mask)
 709:/usr/include/c++/10/bits/ios_base.h ****     { _M_flags &= ~__mask; }
 710:/usr/include/c++/10/bits/ios_base.h **** 
 711:/usr/include/c++/10/bits/ios_base.h ****     /**
 712:/usr/include/c++/10/bits/ios_base.h ****      *  @brief  Flags access.
 713:/usr/include/c++/10/bits/ios_base.h ****      *  @return  The precision to generate on certain output operations.
 714:/usr/include/c++/10/bits/ios_base.h ****      *
 715:/usr/include/c++/10/bits/ios_base.h ****      *  Be careful if you try to give a definition of @a precision here; see
 716:/usr/include/c++/10/bits/ios_base.h ****      *  DR 189.
AARCH64 GAS  obj/Chapter13_4.s 			page 40


 717:/usr/include/c++/10/bits/ios_base.h ****     */
 718:/usr/include/c++/10/bits/ios_base.h ****     streamsize
 719:/usr/include/c++/10/bits/ios_base.h ****     precision() const
 720:/usr/include/c++/10/bits/ios_base.h ****     { return _M_precision; }
 721:/usr/include/c++/10/bits/ios_base.h **** 
 722:/usr/include/c++/10/bits/ios_base.h ****     /**
 723:/usr/include/c++/10/bits/ios_base.h ****      *  @brief  Changing flags.
 724:/usr/include/c++/10/bits/ios_base.h ****      *  @param  __prec  The new precision value.
 725:/usr/include/c++/10/bits/ios_base.h ****      *  @return  The previous value of precision().
 726:/usr/include/c++/10/bits/ios_base.h ****     */
 727:/usr/include/c++/10/bits/ios_base.h ****     streamsize
 728:/usr/include/c++/10/bits/ios_base.h ****     precision(streamsize __prec)
 729:/usr/include/c++/10/bits/ios_base.h ****     {
 730:/usr/include/c++/10/bits/ios_base.h ****       streamsize __old = _M_precision;
 731:/usr/include/c++/10/bits/ios_base.h ****       _M_precision = __prec;
 732:/usr/include/c++/10/bits/ios_base.h ****       return __old;
 733:/usr/include/c++/10/bits/ios_base.h ****     }
 734:/usr/include/c++/10/bits/ios_base.h **** 
 735:/usr/include/c++/10/bits/ios_base.h ****     /**
 736:/usr/include/c++/10/bits/ios_base.h ****      *  @brief  Flags access.
 737:/usr/include/c++/10/bits/ios_base.h ****      *  @return  The minimum field width to generate on output operations.
 738:/usr/include/c++/10/bits/ios_base.h ****      *
 739:/usr/include/c++/10/bits/ios_base.h ****      *  <em>Minimum field width</em> refers to the number of characters.
 740:/usr/include/c++/10/bits/ios_base.h ****     */
 741:/usr/include/c++/10/bits/ios_base.h ****     streamsize
 742:/usr/include/c++/10/bits/ios_base.h ****     width() const
 743:/usr/include/c++/10/bits/ios_base.h ****     { return _M_width; }
 744:/usr/include/c++/10/bits/ios_base.h **** 
 745:/usr/include/c++/10/bits/ios_base.h ****     /**
 746:/usr/include/c++/10/bits/ios_base.h ****      *  @brief  Changing flags.
 747:/usr/include/c++/10/bits/ios_base.h ****      *  @param  __wide  The new width value.
 748:/usr/include/c++/10/bits/ios_base.h ****      *  @return  The previous value of width().
 749:/usr/include/c++/10/bits/ios_base.h ****     */
 750:/usr/include/c++/10/bits/ios_base.h ****     streamsize
 751:/usr/include/c++/10/bits/ios_base.h ****     width(streamsize __wide)
 752:/usr/include/c++/10/bits/ios_base.h ****     {
 753:/usr/include/c++/10/bits/ios_base.h ****       streamsize __old = _M_width;
 754:/usr/include/c++/10/bits/ios_base.h ****       _M_width = __wide;
 755:/usr/include/c++/10/bits/ios_base.h ****       return __old;
 756:/usr/include/c++/10/bits/ios_base.h ****     }
 757:/usr/include/c++/10/bits/ios_base.h **** 
 758:/usr/include/c++/10/bits/ios_base.h ****     // [27.4.2.4] ios_base static members
 759:/usr/include/c++/10/bits/ios_base.h ****     /**
 760:/usr/include/c++/10/bits/ios_base.h ****      *  @brief  Interaction with the standard C I/O objects.
 761:/usr/include/c++/10/bits/ios_base.h ****      *  @param  __sync  Whether to synchronize or not.
 762:/usr/include/c++/10/bits/ios_base.h ****      *  @return  True if the standard streams were previously synchronized.
 763:/usr/include/c++/10/bits/ios_base.h ****      *
 764:/usr/include/c++/10/bits/ios_base.h ****      *  The synchronization referred to is @e only that between the standard
 765:/usr/include/c++/10/bits/ios_base.h ****      *  C facilities (e.g., stdout) and the standard C++ objects (e.g.,
 766:/usr/include/c++/10/bits/ios_base.h ****      *  cout).  User-declared streams are unaffected.  See
 767:/usr/include/c++/10/bits/ios_base.h ****      *  https://gcc.gnu.org/onlinedocs/libstdc++/manual/fstreams.html#std.io.filestreams.binary
 768:/usr/include/c++/10/bits/ios_base.h ****     */
 769:/usr/include/c++/10/bits/ios_base.h ****     static bool
 770:/usr/include/c++/10/bits/ios_base.h ****     sync_with_stdio(bool __sync = true);
 771:/usr/include/c++/10/bits/ios_base.h **** 
 772:/usr/include/c++/10/bits/ios_base.h ****     // [27.4.2.3] ios_base locale functions
 773:/usr/include/c++/10/bits/ios_base.h ****     /**
AARCH64 GAS  obj/Chapter13_4.s 			page 41


 774:/usr/include/c++/10/bits/ios_base.h ****      *  @brief  Setting a new locale.
 775:/usr/include/c++/10/bits/ios_base.h ****      *  @param  __loc  The new locale.
 776:/usr/include/c++/10/bits/ios_base.h ****      *  @return  The previous locale.
 777:/usr/include/c++/10/bits/ios_base.h ****      *
 778:/usr/include/c++/10/bits/ios_base.h ****      *  Sets the new locale for this stream, and then invokes each callback
 779:/usr/include/c++/10/bits/ios_base.h ****      *  with imbue_event.
 780:/usr/include/c++/10/bits/ios_base.h ****     */
 781:/usr/include/c++/10/bits/ios_base.h ****     locale
 782:/usr/include/c++/10/bits/ios_base.h ****     imbue(const locale& __loc) throw();
 783:/usr/include/c++/10/bits/ios_base.h **** 
 784:/usr/include/c++/10/bits/ios_base.h ****     /**
 785:/usr/include/c++/10/bits/ios_base.h ****      *  @brief  Locale access
 786:/usr/include/c++/10/bits/ios_base.h ****      *  @return  A copy of the current locale.
 787:/usr/include/c++/10/bits/ios_base.h ****      *
 788:/usr/include/c++/10/bits/ios_base.h ****      *  If @c imbue(loc) has previously been called, then this function
 789:/usr/include/c++/10/bits/ios_base.h ****      *  returns @c loc.  Otherwise, it returns a copy of @c std::locale(),
 790:/usr/include/c++/10/bits/ios_base.h ****      *  the global C++ locale.
 791:/usr/include/c++/10/bits/ios_base.h ****     */
 792:/usr/include/c++/10/bits/ios_base.h ****     locale
 793:/usr/include/c++/10/bits/ios_base.h ****     getloc() const
 794:/usr/include/c++/10/bits/ios_base.h ****     { return _M_ios_locale; }
 795:/usr/include/c++/10/bits/ios_base.h **** 
 796:/usr/include/c++/10/bits/ios_base.h ****     /**
 797:/usr/include/c++/10/bits/ios_base.h ****      *  @brief  Locale access
 798:/usr/include/c++/10/bits/ios_base.h ****      *  @return  A reference to the current locale.
 799:/usr/include/c++/10/bits/ios_base.h ****      *
 800:/usr/include/c++/10/bits/ios_base.h ****      *  Like getloc above, but returns a reference instead of
 801:/usr/include/c++/10/bits/ios_base.h ****      *  generating a copy.
 802:/usr/include/c++/10/bits/ios_base.h ****     */
 803:/usr/include/c++/10/bits/ios_base.h ****     const locale&
 804:/usr/include/c++/10/bits/ios_base.h ****     _M_getloc() const
 805:/usr/include/c++/10/bits/ios_base.h ****     { return _M_ios_locale; }
 806:/usr/include/c++/10/bits/ios_base.h **** 
 807:/usr/include/c++/10/bits/ios_base.h ****     // [27.4.2.5] ios_base storage functions
 808:/usr/include/c++/10/bits/ios_base.h ****     /**
 809:/usr/include/c++/10/bits/ios_base.h ****      *  @brief  Access to unique indices.
 810:/usr/include/c++/10/bits/ios_base.h ****      *  @return  An integer different from all previous calls.
 811:/usr/include/c++/10/bits/ios_base.h ****      *
 812:/usr/include/c++/10/bits/ios_base.h ****      *  This function returns a unique integer every time it is called.  It
 813:/usr/include/c++/10/bits/ios_base.h ****      *  can be used for any purpose, but is primarily intended to be a unique
 814:/usr/include/c++/10/bits/ios_base.h ****      *  index for the iword and pword functions.  The expectation is that an
 815:/usr/include/c++/10/bits/ios_base.h ****      *  application calls xalloc in order to obtain an index in the iword and
 816:/usr/include/c++/10/bits/ios_base.h ****      *  pword arrays that can be used without fear of conflict.
 817:/usr/include/c++/10/bits/ios_base.h ****      *
 818:/usr/include/c++/10/bits/ios_base.h ****      *  The implementation maintains a static variable that is incremented and
 819:/usr/include/c++/10/bits/ios_base.h ****      *  returned on each invocation.  xalloc is guaranteed to return an index
 820:/usr/include/c++/10/bits/ios_base.h ****      *  that is safe to use in the iword and pword arrays.
 821:/usr/include/c++/10/bits/ios_base.h ****     */
 822:/usr/include/c++/10/bits/ios_base.h ****     static int
 823:/usr/include/c++/10/bits/ios_base.h ****     xalloc() throw();
 824:/usr/include/c++/10/bits/ios_base.h **** 
 825:/usr/include/c++/10/bits/ios_base.h ****     /**
 826:/usr/include/c++/10/bits/ios_base.h ****      *  @brief  Access to integer array.
 827:/usr/include/c++/10/bits/ios_base.h ****      *  @param  __ix  Index into the array.
 828:/usr/include/c++/10/bits/ios_base.h ****      *  @return  A reference to an integer associated with the index.
 829:/usr/include/c++/10/bits/ios_base.h ****      *
 830:/usr/include/c++/10/bits/ios_base.h ****      *  The iword function provides access to an array of integers that can be
AARCH64 GAS  obj/Chapter13_4.s 			page 42


 831:/usr/include/c++/10/bits/ios_base.h ****      *  used for any purpose.  The array grows as required to hold the
 832:/usr/include/c++/10/bits/ios_base.h ****      *  supplied index.  All integers in the array are initialized to 0.
 833:/usr/include/c++/10/bits/ios_base.h ****      *
 834:/usr/include/c++/10/bits/ios_base.h ****      *  The implementation reserves several indices.  You should use xalloc to
 835:/usr/include/c++/10/bits/ios_base.h ****      *  obtain an index that is safe to use.  Also note that since the array
 836:/usr/include/c++/10/bits/ios_base.h ****      *  can grow dynamically, it is not safe to hold onto the reference.
 837:/usr/include/c++/10/bits/ios_base.h ****     */
 838:/usr/include/c++/10/bits/ios_base.h ****     long&
 839:/usr/include/c++/10/bits/ios_base.h ****     iword(int __ix)
 840:/usr/include/c++/10/bits/ios_base.h ****     {
 841:/usr/include/c++/10/bits/ios_base.h ****       _Words& __word = ((unsigned)__ix < (unsigned)_M_word_size)
 842:/usr/include/c++/10/bits/ios_base.h **** 			? _M_word[__ix] : _M_grow_words(__ix, true);
 843:/usr/include/c++/10/bits/ios_base.h ****       return __word._M_iword;
 844:/usr/include/c++/10/bits/ios_base.h ****     }
 845:/usr/include/c++/10/bits/ios_base.h **** 
 846:/usr/include/c++/10/bits/ios_base.h ****     /**
 847:/usr/include/c++/10/bits/ios_base.h ****      *  @brief  Access to void pointer array.
 848:/usr/include/c++/10/bits/ios_base.h ****      *  @param  __ix  Index into the array.
 849:/usr/include/c++/10/bits/ios_base.h ****      *  @return  A reference to a void* associated with the index.
 850:/usr/include/c++/10/bits/ios_base.h ****      *
 851:/usr/include/c++/10/bits/ios_base.h ****      *  The pword function provides access to an array of pointers that can be
 852:/usr/include/c++/10/bits/ios_base.h ****      *  used for any purpose.  The array grows as required to hold the
 853:/usr/include/c++/10/bits/ios_base.h ****      *  supplied index.  All pointers in the array are initialized to 0.
 854:/usr/include/c++/10/bits/ios_base.h ****      *
 855:/usr/include/c++/10/bits/ios_base.h ****      *  The implementation reserves several indices.  You should use xalloc to
 856:/usr/include/c++/10/bits/ios_base.h ****      *  obtain an index that is safe to use.  Also note that since the array
 857:/usr/include/c++/10/bits/ios_base.h ****      *  can grow dynamically, it is not safe to hold onto the reference.
 858:/usr/include/c++/10/bits/ios_base.h ****     */
 859:/usr/include/c++/10/bits/ios_base.h ****     void*&
 860:/usr/include/c++/10/bits/ios_base.h ****     pword(int __ix)
 861:/usr/include/c++/10/bits/ios_base.h ****     {
 862:/usr/include/c++/10/bits/ios_base.h ****       _Words& __word = ((unsigned)__ix < (unsigned)_M_word_size)
 863:/usr/include/c++/10/bits/ios_base.h **** 			? _M_word[__ix] : _M_grow_words(__ix, false);
 864:/usr/include/c++/10/bits/ios_base.h ****       return __word._M_pword;
 865:/usr/include/c++/10/bits/ios_base.h ****     }
 866:/usr/include/c++/10/bits/ios_base.h **** 
 867:/usr/include/c++/10/bits/ios_base.h ****     // Destructor
 868:/usr/include/c++/10/bits/ios_base.h ****     /**
 869:/usr/include/c++/10/bits/ios_base.h ****      *  Invokes each callback with erase_event.  Destroys local storage.
 870:/usr/include/c++/10/bits/ios_base.h ****      *
 871:/usr/include/c++/10/bits/ios_base.h ****      *  Note that the ios_base object for the standard streams never gets
 872:/usr/include/c++/10/bits/ios_base.h ****      *  destroyed.  As a result, any callbacks registered with the standard
 873:/usr/include/c++/10/bits/ios_base.h ****      *  streams will not get invoked with erase_event (unless copyfmt is
 874:/usr/include/c++/10/bits/ios_base.h ****      *  used).
 875:/usr/include/c++/10/bits/ios_base.h ****     */
 876:/usr/include/c++/10/bits/ios_base.h ****     virtual ~ios_base();
 877:/usr/include/c++/10/bits/ios_base.h **** 
 878:/usr/include/c++/10/bits/ios_base.h ****   protected:
 879:/usr/include/c++/10/bits/ios_base.h ****     ios_base() throw ();
 880:/usr/include/c++/10/bits/ios_base.h **** 
 881:/usr/include/c++/10/bits/ios_base.h **** #if __cplusplus < 201103L
 882:/usr/include/c++/10/bits/ios_base.h ****   // _GLIBCXX_RESOLVE_LIB_DEFECTS
 883:/usr/include/c++/10/bits/ios_base.h ****   // 50.  Copy constructor and assignment operator of ios_base
 884:/usr/include/c++/10/bits/ios_base.h ****   private:
 885:/usr/include/c++/10/bits/ios_base.h ****     ios_base(const ios_base&);
 886:/usr/include/c++/10/bits/ios_base.h **** 
 887:/usr/include/c++/10/bits/ios_base.h ****     ios_base&
AARCH64 GAS  obj/Chapter13_4.s 			page 43


 888:/usr/include/c++/10/bits/ios_base.h ****     operator=(const ios_base&);
 889:/usr/include/c++/10/bits/ios_base.h **** #else
 890:/usr/include/c++/10/bits/ios_base.h ****   public:
 891:/usr/include/c++/10/bits/ios_base.h ****     ios_base(const ios_base&) = delete;
 892:/usr/include/c++/10/bits/ios_base.h **** 
 893:/usr/include/c++/10/bits/ios_base.h ****     ios_base&
 894:/usr/include/c++/10/bits/ios_base.h ****     operator=(const ios_base&) = delete;
 895:/usr/include/c++/10/bits/ios_base.h **** 
 896:/usr/include/c++/10/bits/ios_base.h ****   protected:
 897:/usr/include/c++/10/bits/ios_base.h ****     void
 898:/usr/include/c++/10/bits/ios_base.h ****     _M_move(ios_base&) noexcept;
 899:/usr/include/c++/10/bits/ios_base.h **** 
 900:/usr/include/c++/10/bits/ios_base.h ****     void
 901:/usr/include/c++/10/bits/ios_base.h ****     _M_swap(ios_base& __rhs) noexcept;
 902:/usr/include/c++/10/bits/ios_base.h **** #endif
 903:/usr/include/c++/10/bits/ios_base.h ****   };
 904:/usr/include/c++/10/bits/ios_base.h **** 
 905:/usr/include/c++/10/bits/ios_base.h ****   // [27.4.5.1] fmtflags manipulators
 906:/usr/include/c++/10/bits/ios_base.h ****   /// Calls base.setf(ios_base::boolalpha).
 907:/usr/include/c++/10/bits/ios_base.h ****   inline ios_base&
 908:/usr/include/c++/10/bits/ios_base.h ****   boolalpha(ios_base& __base)
 396              		.loc 4 908 3 is_stmt 1 view .LVU87
 397              	.LBE152:
 398              	.LBE161:
 399              	.LBE169:
 400              	.LBE194:
 401              	.LBE205:
 402              	.LBE214:
 909:/usr/include/c++/10/bits/ios_base.h ****   {
 910:/usr/include/c++/10/bits/ios_base.h ****     __base.setf(ios_base::boolalpha);
 403              		.loc 4 910 5 view .LVU88
 404              	.LBB215:
 405              	.LBB206:
 406              	.LBB195:
 407              	.LBB170:
 408              	.LBB162:
 409              	.LBB159:
 410              	.LBB153:
 411              	.LBI153:
 676:/usr/include/c++/10/bits/ios_base.h ****     {
 412              		.loc 4 676 5 view .LVU89
 413              	.LBB154:
 678:/usr/include/c++/10/bits/ios_base.h ****       _M_flags |= __fmtfl;
 414              		.loc 4 678 7 view .LVU90
 679:/usr/include/c++/10/bits/ios_base.h ****       return __old;
 415              		.loc 4 679 7 view .LVU91
 416              	.LBB155:
 417              	.LBI155:
  99:/usr/include/c++/10/bits/ios_base.h ****   { return __a = __a | __b; }
 418              		.loc 4 99 3 view .LVU92
 419              	.LBB156:
 100:/usr/include/c++/10/bits/ios_base.h **** 
 420              		.loc 4 100 5 view .LVU93
 421              	.LBB157:
 422              	.LBI157:
  87:/usr/include/c++/10/bits/ios_base.h ****   { return _Ios_Fmtflags(static_cast<int>(__a) | static_cast<int>(__b)); }
 423              		.loc 4 87 3 view .LVU94
AARCH64 GAS  obj/Chapter13_4.s 			page 44


 424              	.LBB158:
  88:/usr/include/c++/10/bits/ios_base.h **** 
 425              		.loc 4 88 5 view .LVU95
  88:/usr/include/c++/10/bits/ios_base.h **** 
 426              		.loc 4 88 71 is_stmt 0 view .LVU96
 427 018c 441840B9 		ldr	w4, [x2, 24]
 428 0190 84000032 		orr	w4, w4, 1
 429              	.LBE158:
 430              	.LBE157:
 100:/usr/include/c++/10/bits/ios_base.h **** 
 431              		.loc 4 100 16 view .LVU97
 432 0194 441800B9 		str	w4, [x2, 24]
 433              	.LVL20:
 100:/usr/include/c++/10/bits/ios_base.h **** 
 434              		.loc 4 100 16 view .LVU98
 435              	.LBE156:
 436              	.LBE155:
 680:/usr/include/c++/10/bits/ios_base.h ****     }
 437              		.loc 4 680 7 is_stmt 1 view .LVU99
 680:/usr/include/c++/10/bits/ios_base.h ****     }
 438              		.loc 4 680 7 is_stmt 0 view .LVU100
 439              	.LBE154:
 440              	.LBE153:
 441              	.LBE159:
 442              	.LBE162:
 443              	.LBE170:
 444              	.LBE195:
 445              	.LBE206:
 446              	.LBE215:
 911:/usr/include/c++/10/bits/ios_base.h ****     return __base;
 447              		.loc 4 911 5 is_stmt 1 view .LVU101
 448              	.LBB216:
 449              	.LBB207:
 450              	.LBB196:
 451              	.LBB171:
 452              	.LBI163:
 174:/usr/include/c++/10/ostream ****       { return _M_insert(__n); }
 453              		.loc 2 174 7 view .LVU102
 454              	.LBB166:
 175:/usr/include/c++/10/ostream **** 
 455              		.loc 2 175 25 is_stmt 0 view .LVU103
 456 0198 00000094 		bl	_ZNSo9_M_insertIbEERSoT_
 457              	.LVL21:
 175:/usr/include/c++/10/ostream **** 
 458              		.loc 2 175 25 view .LVU104
 459 019c 04048052 		mov	w4, 32
 460              	.LBE166:
 461              	.LBE171:
 462              	.LBB172:
 463              	.LBB173:
 518:/usr/include/c++/10/ostream **** 
 464              		.loc 2 518 30 view .LVU105
 465 01a0 E10314AA 		mov	x1, x20
 466 01a4 220080D2 		mov	x2, 1
 467 01a8 E43F0239 		strb	w4, [sp, 143]
 468              	.LVL22:
 518:/usr/include/c++/10/ostream **** 
AARCH64 GAS  obj/Chapter13_4.s 			page 45


 469              		.loc 2 518 30 view .LVU106
 470              	.LBE173:
 471              	.LBI172:
 517:/usr/include/c++/10/ostream ****     { return __ostream_insert(__out, &__c, 1); }
 472              		.loc 2 517 5 is_stmt 1 view .LVU107
 473              	.LBB174:
 518:/usr/include/c++/10/ostream **** 
 474              		.loc 2 518 30 is_stmt 0 view .LVU108
 475 01ac 00000094 		bl	_ZSt16__ostream_insertIcSt11char_traitsIcEERSt13basic_ostreamIT_T0_ES6_PKS3_l
 476              	.LVL23:
 518:/usr/include/c++/10/ostream **** 
 477              		.loc 2 518 30 view .LVU109
 478              	.LBE174:
 479              	.LBE172:
  21:Chapter13_4.cpp **** 			cout<<ops[j]<<" = "<<boolalpha<<results[j]<<' ';
 480              		.loc 1 21 3 is_stmt 1 view .LVU110
  21:Chapter13_4.cpp **** 			cout<<ops[j]<<" = "<<boolalpha<<results[j]<<' ';
 481              		.loc 1 21 19 view .LVU111
 482 01b0 7F2200F1 		cmp	x19, 8
 483 01b4 80010054 		beq	.L10
 484              	.L4:
 485              	.LVL24:
 486              		.loc 1 22 4 view .LVU112
 487              		.loc 1 22 18 is_stmt 0 view .LVU113
 488 01b8 E00E138B 		add	x0, x23, x19, lsl 3
 489 01bc 1C805FF8 		ldr	x28, [x0, -8]
 490              	.LVL25:
 491              	.LBB175:
 492              	.LBI127:
 606:/usr/include/c++/10/ostream ****     {
 493              		.loc 2 606 5 is_stmt 1 view .LVU114
 494              	.LBB142:
 495              	.LBB132:
 496              	.LBI129:
 358:/usr/include/c++/10/bits/char_traits.h ****       {
 497              		.loc 3 358 7 view .LVU115
 498              	.LBB131:
 499              		.loc 3 364 2 view .LVU116
 500              		.loc 3 364 25 is_stmt 0 view .LVU117
 501 01c0 E0031CAA 		mov	x0, x28
 502              	.LBE131:
 503              	.LBE132:
 608:/usr/include/c++/10/ostream **** 	__out.setstate(ios_base::badbit);
 504              		.loc 2 608 7 view .LVU118
 505 01c4 5CFCFFB5 		cbnz	x28, .L2
 506              	.LVL26:
 507              	.LBB133:
 508              	.LBI133:
 606:/usr/include/c++/10/ostream ****     {
 509              		.loc 2 606 5 is_stmt 1 view .LVU119
 510              	.LBB134:
 609:/usr/include/c++/10/ostream ****       else
 511              		.loc 2 609 16 is_stmt 0 view .LVU120
 512 01c8 600340F9 		ldr	x0, [x27]
 513 01cc 00805EF8 		ldr	x0, [x0, -24]
 514 01d0 6003008B 		add	x0, x27, x0
 515              	.LVL27:
AARCH64 GAS  obj/Chapter13_4.s 			page 46


 516              	.LBB135:
 517              	.LBI135:
 518              		.file 5 "/usr/include/c++/10/bits/basic_ios.h"
   1:/usr/include/c++/10/bits/basic_ios.h **** // Iostreams base classes -*- C++ -*-
   2:/usr/include/c++/10/bits/basic_ios.h **** 
   3:/usr/include/c++/10/bits/basic_ios.h **** // Copyright (C) 1997-2020 Free Software Foundation, Inc.
   4:/usr/include/c++/10/bits/basic_ios.h **** //
   5:/usr/include/c++/10/bits/basic_ios.h **** // This file is part of the GNU ISO C++ Library.  This library is free
   6:/usr/include/c++/10/bits/basic_ios.h **** // software; you can redistribute it and/or modify it under the
   7:/usr/include/c++/10/bits/basic_ios.h **** // terms of the GNU General Public License as published by the
   8:/usr/include/c++/10/bits/basic_ios.h **** // Free Software Foundation; either version 3, or (at your option)
   9:/usr/include/c++/10/bits/basic_ios.h **** // any later version.
  10:/usr/include/c++/10/bits/basic_ios.h **** 
  11:/usr/include/c++/10/bits/basic_ios.h **** // This library is distributed in the hope that it will be useful,
  12:/usr/include/c++/10/bits/basic_ios.h **** // but WITHOUT ANY WARRANTY; without even the implied warranty of
  13:/usr/include/c++/10/bits/basic_ios.h **** // MERCHANTABILITY or FITNESS FOR A PARTICULAR PURPOSE.  See the
  14:/usr/include/c++/10/bits/basic_ios.h **** // GNU General Public License for more details.
  15:/usr/include/c++/10/bits/basic_ios.h **** 
  16:/usr/include/c++/10/bits/basic_ios.h **** // Under Section 7 of GPL version 3, you are granted additional
  17:/usr/include/c++/10/bits/basic_ios.h **** // permissions described in the GCC Runtime Library Exception, version
  18:/usr/include/c++/10/bits/basic_ios.h **** // 3.1, as published by the Free Software Foundation.
  19:/usr/include/c++/10/bits/basic_ios.h **** 
  20:/usr/include/c++/10/bits/basic_ios.h **** // You should have received a copy of the GNU General Public License and
  21:/usr/include/c++/10/bits/basic_ios.h **** // a copy of the GCC Runtime Library Exception along with this program;
  22:/usr/include/c++/10/bits/basic_ios.h **** // see the files COPYING3 and COPYING.RUNTIME respectively.  If not, see
  23:/usr/include/c++/10/bits/basic_ios.h **** // <http://www.gnu.org/licenses/>.
  24:/usr/include/c++/10/bits/basic_ios.h **** 
  25:/usr/include/c++/10/bits/basic_ios.h **** /** @file bits/basic_ios.h
  26:/usr/include/c++/10/bits/basic_ios.h ****  *  This is an internal header file, included by other library headers.
  27:/usr/include/c++/10/bits/basic_ios.h ****  *  Do not attempt to use it directly. @headername{ios}
  28:/usr/include/c++/10/bits/basic_ios.h ****  */
  29:/usr/include/c++/10/bits/basic_ios.h **** 
  30:/usr/include/c++/10/bits/basic_ios.h **** #ifndef _BASIC_IOS_H
  31:/usr/include/c++/10/bits/basic_ios.h **** #define _BASIC_IOS_H 1
  32:/usr/include/c++/10/bits/basic_ios.h **** 
  33:/usr/include/c++/10/bits/basic_ios.h **** #pragma GCC system_header
  34:/usr/include/c++/10/bits/basic_ios.h **** 
  35:/usr/include/c++/10/bits/basic_ios.h **** #include <bits/localefwd.h>
  36:/usr/include/c++/10/bits/basic_ios.h **** #include <bits/locale_classes.h>
  37:/usr/include/c++/10/bits/basic_ios.h **** #include <bits/locale_facets.h>
  38:/usr/include/c++/10/bits/basic_ios.h **** #include <bits/streambuf_iterator.h>
  39:/usr/include/c++/10/bits/basic_ios.h **** #include <bits/move.h>
  40:/usr/include/c++/10/bits/basic_ios.h **** 
  41:/usr/include/c++/10/bits/basic_ios.h **** namespace std _GLIBCXX_VISIBILITY(default)
  42:/usr/include/c++/10/bits/basic_ios.h **** {
  43:/usr/include/c++/10/bits/basic_ios.h **** _GLIBCXX_BEGIN_NAMESPACE_VERSION
  44:/usr/include/c++/10/bits/basic_ios.h **** 
  45:/usr/include/c++/10/bits/basic_ios.h ****   template<typename _Facet>
  46:/usr/include/c++/10/bits/basic_ios.h ****     inline const _Facet&
  47:/usr/include/c++/10/bits/basic_ios.h ****     __check_facet(const _Facet* __f)
  48:/usr/include/c++/10/bits/basic_ios.h ****     {
  49:/usr/include/c++/10/bits/basic_ios.h ****       if (!__f)
  50:/usr/include/c++/10/bits/basic_ios.h **** 	__throw_bad_cast();
  51:/usr/include/c++/10/bits/basic_ios.h ****       return *__f;
  52:/usr/include/c++/10/bits/basic_ios.h ****     }
  53:/usr/include/c++/10/bits/basic_ios.h **** 
  54:/usr/include/c++/10/bits/basic_ios.h ****   /**
AARCH64 GAS  obj/Chapter13_4.s 			page 47


  55:/usr/include/c++/10/bits/basic_ios.h ****    *  @brief Template class basic_ios, virtual base class for all
  56:/usr/include/c++/10/bits/basic_ios.h ****    *  stream classes. 
  57:/usr/include/c++/10/bits/basic_ios.h ****    *  @ingroup io
  58:/usr/include/c++/10/bits/basic_ios.h ****    *
  59:/usr/include/c++/10/bits/basic_ios.h ****    *  @tparam _CharT  Type of character stream.
  60:/usr/include/c++/10/bits/basic_ios.h ****    *  @tparam _Traits  Traits for character type, defaults to
  61:/usr/include/c++/10/bits/basic_ios.h ****    *                   char_traits<_CharT>.
  62:/usr/include/c++/10/bits/basic_ios.h ****    *
  63:/usr/include/c++/10/bits/basic_ios.h ****    *  Most of the member functions called dispatched on stream objects
  64:/usr/include/c++/10/bits/basic_ios.h ****    *  (e.g., @c std::cout.foo(bar);) are consolidated in this class.
  65:/usr/include/c++/10/bits/basic_ios.h ****   */
  66:/usr/include/c++/10/bits/basic_ios.h ****   template<typename _CharT, typename _Traits>
  67:/usr/include/c++/10/bits/basic_ios.h ****     class basic_ios : public ios_base
  68:/usr/include/c++/10/bits/basic_ios.h ****     {
  69:/usr/include/c++/10/bits/basic_ios.h ****     public:
  70:/usr/include/c++/10/bits/basic_ios.h ****       //@{
  71:/usr/include/c++/10/bits/basic_ios.h ****       /**
  72:/usr/include/c++/10/bits/basic_ios.h ****        *  These are standard types.  They permit a standardized way of
  73:/usr/include/c++/10/bits/basic_ios.h ****        *  referring to names of (or names dependent on) the template
  74:/usr/include/c++/10/bits/basic_ios.h ****        *  parameters, which are specific to the implementation.
  75:/usr/include/c++/10/bits/basic_ios.h ****       */
  76:/usr/include/c++/10/bits/basic_ios.h ****       typedef _CharT                                 char_type;
  77:/usr/include/c++/10/bits/basic_ios.h ****       typedef typename _Traits::int_type             int_type;
  78:/usr/include/c++/10/bits/basic_ios.h ****       typedef typename _Traits::pos_type             pos_type;
  79:/usr/include/c++/10/bits/basic_ios.h ****       typedef typename _Traits::off_type             off_type;
  80:/usr/include/c++/10/bits/basic_ios.h ****       typedef _Traits                                traits_type;
  81:/usr/include/c++/10/bits/basic_ios.h ****       //@}
  82:/usr/include/c++/10/bits/basic_ios.h **** 
  83:/usr/include/c++/10/bits/basic_ios.h ****       //@{
  84:/usr/include/c++/10/bits/basic_ios.h ****       /**
  85:/usr/include/c++/10/bits/basic_ios.h ****        *  These are non-standard types.
  86:/usr/include/c++/10/bits/basic_ios.h ****       */
  87:/usr/include/c++/10/bits/basic_ios.h ****       typedef ctype<_CharT>                          __ctype_type;
  88:/usr/include/c++/10/bits/basic_ios.h ****       typedef num_put<_CharT, ostreambuf_iterator<_CharT, _Traits> >
  89:/usr/include/c++/10/bits/basic_ios.h **** 						     __num_put_type;
  90:/usr/include/c++/10/bits/basic_ios.h ****       typedef num_get<_CharT, istreambuf_iterator<_CharT, _Traits> >
  91:/usr/include/c++/10/bits/basic_ios.h **** 						     __num_get_type;
  92:/usr/include/c++/10/bits/basic_ios.h ****       //@}
  93:/usr/include/c++/10/bits/basic_ios.h **** 
  94:/usr/include/c++/10/bits/basic_ios.h ****       // Data members:
  95:/usr/include/c++/10/bits/basic_ios.h ****     protected:
  96:/usr/include/c++/10/bits/basic_ios.h ****       basic_ostream<_CharT, _Traits>*                _M_tie;
  97:/usr/include/c++/10/bits/basic_ios.h ****       mutable char_type                              _M_fill;
  98:/usr/include/c++/10/bits/basic_ios.h ****       mutable bool                                   _M_fill_init;
  99:/usr/include/c++/10/bits/basic_ios.h ****       basic_streambuf<_CharT, _Traits>*              _M_streambuf;
 100:/usr/include/c++/10/bits/basic_ios.h **** 
 101:/usr/include/c++/10/bits/basic_ios.h ****       // Cached use_facet<ctype>, which is based on the current locale info.
 102:/usr/include/c++/10/bits/basic_ios.h ****       const __ctype_type*                            _M_ctype;
 103:/usr/include/c++/10/bits/basic_ios.h ****       // For ostream.
 104:/usr/include/c++/10/bits/basic_ios.h ****       const __num_put_type*                          _M_num_put;
 105:/usr/include/c++/10/bits/basic_ios.h ****       // For istream.
 106:/usr/include/c++/10/bits/basic_ios.h ****       const __num_get_type*                          _M_num_get;
 107:/usr/include/c++/10/bits/basic_ios.h **** 
 108:/usr/include/c++/10/bits/basic_ios.h ****     public:
 109:/usr/include/c++/10/bits/basic_ios.h ****       //@{
 110:/usr/include/c++/10/bits/basic_ios.h ****       /**
 111:/usr/include/c++/10/bits/basic_ios.h ****        *  @brief  The quick-and-easy status check.
AARCH64 GAS  obj/Chapter13_4.s 			page 48


 112:/usr/include/c++/10/bits/basic_ios.h ****        *
 113:/usr/include/c++/10/bits/basic_ios.h ****        *  This allows you to write constructs such as
 114:/usr/include/c++/10/bits/basic_ios.h ****        *  <code>if (!a_stream) ...</code> and <code>while (a_stream) ...</code>
 115:/usr/include/c++/10/bits/basic_ios.h ****       */
 116:/usr/include/c++/10/bits/basic_ios.h **** #if __cplusplus >= 201103L
 117:/usr/include/c++/10/bits/basic_ios.h ****       explicit operator bool() const
 118:/usr/include/c++/10/bits/basic_ios.h ****       { return !this->fail(); }
 119:/usr/include/c++/10/bits/basic_ios.h **** #else
 120:/usr/include/c++/10/bits/basic_ios.h ****       operator void*() const
 121:/usr/include/c++/10/bits/basic_ios.h ****       { return this->fail() ? 0 : const_cast<basic_ios*>(this); }
 122:/usr/include/c++/10/bits/basic_ios.h **** #endif
 123:/usr/include/c++/10/bits/basic_ios.h **** 
 124:/usr/include/c++/10/bits/basic_ios.h ****       bool
 125:/usr/include/c++/10/bits/basic_ios.h ****       operator!() const
 126:/usr/include/c++/10/bits/basic_ios.h ****       { return this->fail(); }
 127:/usr/include/c++/10/bits/basic_ios.h ****       //@}
 128:/usr/include/c++/10/bits/basic_ios.h **** 
 129:/usr/include/c++/10/bits/basic_ios.h ****       /**
 130:/usr/include/c++/10/bits/basic_ios.h ****        *  @brief  Returns the error state of the stream buffer.
 131:/usr/include/c++/10/bits/basic_ios.h ****        *  @return  A bit pattern (well, isn't everything?)
 132:/usr/include/c++/10/bits/basic_ios.h ****        *
 133:/usr/include/c++/10/bits/basic_ios.h ****        *  See std::ios_base::iostate for the possible bit values.  Most
 134:/usr/include/c++/10/bits/basic_ios.h ****        *  users will call one of the interpreting wrappers, e.g., good().
 135:/usr/include/c++/10/bits/basic_ios.h ****       */
 136:/usr/include/c++/10/bits/basic_ios.h ****       iostate
 137:/usr/include/c++/10/bits/basic_ios.h ****       rdstate() const
 138:/usr/include/c++/10/bits/basic_ios.h ****       { return _M_streambuf_state; }
 139:/usr/include/c++/10/bits/basic_ios.h **** 
 140:/usr/include/c++/10/bits/basic_ios.h ****       /**
 141:/usr/include/c++/10/bits/basic_ios.h ****        *  @brief  [Re]sets the error state.
 142:/usr/include/c++/10/bits/basic_ios.h ****        *  @param  __state  The new state flag(s) to set.
 143:/usr/include/c++/10/bits/basic_ios.h ****        *
 144:/usr/include/c++/10/bits/basic_ios.h ****        *  See std::ios_base::iostate for the possible bit values.  Most
 145:/usr/include/c++/10/bits/basic_ios.h ****        *  users will not need to pass an argument.
 146:/usr/include/c++/10/bits/basic_ios.h ****       */
 147:/usr/include/c++/10/bits/basic_ios.h ****       void
 148:/usr/include/c++/10/bits/basic_ios.h ****       clear(iostate __state = goodbit);
 149:/usr/include/c++/10/bits/basic_ios.h **** 
 150:/usr/include/c++/10/bits/basic_ios.h ****       /**
 151:/usr/include/c++/10/bits/basic_ios.h ****        *  @brief  Sets additional flags in the error state.
 152:/usr/include/c++/10/bits/basic_ios.h ****        *  @param  __state  The additional state flag(s) to set.
 153:/usr/include/c++/10/bits/basic_ios.h ****        *
 154:/usr/include/c++/10/bits/basic_ios.h ****        *  See std::ios_base::iostate for the possible bit values.
 155:/usr/include/c++/10/bits/basic_ios.h ****       */
 156:/usr/include/c++/10/bits/basic_ios.h ****       void
 157:/usr/include/c++/10/bits/basic_ios.h ****       setstate(iostate __state)
 519              		.loc 5 157 7 is_stmt 1 view .LVU121
 520              	.LBB136:
 521              	.LBB137:
 522              	.LBI137:
 137:/usr/include/c++/10/bits/basic_ios.h ****       { return _M_streambuf_state; }
 523              		.loc 5 137 7 view .LVU122
 137:/usr/include/c++/10/bits/basic_ios.h ****       { return _M_streambuf_state; }
 524              		.loc 5 137 7 is_stmt 0 view .LVU123
 525              	.LBE137:
 526              	.LBB138:
 527              	.LBI138:
AARCH64 GAS  obj/Chapter13_4.s 			page 49


 169:/usr/include/c++/10/bits/ios_base.h ****   { return _Ios_Iostate(static_cast<int>(__a) | static_cast<int>(__b)); }
 528              		.loc 4 169 3 is_stmt 1 view .LVU124
 529              	.LBB139:
 170:/usr/include/c++/10/bits/ios_base.h **** 
 530              		.loc 4 170 5 view .LVU125
 170:/usr/include/c++/10/bits/ios_base.h **** 
 531              		.loc 4 170 70 is_stmt 0 view .LVU126
 532 01d4 012040B9 		ldr	w1, [x0, 32]
 533              	.LBE139:
 534              	.LBE138:
 158:/usr/include/c++/10/bits/basic_ios.h ****       { this->clear(this->rdstate() | __state); }
 535              		.loc 5 158 20 view .LVU127
 536 01d8 21000032 		orr	w1, w1, 1
 537 01dc 00000094 		bl	_ZNSt9basic_iosIcSt11char_traitsIcEE5clearESt12_Ios_Iostate
 538              	.LVL28:
 539              		.loc 5 158 20 view .LVU128
 540 01e0 E0FFFF17 		b	.L3
 541              	.LVL29:
 542              		.p2align 2,,3
 543              	.L10:
 544              		.loc 5 158 20 view .LVU129
 545              	.LBE136:
 546              	.LBE135:
 547              	.LBE134:
 548              	.LBE133:
 549              	.LBE142:
 550              	.LBE175:
 551              	.LBE196:
  23:Chapter13_4.cpp **** 		}
  24:Chapter13_4.cpp **** 		cout<<'\n';
 552              		.loc 1 24 3 is_stmt 1 view .LVU130
 553              		.loc 1 24 3 is_stmt 0 view .LVU131
 554              	.LBE207:
  18:Chapter13_4.cpp **** 		comapareFloat_(f_a[i],f_b[i],results);
 555              		.loc 1 18 18 view .LVU132
 556 01e4 39070091 		add	x25, x25, 1
 557              	.LVL30:
 558              	.LBB208:
 559              	.LBB197:
 560              	.LBB198:
 518:/usr/include/c++/10/ostream **** 
 561              		.loc 2 518 30 view .LVU133
 562 01e8 E0031BAA 		mov	x0, x27
 563 01ec E10314AA 		mov	x1, x20
 564 01f0 220080D2 		mov	x2, 1
 565 01f4 FA3F0239 		strb	w26, [sp, 143]
 566              	.LVL31:
 518:/usr/include/c++/10/ostream **** 
 567              		.loc 2 518 30 view .LVU134
 568              	.LBE198:
 569              	.LBI197:
 517:/usr/include/c++/10/ostream ****     { return __ostream_insert(__out, &__c, 1); }
 570              		.loc 2 517 5 is_stmt 1 view .LVU135
 571              	.LBB199:
 518:/usr/include/c++/10/ostream **** 
 572              		.loc 2 518 30 is_stmt 0 view .LVU136
 573 01f8 00000094 		bl	_ZSt16__ostream_insertIcSt11char_traitsIcEERSt13basic_ostreamIT_T0_ES6_PKS3_l
AARCH64 GAS  obj/Chapter13_4.s 			page 50


 574              	.LVL32:
 518:/usr/include/c++/10/ostream **** 
 575              		.loc 2 518 30 view .LVU137
 576              	.LBE199:
 577              	.LBE197:
 578              	.LBE208:
  18:Chapter13_4.cpp **** 		comapareFloat_(f_a[i],f_b[i],results);
 579              		.loc 1 18 2 is_stmt 1 view .LVU138
  18:Chapter13_4.cpp **** 		comapareFloat_(f_a[i],f_b[i],results);
 580              		.loc 1 18 18 view .LVU139
 581 01fc 3F1F00F1 		cmp	x25, 7
 582 0200 41F5FF54 		bne	.L5
 583              	.LBE216:
  25:Chapter13_4.cpp **** 	}
  26:Chapter13_4.cpp **** 	return 0;
 584              		.loc 1 26 2 view .LVU140
  27:Chapter13_4.cpp **** }
 585              		.loc 1 27 1 is_stmt 0 view .LVU141
 586 0204 00008052 		mov	w0, 0
 587 0208 F35341A9 		ldp	x19, x20, [sp, 16]
 588 020c F55B42A9 		ldp	x21, x22, [sp, 32]
 589 0210 F76343A9 		ldp	x23, x24, [sp, 48]
 590 0214 F96B44A9 		ldp	x25, x26, [sp, 64]
 591 0218 FB7345A9 		ldp	x27, x28, [sp, 80]
 592 021c E827466D 		ldp	d8, d9, [sp, 96]
 593 0220 FD7BD0A8 		ldp	x29, x30, [sp], 256
 594              		.cfi_restore 30
 595              		.cfi_restore 29
 596              		.cfi_restore 27
 597              		.cfi_restore 28
 598              		.cfi_restore 25
 599              		.cfi_restore 26
 600              		.cfi_restore 23
 601              		.cfi_restore 24
 602              		.cfi_restore 21
 603              		.cfi_restore 22
 604              		.cfi_restore 19
 605              		.cfi_restore 20
 606              		.cfi_restore 72
 607              		.cfi_restore 73
 608              		.cfi_def_cfa_offset 0
 609 0224 C0035FD6 		ret
 610              		.cfi_endproc
 611              	.LFE2373:
 612              		.size	main, .-main
 613              		.align	2
 614 0228 1F2003D5 		.p2align 4,,11
 614      1F2003D5 
 615              		.type	_GLOBAL__sub_I_main, %function
 616              	_GLOBAL__sub_I_main:
 617              	.LFB2887:
 618              		.loc 1 27 1 is_stmt 1 view -0
 619              		.cfi_startproc
 620              	.LVL33:
 621              	.LBB217:
 622              	.LBI217:
 623              		.loc 1 27 1 view .LVU143
AARCH64 GAS  obj/Chapter13_4.s 			page 51


 624              	.LBE217:
 625 0230 FD7BBEA9 		stp	x29, x30, [sp, -32]!
 626              		.cfi_def_cfa_offset 32
 627              		.cfi_offset 29, -32
 628              		.cfi_offset 30, -24
 629 0234 FD030091 		mov	x29, sp
 630 0238 F30B00F9 		str	x19, [sp, 16]
 631              		.cfi_offset 19, -16
 632              	.LBB221:
 633              	.LBB218:
 634              		.file 6 "/usr/include/c++/10/iostream"
   1:/usr/include/c++/10/iostream **** // Standard iostream objects -*- C++ -*-
   2:/usr/include/c++/10/iostream **** 
   3:/usr/include/c++/10/iostream **** // Copyright (C) 1997-2020 Free Software Foundation, Inc.
   4:/usr/include/c++/10/iostream **** //
   5:/usr/include/c++/10/iostream **** // This file is part of the GNU ISO C++ Library.  This library is free
   6:/usr/include/c++/10/iostream **** // software; you can redistribute it and/or modify it under the
   7:/usr/include/c++/10/iostream **** // terms of the GNU General Public License as published by the
   8:/usr/include/c++/10/iostream **** // Free Software Foundation; either version 3, or (at your option)
   9:/usr/include/c++/10/iostream **** // any later version.
  10:/usr/include/c++/10/iostream **** 
  11:/usr/include/c++/10/iostream **** // This library is distributed in the hope that it will be useful,
  12:/usr/include/c++/10/iostream **** // but WITHOUT ANY WARRANTY; without even the implied warranty of
  13:/usr/include/c++/10/iostream **** // MERCHANTABILITY or FITNESS FOR A PARTICULAR PURPOSE.  See the
  14:/usr/include/c++/10/iostream **** // GNU General Public License for more details.
  15:/usr/include/c++/10/iostream **** 
  16:/usr/include/c++/10/iostream **** // Under Section 7 of GPL version 3, you are granted additional
  17:/usr/include/c++/10/iostream **** // permissions described in the GCC Runtime Library Exception, version
  18:/usr/include/c++/10/iostream **** // 3.1, as published by the Free Software Foundation.
  19:/usr/include/c++/10/iostream **** 
  20:/usr/include/c++/10/iostream **** // You should have received a copy of the GNU General Public License and
  21:/usr/include/c++/10/iostream **** // a copy of the GCC Runtime Library Exception along with this program;
  22:/usr/include/c++/10/iostream **** // see the files COPYING3 and COPYING.RUNTIME respectively.  If not, see
  23:/usr/include/c++/10/iostream **** // <http://www.gnu.org/licenses/>.
  24:/usr/include/c++/10/iostream **** 
  25:/usr/include/c++/10/iostream **** /** @file include/iostream
  26:/usr/include/c++/10/iostream ****  *  This is a Standard C++ Library header.
  27:/usr/include/c++/10/iostream ****  */
  28:/usr/include/c++/10/iostream **** 
  29:/usr/include/c++/10/iostream **** //
  30:/usr/include/c++/10/iostream **** // ISO C++ 14882: 27.3  Standard iostream objects
  31:/usr/include/c++/10/iostream **** //
  32:/usr/include/c++/10/iostream **** 
  33:/usr/include/c++/10/iostream **** #ifndef _GLIBCXX_IOSTREAM
  34:/usr/include/c++/10/iostream **** #define _GLIBCXX_IOSTREAM 1
  35:/usr/include/c++/10/iostream **** 
  36:/usr/include/c++/10/iostream **** #pragma GCC system_header
  37:/usr/include/c++/10/iostream **** 
  38:/usr/include/c++/10/iostream **** #include <bits/c++config.h>
  39:/usr/include/c++/10/iostream **** #include <ostream>
  40:/usr/include/c++/10/iostream **** #include <istream>
  41:/usr/include/c++/10/iostream **** 
  42:/usr/include/c++/10/iostream **** namespace std _GLIBCXX_VISIBILITY(default)
  43:/usr/include/c++/10/iostream **** {
  44:/usr/include/c++/10/iostream **** _GLIBCXX_BEGIN_NAMESPACE_VERSION
  45:/usr/include/c++/10/iostream **** 
  46:/usr/include/c++/10/iostream ****   /**
AARCH64 GAS  obj/Chapter13_4.s 			page 52


  47:/usr/include/c++/10/iostream ****    *  @name Standard Stream Objects
  48:/usr/include/c++/10/iostream ****    *
  49:/usr/include/c++/10/iostream ****    *  The &lt;iostream&gt; header declares the eight <em>standard stream
  50:/usr/include/c++/10/iostream ****    *  objects</em>.  For other declarations, see
  51:/usr/include/c++/10/iostream ****    *  http://gcc.gnu.org/onlinedocs/libstdc++/manual/io.html
  52:/usr/include/c++/10/iostream ****    *  and the @link iosfwd I/O forward declarations @endlink
  53:/usr/include/c++/10/iostream ****    *
  54:/usr/include/c++/10/iostream ****    *  They are required by default to cooperate with the global C
  55:/usr/include/c++/10/iostream ****    *  library's @c FILE streams, and to be available during program
  56:/usr/include/c++/10/iostream ****    *  startup and termination. For more information, see the section of the
  57:/usr/include/c++/10/iostream ****    *  manual linked to above.
  58:/usr/include/c++/10/iostream ****   */
  59:/usr/include/c++/10/iostream ****   //@{
  60:/usr/include/c++/10/iostream ****   extern istream cin;		/// Linked to standard input
  61:/usr/include/c++/10/iostream ****   extern ostream cout;		/// Linked to standard output
  62:/usr/include/c++/10/iostream ****   extern ostream cerr;		/// Linked to standard error (unbuffered)
  63:/usr/include/c++/10/iostream ****   extern ostream clog;		/// Linked to standard error (buffered)
  64:/usr/include/c++/10/iostream **** 
  65:/usr/include/c++/10/iostream **** #ifdef _GLIBCXX_USE_WCHAR_T
  66:/usr/include/c++/10/iostream ****   extern wistream wcin;		/// Linked to standard input
  67:/usr/include/c++/10/iostream ****   extern wostream wcout;	/// Linked to standard output
  68:/usr/include/c++/10/iostream ****   extern wostream wcerr;	/// Linked to standard error (unbuffered)
  69:/usr/include/c++/10/iostream ****   extern wostream wclog;	/// Linked to standard error (buffered)
  70:/usr/include/c++/10/iostream **** #endif
  71:/usr/include/c++/10/iostream ****   //@}
  72:/usr/include/c++/10/iostream **** 
  73:/usr/include/c++/10/iostream ****   // For construction of filebuffers for cout, cin, cerr, clog et. al.
  74:/usr/include/c++/10/iostream ****   static ios_base::Init __ioinit;
 635              		.loc 6 74 25 is_stmt 0 view .LVU144
 636 023c 13000090 		adrp	x19, .LANCHOR2
 637 0240 73020091 		add	x19, x19, :lo12:.LANCHOR2
 638 0244 E00313AA 		mov	x0, x19
 639 0248 00000094 		bl	_ZNSt8ios_base4InitC1Ev
 640              	.LVL34:
 641 024c E10313AA 		mov	x1, x19
 642 0250 00000090 		adrp	x0, :got:_ZNSt8ios_base4InitD1Ev
 643              	.LBE218:
 644              	.LBE221:
 645              		.loc 1 27 1 view .LVU145
 646 0254 F30B40F9 		ldr	x19, [sp, 16]
 647              	.LBB222:
 648              	.LBB219:
 649              		.loc 6 74 25 view .LVU146
 650 0258 02000090 		adrp	x2, __dso_handle
 651              	.LBE219:
 652              	.LBE222:
 653              		.loc 1 27 1 view .LVU147
 654 025c FD7BC2A8 		ldp	x29, x30, [sp], 32
 655              		.cfi_restore 30
 656              		.cfi_restore 29
 657              		.cfi_restore 19
 658              		.cfi_def_cfa_offset 0
 659              	.LBB223:
 660              	.LBB220:
 661              		.loc 6 74 25 view .LVU148
 662 0260 42000091 		add	x2, x2, :lo12:__dso_handle
 663 0264 000040F9 		ldr	x0, [x0, #:got_lo12:_ZNSt8ios_base4InitD1Ev]
AARCH64 GAS  obj/Chapter13_4.s 			page 53


 664 0268 00000014 		b	__cxa_atexit
 665              	.LVL35:
 666              	.LBE220:
 667              	.LBE223:
 668              		.cfi_endproc
 669              	.LFE2887:
 670              		.size	_GLOBAL__sub_I_main, .-_GLOBAL__sub_I_main
 671              		.section	.init_array,"aw"
 672              		.align	3
 673 0000 00000000 		.xword	_GLOBAL__sub_I_main
 673      00000000 
 674              		.section	.rodata
 675              		.align	3
 676              		.set	.LANCHOR1,. + 0
 677              	.LC8:
 678 0000 66E69AC2 		.word	-1030035866
 679 0004 66E6C842 		.word	1120462438
 680 0008 ACC52737 		.word	925353388
 681 000c 15F32551 		.word	1361441557
 682 0010 1B2F0541 		.word	1090858779
 683 0014 00000000 		.word	0
 684              	.LC9:
 685 0018 CD5C4244 		.word	1145199821
 686 001c 9A19C842 		.word	1120410010
 687 0020 A48C3837 		.word	926452900
 688 0024 15F32551 		.word	1361441557
 689 0028 E3A5B0C2 		.word	-1028610589
 690 002c 00008A42 		.word	1116340224
 691              		.data
 692              		.align	3
 693              		.set	.LANCHOR0,. + 0
 694              	.LC10:
 695 0000 00000000 		.xword	.LC0
 695      00000000 
 696 0008 00000000 		.xword	.LC1
 696      00000000 
 697 0010 00000000 		.xword	.LC2
 697      00000000 
 698 0018 00000000 		.xword	.LC3
 698      00000000 
 699 0020 00000000 		.xword	.LC4
 699      00000000 
 700 0028 00000000 		.xword	.LC5
 700      00000000 
 701 0030 00000000 		.xword	.LC6
 701      00000000 
 702              		.bss
 703              		.align	3
 704              		.set	.LANCHOR2,. + 0
 705              		.type	_ZStL8__ioinit, %object
 706              		.size	_ZStL8__ioinit, 1
 707              	_ZStL8__ioinit:
 708 0000 00       		.zero	1
 709              		.text
 710              	.Letext0:
 711              		.file 7 "/usr/include/c++/10/cwchar"
 712              		.file 8 "/usr/include/c++/10/bits/exception_ptr.h"
AARCH64 GAS  obj/Chapter13_4.s 			page 54


 713              		.file 9 "/usr/include/aarch64-linux-gnu/c++/10/bits/c++config.h"
 714              		.file 10 "/usr/include/c++/10/bits/stl_pair.h"
 715              		.file 11 "/usr/include/c++/10/type_traits"
 716              		.file 12 "/usr/include/c++/10/debug/debug.h"
 717              		.file 13 "/usr/include/c++/10/cstdint"
 718              		.file 14 "/usr/include/c++/10/clocale"
 719              		.file 15 "/usr/include/c++/10/cstdlib"
 720              		.file 16 "/usr/include/c++/10/cstdio"
 721              		.file 17 "/usr/include/c++/10/bits/basic_string.h"
 722              		.file 18 "/usr/include/c++/10/system_error"
 723              		.file 19 "/usr/include/c++/10/cwctype"
 724              		.file 20 "/usr/include/c++/10/bits/ostream.tcc"
 725              		.file 21 "/usr/include/c++/10/iosfwd"
 726              		.file 22 "/usr/include/c++/10/ctime"
 727              		.file 23 "/usr/include/c++/10/bits/uses_allocator.h"
 728              		.file 24 "/usr/include/c++/10/tuple"
 729              		.file 25 "/usr/include/c++/10/bits/basic_ios.tcc"
 730              		.file 26 "/usr/include/c++/10/bits/ostream_insert.h"
 731              		.file 27 "/usr/include/c++/10/bits/predefined_ops.h"
 732              		.file 28 "/usr/lib/gcc/aarch64-linux-gnu/10/include/stddef.h"
 733              		.file 29 "/usr/lib/gcc/aarch64-linux-gnu/10/include/stdarg.h"
 734              		.file 30 "/usr/include/aarch64-linux-gnu/bits/types/wint_t.h"
 735              		.file 31 "/usr/include/aarch64-linux-gnu/bits/types/__mbstate_t.h"
 736              		.file 32 "/usr/include/aarch64-linux-gnu/bits/types/mbstate_t.h"
 737              		.file 33 "/usr/include/aarch64-linux-gnu/bits/types/__FILE.h"
 738              		.file 34 "/usr/include/aarch64-linux-gnu/bits/types/struct_FILE.h"
 739              		.file 35 "/usr/include/aarch64-linux-gnu/bits/types/FILE.h"
 740              		.file 36 "/usr/include/wchar.h"
 741              		.file 37 "/usr/include/aarch64-linux-gnu/bits/types/struct_tm.h"
 742              		.file 38 "/usr/include/aarch64-linux-gnu/bits/types.h"
 743              		.file 39 "/usr/include/aarch64-linux-gnu/bits/stdint-intn.h"
 744              		.file 40 "/usr/include/aarch64-linux-gnu/bits/stdint-uintn.h"
 745              		.file 41 "/usr/include/stdint.h"
 746              		.file 42 "/usr/include/locale.h"
 747              		.file 43 "/usr/include/aarch64-linux-gnu/bits/types/time_t.h"
 748              		.file 44 "/usr/include/aarch64-linux-gnu/bits/types/clock_t.h"
 749              		.file 45 "/usr/include/aarch64-linux-gnu/c++/10/bits/atomic_word.h"
 750              		.file 46 "/usr/include/stdlib.h"
 751              		.file 47 "/usr/include/aarch64-linux-gnu/bits/stdlib-float.h"
 752              		.file 48 "/usr/include/aarch64-linux-gnu/bits/stdlib-bsearch.h"
 753              		.file 49 "/usr/include/aarch64-linux-gnu/bits/types/__fpos_t.h"
 754              		.file 50 "/usr/include/stdio.h"
 755              		.file 51 "/usr/include/aarch64-linux-gnu/bits/stdio.h"
 756              		.file 52 "/usr/include/aarch64-linux-gnu/bits/wctype-wchar.h"
 757              		.file 53 "/usr/include/wctype.h"
 758              		.file 54 "/usr/include/time.h"
 759              		.file 55 "<built-in>"
 10325              		.section	.note.GNU-stack,"",@progbits
