AARCH64 GAS  obj/Chapter12_3.s 			page 1


 GNU assembler version 2.35.2 (aarch64-linux-gnu)
	 using BFD version (GNU Binutils for Debian) 2.35.2.
 options passed	: -I -I -EL -march=armv8-a+simd -mabi=lp64 -aghl=obj/Chapter12_3.lst 
 input file    	: obj/Chapter12_3.s
 output file   	: obj/Chapter12_3.o
 target        	: aarch64-unknown-linux-gnu
 time stamp    	: 2022-07-22T16:56:18.000-0400

AARCH64 GAS  obj/Chapter12_3.s 			page 2


   1              		.arch armv8-a
   2              		.file	"Chapter12_3.cpp"
   3              		.text
   4              	.Ltext0:
   5              		.section	.rodata._Z11printResultIiEvPKcT_S2_S2_S2_b.str1.8,"aMS",@progbits,1
   6              		.align	3
   7              	.LC0:
   8 0000 613D2000 		.string	"a= "
   9 0004 00000000 		.align	3
  10              	.LC1:
  11 0008 207C2000 		.string	" | "
  12 000c 00000000 		.align	3
  13              	.LC2:
  14 0010 623D2000 		.string	"b= "
  15 0014 00000000 		.align	3
  16              	.LC3:
  17 0018 633D2000 		.string	"c= "
  18 001c 00000000 		.align	3
  19              	.LC4:
  20 0020 73756D3D 		.string	"sum= "
  20      2000
  21 0026 0000     		.align	3
  22              	.LC5:
  23 0028 72657375 		.string	"result= "
  23      6C743D20 
  23      00
  24              		.section	.text._Z11printResultIiEvPKcT_S2_S2_S2_b,"axG",@progbits,_Z11printResultIiEvPKcT_S2_S2_S2
  25              		.align	2
  26              		.p2align 4,,11
  27              		.weak	_Z11printResultIiEvPKcT_S2_S2_S2_b
  28              		.type	_Z11printResultIiEvPKcT_S2_S2_S2_b, %function
  29              	_Z11printResultIiEvPKcT_S2_S2_S2_b:
  30              	.LVL0:
  31              	.LFB1832:
  32              		.file 1 "Chapter12_3.cpp"
   1:Chapter12_3.cpp **** #include<iostream>
   2:Chapter12_3.cpp **** #include<cstdint>
   3:Chapter12_3.cpp **** 
   4:Chapter12_3.cpp **** using namespace std;
   5:Chapter12_3.cpp **** extern "C" bool compareA_(int32_t a,int32_t b,int32_t c,int32_t* sum);
   6:Chapter12_3.cpp **** extern "C" bool compareC_(int32_t a,int32_t b,int32_t c,int32_t* sum);
   7:Chapter12_3.cpp **** extern "C" bool compareB_(int64_t a,int64_t b,int64_t c,int64_t* sum);
   8:Chapter12_3.cpp **** 
   9:Chapter12_3.cpp **** template<typename T>
  10:Chapter12_3.cpp **** void printResult(const char*msg,T a,T b,T c,T sum,bool result)
  33              		.loc 1 10 6 view -0
  34              		.cfi_startproc
  35              		.loc 1 10 6 is_stmt 0 view .LVU1
  36 0000 FD7BB9A9 		stp	x29, x30, [sp, -112]!
  37              		.cfi_def_cfa_offset 112
  38              		.cfi_offset 29, -112
  39              		.cfi_offset 30, -104
  40 0004 FD030091 		mov	x29, sp
  41 0008 F35301A9 		stp	x19, x20, [sp, 16]
  42 000c F55B02A9 		stp	x21, x22, [sp, 32]
  43              		.cfi_offset 19, -96
  44              		.cfi_offset 20, -88
AARCH64 GAS  obj/Chapter12_3.s 			page 3


  45              		.cfi_offset 21, -80
  46              		.cfi_offset 22, -72
  47 0010 F603032A 		mov	w22, w3
  48 0014 F503042A 		mov	w21, w4
  49 0018 F76303A9 		stp	x23, x24, [sp, 48]
  50              		.cfi_offset 23, -64
  51              		.cfi_offset 24, -56
  52 001c F703022A 		mov	w23, w2
  53 0020 B81C0012 		and	w24, w5, 255
  54              	.LVL1:
  55              	.LBB168:
  56              	.LBI168:
  57              		.file 2 "/usr/include/c++/10/ostream"
   1:/usr/include/c++/10/ostream **** // Output streams -*- C++ -*-
   2:/usr/include/c++/10/ostream **** 
   3:/usr/include/c++/10/ostream **** // Copyright (C) 1997-2020 Free Software Foundation, Inc.
   4:/usr/include/c++/10/ostream **** //
   5:/usr/include/c++/10/ostream **** // This file is part of the GNU ISO C++ Library.  This library is free
   6:/usr/include/c++/10/ostream **** // software; you can redistribute it and/or modify it under the
   7:/usr/include/c++/10/ostream **** // terms of the GNU General Public License as published by the
   8:/usr/include/c++/10/ostream **** // Free Software Foundation; either version 3, or (at your option)
   9:/usr/include/c++/10/ostream **** // any later version.
  10:/usr/include/c++/10/ostream **** 
  11:/usr/include/c++/10/ostream **** // This library is distributed in the hope that it will be useful,
  12:/usr/include/c++/10/ostream **** // but WITHOUT ANY WARRANTY; without even the implied warranty of
  13:/usr/include/c++/10/ostream **** // MERCHANTABILITY or FITNESS FOR A PARTICULAR PURPOSE.  See the
  14:/usr/include/c++/10/ostream **** // GNU General Public License for more details.
  15:/usr/include/c++/10/ostream **** 
  16:/usr/include/c++/10/ostream **** // Under Section 7 of GPL version 3, you are granted additional
  17:/usr/include/c++/10/ostream **** // permissions described in the GCC Runtime Library Exception, version
  18:/usr/include/c++/10/ostream **** // 3.1, as published by the Free Software Foundation.
  19:/usr/include/c++/10/ostream **** 
  20:/usr/include/c++/10/ostream **** // You should have received a copy of the GNU General Public License and
  21:/usr/include/c++/10/ostream **** // a copy of the GCC Runtime Library Exception along with this program;
  22:/usr/include/c++/10/ostream **** // see the files COPYING3 and COPYING.RUNTIME respectively.  If not, see
  23:/usr/include/c++/10/ostream **** // <http://www.gnu.org/licenses/>.
  24:/usr/include/c++/10/ostream **** 
  25:/usr/include/c++/10/ostream **** /** @file include/ostream
  26:/usr/include/c++/10/ostream ****  *  This is a Standard C++ Library header.
  27:/usr/include/c++/10/ostream ****  */
  28:/usr/include/c++/10/ostream **** 
  29:/usr/include/c++/10/ostream **** //
  30:/usr/include/c++/10/ostream **** // ISO C++ 14882: 27.6.2  Output streams
  31:/usr/include/c++/10/ostream **** //
  32:/usr/include/c++/10/ostream **** 
  33:/usr/include/c++/10/ostream **** #ifndef _GLIBCXX_OSTREAM
  34:/usr/include/c++/10/ostream **** #define _GLIBCXX_OSTREAM 1
  35:/usr/include/c++/10/ostream **** 
  36:/usr/include/c++/10/ostream **** #pragma GCC system_header
  37:/usr/include/c++/10/ostream **** 
  38:/usr/include/c++/10/ostream **** #include <ios>
  39:/usr/include/c++/10/ostream **** #include <bits/ostream_insert.h>
  40:/usr/include/c++/10/ostream **** 
  41:/usr/include/c++/10/ostream **** namespace std _GLIBCXX_VISIBILITY(default)
  42:/usr/include/c++/10/ostream **** {
  43:/usr/include/c++/10/ostream **** _GLIBCXX_BEGIN_NAMESPACE_VERSION
  44:/usr/include/c++/10/ostream **** 
AARCH64 GAS  obj/Chapter12_3.s 			page 4


  45:/usr/include/c++/10/ostream ****   /**
  46:/usr/include/c++/10/ostream ****    *  @brief  Template class basic_ostream.
  47:/usr/include/c++/10/ostream ****    *  @ingroup io
  48:/usr/include/c++/10/ostream ****    *
  49:/usr/include/c++/10/ostream ****    *  @tparam _CharT  Type of character stream.
  50:/usr/include/c++/10/ostream ****    *  @tparam _Traits  Traits for character type, defaults to
  51:/usr/include/c++/10/ostream ****    *                   char_traits<_CharT>.
  52:/usr/include/c++/10/ostream ****    *
  53:/usr/include/c++/10/ostream ****    *  This is the base class for all output streams.  It provides text
  54:/usr/include/c++/10/ostream ****    *  formatting of all builtin types, and communicates with any class
  55:/usr/include/c++/10/ostream ****    *  derived from basic_streambuf to do the actual output.
  56:/usr/include/c++/10/ostream ****   */
  57:/usr/include/c++/10/ostream ****   template<typename _CharT, typename _Traits>
  58:/usr/include/c++/10/ostream ****     class basic_ostream : virtual public basic_ios<_CharT, _Traits>
  59:/usr/include/c++/10/ostream ****     {
  60:/usr/include/c++/10/ostream ****     public:
  61:/usr/include/c++/10/ostream ****       // Types (inherited from basic_ios):
  62:/usr/include/c++/10/ostream ****       typedef _CharT			 		char_type;
  63:/usr/include/c++/10/ostream ****       typedef typename _Traits::int_type 		int_type;
  64:/usr/include/c++/10/ostream ****       typedef typename _Traits::pos_type 		pos_type;
  65:/usr/include/c++/10/ostream ****       typedef typename _Traits::off_type 		off_type;
  66:/usr/include/c++/10/ostream ****       typedef _Traits			 		traits_type;
  67:/usr/include/c++/10/ostream **** 
  68:/usr/include/c++/10/ostream ****       // Non-standard Types:
  69:/usr/include/c++/10/ostream ****       typedef basic_streambuf<_CharT, _Traits> 		__streambuf_type;
  70:/usr/include/c++/10/ostream ****       typedef basic_ios<_CharT, _Traits>		__ios_type;
  71:/usr/include/c++/10/ostream ****       typedef basic_ostream<_CharT, _Traits>		__ostream_type;
  72:/usr/include/c++/10/ostream ****       typedef num_put<_CharT, ostreambuf_iterator<_CharT, _Traits> >
  73:/usr/include/c++/10/ostream ****       							__num_put_type;
  74:/usr/include/c++/10/ostream ****       typedef ctype<_CharT>	      			__ctype_type;
  75:/usr/include/c++/10/ostream **** 
  76:/usr/include/c++/10/ostream ****       /**
  77:/usr/include/c++/10/ostream ****        *  @brief  Base constructor.
  78:/usr/include/c++/10/ostream ****        *
  79:/usr/include/c++/10/ostream ****        *  This ctor is almost never called by the user directly, rather from
  80:/usr/include/c++/10/ostream ****        *  derived classes' initialization lists, which pass a pointer to
  81:/usr/include/c++/10/ostream ****        *  their own stream buffer.
  82:/usr/include/c++/10/ostream ****       */
  83:/usr/include/c++/10/ostream ****       explicit
  84:/usr/include/c++/10/ostream ****       basic_ostream(__streambuf_type* __sb)
  85:/usr/include/c++/10/ostream ****       { this->init(__sb); }
  86:/usr/include/c++/10/ostream **** 
  87:/usr/include/c++/10/ostream ****       /**
  88:/usr/include/c++/10/ostream ****        *  @brief  Base destructor.
  89:/usr/include/c++/10/ostream ****        *
  90:/usr/include/c++/10/ostream ****        *  This does very little apart from providing a virtual base dtor.
  91:/usr/include/c++/10/ostream ****       */
  92:/usr/include/c++/10/ostream ****       virtual
  93:/usr/include/c++/10/ostream ****       ~basic_ostream() { }
  94:/usr/include/c++/10/ostream **** 
  95:/usr/include/c++/10/ostream ****       /// Safe prefix/suffix operations.
  96:/usr/include/c++/10/ostream ****       class sentry;
  97:/usr/include/c++/10/ostream ****       friend class sentry;
  98:/usr/include/c++/10/ostream **** 
  99:/usr/include/c++/10/ostream ****       //@{
 100:/usr/include/c++/10/ostream ****       /**
 101:/usr/include/c++/10/ostream ****        *  @brief  Interface for manipulators.
AARCH64 GAS  obj/Chapter12_3.s 			page 5


 102:/usr/include/c++/10/ostream ****        *
 103:/usr/include/c++/10/ostream ****        *  Manipulators such as @c std::endl and @c std::hex use these
 104:/usr/include/c++/10/ostream ****        *  functions in constructs like "std::cout << std::endl".  For more
 105:/usr/include/c++/10/ostream ****        *  information, see the iomanip header.
 106:/usr/include/c++/10/ostream ****       */
 107:/usr/include/c++/10/ostream ****       __ostream_type&
 108:/usr/include/c++/10/ostream ****       operator<<(__ostream_type& (*__pf)(__ostream_type&))
 109:/usr/include/c++/10/ostream ****       {
 110:/usr/include/c++/10/ostream **** 	// _GLIBCXX_RESOLVE_LIB_DEFECTS
 111:/usr/include/c++/10/ostream **** 	// DR 60. What is a formatted input function?
 112:/usr/include/c++/10/ostream **** 	// The inserters for manipulators are *not* formatted output functions.
 113:/usr/include/c++/10/ostream **** 	return __pf(*this);
 114:/usr/include/c++/10/ostream ****       }
 115:/usr/include/c++/10/ostream **** 
 116:/usr/include/c++/10/ostream ****       __ostream_type&
 117:/usr/include/c++/10/ostream ****       operator<<(__ios_type& (*__pf)(__ios_type&))
 118:/usr/include/c++/10/ostream ****       {
 119:/usr/include/c++/10/ostream **** 	// _GLIBCXX_RESOLVE_LIB_DEFECTS
 120:/usr/include/c++/10/ostream **** 	// DR 60. What is a formatted input function?
 121:/usr/include/c++/10/ostream **** 	// The inserters for manipulators are *not* formatted output functions.
 122:/usr/include/c++/10/ostream **** 	__pf(*this);
 123:/usr/include/c++/10/ostream **** 	return *this;
 124:/usr/include/c++/10/ostream ****       }
 125:/usr/include/c++/10/ostream **** 
 126:/usr/include/c++/10/ostream ****       __ostream_type&
 127:/usr/include/c++/10/ostream ****       operator<<(ios_base& (*__pf) (ios_base&))
 128:/usr/include/c++/10/ostream ****       {
 129:/usr/include/c++/10/ostream **** 	// _GLIBCXX_RESOLVE_LIB_DEFECTS
 130:/usr/include/c++/10/ostream **** 	// DR 60. What is a formatted input function?
 131:/usr/include/c++/10/ostream **** 	// The inserters for manipulators are *not* formatted output functions.
 132:/usr/include/c++/10/ostream **** 	__pf(*this);
 133:/usr/include/c++/10/ostream **** 	return *this;
 134:/usr/include/c++/10/ostream ****       }
 135:/usr/include/c++/10/ostream ****       //@}
 136:/usr/include/c++/10/ostream **** 
 137:/usr/include/c++/10/ostream ****       //@{
 138:/usr/include/c++/10/ostream ****       /**
 139:/usr/include/c++/10/ostream ****        *  @name Inserters
 140:/usr/include/c++/10/ostream ****        *
 141:/usr/include/c++/10/ostream ****        *  All the @c operator<< functions (aka <em>formatted output
 142:/usr/include/c++/10/ostream ****        *  functions</em>) have some common behavior.  Each starts by
 143:/usr/include/c++/10/ostream ****        *  constructing a temporary object of type std::basic_ostream::sentry.
 144:/usr/include/c++/10/ostream ****        *  This can have several effects, concluding with the setting of a
 145:/usr/include/c++/10/ostream ****        *  status flag; see the sentry documentation for more.
 146:/usr/include/c++/10/ostream ****        *
 147:/usr/include/c++/10/ostream ****        *  If the sentry status is good, the function tries to generate
 148:/usr/include/c++/10/ostream ****        *  whatever data is appropriate for the type of the argument.
 149:/usr/include/c++/10/ostream ****        *
 150:/usr/include/c++/10/ostream ****        *  If an exception is thrown during insertion, ios_base::badbit
 151:/usr/include/c++/10/ostream ****        *  will be turned on in the stream's error state without causing an
 152:/usr/include/c++/10/ostream ****        *  ios_base::failure to be thrown.  The original exception will then
 153:/usr/include/c++/10/ostream ****        *  be rethrown.
 154:/usr/include/c++/10/ostream ****       */
 155:/usr/include/c++/10/ostream **** 
 156:/usr/include/c++/10/ostream ****       //@{
 157:/usr/include/c++/10/ostream ****       /**
 158:/usr/include/c++/10/ostream ****        *  @brief Integer arithmetic inserters
AARCH64 GAS  obj/Chapter12_3.s 			page 6


 159:/usr/include/c++/10/ostream ****        *  @param  __n A variable of builtin integral type.
 160:/usr/include/c++/10/ostream ****        *  @return  @c *this if successful
 161:/usr/include/c++/10/ostream ****        *
 162:/usr/include/c++/10/ostream ****        *  These functions use the stream's current locale (specifically, the
 163:/usr/include/c++/10/ostream ****        *  @c num_get facet) to perform numeric formatting.
 164:/usr/include/c++/10/ostream ****       */
 165:/usr/include/c++/10/ostream ****       __ostream_type&
 166:/usr/include/c++/10/ostream ****       operator<<(long __n)
 167:/usr/include/c++/10/ostream ****       { return _M_insert(__n); }
 168:/usr/include/c++/10/ostream **** 
 169:/usr/include/c++/10/ostream ****       __ostream_type&
 170:/usr/include/c++/10/ostream ****       operator<<(unsigned long __n)
 171:/usr/include/c++/10/ostream ****       { return _M_insert(__n); }
 172:/usr/include/c++/10/ostream **** 
 173:/usr/include/c++/10/ostream ****       __ostream_type&
 174:/usr/include/c++/10/ostream ****       operator<<(bool __n)
 175:/usr/include/c++/10/ostream ****       { return _M_insert(__n); }
 176:/usr/include/c++/10/ostream **** 
 177:/usr/include/c++/10/ostream ****       __ostream_type&
 178:/usr/include/c++/10/ostream ****       operator<<(short __n);
 179:/usr/include/c++/10/ostream **** 
 180:/usr/include/c++/10/ostream ****       __ostream_type&
 181:/usr/include/c++/10/ostream ****       operator<<(unsigned short __n)
 182:/usr/include/c++/10/ostream ****       {
 183:/usr/include/c++/10/ostream **** 	// _GLIBCXX_RESOLVE_LIB_DEFECTS
 184:/usr/include/c++/10/ostream **** 	// 117. basic_ostream uses nonexistent num_put member functions.
 185:/usr/include/c++/10/ostream **** 	return _M_insert(static_cast<unsigned long>(__n));
 186:/usr/include/c++/10/ostream ****       }
 187:/usr/include/c++/10/ostream **** 
 188:/usr/include/c++/10/ostream ****       __ostream_type&
 189:/usr/include/c++/10/ostream ****       operator<<(int __n);
 190:/usr/include/c++/10/ostream **** 
 191:/usr/include/c++/10/ostream ****       __ostream_type&
 192:/usr/include/c++/10/ostream ****       operator<<(unsigned int __n)
 193:/usr/include/c++/10/ostream ****       {
 194:/usr/include/c++/10/ostream **** 	// _GLIBCXX_RESOLVE_LIB_DEFECTS
 195:/usr/include/c++/10/ostream **** 	// 117. basic_ostream uses nonexistent num_put member functions.
 196:/usr/include/c++/10/ostream **** 	return _M_insert(static_cast<unsigned long>(__n));
 197:/usr/include/c++/10/ostream ****       }
 198:/usr/include/c++/10/ostream **** 
 199:/usr/include/c++/10/ostream **** #ifdef _GLIBCXX_USE_LONG_LONG
 200:/usr/include/c++/10/ostream ****       __ostream_type&
 201:/usr/include/c++/10/ostream ****       operator<<(long long __n)
 202:/usr/include/c++/10/ostream ****       { return _M_insert(__n); }
 203:/usr/include/c++/10/ostream **** 
 204:/usr/include/c++/10/ostream ****       __ostream_type&
 205:/usr/include/c++/10/ostream ****       operator<<(unsigned long long __n)
 206:/usr/include/c++/10/ostream ****       { return _M_insert(__n); }
 207:/usr/include/c++/10/ostream **** #endif
 208:/usr/include/c++/10/ostream ****       //@}
 209:/usr/include/c++/10/ostream **** 
 210:/usr/include/c++/10/ostream ****       //@{
 211:/usr/include/c++/10/ostream ****       /**
 212:/usr/include/c++/10/ostream ****        *  @brief  Floating point arithmetic inserters
 213:/usr/include/c++/10/ostream ****        *  @param  __f A variable of builtin floating point type.
 214:/usr/include/c++/10/ostream ****        *  @return  @c *this if successful
 215:/usr/include/c++/10/ostream ****        *
AARCH64 GAS  obj/Chapter12_3.s 			page 7


 216:/usr/include/c++/10/ostream ****        *  These functions use the stream's current locale (specifically, the
 217:/usr/include/c++/10/ostream ****        *  @c num_get facet) to perform numeric formatting.
 218:/usr/include/c++/10/ostream ****       */
 219:/usr/include/c++/10/ostream ****       __ostream_type&
 220:/usr/include/c++/10/ostream ****       operator<<(double __f)
 221:/usr/include/c++/10/ostream ****       { return _M_insert(__f); }
 222:/usr/include/c++/10/ostream **** 
 223:/usr/include/c++/10/ostream ****       __ostream_type&
 224:/usr/include/c++/10/ostream ****       operator<<(float __f)
 225:/usr/include/c++/10/ostream ****       {
 226:/usr/include/c++/10/ostream **** 	// _GLIBCXX_RESOLVE_LIB_DEFECTS
 227:/usr/include/c++/10/ostream **** 	// 117. basic_ostream uses nonexistent num_put member functions.
 228:/usr/include/c++/10/ostream **** 	return _M_insert(static_cast<double>(__f));
 229:/usr/include/c++/10/ostream ****       }
 230:/usr/include/c++/10/ostream **** 
 231:/usr/include/c++/10/ostream ****       __ostream_type&
 232:/usr/include/c++/10/ostream ****       operator<<(long double __f)
 233:/usr/include/c++/10/ostream ****       { return _M_insert(__f); }
 234:/usr/include/c++/10/ostream ****       //@}
 235:/usr/include/c++/10/ostream **** 
 236:/usr/include/c++/10/ostream ****       /**
 237:/usr/include/c++/10/ostream ****        *  @brief  Pointer arithmetic inserters
 238:/usr/include/c++/10/ostream ****        *  @param  __p A variable of pointer type.
 239:/usr/include/c++/10/ostream ****        *  @return  @c *this if successful
 240:/usr/include/c++/10/ostream ****        *
 241:/usr/include/c++/10/ostream ****        *  These functions use the stream's current locale (specifically, the
 242:/usr/include/c++/10/ostream ****        *  @c num_get facet) to perform numeric formatting.
 243:/usr/include/c++/10/ostream ****       */
 244:/usr/include/c++/10/ostream ****       __ostream_type&
 245:/usr/include/c++/10/ostream ****       operator<<(const void* __p)
 246:/usr/include/c++/10/ostream ****       { return _M_insert(__p); }
 247:/usr/include/c++/10/ostream **** 
 248:/usr/include/c++/10/ostream **** #if __cplusplus >= 201703L
 249:/usr/include/c++/10/ostream ****       __ostream_type&
 250:/usr/include/c++/10/ostream ****       operator<<(nullptr_t)
 251:/usr/include/c++/10/ostream ****       { return *this << "nullptr"; }
 252:/usr/include/c++/10/ostream **** #endif
 253:/usr/include/c++/10/ostream **** 
 254:/usr/include/c++/10/ostream ****       /**
 255:/usr/include/c++/10/ostream ****        *  @brief  Extracting from another streambuf.
 256:/usr/include/c++/10/ostream ****        *  @param  __sb  A pointer to a streambuf
 257:/usr/include/c++/10/ostream ****        *
 258:/usr/include/c++/10/ostream ****        *  This function behaves like one of the basic arithmetic extractors,
 259:/usr/include/c++/10/ostream ****        *  in that it also constructs a sentry object and has the same error
 260:/usr/include/c++/10/ostream ****        *  handling behavior.
 261:/usr/include/c++/10/ostream ****        *
 262:/usr/include/c++/10/ostream ****        *  If @p __sb is NULL, the stream will set failbit in its error state.
 263:/usr/include/c++/10/ostream ****        *
 264:/usr/include/c++/10/ostream ****        *  Characters are extracted from @p __sb and inserted into @c *this
 265:/usr/include/c++/10/ostream ****        *  until one of the following occurs:
 266:/usr/include/c++/10/ostream ****        *
 267:/usr/include/c++/10/ostream ****        *  - the input stream reaches end-of-file,
 268:/usr/include/c++/10/ostream ****        *  - insertion into the output sequence fails (in this case, the
 269:/usr/include/c++/10/ostream ****        *    character that would have been inserted is not extracted), or
 270:/usr/include/c++/10/ostream ****        *  - an exception occurs while getting a character from @p __sb, which
 271:/usr/include/c++/10/ostream ****        *    sets failbit in the error state
 272:/usr/include/c++/10/ostream ****        *
AARCH64 GAS  obj/Chapter12_3.s 			page 8


 273:/usr/include/c++/10/ostream ****        *  If the function inserts no characters, failbit is set.
 274:/usr/include/c++/10/ostream ****       */
 275:/usr/include/c++/10/ostream ****       __ostream_type&
 276:/usr/include/c++/10/ostream ****       operator<<(__streambuf_type* __sb);
 277:/usr/include/c++/10/ostream ****       //@}
 278:/usr/include/c++/10/ostream **** 
 279:/usr/include/c++/10/ostream ****       //@{
 280:/usr/include/c++/10/ostream ****       /**
 281:/usr/include/c++/10/ostream ****        *  @name Unformatted Output Functions
 282:/usr/include/c++/10/ostream ****        *
 283:/usr/include/c++/10/ostream ****        *  All the unformatted output functions have some common behavior.
 284:/usr/include/c++/10/ostream ****        *  Each starts by constructing a temporary object of type
 285:/usr/include/c++/10/ostream ****        *  std::basic_ostream::sentry.  This has several effects, concluding
 286:/usr/include/c++/10/ostream ****        *  with the setting of a status flag; see the sentry documentation
 287:/usr/include/c++/10/ostream ****        *  for more.
 288:/usr/include/c++/10/ostream ****        *
 289:/usr/include/c++/10/ostream ****        *  If the sentry status is good, the function tries to generate
 290:/usr/include/c++/10/ostream ****        *  whatever data is appropriate for the type of the argument.
 291:/usr/include/c++/10/ostream ****        *
 292:/usr/include/c++/10/ostream ****        *  If an exception is thrown during insertion, ios_base::badbit
 293:/usr/include/c++/10/ostream ****        *  will be turned on in the stream's error state.  If badbit is on in
 294:/usr/include/c++/10/ostream ****        *  the stream's exceptions mask, the exception will be rethrown
 295:/usr/include/c++/10/ostream ****        *  without completing its actions.
 296:/usr/include/c++/10/ostream ****       */
 297:/usr/include/c++/10/ostream **** 
 298:/usr/include/c++/10/ostream ****       /**
 299:/usr/include/c++/10/ostream ****        *  @brief  Simple insertion.
 300:/usr/include/c++/10/ostream ****        *  @param  __c  The character to insert.
 301:/usr/include/c++/10/ostream ****        *  @return  *this
 302:/usr/include/c++/10/ostream ****        *
 303:/usr/include/c++/10/ostream ****        *  Tries to insert @p __c.
 304:/usr/include/c++/10/ostream ****        *
 305:/usr/include/c++/10/ostream ****        *  @note  This function is not overloaded on signed char and
 306:/usr/include/c++/10/ostream ****        *         unsigned char.
 307:/usr/include/c++/10/ostream ****       */
 308:/usr/include/c++/10/ostream ****       __ostream_type&
 309:/usr/include/c++/10/ostream ****       put(char_type __c);
 310:/usr/include/c++/10/ostream **** 
 311:/usr/include/c++/10/ostream ****       /**
 312:/usr/include/c++/10/ostream ****        *  @brief  Core write functionality, without sentry.
 313:/usr/include/c++/10/ostream ****        *  @param  __s  The array to insert.
 314:/usr/include/c++/10/ostream ****        *  @param  __n  Maximum number of characters to insert.
 315:/usr/include/c++/10/ostream ****       */
 316:/usr/include/c++/10/ostream ****       void
 317:/usr/include/c++/10/ostream ****       _M_write(const char_type* __s, streamsize __n)
 318:/usr/include/c++/10/ostream ****       {
 319:/usr/include/c++/10/ostream **** 	const streamsize __put = this->rdbuf()->sputn(__s, __n);
 320:/usr/include/c++/10/ostream **** 	if (__put != __n)
 321:/usr/include/c++/10/ostream **** 	  this->setstate(ios_base::badbit);
 322:/usr/include/c++/10/ostream ****       }
 323:/usr/include/c++/10/ostream **** 
 324:/usr/include/c++/10/ostream ****       /**
 325:/usr/include/c++/10/ostream ****        *  @brief  Character string insertion.
 326:/usr/include/c++/10/ostream ****        *  @param  __s  The array to insert.
 327:/usr/include/c++/10/ostream ****        *  @param  __n  Maximum number of characters to insert.
 328:/usr/include/c++/10/ostream ****        *  @return  *this
 329:/usr/include/c++/10/ostream ****        *
AARCH64 GAS  obj/Chapter12_3.s 			page 9


 330:/usr/include/c++/10/ostream ****        *  Characters are copied from @p __s and inserted into the stream until
 331:/usr/include/c++/10/ostream ****        *  one of the following happens:
 332:/usr/include/c++/10/ostream ****        *
 333:/usr/include/c++/10/ostream ****        *  - @p __n characters are inserted
 334:/usr/include/c++/10/ostream ****        *  - inserting into the output sequence fails (in this case, badbit
 335:/usr/include/c++/10/ostream ****        *    will be set in the stream's error state)
 336:/usr/include/c++/10/ostream ****        *
 337:/usr/include/c++/10/ostream ****        *  @note  This function is not overloaded on signed char and
 338:/usr/include/c++/10/ostream ****        *         unsigned char.
 339:/usr/include/c++/10/ostream ****       */
 340:/usr/include/c++/10/ostream ****       __ostream_type&
 341:/usr/include/c++/10/ostream ****       write(const char_type* __s, streamsize __n);
 342:/usr/include/c++/10/ostream ****       //@}
 343:/usr/include/c++/10/ostream **** 
 344:/usr/include/c++/10/ostream ****       /**
 345:/usr/include/c++/10/ostream ****        *  @brief  Synchronizing the stream buffer.
 346:/usr/include/c++/10/ostream ****        *  @return  *this
 347:/usr/include/c++/10/ostream ****        *
 348:/usr/include/c++/10/ostream ****        *  If @c rdbuf() is a null pointer, changes nothing.
 349:/usr/include/c++/10/ostream ****        *
 350:/usr/include/c++/10/ostream ****        *  Otherwise, calls @c rdbuf()->pubsync(), and if that returns -1,
 351:/usr/include/c++/10/ostream ****        *  sets badbit.
 352:/usr/include/c++/10/ostream ****       */
 353:/usr/include/c++/10/ostream ****       __ostream_type&
 354:/usr/include/c++/10/ostream ****       flush();
 355:/usr/include/c++/10/ostream **** 
 356:/usr/include/c++/10/ostream ****       /**
 357:/usr/include/c++/10/ostream ****        *  @brief  Getting the current write position.
 358:/usr/include/c++/10/ostream ****        *  @return  A file position object.
 359:/usr/include/c++/10/ostream ****        *
 360:/usr/include/c++/10/ostream ****        *  If @c fail() is not false, returns @c pos_type(-1) to indicate
 361:/usr/include/c++/10/ostream ****        *  failure.  Otherwise returns @c rdbuf()->pubseekoff(0,cur,out).
 362:/usr/include/c++/10/ostream ****       */
 363:/usr/include/c++/10/ostream ****       pos_type
 364:/usr/include/c++/10/ostream ****       tellp();
 365:/usr/include/c++/10/ostream **** 
 366:/usr/include/c++/10/ostream ****       /**
 367:/usr/include/c++/10/ostream ****        *  @brief  Changing the current write position.
 368:/usr/include/c++/10/ostream ****        *  @param  __pos  A file position object.
 369:/usr/include/c++/10/ostream ****        *  @return  *this
 370:/usr/include/c++/10/ostream ****        *
 371:/usr/include/c++/10/ostream ****        *  If @c fail() is not true, calls @c rdbuf()->pubseekpos(pos).  If
 372:/usr/include/c++/10/ostream ****        *  that function fails, sets failbit.
 373:/usr/include/c++/10/ostream ****       */
 374:/usr/include/c++/10/ostream ****       __ostream_type&
 375:/usr/include/c++/10/ostream ****       seekp(pos_type);
 376:/usr/include/c++/10/ostream **** 
 377:/usr/include/c++/10/ostream ****       /**
 378:/usr/include/c++/10/ostream ****        *  @brief  Changing the current write position.
 379:/usr/include/c++/10/ostream ****        *  @param  __off  A file offset object.
 380:/usr/include/c++/10/ostream ****        *  @param  __dir  The direction in which to seek.
 381:/usr/include/c++/10/ostream ****        *  @return  *this
 382:/usr/include/c++/10/ostream ****        *
 383:/usr/include/c++/10/ostream ****        *  If @c fail() is not true, calls @c rdbuf()->pubseekoff(off,dir).
 384:/usr/include/c++/10/ostream ****        *  If that function fails, sets failbit.
 385:/usr/include/c++/10/ostream ****       */
 386:/usr/include/c++/10/ostream ****        __ostream_type&
AARCH64 GAS  obj/Chapter12_3.s 			page 10


 387:/usr/include/c++/10/ostream ****       seekp(off_type, ios_base::seekdir);
 388:/usr/include/c++/10/ostream **** 
 389:/usr/include/c++/10/ostream ****     protected:
 390:/usr/include/c++/10/ostream ****       basic_ostream()
 391:/usr/include/c++/10/ostream ****       { this->init(0); }
 392:/usr/include/c++/10/ostream **** 
 393:/usr/include/c++/10/ostream **** #if __cplusplus >= 201103L
 394:/usr/include/c++/10/ostream ****       // Non-standard constructor that does not call init()
 395:/usr/include/c++/10/ostream ****       basic_ostream(basic_iostream<_CharT, _Traits>&) { }
 396:/usr/include/c++/10/ostream **** 
 397:/usr/include/c++/10/ostream ****       basic_ostream(const basic_ostream&) = delete;
 398:/usr/include/c++/10/ostream **** 
 399:/usr/include/c++/10/ostream ****       basic_ostream(basic_ostream&& __rhs)
 400:/usr/include/c++/10/ostream ****       : __ios_type()
 401:/usr/include/c++/10/ostream ****       { __ios_type::move(__rhs); }
 402:/usr/include/c++/10/ostream **** 
 403:/usr/include/c++/10/ostream ****       // 27.7.3.3 Assign/swap
 404:/usr/include/c++/10/ostream **** 
 405:/usr/include/c++/10/ostream ****       basic_ostream& operator=(const basic_ostream&) = delete;
 406:/usr/include/c++/10/ostream **** 
 407:/usr/include/c++/10/ostream ****       basic_ostream&
 408:/usr/include/c++/10/ostream ****       operator=(basic_ostream&& __rhs)
 409:/usr/include/c++/10/ostream ****       {
 410:/usr/include/c++/10/ostream **** 	swap(__rhs);
 411:/usr/include/c++/10/ostream **** 	return *this;
 412:/usr/include/c++/10/ostream ****       }
 413:/usr/include/c++/10/ostream **** 
 414:/usr/include/c++/10/ostream ****       void
 415:/usr/include/c++/10/ostream ****       swap(basic_ostream& __rhs)
 416:/usr/include/c++/10/ostream ****       { __ios_type::swap(__rhs); }
 417:/usr/include/c++/10/ostream **** #endif
 418:/usr/include/c++/10/ostream **** 
 419:/usr/include/c++/10/ostream ****       template<typename _ValueT>
 420:/usr/include/c++/10/ostream **** 	__ostream_type&
 421:/usr/include/c++/10/ostream **** 	_M_insert(_ValueT __v);
 422:/usr/include/c++/10/ostream ****     };
 423:/usr/include/c++/10/ostream **** 
 424:/usr/include/c++/10/ostream ****   /**
 425:/usr/include/c++/10/ostream ****    *  @brief  Performs setup work for output streams.
 426:/usr/include/c++/10/ostream ****    *
 427:/usr/include/c++/10/ostream ****    *  Objects of this class are created before all of the standard
 428:/usr/include/c++/10/ostream ****    *  inserters are run.  It is responsible for <em>exception-safe prefix and
 429:/usr/include/c++/10/ostream ****    *  suffix operations</em>.
 430:/usr/include/c++/10/ostream ****   */
 431:/usr/include/c++/10/ostream ****   template <typename _CharT, typename _Traits>
 432:/usr/include/c++/10/ostream ****     class basic_ostream<_CharT, _Traits>::sentry
 433:/usr/include/c++/10/ostream ****     {
 434:/usr/include/c++/10/ostream ****       // Data Members.
 435:/usr/include/c++/10/ostream ****       bool 				_M_ok;
 436:/usr/include/c++/10/ostream ****       basic_ostream<_CharT, _Traits>& 	_M_os;
 437:/usr/include/c++/10/ostream **** 
 438:/usr/include/c++/10/ostream ****     public:
 439:/usr/include/c++/10/ostream ****       /**
 440:/usr/include/c++/10/ostream ****        *  @brief  The constructor performs preparatory work.
 441:/usr/include/c++/10/ostream ****        *  @param  __os  The output stream to guard.
 442:/usr/include/c++/10/ostream ****        *
 443:/usr/include/c++/10/ostream ****        *  If the stream state is good (@a __os.good() is true), then if the
AARCH64 GAS  obj/Chapter12_3.s 			page 11


 444:/usr/include/c++/10/ostream ****        *  stream is tied to another output stream, @c is.tie()->flush()
 445:/usr/include/c++/10/ostream ****        *  is called to synchronize the output sequences.
 446:/usr/include/c++/10/ostream ****        *
 447:/usr/include/c++/10/ostream ****        *  If the stream state is still good, then the sentry state becomes
 448:/usr/include/c++/10/ostream ****        *  true (@a okay).
 449:/usr/include/c++/10/ostream ****       */
 450:/usr/include/c++/10/ostream ****       explicit
 451:/usr/include/c++/10/ostream ****       sentry(basic_ostream<_CharT, _Traits>& __os);
 452:/usr/include/c++/10/ostream **** 
 453:/usr/include/c++/10/ostream **** #pragma GCC diagnostic push
 454:/usr/include/c++/10/ostream **** #pragma GCC diagnostic ignored "-Wdeprecated-declarations"
 455:/usr/include/c++/10/ostream ****       /**
 456:/usr/include/c++/10/ostream ****        *  @brief  Possibly flushes the stream.
 457:/usr/include/c++/10/ostream ****        *
 458:/usr/include/c++/10/ostream ****        *  If @c ios_base::unitbuf is set in @c os.flags(), and
 459:/usr/include/c++/10/ostream ****        *  @c std::uncaught_exception() is true, the sentry destructor calls
 460:/usr/include/c++/10/ostream ****        *  @c flush() on the output stream.
 461:/usr/include/c++/10/ostream ****       */
 462:/usr/include/c++/10/ostream ****       ~sentry()
 463:/usr/include/c++/10/ostream ****       {
 464:/usr/include/c++/10/ostream **** 	// XXX MT
 465:/usr/include/c++/10/ostream **** 	if (bool(_M_os.flags() & ios_base::unitbuf) && !uncaught_exception())
 466:/usr/include/c++/10/ostream **** 	  {
 467:/usr/include/c++/10/ostream **** 	    // Can't call flush directly or else will get into recursive lock.
 468:/usr/include/c++/10/ostream **** 	    if (_M_os.rdbuf() && _M_os.rdbuf()->pubsync() == -1)
 469:/usr/include/c++/10/ostream **** 	      _M_os.setstate(ios_base::badbit);
 470:/usr/include/c++/10/ostream **** 	  }
 471:/usr/include/c++/10/ostream ****       }
 472:/usr/include/c++/10/ostream **** #pragma GCC diagnostic pop
 473:/usr/include/c++/10/ostream **** 
 474:/usr/include/c++/10/ostream ****       /**
 475:/usr/include/c++/10/ostream ****        *  @brief  Quick status checking.
 476:/usr/include/c++/10/ostream ****        *  @return  The sentry state.
 477:/usr/include/c++/10/ostream ****        *
 478:/usr/include/c++/10/ostream ****        *  For ease of use, sentries may be converted to booleans.  The
 479:/usr/include/c++/10/ostream ****        *  return value is that of the sentry state (true == okay).
 480:/usr/include/c++/10/ostream ****       */
 481:/usr/include/c++/10/ostream **** #if __cplusplus >= 201103L
 482:/usr/include/c++/10/ostream ****       explicit
 483:/usr/include/c++/10/ostream **** #endif
 484:/usr/include/c++/10/ostream ****       operator bool() const
 485:/usr/include/c++/10/ostream ****       { return _M_ok; }
 486:/usr/include/c++/10/ostream ****     };
 487:/usr/include/c++/10/ostream **** 
 488:/usr/include/c++/10/ostream ****   //@{
 489:/usr/include/c++/10/ostream ****   /**
 490:/usr/include/c++/10/ostream ****    *  @brief  Character inserters
 491:/usr/include/c++/10/ostream ****    *  @param  __out  An output stream.
 492:/usr/include/c++/10/ostream ****    *  @param  __c  A character.
 493:/usr/include/c++/10/ostream ****    *  @return  out
 494:/usr/include/c++/10/ostream ****    *
 495:/usr/include/c++/10/ostream ****    *  Behaves like one of the formatted arithmetic inserters described in
 496:/usr/include/c++/10/ostream ****    *  std::basic_ostream.  After constructing a sentry object with good
 497:/usr/include/c++/10/ostream ****    *  status, this function inserts a single character and any required
 498:/usr/include/c++/10/ostream ****    *  padding (as determined by [22.2.2.2.2]).  @c __out.width(0) is then
 499:/usr/include/c++/10/ostream ****    *  called.
 500:/usr/include/c++/10/ostream ****    *
AARCH64 GAS  obj/Chapter12_3.s 			page 12


 501:/usr/include/c++/10/ostream ****    *  If @p __c is of type @c char and the character type of the stream is not
 502:/usr/include/c++/10/ostream ****    *  @c char, the character is widened before insertion.
 503:/usr/include/c++/10/ostream ****   */
 504:/usr/include/c++/10/ostream ****   template<typename _CharT, typename _Traits>
 505:/usr/include/c++/10/ostream ****     inline basic_ostream<_CharT, _Traits>&
 506:/usr/include/c++/10/ostream ****     operator<<(basic_ostream<_CharT, _Traits>& __out, _CharT __c)
 507:/usr/include/c++/10/ostream ****     { return __ostream_insert(__out, &__c, 1); }
 508:/usr/include/c++/10/ostream **** 
 509:/usr/include/c++/10/ostream ****   template<typename _CharT, typename _Traits>
 510:/usr/include/c++/10/ostream ****     inline basic_ostream<_CharT, _Traits>&
 511:/usr/include/c++/10/ostream ****     operator<<(basic_ostream<_CharT, _Traits>& __out, char __c)
 512:/usr/include/c++/10/ostream ****     { return (__out << __out.widen(__c)); }
 513:/usr/include/c++/10/ostream **** 
 514:/usr/include/c++/10/ostream ****   // Specialization
 515:/usr/include/c++/10/ostream ****   template<typename _Traits>
 516:/usr/include/c++/10/ostream ****     inline basic_ostream<char, _Traits>&
 517:/usr/include/c++/10/ostream ****     operator<<(basic_ostream<char, _Traits>& __out, char __c)
 518:/usr/include/c++/10/ostream ****     { return __ostream_insert(__out, &__c, 1); }
 519:/usr/include/c++/10/ostream **** 
 520:/usr/include/c++/10/ostream ****   // Signed and unsigned
 521:/usr/include/c++/10/ostream ****   template<typename _Traits>
 522:/usr/include/c++/10/ostream ****     inline basic_ostream<char, _Traits>&
 523:/usr/include/c++/10/ostream ****     operator<<(basic_ostream<char, _Traits>& __out, signed char __c)
 524:/usr/include/c++/10/ostream ****     { return (__out << static_cast<char>(__c)); }
 525:/usr/include/c++/10/ostream **** 
 526:/usr/include/c++/10/ostream ****   template<typename _Traits>
 527:/usr/include/c++/10/ostream ****     inline basic_ostream<char, _Traits>&
 528:/usr/include/c++/10/ostream ****     operator<<(basic_ostream<char, _Traits>& __out, unsigned char __c)
 529:/usr/include/c++/10/ostream ****     { return (__out << static_cast<char>(__c)); }
 530:/usr/include/c++/10/ostream **** 
 531:/usr/include/c++/10/ostream **** #if __cplusplus > 201703L
 532:/usr/include/c++/10/ostream ****   // The following deleted overloads prevent formatting character values as
 533:/usr/include/c++/10/ostream ****   // numeric values.
 534:/usr/include/c++/10/ostream **** 
 535:/usr/include/c++/10/ostream **** #ifdef _GLIBCXX_USE_WCHAR_T
 536:/usr/include/c++/10/ostream ****   template<typename _Traits>
 537:/usr/include/c++/10/ostream ****     basic_ostream<char, _Traits>&
 538:/usr/include/c++/10/ostream ****     operator<<(basic_ostream<char, _Traits>&, wchar_t) = delete;
 539:/usr/include/c++/10/ostream **** #endif // _GLIBCXX_USE_WCHAR_T
 540:/usr/include/c++/10/ostream **** 
 541:/usr/include/c++/10/ostream **** #ifdef _GLIBCXX_USE_CHAR8_T
 542:/usr/include/c++/10/ostream ****   template<typename _Traits>
 543:/usr/include/c++/10/ostream ****     basic_ostream<char, _Traits>&
 544:/usr/include/c++/10/ostream ****     operator<<(basic_ostream<char, _Traits>&, char8_t) = delete;
 545:/usr/include/c++/10/ostream **** #endif
 546:/usr/include/c++/10/ostream **** 
 547:/usr/include/c++/10/ostream ****   template<typename _Traits>
 548:/usr/include/c++/10/ostream ****     basic_ostream<char, _Traits>&
 549:/usr/include/c++/10/ostream ****     operator<<(basic_ostream<char, _Traits>&, char16_t) = delete;
 550:/usr/include/c++/10/ostream **** 
 551:/usr/include/c++/10/ostream ****   template<typename _Traits>
 552:/usr/include/c++/10/ostream ****     basic_ostream<char, _Traits>&
 553:/usr/include/c++/10/ostream ****     operator<<(basic_ostream<char, _Traits>&, char32_t) = delete;
 554:/usr/include/c++/10/ostream **** 
 555:/usr/include/c++/10/ostream **** #ifdef _GLIBCXX_USE_WCHAR_T
 556:/usr/include/c++/10/ostream **** #ifdef _GLIBCXX_USE_CHAR8_T
 557:/usr/include/c++/10/ostream ****   template<typename _Traits>
AARCH64 GAS  obj/Chapter12_3.s 			page 13


 558:/usr/include/c++/10/ostream ****     basic_ostream<wchar_t, _Traits>&
 559:/usr/include/c++/10/ostream ****     operator<<(basic_ostream<wchar_t, _Traits>&, char8_t) = delete;
 560:/usr/include/c++/10/ostream **** #endif // _GLIBCXX_USE_CHAR8_T
 561:/usr/include/c++/10/ostream **** 
 562:/usr/include/c++/10/ostream ****   template<typename _Traits>
 563:/usr/include/c++/10/ostream ****     basic_ostream<wchar_t, _Traits>&
 564:/usr/include/c++/10/ostream ****     operator<<(basic_ostream<wchar_t, _Traits>&, char16_t) = delete;
 565:/usr/include/c++/10/ostream **** 
 566:/usr/include/c++/10/ostream ****   template<typename _Traits>
 567:/usr/include/c++/10/ostream ****     basic_ostream<wchar_t, _Traits>&
 568:/usr/include/c++/10/ostream ****     operator<<(basic_ostream<wchar_t, _Traits>&, char32_t) = delete;
 569:/usr/include/c++/10/ostream **** #endif // _GLIBCXX_USE_WCHAR_T
 570:/usr/include/c++/10/ostream **** #endif // C++20
 571:/usr/include/c++/10/ostream ****   //@}
 572:/usr/include/c++/10/ostream **** 
 573:/usr/include/c++/10/ostream ****   //@{
 574:/usr/include/c++/10/ostream ****   /**
 575:/usr/include/c++/10/ostream ****    *  @brief  String inserters
 576:/usr/include/c++/10/ostream ****    *  @param  __out  An output stream.
 577:/usr/include/c++/10/ostream ****    *  @param  __s  A character string.
 578:/usr/include/c++/10/ostream ****    *  @return  out
 579:/usr/include/c++/10/ostream ****    *  @pre  @p __s must be a non-NULL pointer
 580:/usr/include/c++/10/ostream ****    *
 581:/usr/include/c++/10/ostream ****    *  Behaves like one of the formatted arithmetic inserters described in
 582:/usr/include/c++/10/ostream ****    *  std::basic_ostream.  After constructing a sentry object with good
 583:/usr/include/c++/10/ostream ****    *  status, this function inserts @c traits::length(__s) characters starting
 584:/usr/include/c++/10/ostream ****    *  at @p __s, widened if necessary, followed by any required padding (as
 585:/usr/include/c++/10/ostream ****    *  determined by [22.2.2.2.2]).  @c __out.width(0) is then called.
 586:/usr/include/c++/10/ostream ****   */
 587:/usr/include/c++/10/ostream ****   template<typename _CharT, typename _Traits>
 588:/usr/include/c++/10/ostream ****     inline basic_ostream<_CharT, _Traits>&
 589:/usr/include/c++/10/ostream ****     operator<<(basic_ostream<_CharT, _Traits>& __out, const _CharT* __s)
 590:/usr/include/c++/10/ostream ****     {
 591:/usr/include/c++/10/ostream ****       if (!__s)
 592:/usr/include/c++/10/ostream **** 	__out.setstate(ios_base::badbit);
 593:/usr/include/c++/10/ostream ****       else
 594:/usr/include/c++/10/ostream **** 	__ostream_insert(__out, __s,
 595:/usr/include/c++/10/ostream **** 			 static_cast<streamsize>(_Traits::length(__s)));
 596:/usr/include/c++/10/ostream ****       return __out;
 597:/usr/include/c++/10/ostream ****     }
 598:/usr/include/c++/10/ostream **** 
 599:/usr/include/c++/10/ostream ****   template<typename _CharT, typename _Traits>
 600:/usr/include/c++/10/ostream ****     basic_ostream<_CharT, _Traits> &
 601:/usr/include/c++/10/ostream ****     operator<<(basic_ostream<_CharT, _Traits>& __out, const char* __s);
 602:/usr/include/c++/10/ostream **** 
 603:/usr/include/c++/10/ostream ****   // Partial specializations
 604:/usr/include/c++/10/ostream ****   template<typename _Traits>
 605:/usr/include/c++/10/ostream ****     inline basic_ostream<char, _Traits>&
 606:/usr/include/c++/10/ostream ****     operator<<(basic_ostream<char, _Traits>& __out, const char* __s)
  58              		.loc 2 606 5 is_stmt 1 view .LVU2
  59              	.LBE168:
  60              		.loc 1 10 6 is_stmt 0 view .LVU3
  61 0024 F96B04A9 		stp	x25, x26, [sp, 64]
  62              		.cfi_offset 25, -48
  63              		.cfi_offset 26, -40
  64 0028 FA03012A 		mov	w26, w1
  65 002c FB2B00F9 		str	x27, [sp, 80]
AARCH64 GAS  obj/Chapter12_3.s 			page 14


  66              		.cfi_offset 27, -32
  67              	.LBB180:
  68              	.LBB169:
 607:/usr/include/c++/10/ostream ****     {
 608:/usr/include/c++/10/ostream ****       if (!__s)
  69              		.loc 2 608 7 view .LVU4
  70 0030 800B00B4 		cbz	x0, .L6
 609:/usr/include/c++/10/ostream **** 	__out.setstate(ios_base::badbit);
 610:/usr/include/c++/10/ostream ****       else
 611:/usr/include/c++/10/ostream **** 	__ostream_insert(__out, __s,
  71              		.loc 2 611 18 view .LVU5
  72 0034 13000090 		adrp	x19, :got:_ZSt4cout
  73 0038 F40300AA 		mov	x20, x0
  74              	.LVL2:
  75              	.LBB170:
  76              	.LBI170:
  77              		.file 3 "/usr/include/c++/10/bits/char_traits.h"
   1:/usr/include/c++/10/bits/char_traits.h **** // Character Traits for use by standard string and iostream -*- C++ -*-
   2:/usr/include/c++/10/bits/char_traits.h **** 
   3:/usr/include/c++/10/bits/char_traits.h **** // Copyright (C) 1997-2020 Free Software Foundation, Inc.
   4:/usr/include/c++/10/bits/char_traits.h **** //
   5:/usr/include/c++/10/bits/char_traits.h **** // This file is part of the GNU ISO C++ Library.  This library is free
   6:/usr/include/c++/10/bits/char_traits.h **** // software; you can redistribute it and/or modify it under the
   7:/usr/include/c++/10/bits/char_traits.h **** // terms of the GNU General Public License as published by the
   8:/usr/include/c++/10/bits/char_traits.h **** // Free Software Foundation; either version 3, or (at your option)
   9:/usr/include/c++/10/bits/char_traits.h **** // any later version.
  10:/usr/include/c++/10/bits/char_traits.h **** 
  11:/usr/include/c++/10/bits/char_traits.h **** // This library is distributed in the hope that it will be useful,
  12:/usr/include/c++/10/bits/char_traits.h **** // but WITHOUT ANY WARRANTY; without even the implied warranty of
  13:/usr/include/c++/10/bits/char_traits.h **** // MERCHANTABILITY or FITNESS FOR A PARTICULAR PURPOSE.  See the
  14:/usr/include/c++/10/bits/char_traits.h **** // GNU General Public License for more details.
  15:/usr/include/c++/10/bits/char_traits.h **** 
  16:/usr/include/c++/10/bits/char_traits.h **** // Under Section 7 of GPL version 3, you are granted additional
  17:/usr/include/c++/10/bits/char_traits.h **** // permissions described in the GCC Runtime Library Exception, version
  18:/usr/include/c++/10/bits/char_traits.h **** // 3.1, as published by the Free Software Foundation.
  19:/usr/include/c++/10/bits/char_traits.h **** 
  20:/usr/include/c++/10/bits/char_traits.h **** // You should have received a copy of the GNU General Public License and
  21:/usr/include/c++/10/bits/char_traits.h **** // a copy of the GCC Runtime Library Exception along with this program;
  22:/usr/include/c++/10/bits/char_traits.h **** // see the files COPYING3 and COPYING.RUNTIME respectively.  If not, see
  23:/usr/include/c++/10/bits/char_traits.h **** // <http://www.gnu.org/licenses/>.
  24:/usr/include/c++/10/bits/char_traits.h **** 
  25:/usr/include/c++/10/bits/char_traits.h **** /** @file bits/char_traits.h
  26:/usr/include/c++/10/bits/char_traits.h ****  *  This is an internal header file, included by other library headers.
  27:/usr/include/c++/10/bits/char_traits.h ****  *  Do not attempt to use it directly. @headername{string}
  28:/usr/include/c++/10/bits/char_traits.h ****  */
  29:/usr/include/c++/10/bits/char_traits.h **** 
  30:/usr/include/c++/10/bits/char_traits.h **** //
  31:/usr/include/c++/10/bits/char_traits.h **** // ISO C++ 14882: 21  Strings library
  32:/usr/include/c++/10/bits/char_traits.h **** //
  33:/usr/include/c++/10/bits/char_traits.h **** 
  34:/usr/include/c++/10/bits/char_traits.h **** #ifndef _CHAR_TRAITS_H
  35:/usr/include/c++/10/bits/char_traits.h **** #define _CHAR_TRAITS_H 1
  36:/usr/include/c++/10/bits/char_traits.h **** 
  37:/usr/include/c++/10/bits/char_traits.h **** #pragma GCC system_header
  38:/usr/include/c++/10/bits/char_traits.h **** 
  39:/usr/include/c++/10/bits/char_traits.h **** #include <bits/stl_algobase.h>  // std::copy, std::fill_n
  40:/usr/include/c++/10/bits/char_traits.h **** #include <bits/postypes.h>      // For streampos
AARCH64 GAS  obj/Chapter12_3.s 			page 15


  41:/usr/include/c++/10/bits/char_traits.h **** #include <cwchar>               // For WEOF, wmemmove, wmemset, etc.
  42:/usr/include/c++/10/bits/char_traits.h **** #if __cplusplus > 201703L
  43:/usr/include/c++/10/bits/char_traits.h **** # include <compare>
  44:/usr/include/c++/10/bits/char_traits.h **** #endif
  45:/usr/include/c++/10/bits/char_traits.h **** 
  46:/usr/include/c++/10/bits/char_traits.h **** #ifndef _GLIBCXX_ALWAYS_INLINE
  47:/usr/include/c++/10/bits/char_traits.h **** # define _GLIBCXX_ALWAYS_INLINE inline __attribute__((__always_inline__))
  48:/usr/include/c++/10/bits/char_traits.h **** #endif
  49:/usr/include/c++/10/bits/char_traits.h **** 
  50:/usr/include/c++/10/bits/char_traits.h **** namespace __gnu_cxx _GLIBCXX_VISIBILITY(default)
  51:/usr/include/c++/10/bits/char_traits.h **** {
  52:/usr/include/c++/10/bits/char_traits.h **** _GLIBCXX_BEGIN_NAMESPACE_VERSION
  53:/usr/include/c++/10/bits/char_traits.h **** 
  54:/usr/include/c++/10/bits/char_traits.h ****   /**
  55:/usr/include/c++/10/bits/char_traits.h ****    *  @brief  Mapping from character type to associated types.
  56:/usr/include/c++/10/bits/char_traits.h ****    *
  57:/usr/include/c++/10/bits/char_traits.h ****    *  @note This is an implementation class for the generic version
  58:/usr/include/c++/10/bits/char_traits.h ****    *  of char_traits.  It defines int_type, off_type, pos_type, and
  59:/usr/include/c++/10/bits/char_traits.h ****    *  state_type.  By default these are unsigned long, streamoff,
  60:/usr/include/c++/10/bits/char_traits.h ****    *  streampos, and mbstate_t.  Users who need a different set of
  61:/usr/include/c++/10/bits/char_traits.h ****    *  types, but who don't need to change the definitions of any function
  62:/usr/include/c++/10/bits/char_traits.h ****    *  defined in char_traits, can specialize __gnu_cxx::_Char_types
  63:/usr/include/c++/10/bits/char_traits.h ****    *  while leaving __gnu_cxx::char_traits alone. */
  64:/usr/include/c++/10/bits/char_traits.h ****   template<typename _CharT>
  65:/usr/include/c++/10/bits/char_traits.h ****     struct _Char_types
  66:/usr/include/c++/10/bits/char_traits.h ****     {
  67:/usr/include/c++/10/bits/char_traits.h ****       typedef unsigned long   int_type;
  68:/usr/include/c++/10/bits/char_traits.h ****       typedef std::streampos  pos_type;
  69:/usr/include/c++/10/bits/char_traits.h ****       typedef std::streamoff  off_type;
  70:/usr/include/c++/10/bits/char_traits.h ****       typedef std::mbstate_t  state_type;
  71:/usr/include/c++/10/bits/char_traits.h ****     };
  72:/usr/include/c++/10/bits/char_traits.h **** 
  73:/usr/include/c++/10/bits/char_traits.h **** 
  74:/usr/include/c++/10/bits/char_traits.h ****   /**
  75:/usr/include/c++/10/bits/char_traits.h ****    *  @brief  Base class used to implement std::char_traits.
  76:/usr/include/c++/10/bits/char_traits.h ****    *
  77:/usr/include/c++/10/bits/char_traits.h ****    *  @note For any given actual character type, this definition is
  78:/usr/include/c++/10/bits/char_traits.h ****    *  probably wrong.  (Most of the member functions are likely to be
  79:/usr/include/c++/10/bits/char_traits.h ****    *  right, but the int_type and state_type typedefs, and the eof()
  80:/usr/include/c++/10/bits/char_traits.h ****    *  member function, are likely to be wrong.)  The reason this class
  81:/usr/include/c++/10/bits/char_traits.h ****    *  exists is so users can specialize it.  Classes in namespace std
  82:/usr/include/c++/10/bits/char_traits.h ****    *  may not be specialized for fundamental types, but classes in
  83:/usr/include/c++/10/bits/char_traits.h ****    *  namespace __gnu_cxx may be.
  84:/usr/include/c++/10/bits/char_traits.h ****    *
  85:/usr/include/c++/10/bits/char_traits.h ****    *  See https://gcc.gnu.org/onlinedocs/libstdc++/manual/strings.html#strings.string.character_typ
  86:/usr/include/c++/10/bits/char_traits.h ****    *  for advice on how to make use of this class for @a unusual character
  87:/usr/include/c++/10/bits/char_traits.h ****    *  types. Also, check out include/ext/pod_char_traits.h.  
  88:/usr/include/c++/10/bits/char_traits.h ****    */
  89:/usr/include/c++/10/bits/char_traits.h ****   template<typename _CharT>
  90:/usr/include/c++/10/bits/char_traits.h ****     struct char_traits
  91:/usr/include/c++/10/bits/char_traits.h ****     {
  92:/usr/include/c++/10/bits/char_traits.h ****       typedef _CharT                                    char_type;
  93:/usr/include/c++/10/bits/char_traits.h ****       typedef typename _Char_types<_CharT>::int_type    int_type;
  94:/usr/include/c++/10/bits/char_traits.h ****       typedef typename _Char_types<_CharT>::pos_type    pos_type;
  95:/usr/include/c++/10/bits/char_traits.h ****       typedef typename _Char_types<_CharT>::off_type    off_type;
  96:/usr/include/c++/10/bits/char_traits.h ****       typedef typename _Char_types<_CharT>::state_type  state_type;
  97:/usr/include/c++/10/bits/char_traits.h **** #if __cpp_lib_three_way_comparison
AARCH64 GAS  obj/Chapter12_3.s 			page 16


  98:/usr/include/c++/10/bits/char_traits.h ****       using comparison_category = std::strong_ordering;
  99:/usr/include/c++/10/bits/char_traits.h **** #endif
 100:/usr/include/c++/10/bits/char_traits.h **** 
 101:/usr/include/c++/10/bits/char_traits.h ****       static _GLIBCXX14_CONSTEXPR void
 102:/usr/include/c++/10/bits/char_traits.h ****       assign(char_type& __c1, const char_type& __c2)
 103:/usr/include/c++/10/bits/char_traits.h ****       { __c1 = __c2; }
 104:/usr/include/c++/10/bits/char_traits.h **** 
 105:/usr/include/c++/10/bits/char_traits.h ****       static _GLIBCXX_CONSTEXPR bool
 106:/usr/include/c++/10/bits/char_traits.h ****       eq(const char_type& __c1, const char_type& __c2)
 107:/usr/include/c++/10/bits/char_traits.h ****       { return __c1 == __c2; }
 108:/usr/include/c++/10/bits/char_traits.h **** 
 109:/usr/include/c++/10/bits/char_traits.h ****       static _GLIBCXX_CONSTEXPR bool
 110:/usr/include/c++/10/bits/char_traits.h ****       lt(const char_type& __c1, const char_type& __c2)
 111:/usr/include/c++/10/bits/char_traits.h ****       { return __c1 < __c2; }
 112:/usr/include/c++/10/bits/char_traits.h **** 
 113:/usr/include/c++/10/bits/char_traits.h ****       static _GLIBCXX14_CONSTEXPR int
 114:/usr/include/c++/10/bits/char_traits.h ****       compare(const char_type* __s1, const char_type* __s2, std::size_t __n);
 115:/usr/include/c++/10/bits/char_traits.h **** 
 116:/usr/include/c++/10/bits/char_traits.h ****       static _GLIBCXX14_CONSTEXPR std::size_t
 117:/usr/include/c++/10/bits/char_traits.h ****       length(const char_type* __s);
 118:/usr/include/c++/10/bits/char_traits.h **** 
 119:/usr/include/c++/10/bits/char_traits.h ****       static _GLIBCXX14_CONSTEXPR const char_type*
 120:/usr/include/c++/10/bits/char_traits.h ****       find(const char_type* __s, std::size_t __n, const char_type& __a);
 121:/usr/include/c++/10/bits/char_traits.h **** 
 122:/usr/include/c++/10/bits/char_traits.h ****       static _GLIBCXX20_CONSTEXPR char_type*
 123:/usr/include/c++/10/bits/char_traits.h ****       move(char_type* __s1, const char_type* __s2, std::size_t __n);
 124:/usr/include/c++/10/bits/char_traits.h **** 
 125:/usr/include/c++/10/bits/char_traits.h ****       static _GLIBCXX20_CONSTEXPR char_type*
 126:/usr/include/c++/10/bits/char_traits.h ****       copy(char_type* __s1, const char_type* __s2, std::size_t __n);
 127:/usr/include/c++/10/bits/char_traits.h **** 
 128:/usr/include/c++/10/bits/char_traits.h ****       static _GLIBCXX20_CONSTEXPR char_type*
 129:/usr/include/c++/10/bits/char_traits.h ****       assign(char_type* __s, std::size_t __n, char_type __a);
 130:/usr/include/c++/10/bits/char_traits.h **** 
 131:/usr/include/c++/10/bits/char_traits.h ****       static _GLIBCXX_CONSTEXPR char_type
 132:/usr/include/c++/10/bits/char_traits.h ****       to_char_type(const int_type& __c)
 133:/usr/include/c++/10/bits/char_traits.h ****       { return static_cast<char_type>(__c); }
 134:/usr/include/c++/10/bits/char_traits.h **** 
 135:/usr/include/c++/10/bits/char_traits.h ****       static _GLIBCXX_CONSTEXPR int_type
 136:/usr/include/c++/10/bits/char_traits.h ****       to_int_type(const char_type& __c)
 137:/usr/include/c++/10/bits/char_traits.h ****       { return static_cast<int_type>(__c); }
 138:/usr/include/c++/10/bits/char_traits.h **** 
 139:/usr/include/c++/10/bits/char_traits.h ****       static _GLIBCXX_CONSTEXPR bool
 140:/usr/include/c++/10/bits/char_traits.h ****       eq_int_type(const int_type& __c1, const int_type& __c2)
 141:/usr/include/c++/10/bits/char_traits.h ****       { return __c1 == __c2; }
 142:/usr/include/c++/10/bits/char_traits.h **** 
 143:/usr/include/c++/10/bits/char_traits.h ****       static _GLIBCXX_CONSTEXPR int_type
 144:/usr/include/c++/10/bits/char_traits.h ****       eof()
 145:/usr/include/c++/10/bits/char_traits.h ****       { return static_cast<int_type>(_GLIBCXX_STDIO_EOF); }
 146:/usr/include/c++/10/bits/char_traits.h **** 
 147:/usr/include/c++/10/bits/char_traits.h ****       static _GLIBCXX_CONSTEXPR int_type
 148:/usr/include/c++/10/bits/char_traits.h ****       not_eof(const int_type& __c)
 149:/usr/include/c++/10/bits/char_traits.h ****       { return !eq_int_type(__c, eof()) ? __c : to_int_type(char_type()); }
 150:/usr/include/c++/10/bits/char_traits.h ****     };
 151:/usr/include/c++/10/bits/char_traits.h **** 
 152:/usr/include/c++/10/bits/char_traits.h ****   template<typename _CharT>
 153:/usr/include/c++/10/bits/char_traits.h ****     _GLIBCXX14_CONSTEXPR int
 154:/usr/include/c++/10/bits/char_traits.h ****     char_traits<_CharT>::
AARCH64 GAS  obj/Chapter12_3.s 			page 17


 155:/usr/include/c++/10/bits/char_traits.h ****     compare(const char_type* __s1, const char_type* __s2, std::size_t __n)
 156:/usr/include/c++/10/bits/char_traits.h ****     {
 157:/usr/include/c++/10/bits/char_traits.h ****       for (std::size_t __i = 0; __i < __n; ++__i)
 158:/usr/include/c++/10/bits/char_traits.h **** 	if (lt(__s1[__i], __s2[__i]))
 159:/usr/include/c++/10/bits/char_traits.h **** 	  return -1;
 160:/usr/include/c++/10/bits/char_traits.h **** 	else if (lt(__s2[__i], __s1[__i]))
 161:/usr/include/c++/10/bits/char_traits.h **** 	  return 1;
 162:/usr/include/c++/10/bits/char_traits.h ****       return 0;
 163:/usr/include/c++/10/bits/char_traits.h ****     }
 164:/usr/include/c++/10/bits/char_traits.h **** 
 165:/usr/include/c++/10/bits/char_traits.h ****   template<typename _CharT>
 166:/usr/include/c++/10/bits/char_traits.h ****     _GLIBCXX14_CONSTEXPR std::size_t
 167:/usr/include/c++/10/bits/char_traits.h ****     char_traits<_CharT>::
 168:/usr/include/c++/10/bits/char_traits.h ****     length(const char_type* __p)
 169:/usr/include/c++/10/bits/char_traits.h ****     {
 170:/usr/include/c++/10/bits/char_traits.h ****       std::size_t __i = 0;
 171:/usr/include/c++/10/bits/char_traits.h ****       while (!eq(__p[__i], char_type()))
 172:/usr/include/c++/10/bits/char_traits.h ****         ++__i;
 173:/usr/include/c++/10/bits/char_traits.h ****       return __i;
 174:/usr/include/c++/10/bits/char_traits.h ****     }
 175:/usr/include/c++/10/bits/char_traits.h **** 
 176:/usr/include/c++/10/bits/char_traits.h ****   template<typename _CharT>
 177:/usr/include/c++/10/bits/char_traits.h ****     _GLIBCXX14_CONSTEXPR const typename char_traits<_CharT>::char_type*
 178:/usr/include/c++/10/bits/char_traits.h ****     char_traits<_CharT>::
 179:/usr/include/c++/10/bits/char_traits.h ****     find(const char_type* __s, std::size_t __n, const char_type& __a)
 180:/usr/include/c++/10/bits/char_traits.h ****     {
 181:/usr/include/c++/10/bits/char_traits.h ****       for (std::size_t __i = 0; __i < __n; ++__i)
 182:/usr/include/c++/10/bits/char_traits.h ****         if (eq(__s[__i], __a))
 183:/usr/include/c++/10/bits/char_traits.h ****           return __s + __i;
 184:/usr/include/c++/10/bits/char_traits.h ****       return 0;
 185:/usr/include/c++/10/bits/char_traits.h ****     }
 186:/usr/include/c++/10/bits/char_traits.h **** 
 187:/usr/include/c++/10/bits/char_traits.h ****   template<typename _CharT>
 188:/usr/include/c++/10/bits/char_traits.h ****     _GLIBCXX20_CONSTEXPR
 189:/usr/include/c++/10/bits/char_traits.h ****     typename char_traits<_CharT>::char_type*
 190:/usr/include/c++/10/bits/char_traits.h ****     char_traits<_CharT>::
 191:/usr/include/c++/10/bits/char_traits.h ****     move(char_type* __s1, const char_type* __s2, std::size_t __n)
 192:/usr/include/c++/10/bits/char_traits.h ****     {
 193:/usr/include/c++/10/bits/char_traits.h ****       if (__n == 0)
 194:/usr/include/c++/10/bits/char_traits.h **** 	return __s1;
 195:/usr/include/c++/10/bits/char_traits.h **** #ifdef __cpp_lib_is_constant_evaluated
 196:/usr/include/c++/10/bits/char_traits.h ****       if (std::is_constant_evaluated())
 197:/usr/include/c++/10/bits/char_traits.h **** 	{
 198:/usr/include/c++/10/bits/char_traits.h **** 	  if (__s1 > __s2 && __s1 < __s2 + __n)
 199:/usr/include/c++/10/bits/char_traits.h **** 	    std::copy_backward(__s2, __s2 + __n, __s1);
 200:/usr/include/c++/10/bits/char_traits.h **** 	  else
 201:/usr/include/c++/10/bits/char_traits.h **** 	    std::copy(__s2, __s2 + __n, __s1);
 202:/usr/include/c++/10/bits/char_traits.h **** 	  return __s1;
 203:/usr/include/c++/10/bits/char_traits.h **** 	}
 204:/usr/include/c++/10/bits/char_traits.h **** #endif
 205:/usr/include/c++/10/bits/char_traits.h ****       return static_cast<_CharT*>(__builtin_memmove(__s1, __s2,
 206:/usr/include/c++/10/bits/char_traits.h **** 						    __n * sizeof(char_type)));
 207:/usr/include/c++/10/bits/char_traits.h ****     }
 208:/usr/include/c++/10/bits/char_traits.h **** 
 209:/usr/include/c++/10/bits/char_traits.h ****   template<typename _CharT>
 210:/usr/include/c++/10/bits/char_traits.h ****     _GLIBCXX20_CONSTEXPR
 211:/usr/include/c++/10/bits/char_traits.h ****     typename char_traits<_CharT>::char_type*
AARCH64 GAS  obj/Chapter12_3.s 			page 18


 212:/usr/include/c++/10/bits/char_traits.h ****     char_traits<_CharT>::
 213:/usr/include/c++/10/bits/char_traits.h ****     copy(char_type* __s1, const char_type* __s2, std::size_t __n)
 214:/usr/include/c++/10/bits/char_traits.h ****     {
 215:/usr/include/c++/10/bits/char_traits.h ****       // NB: Inline std::copy so no recursive dependencies.
 216:/usr/include/c++/10/bits/char_traits.h ****       std::copy(__s2, __s2 + __n, __s1);
 217:/usr/include/c++/10/bits/char_traits.h ****       return __s1;
 218:/usr/include/c++/10/bits/char_traits.h ****     }
 219:/usr/include/c++/10/bits/char_traits.h **** 
 220:/usr/include/c++/10/bits/char_traits.h ****   template<typename _CharT>
 221:/usr/include/c++/10/bits/char_traits.h ****     _GLIBCXX20_CONSTEXPR
 222:/usr/include/c++/10/bits/char_traits.h ****     typename char_traits<_CharT>::char_type*
 223:/usr/include/c++/10/bits/char_traits.h ****     char_traits<_CharT>::
 224:/usr/include/c++/10/bits/char_traits.h ****     assign(char_type* __s, std::size_t __n, char_type __a)
 225:/usr/include/c++/10/bits/char_traits.h ****     {
 226:/usr/include/c++/10/bits/char_traits.h ****       // NB: Inline std::fill_n so no recursive dependencies.
 227:/usr/include/c++/10/bits/char_traits.h ****       std::fill_n(__s, __n, __a);
 228:/usr/include/c++/10/bits/char_traits.h ****       return __s;
 229:/usr/include/c++/10/bits/char_traits.h ****     }
 230:/usr/include/c++/10/bits/char_traits.h **** 
 231:/usr/include/c++/10/bits/char_traits.h **** _GLIBCXX_END_NAMESPACE_VERSION
 232:/usr/include/c++/10/bits/char_traits.h **** } // namespace
 233:/usr/include/c++/10/bits/char_traits.h **** 
 234:/usr/include/c++/10/bits/char_traits.h **** namespace std _GLIBCXX_VISIBILITY(default)
 235:/usr/include/c++/10/bits/char_traits.h **** {
 236:/usr/include/c++/10/bits/char_traits.h **** _GLIBCXX_BEGIN_NAMESPACE_VERSION
 237:/usr/include/c++/10/bits/char_traits.h **** 
 238:/usr/include/c++/10/bits/char_traits.h **** #if __cplusplus >= 201703L
 239:/usr/include/c++/10/bits/char_traits.h **** 
 240:/usr/include/c++/10/bits/char_traits.h **** #if __cplusplus == 201703L
 241:/usr/include/c++/10/bits/char_traits.h **** // Unofficial macro indicating P0426R1 support
 242:/usr/include/c++/10/bits/char_traits.h **** # define __cpp_lib_constexpr_char_traits 201611L
 243:/usr/include/c++/10/bits/char_traits.h **** #else
 244:/usr/include/c++/10/bits/char_traits.h **** // Also support P1032R1 in C++20
 245:/usr/include/c++/10/bits/char_traits.h **** # define __cpp_lib_constexpr_char_traits 201811L
 246:/usr/include/c++/10/bits/char_traits.h **** #endif
 247:/usr/include/c++/10/bits/char_traits.h **** 
 248:/usr/include/c++/10/bits/char_traits.h ****   /**
 249:/usr/include/c++/10/bits/char_traits.h ****    *  @brief Determine whether the characters of a NULL-terminated
 250:/usr/include/c++/10/bits/char_traits.h ****    *  string are known at compile time.
 251:/usr/include/c++/10/bits/char_traits.h ****    *  @param  __s  The string.
 252:/usr/include/c++/10/bits/char_traits.h ****    *
 253:/usr/include/c++/10/bits/char_traits.h ****    *  Assumes that _CharT is a built-in character type.
 254:/usr/include/c++/10/bits/char_traits.h ****    */
 255:/usr/include/c++/10/bits/char_traits.h ****   template<typename _CharT>
 256:/usr/include/c++/10/bits/char_traits.h ****     static _GLIBCXX_ALWAYS_INLINE constexpr bool
 257:/usr/include/c++/10/bits/char_traits.h ****     __constant_string_p(const _CharT* __s)
 258:/usr/include/c++/10/bits/char_traits.h ****     {
 259:/usr/include/c++/10/bits/char_traits.h **** #ifdef _GLIBCXX_HAVE_BUILTIN_IS_CONSTANT_EVALUATED
 260:/usr/include/c++/10/bits/char_traits.h ****       (void) __s;
 261:/usr/include/c++/10/bits/char_traits.h ****       // In constexpr contexts all strings should be constant.
 262:/usr/include/c++/10/bits/char_traits.h ****       return __builtin_is_constant_evaluated();
 263:/usr/include/c++/10/bits/char_traits.h **** #else
 264:/usr/include/c++/10/bits/char_traits.h ****       while (__builtin_constant_p(*__s) && *__s)
 265:/usr/include/c++/10/bits/char_traits.h **** 	__s++;
 266:/usr/include/c++/10/bits/char_traits.h ****       return __builtin_constant_p(*__s);
 267:/usr/include/c++/10/bits/char_traits.h **** #endif
 268:/usr/include/c++/10/bits/char_traits.h ****     }
AARCH64 GAS  obj/Chapter12_3.s 			page 19


 269:/usr/include/c++/10/bits/char_traits.h **** 
 270:/usr/include/c++/10/bits/char_traits.h ****   /**
 271:/usr/include/c++/10/bits/char_traits.h ****    *  @brief Determine whether the characters of a character array are
 272:/usr/include/c++/10/bits/char_traits.h ****    *  known at compile time.
 273:/usr/include/c++/10/bits/char_traits.h ****    *  @param  __a  The character array.
 274:/usr/include/c++/10/bits/char_traits.h ****    *  @param  __n  Number of characters.
 275:/usr/include/c++/10/bits/char_traits.h ****    *
 276:/usr/include/c++/10/bits/char_traits.h ****    *  Assumes that _CharT is a built-in character type.
 277:/usr/include/c++/10/bits/char_traits.h ****    */
 278:/usr/include/c++/10/bits/char_traits.h ****   template<typename _CharT>
 279:/usr/include/c++/10/bits/char_traits.h ****     static _GLIBCXX_ALWAYS_INLINE constexpr bool
 280:/usr/include/c++/10/bits/char_traits.h ****     __constant_char_array_p(const _CharT* __a, size_t __n)
 281:/usr/include/c++/10/bits/char_traits.h ****     {
 282:/usr/include/c++/10/bits/char_traits.h **** #ifdef _GLIBCXX_HAVE_BUILTIN_IS_CONSTANT_EVALUATED
 283:/usr/include/c++/10/bits/char_traits.h ****       (void) __a;
 284:/usr/include/c++/10/bits/char_traits.h ****       (void) __n;
 285:/usr/include/c++/10/bits/char_traits.h ****       // In constexpr contexts all character arrays should be constant.
 286:/usr/include/c++/10/bits/char_traits.h ****       return __builtin_is_constant_evaluated();
 287:/usr/include/c++/10/bits/char_traits.h **** #else
 288:/usr/include/c++/10/bits/char_traits.h ****       size_t __i = 0;
 289:/usr/include/c++/10/bits/char_traits.h ****       while (__i < __n && __builtin_constant_p(__a[__i]))
 290:/usr/include/c++/10/bits/char_traits.h **** 	__i++;
 291:/usr/include/c++/10/bits/char_traits.h ****       return __i == __n;
 292:/usr/include/c++/10/bits/char_traits.h **** #endif
 293:/usr/include/c++/10/bits/char_traits.h ****     }
 294:/usr/include/c++/10/bits/char_traits.h **** #endif
 295:/usr/include/c++/10/bits/char_traits.h **** 
 296:/usr/include/c++/10/bits/char_traits.h ****   // 21.1
 297:/usr/include/c++/10/bits/char_traits.h ****   /**
 298:/usr/include/c++/10/bits/char_traits.h ****    *  @brief  Basis for explicit traits specializations.
 299:/usr/include/c++/10/bits/char_traits.h ****    *
 300:/usr/include/c++/10/bits/char_traits.h ****    *  @note  For any given actual character type, this definition is
 301:/usr/include/c++/10/bits/char_traits.h ****    *  probably wrong.  Since this is just a thin wrapper around
 302:/usr/include/c++/10/bits/char_traits.h ****    *  __gnu_cxx::char_traits, it is possible to achieve a more
 303:/usr/include/c++/10/bits/char_traits.h ****    *  appropriate definition by specializing __gnu_cxx::char_traits.
 304:/usr/include/c++/10/bits/char_traits.h ****    *
 305:/usr/include/c++/10/bits/char_traits.h ****    *  See https://gcc.gnu.org/onlinedocs/libstdc++/manual/strings.html#strings.string.character_typ
 306:/usr/include/c++/10/bits/char_traits.h ****    *  for advice on how to make use of this class for @a unusual character
 307:/usr/include/c++/10/bits/char_traits.h ****    *  types. Also, check out include/ext/pod_char_traits.h.
 308:/usr/include/c++/10/bits/char_traits.h ****   */
 309:/usr/include/c++/10/bits/char_traits.h ****   template<class _CharT>
 310:/usr/include/c++/10/bits/char_traits.h ****     struct char_traits : public __gnu_cxx::char_traits<_CharT>
 311:/usr/include/c++/10/bits/char_traits.h ****     { };
 312:/usr/include/c++/10/bits/char_traits.h **** 
 313:/usr/include/c++/10/bits/char_traits.h **** 
 314:/usr/include/c++/10/bits/char_traits.h ****   /// 21.1.3.1  char_traits specializations
 315:/usr/include/c++/10/bits/char_traits.h ****   template<>
 316:/usr/include/c++/10/bits/char_traits.h ****     struct char_traits<char>
 317:/usr/include/c++/10/bits/char_traits.h ****     {
 318:/usr/include/c++/10/bits/char_traits.h ****       typedef char              char_type;
 319:/usr/include/c++/10/bits/char_traits.h ****       typedef int               int_type;
 320:/usr/include/c++/10/bits/char_traits.h ****       typedef streampos         pos_type;
 321:/usr/include/c++/10/bits/char_traits.h ****       typedef streamoff         off_type;
 322:/usr/include/c++/10/bits/char_traits.h ****       typedef mbstate_t         state_type;
 323:/usr/include/c++/10/bits/char_traits.h **** #if __cpp_lib_three_way_comparison
 324:/usr/include/c++/10/bits/char_traits.h ****       using comparison_category = strong_ordering;
 325:/usr/include/c++/10/bits/char_traits.h **** #endif
AARCH64 GAS  obj/Chapter12_3.s 			page 20


 326:/usr/include/c++/10/bits/char_traits.h **** 
 327:/usr/include/c++/10/bits/char_traits.h ****       static _GLIBCXX17_CONSTEXPR void
 328:/usr/include/c++/10/bits/char_traits.h ****       assign(char_type& __c1, const char_type& __c2) _GLIBCXX_NOEXCEPT
 329:/usr/include/c++/10/bits/char_traits.h ****       { __c1 = __c2; }
 330:/usr/include/c++/10/bits/char_traits.h **** 
 331:/usr/include/c++/10/bits/char_traits.h ****       static _GLIBCXX_CONSTEXPR bool
 332:/usr/include/c++/10/bits/char_traits.h ****       eq(const char_type& __c1, const char_type& __c2) _GLIBCXX_NOEXCEPT
 333:/usr/include/c++/10/bits/char_traits.h ****       { return __c1 == __c2; }
 334:/usr/include/c++/10/bits/char_traits.h **** 
 335:/usr/include/c++/10/bits/char_traits.h ****       static _GLIBCXX_CONSTEXPR bool
 336:/usr/include/c++/10/bits/char_traits.h ****       lt(const char_type& __c1, const char_type& __c2) _GLIBCXX_NOEXCEPT
 337:/usr/include/c++/10/bits/char_traits.h ****       {
 338:/usr/include/c++/10/bits/char_traits.h **** 	// LWG 467.
 339:/usr/include/c++/10/bits/char_traits.h **** 	return (static_cast<unsigned char>(__c1)
 340:/usr/include/c++/10/bits/char_traits.h **** 		< static_cast<unsigned char>(__c2));
 341:/usr/include/c++/10/bits/char_traits.h ****       }
 342:/usr/include/c++/10/bits/char_traits.h **** 
 343:/usr/include/c++/10/bits/char_traits.h ****       static _GLIBCXX17_CONSTEXPR int
 344:/usr/include/c++/10/bits/char_traits.h ****       compare(const char_type* __s1, const char_type* __s2, size_t __n)
 345:/usr/include/c++/10/bits/char_traits.h ****       {
 346:/usr/include/c++/10/bits/char_traits.h **** 	if (__n == 0)
 347:/usr/include/c++/10/bits/char_traits.h **** 	  return 0;
 348:/usr/include/c++/10/bits/char_traits.h **** #if __cplusplus >= 201703L
 349:/usr/include/c++/10/bits/char_traits.h **** 	if (__builtin_constant_p(__n)
 350:/usr/include/c++/10/bits/char_traits.h **** 	    && __constant_char_array_p(__s1, __n)
 351:/usr/include/c++/10/bits/char_traits.h **** 	    && __constant_char_array_p(__s2, __n))
 352:/usr/include/c++/10/bits/char_traits.h **** 	  return __gnu_cxx::char_traits<char_type>::compare(__s1, __s2, __n);
 353:/usr/include/c++/10/bits/char_traits.h **** #endif
 354:/usr/include/c++/10/bits/char_traits.h **** 	return __builtin_memcmp(__s1, __s2, __n);
 355:/usr/include/c++/10/bits/char_traits.h ****       }
 356:/usr/include/c++/10/bits/char_traits.h **** 
 357:/usr/include/c++/10/bits/char_traits.h ****       static _GLIBCXX17_CONSTEXPR size_t
 358:/usr/include/c++/10/bits/char_traits.h ****       length(const char_type* __s)
  78              		.loc 3 358 7 is_stmt 1 view .LVU6
  79              	.LBB171:
 359:/usr/include/c++/10/bits/char_traits.h ****       {
 360:/usr/include/c++/10/bits/char_traits.h **** #if __cplusplus >= 201703L
 361:/usr/include/c++/10/bits/char_traits.h **** 	if (__constant_string_p(__s))
 362:/usr/include/c++/10/bits/char_traits.h **** 	  return __gnu_cxx::char_traits<char_type>::length(__s);
 363:/usr/include/c++/10/bits/char_traits.h **** #endif
 364:/usr/include/c++/10/bits/char_traits.h **** 	return __builtin_strlen(__s);
  80              		.loc 3 364 2 view .LVU7
  81              		.loc 3 364 25 is_stmt 0 view .LVU8
  82 003c 00000094 		bl	strlen
  83              	.LVL3:
  84              		.loc 3 364 25 view .LVU9
  85 0040 E20300AA 		mov	x2, x0
  86              	.LBE171:
  87              	.LBE170:
  88              		.loc 2 611 18 view .LVU10
  89 0044 600240F9 		ldr	x0, [x19, #:got_lo12:_ZSt4cout]
  90 0048 E10314AA 		mov	x1, x20
  91 004c 00000094 		bl	_ZSt16__ostream_insertIcSt11char_traitsIcEERSt13basic_ostreamIT_T0_ES6_PKS3_l
  92              	.LVL4:
  93              	.L3:
  94              		.loc 2 611 18 view .LVU11
  95              	.LBE169:
AARCH64 GAS  obj/Chapter12_3.s 			page 21


  96              	.LBE180:
  97              	.LBB181:
  98              	.LBB182:
 518:/usr/include/c++/10/ostream **** 
  99              		.loc 2 518 30 view .LVU12
 100 0050 730240F9 		ldr	x19, [x19, #:got_lo12:_ZSt4cout]
 101 0054 F9BF0191 		add	x25, sp, 111
 102 0058 5B018052 		mov	w27, 10
 103 005c E10319AA 		mov	x1, x25
 104 0060 E00313AA 		mov	x0, x19
 105 0064 220080D2 		mov	x2, 1
 106 0068 FBBF0139 		strb	w27, [sp, 111]
 107              	.LVL5:
 518:/usr/include/c++/10/ostream **** 
 108              		.loc 2 518 30 view .LVU13
 109              	.LBE182:
 110              	.LBI181:
 517:/usr/include/c++/10/ostream ****     { return __ostream_insert(__out, &__c, 1); }
 111              		.loc 2 517 5 is_stmt 1 view .LVU14
 112              	.LBB183:
 518:/usr/include/c++/10/ostream **** 
 113              		.loc 2 518 30 is_stmt 0 view .LVU15
 114 006c 00000094 		bl	_ZSt16__ostream_insertIcSt11char_traitsIcEERSt13basic_ostreamIT_T0_ES6_PKS3_l
 115              	.LVL6:
 518:/usr/include/c++/10/ostream **** 
 116              		.loc 2 518 30 view .LVU16
 117              	.LBE183:
 118              	.LBE181:
 119              	.LBB184:
 120              	.LBI184:
 606:/usr/include/c++/10/ostream ****     {
 121              		.loc 2 606 5 is_stmt 1 view .LVU17
 606:/usr/include/c++/10/ostream ****     {
 122              		.loc 2 606 5 is_stmt 0 view .LVU18
 123              	.LBE184:
 124              		.loc 3 364 2 is_stmt 1 view .LVU19
 125              	.LBB186:
 126              	.LBB185:
 127              		.loc 2 611 18 is_stmt 0 view .LVU20
 128 0070 620080D2 		mov	x2, 3
 129 0074 E00313AA 		mov	x0, x19
 130 0078 01000090 		adrp	x1, .LC0
 131 007c 21000091 		add	x1, x1, :lo12:.LC0
 132 0080 00000094 		bl	_ZSt16__ostream_insertIcSt11char_traitsIcEERSt13basic_ostreamIT_T0_ES6_PKS3_l
 133              	.LVL7:
 134              		.loc 2 611 18 view .LVU21
 135              	.LBE185:
 136              	.LBE186:
 137              	.LBB187:
 138              	.LBB188:
 139 0084 14000090 		adrp	x20, .LC1
 140              	.LBE188:
 141              	.LBE187:
  11:Chapter12_3.cpp **** {
  12:Chapter12_3.cpp **** 	const char nl = '\n';
  13:Chapter12_3.cpp **** 	const char* sep = " | ";
  14:Chapter12_3.cpp **** 	cout<<msg<<nl;
AARCH64 GAS  obj/Chapter12_3.s 			page 22


  15:Chapter12_3.cpp **** 	cout<<"a= "<<a<<sep;
 142              		.loc 1 15 16 view .LVU22
 143 0088 E1031A2A 		mov	w1, w26
 144              	.LBB191:
 145              	.LBB189:
 146              		.loc 2 611 18 view .LVU23
 147 008c 94020091 		add	x20, x20, :lo12:.LC1
 148              	.LBE189:
 149              	.LBE191:
 150              		.loc 1 15 16 view .LVU24
 151 0090 E00313AA 		mov	x0, x19
 152 0094 00000094 		bl	_ZNSolsEi
 153              	.LVL8:
 154              	.LBB192:
 155              	.LBI187:
 606:/usr/include/c++/10/ostream ****     {
 156              		.loc 2 606 5 is_stmt 1 view .LVU25
 606:/usr/include/c++/10/ostream ****     {
 157              		.loc 2 606 5 is_stmt 0 view .LVU26
 158              	.LBE192:
 159              		.loc 3 364 2 is_stmt 1 view .LVU27
 160              	.LBB193:
 161              	.LBB190:
 162              		.loc 2 611 18 is_stmt 0 view .LVU28
 163 0098 E10314AA 		mov	x1, x20
 164 009c 620080D2 		mov	x2, 3
 165 00a0 00000094 		bl	_ZSt16__ostream_insertIcSt11char_traitsIcEERSt13basic_ostreamIT_T0_ES6_PKS3_l
 166              	.LVL9:
 167              		.loc 2 611 18 view .LVU29
 168              	.LBE190:
 169              	.LBE193:
 170              	.LBB194:
 171              	.LBI194:
 606:/usr/include/c++/10/ostream ****     {
 172              		.loc 2 606 5 is_stmt 1 view .LVU30
 606:/usr/include/c++/10/ostream ****     {
 173              		.loc 2 606 5 is_stmt 0 view .LVU31
 174              	.LBE194:
 175              		.loc 3 364 2 is_stmt 1 view .LVU32
 176              	.LBB196:
 177              	.LBB195:
 178              		.loc 2 611 18 is_stmt 0 view .LVU33
 179 00a4 620080D2 		mov	x2, 3
 180 00a8 E00313AA 		mov	x0, x19
 181 00ac 01000090 		adrp	x1, .LC2
 182 00b0 21000091 		add	x1, x1, :lo12:.LC2
 183 00b4 00000094 		bl	_ZSt16__ostream_insertIcSt11char_traitsIcEERSt13basic_ostreamIT_T0_ES6_PKS3_l
 184              	.LVL10:
 185              		.loc 2 611 18 view .LVU34
 186              	.LBE195:
 187              	.LBE196:
  16:Chapter12_3.cpp **** 	cout<<"b= "<<b<<sep;
 188              		.loc 1 16 16 view .LVU35
 189 00b8 E103172A 		mov	w1, w23
 190 00bc E00313AA 		mov	x0, x19
 191 00c0 00000094 		bl	_ZNSolsEi
 192              	.LVL11:
AARCH64 GAS  obj/Chapter12_3.s 			page 23


 193              	.LBB197:
 194              	.LBI197:
 606:/usr/include/c++/10/ostream ****     {
 195              		.loc 2 606 5 is_stmt 1 view .LVU36
 606:/usr/include/c++/10/ostream ****     {
 196              		.loc 2 606 5 is_stmt 0 view .LVU37
 197              	.LBE197:
 198              		.loc 3 364 2 is_stmt 1 view .LVU38
 199              	.LBB199:
 200              	.LBB198:
 201              		.loc 2 611 18 is_stmt 0 view .LVU39
 202 00c4 E10314AA 		mov	x1, x20
 203 00c8 620080D2 		mov	x2, 3
 204 00cc 00000094 		bl	_ZSt16__ostream_insertIcSt11char_traitsIcEERSt13basic_ostreamIT_T0_ES6_PKS3_l
 205              	.LVL12:
 206              		.loc 2 611 18 view .LVU40
 207              	.LBE198:
 208              	.LBE199:
 209              	.LBB200:
 210              	.LBI200:
 606:/usr/include/c++/10/ostream ****     {
 211              		.loc 2 606 5 is_stmt 1 view .LVU41
 606:/usr/include/c++/10/ostream ****     {
 212              		.loc 2 606 5 is_stmt 0 view .LVU42
 213              	.LBE200:
 214              		.loc 3 364 2 is_stmt 1 view .LVU43
 215              	.LBB202:
 216              	.LBB201:
 217              		.loc 2 611 18 is_stmt 0 view .LVU44
 218 00d0 620080D2 		mov	x2, 3
 219 00d4 E00313AA 		mov	x0, x19
 220 00d8 01000090 		adrp	x1, .LC3
 221 00dc 21000091 		add	x1, x1, :lo12:.LC3
 222 00e0 00000094 		bl	_ZSt16__ostream_insertIcSt11char_traitsIcEERSt13basic_ostreamIT_T0_ES6_PKS3_l
 223              	.LVL13:
 224              		.loc 2 611 18 view .LVU45
 225              	.LBE201:
 226              	.LBE202:
  17:Chapter12_3.cpp **** 	cout<<"c= "<<c<<sep;
 227              		.loc 1 17 16 view .LVU46
 228 00e4 E103162A 		mov	w1, w22
 229 00e8 E00313AA 		mov	x0, x19
 230 00ec 00000094 		bl	_ZNSolsEi
 231              	.LVL14:
 232              	.LBB203:
 233              	.LBI203:
 606:/usr/include/c++/10/ostream ****     {
 234              		.loc 2 606 5 is_stmt 1 view .LVU47
 606:/usr/include/c++/10/ostream ****     {
 235              		.loc 2 606 5 is_stmt 0 view .LVU48
 236              	.LBE203:
 237              		.loc 3 364 2 is_stmt 1 view .LVU49
 238              	.LBB205:
 239              	.LBB204:
 240              		.loc 2 611 18 is_stmt 0 view .LVU50
 241 00f0 E10314AA 		mov	x1, x20
 242 00f4 620080D2 		mov	x2, 3
AARCH64 GAS  obj/Chapter12_3.s 			page 24


 243 00f8 00000094 		bl	_ZSt16__ostream_insertIcSt11char_traitsIcEERSt13basic_ostreamIT_T0_ES6_PKS3_l
 244              	.LVL15:
 245              		.loc 2 611 18 view .LVU51
 246              	.LBE204:
 247              	.LBE205:
 248              	.LBB206:
 249              	.LBI206:
 606:/usr/include/c++/10/ostream ****     {
 250              		.loc 2 606 5 is_stmt 1 view .LVU52
 606:/usr/include/c++/10/ostream ****     {
 251              		.loc 2 606 5 is_stmt 0 view .LVU53
 252              	.LBE206:
 253              		.loc 3 364 2 is_stmt 1 view .LVU54
 254              	.LBB208:
 255              	.LBB207:
 256              		.loc 2 611 18 is_stmt 0 view .LVU55
 257 00fc A20080D2 		mov	x2, 5
 258 0100 E00313AA 		mov	x0, x19
 259 0104 01000090 		adrp	x1, .LC4
 260 0108 21000091 		add	x1, x1, :lo12:.LC4
 261 010c 00000094 		bl	_ZSt16__ostream_insertIcSt11char_traitsIcEERSt13basic_ostreamIT_T0_ES6_PKS3_l
 262              	.LVL16:
 263              		.loc 2 611 18 view .LVU56
 264              	.LBE207:
 265              	.LBE208:
  18:Chapter12_3.cpp **** 	cout<<"sum= "<<sum<<sep;
 266              		.loc 1 18 20 view .LVU57
 267 0110 E103152A 		mov	w1, w21
 268 0114 E00313AA 		mov	x0, x19
 269 0118 00000094 		bl	_ZNSolsEi
 270              	.LVL17:
 271              	.LBB209:
 272              	.LBI209:
 606:/usr/include/c++/10/ostream ****     {
 273              		.loc 2 606 5 is_stmt 1 view .LVU58
 606:/usr/include/c++/10/ostream ****     {
 274              		.loc 2 606 5 is_stmt 0 view .LVU59
 275              	.LBE209:
 276              		.loc 3 364 2 is_stmt 1 view .LVU60
 277              	.LBB211:
 278              	.LBB210:
 279              		.loc 2 611 18 is_stmt 0 view .LVU61
 280 011c E10314AA 		mov	x1, x20
 281 0120 620080D2 		mov	x2, 3
 282 0124 00000094 		bl	_ZSt16__ostream_insertIcSt11char_traitsIcEERSt13basic_ostreamIT_T0_ES6_PKS3_l
 283              	.LVL18:
 284              		.loc 2 611 18 view .LVU62
 285              	.LBE210:
 286              	.LBE211:
 287              	.LBB212:
 288              	.LBI212:
 606:/usr/include/c++/10/ostream ****     {
 289              		.loc 2 606 5 is_stmt 1 view .LVU63
 606:/usr/include/c++/10/ostream ****     {
 290              		.loc 2 606 5 is_stmt 0 view .LVU64
 291              	.LBE212:
 292              		.loc 3 364 2 is_stmt 1 view .LVU65
AARCH64 GAS  obj/Chapter12_3.s 			page 25


 293              	.LBB214:
 294              	.LBB213:
 295              		.loc 2 611 18 is_stmt 0 view .LVU66
 296 0128 E00313AA 		mov	x0, x19
 297 012c 020180D2 		mov	x2, 8
 298 0130 01000090 		adrp	x1, .LC5
 299 0134 21000091 		add	x1, x1, :lo12:.LC5
 300 0138 00000094 		bl	_ZSt16__ostream_insertIcSt11char_traitsIcEERSt13basic_ostreamIT_T0_ES6_PKS3_l
 301              	.LVL19:
 302              		.loc 2 611 18 view .LVU67
 303              	.LBE213:
 304              	.LBE214:
 305              	.LBB215:
 306              	.LBI215:
 127:/usr/include/c++/10/ostream ****       {
 307              		.loc 2 127 7 is_stmt 1 view .LVU68
 308              	.LBB216:
 132:/usr/include/c++/10/ostream **** 	return *this;
 309              		.loc 2 132 6 is_stmt 0 view .LVU69
 310 013c 620240F9 		ldr	x2, [x19]
 311              	.LBE216:
 312              	.LBE215:
 313              	.LBB227:
 314              	.LBB228:
 175:/usr/include/c++/10/ostream **** 
 315              		.loc 2 175 25 view .LVU70
 316 0140 E103182A 		mov	w1, w24
 317 0144 E00313AA 		mov	x0, x19
 318              	.LBE228:
 319              	.LBE227:
 320              	.LBB230:
 321              	.LBB225:
 132:/usr/include/c++/10/ostream **** 	return *this;
 322              		.loc 2 132 6 view .LVU71
 323 0148 42805EF8 		ldr	x2, [x2, -24]
 324 014c 4200138B 		add	x2, x2, x19
 325              	.LVL20:
 326              	.LBB217:
 327              	.LBI217:
 328              		.file 4 "/usr/include/c++/10/bits/ios_base.h"
   1:/usr/include/c++/10/bits/ios_base.h **** // Iostreams base classes -*- C++ -*-
   2:/usr/include/c++/10/bits/ios_base.h **** 
   3:/usr/include/c++/10/bits/ios_base.h **** // Copyright (C) 1997-2020 Free Software Foundation, Inc.
   4:/usr/include/c++/10/bits/ios_base.h **** //
   5:/usr/include/c++/10/bits/ios_base.h **** // This file is part of the GNU ISO C++ Library.  This library is free
   6:/usr/include/c++/10/bits/ios_base.h **** // software; you can redistribute it and/or modify it under the
   7:/usr/include/c++/10/bits/ios_base.h **** // terms of the GNU General Public License as published by the
   8:/usr/include/c++/10/bits/ios_base.h **** // Free Software Foundation; either version 3, or (at your option)
   9:/usr/include/c++/10/bits/ios_base.h **** // any later version.
  10:/usr/include/c++/10/bits/ios_base.h **** 
  11:/usr/include/c++/10/bits/ios_base.h **** // This library is distributed in the hope that it will be useful,
  12:/usr/include/c++/10/bits/ios_base.h **** // but WITHOUT ANY WARRANTY; without even the implied warranty of
  13:/usr/include/c++/10/bits/ios_base.h **** // MERCHANTABILITY or FITNESS FOR A PARTICULAR PURPOSE.  See the
  14:/usr/include/c++/10/bits/ios_base.h **** // GNU General Public License for more details.
  15:/usr/include/c++/10/bits/ios_base.h **** 
  16:/usr/include/c++/10/bits/ios_base.h **** // Under Section 7 of GPL version 3, you are granted additional
  17:/usr/include/c++/10/bits/ios_base.h **** // permissions described in the GCC Runtime Library Exception, version
AARCH64 GAS  obj/Chapter12_3.s 			page 26


  18:/usr/include/c++/10/bits/ios_base.h **** // 3.1, as published by the Free Software Foundation.
  19:/usr/include/c++/10/bits/ios_base.h **** 
  20:/usr/include/c++/10/bits/ios_base.h **** // You should have received a copy of the GNU General Public License and
  21:/usr/include/c++/10/bits/ios_base.h **** // a copy of the GCC Runtime Library Exception along with this program;
  22:/usr/include/c++/10/bits/ios_base.h **** // see the files COPYING3 and COPYING.RUNTIME respectively.  If not, see
  23:/usr/include/c++/10/bits/ios_base.h **** // <http://www.gnu.org/licenses/>.
  24:/usr/include/c++/10/bits/ios_base.h **** 
  25:/usr/include/c++/10/bits/ios_base.h **** /** @file bits/ios_base.h
  26:/usr/include/c++/10/bits/ios_base.h ****  *  This is an internal header file, included by other library headers.
  27:/usr/include/c++/10/bits/ios_base.h ****  *  Do not attempt to use it directly. @headername{ios}
  28:/usr/include/c++/10/bits/ios_base.h ****  */
  29:/usr/include/c++/10/bits/ios_base.h **** 
  30:/usr/include/c++/10/bits/ios_base.h **** //
  31:/usr/include/c++/10/bits/ios_base.h **** // ISO C++ 14882: 27.4  Iostreams base classes
  32:/usr/include/c++/10/bits/ios_base.h **** //
  33:/usr/include/c++/10/bits/ios_base.h **** 
  34:/usr/include/c++/10/bits/ios_base.h **** #ifndef _IOS_BASE_H
  35:/usr/include/c++/10/bits/ios_base.h **** #define _IOS_BASE_H 1
  36:/usr/include/c++/10/bits/ios_base.h **** 
  37:/usr/include/c++/10/bits/ios_base.h **** #pragma GCC system_header
  38:/usr/include/c++/10/bits/ios_base.h **** 
  39:/usr/include/c++/10/bits/ios_base.h **** #include <ext/atomicity.h>
  40:/usr/include/c++/10/bits/ios_base.h **** #include <bits/localefwd.h>
  41:/usr/include/c++/10/bits/ios_base.h **** #include <bits/locale_classes.h>
  42:/usr/include/c++/10/bits/ios_base.h **** 
  43:/usr/include/c++/10/bits/ios_base.h **** #if __cplusplus < 201103L
  44:/usr/include/c++/10/bits/ios_base.h **** # include <stdexcept>
  45:/usr/include/c++/10/bits/ios_base.h **** #else
  46:/usr/include/c++/10/bits/ios_base.h **** # include <system_error>
  47:/usr/include/c++/10/bits/ios_base.h **** #endif
  48:/usr/include/c++/10/bits/ios_base.h **** 
  49:/usr/include/c++/10/bits/ios_base.h **** namespace std _GLIBCXX_VISIBILITY(default)
  50:/usr/include/c++/10/bits/ios_base.h **** {
  51:/usr/include/c++/10/bits/ios_base.h **** _GLIBCXX_BEGIN_NAMESPACE_VERSION
  52:/usr/include/c++/10/bits/ios_base.h **** 
  53:/usr/include/c++/10/bits/ios_base.h ****   // The following definitions of bitmask types are enums, not ints,
  54:/usr/include/c++/10/bits/ios_base.h ****   // as permitted (but not required) in the standard, in order to provide
  55:/usr/include/c++/10/bits/ios_base.h ****   // better type safety in iostream calls.  A side effect is that in C++98
  56:/usr/include/c++/10/bits/ios_base.h ****   // expressions involving them are not compile-time constants.
  57:/usr/include/c++/10/bits/ios_base.h ****   enum _Ios_Fmtflags 
  58:/usr/include/c++/10/bits/ios_base.h ****     { 
  59:/usr/include/c++/10/bits/ios_base.h ****       _S_boolalpha 	= 1L << 0,
  60:/usr/include/c++/10/bits/ios_base.h ****       _S_dec 		= 1L << 1,
  61:/usr/include/c++/10/bits/ios_base.h ****       _S_fixed 		= 1L << 2,
  62:/usr/include/c++/10/bits/ios_base.h ****       _S_hex 		= 1L << 3,
  63:/usr/include/c++/10/bits/ios_base.h ****       _S_internal 	= 1L << 4,
  64:/usr/include/c++/10/bits/ios_base.h ****       _S_left 		= 1L << 5,
  65:/usr/include/c++/10/bits/ios_base.h ****       _S_oct 		= 1L << 6,
  66:/usr/include/c++/10/bits/ios_base.h ****       _S_right 		= 1L << 7,
  67:/usr/include/c++/10/bits/ios_base.h ****       _S_scientific 	= 1L << 8,
  68:/usr/include/c++/10/bits/ios_base.h ****       _S_showbase 	= 1L << 9,
  69:/usr/include/c++/10/bits/ios_base.h ****       _S_showpoint 	= 1L << 10,
  70:/usr/include/c++/10/bits/ios_base.h ****       _S_showpos 	= 1L << 11,
  71:/usr/include/c++/10/bits/ios_base.h ****       _S_skipws 	= 1L << 12,
  72:/usr/include/c++/10/bits/ios_base.h ****       _S_unitbuf 	= 1L << 13,
  73:/usr/include/c++/10/bits/ios_base.h ****       _S_uppercase 	= 1L << 14,
  74:/usr/include/c++/10/bits/ios_base.h ****       _S_adjustfield 	= _S_left | _S_right | _S_internal,
AARCH64 GAS  obj/Chapter12_3.s 			page 27


  75:/usr/include/c++/10/bits/ios_base.h ****       _S_basefield 	= _S_dec | _S_oct | _S_hex,
  76:/usr/include/c++/10/bits/ios_base.h ****       _S_floatfield 	= _S_scientific | _S_fixed,
  77:/usr/include/c++/10/bits/ios_base.h ****       _S_ios_fmtflags_end = 1L << 16,
  78:/usr/include/c++/10/bits/ios_base.h ****       _S_ios_fmtflags_max = __INT_MAX__,
  79:/usr/include/c++/10/bits/ios_base.h ****       _S_ios_fmtflags_min = ~__INT_MAX__
  80:/usr/include/c++/10/bits/ios_base.h ****     };
  81:/usr/include/c++/10/bits/ios_base.h **** 
  82:/usr/include/c++/10/bits/ios_base.h ****   inline _GLIBCXX_CONSTEXPR _Ios_Fmtflags
  83:/usr/include/c++/10/bits/ios_base.h ****   operator&(_Ios_Fmtflags __a, _Ios_Fmtflags __b)
  84:/usr/include/c++/10/bits/ios_base.h ****   { return _Ios_Fmtflags(static_cast<int>(__a) & static_cast<int>(__b)); }
  85:/usr/include/c++/10/bits/ios_base.h **** 
  86:/usr/include/c++/10/bits/ios_base.h ****   inline _GLIBCXX_CONSTEXPR _Ios_Fmtflags
  87:/usr/include/c++/10/bits/ios_base.h ****   operator|(_Ios_Fmtflags __a, _Ios_Fmtflags __b)
  88:/usr/include/c++/10/bits/ios_base.h ****   { return _Ios_Fmtflags(static_cast<int>(__a) | static_cast<int>(__b)); }
  89:/usr/include/c++/10/bits/ios_base.h **** 
  90:/usr/include/c++/10/bits/ios_base.h ****   inline _GLIBCXX_CONSTEXPR _Ios_Fmtflags
  91:/usr/include/c++/10/bits/ios_base.h ****   operator^(_Ios_Fmtflags __a, _Ios_Fmtflags __b)
  92:/usr/include/c++/10/bits/ios_base.h ****   { return _Ios_Fmtflags(static_cast<int>(__a) ^ static_cast<int>(__b)); }
  93:/usr/include/c++/10/bits/ios_base.h **** 
  94:/usr/include/c++/10/bits/ios_base.h ****   inline _GLIBCXX_CONSTEXPR _Ios_Fmtflags
  95:/usr/include/c++/10/bits/ios_base.h ****   operator~(_Ios_Fmtflags __a)
  96:/usr/include/c++/10/bits/ios_base.h ****   { return _Ios_Fmtflags(~static_cast<int>(__a)); }
  97:/usr/include/c++/10/bits/ios_base.h **** 
  98:/usr/include/c++/10/bits/ios_base.h ****   inline const _Ios_Fmtflags&
  99:/usr/include/c++/10/bits/ios_base.h ****   operator|=(_Ios_Fmtflags& __a, _Ios_Fmtflags __b)
 100:/usr/include/c++/10/bits/ios_base.h ****   { return __a = __a | __b; }
 101:/usr/include/c++/10/bits/ios_base.h **** 
 102:/usr/include/c++/10/bits/ios_base.h ****   inline const _Ios_Fmtflags&
 103:/usr/include/c++/10/bits/ios_base.h ****   operator&=(_Ios_Fmtflags& __a, _Ios_Fmtflags __b)
 104:/usr/include/c++/10/bits/ios_base.h ****   { return __a = __a & __b; }
 105:/usr/include/c++/10/bits/ios_base.h **** 
 106:/usr/include/c++/10/bits/ios_base.h ****   inline const _Ios_Fmtflags&
 107:/usr/include/c++/10/bits/ios_base.h ****   operator^=(_Ios_Fmtflags& __a, _Ios_Fmtflags __b)
 108:/usr/include/c++/10/bits/ios_base.h ****   { return __a = __a ^ __b; }
 109:/usr/include/c++/10/bits/ios_base.h **** 
 110:/usr/include/c++/10/bits/ios_base.h **** 
 111:/usr/include/c++/10/bits/ios_base.h ****   enum _Ios_Openmode 
 112:/usr/include/c++/10/bits/ios_base.h ****     { 
 113:/usr/include/c++/10/bits/ios_base.h ****       _S_app 		= 1L << 0,
 114:/usr/include/c++/10/bits/ios_base.h ****       _S_ate 		= 1L << 1,
 115:/usr/include/c++/10/bits/ios_base.h ****       _S_bin 		= 1L << 2,
 116:/usr/include/c++/10/bits/ios_base.h ****       _S_in 		= 1L << 3,
 117:/usr/include/c++/10/bits/ios_base.h ****       _S_out 		= 1L << 4,
 118:/usr/include/c++/10/bits/ios_base.h ****       _S_trunc 		= 1L << 5,
 119:/usr/include/c++/10/bits/ios_base.h ****       _S_ios_openmode_end = 1L << 16,
 120:/usr/include/c++/10/bits/ios_base.h ****       _S_ios_openmode_max = __INT_MAX__,
 121:/usr/include/c++/10/bits/ios_base.h ****       _S_ios_openmode_min = ~__INT_MAX__
 122:/usr/include/c++/10/bits/ios_base.h ****     };
 123:/usr/include/c++/10/bits/ios_base.h **** 
 124:/usr/include/c++/10/bits/ios_base.h ****   inline _GLIBCXX_CONSTEXPR _Ios_Openmode
 125:/usr/include/c++/10/bits/ios_base.h ****   operator&(_Ios_Openmode __a, _Ios_Openmode __b)
 126:/usr/include/c++/10/bits/ios_base.h ****   { return _Ios_Openmode(static_cast<int>(__a) & static_cast<int>(__b)); }
 127:/usr/include/c++/10/bits/ios_base.h **** 
 128:/usr/include/c++/10/bits/ios_base.h ****   inline _GLIBCXX_CONSTEXPR _Ios_Openmode
 129:/usr/include/c++/10/bits/ios_base.h ****   operator|(_Ios_Openmode __a, _Ios_Openmode __b)
 130:/usr/include/c++/10/bits/ios_base.h ****   { return _Ios_Openmode(static_cast<int>(__a) | static_cast<int>(__b)); }
 131:/usr/include/c++/10/bits/ios_base.h **** 
AARCH64 GAS  obj/Chapter12_3.s 			page 28


 132:/usr/include/c++/10/bits/ios_base.h ****   inline _GLIBCXX_CONSTEXPR _Ios_Openmode
 133:/usr/include/c++/10/bits/ios_base.h ****   operator^(_Ios_Openmode __a, _Ios_Openmode __b)
 134:/usr/include/c++/10/bits/ios_base.h ****   { return _Ios_Openmode(static_cast<int>(__a) ^ static_cast<int>(__b)); }
 135:/usr/include/c++/10/bits/ios_base.h **** 
 136:/usr/include/c++/10/bits/ios_base.h ****   inline _GLIBCXX_CONSTEXPR _Ios_Openmode
 137:/usr/include/c++/10/bits/ios_base.h ****   operator~(_Ios_Openmode __a)
 138:/usr/include/c++/10/bits/ios_base.h ****   { return _Ios_Openmode(~static_cast<int>(__a)); }
 139:/usr/include/c++/10/bits/ios_base.h **** 
 140:/usr/include/c++/10/bits/ios_base.h ****   inline const _Ios_Openmode&
 141:/usr/include/c++/10/bits/ios_base.h ****   operator|=(_Ios_Openmode& __a, _Ios_Openmode __b)
 142:/usr/include/c++/10/bits/ios_base.h ****   { return __a = __a | __b; }
 143:/usr/include/c++/10/bits/ios_base.h **** 
 144:/usr/include/c++/10/bits/ios_base.h ****   inline const _Ios_Openmode&
 145:/usr/include/c++/10/bits/ios_base.h ****   operator&=(_Ios_Openmode& __a, _Ios_Openmode __b)
 146:/usr/include/c++/10/bits/ios_base.h ****   { return __a = __a & __b; }
 147:/usr/include/c++/10/bits/ios_base.h **** 
 148:/usr/include/c++/10/bits/ios_base.h ****   inline const _Ios_Openmode&
 149:/usr/include/c++/10/bits/ios_base.h ****   operator^=(_Ios_Openmode& __a, _Ios_Openmode __b)
 150:/usr/include/c++/10/bits/ios_base.h ****   { return __a = __a ^ __b; }
 151:/usr/include/c++/10/bits/ios_base.h **** 
 152:/usr/include/c++/10/bits/ios_base.h **** 
 153:/usr/include/c++/10/bits/ios_base.h ****   enum _Ios_Iostate
 154:/usr/include/c++/10/bits/ios_base.h ****     { 
 155:/usr/include/c++/10/bits/ios_base.h ****       _S_goodbit 		= 0,
 156:/usr/include/c++/10/bits/ios_base.h ****       _S_badbit 		= 1L << 0,
 157:/usr/include/c++/10/bits/ios_base.h ****       _S_eofbit 		= 1L << 1,
 158:/usr/include/c++/10/bits/ios_base.h ****       _S_failbit		= 1L << 2,
 159:/usr/include/c++/10/bits/ios_base.h ****       _S_ios_iostate_end = 1L << 16,
 160:/usr/include/c++/10/bits/ios_base.h ****       _S_ios_iostate_max = __INT_MAX__,
 161:/usr/include/c++/10/bits/ios_base.h ****       _S_ios_iostate_min = ~__INT_MAX__
 162:/usr/include/c++/10/bits/ios_base.h ****     };
 163:/usr/include/c++/10/bits/ios_base.h **** 
 164:/usr/include/c++/10/bits/ios_base.h ****   inline _GLIBCXX_CONSTEXPR _Ios_Iostate
 165:/usr/include/c++/10/bits/ios_base.h ****   operator&(_Ios_Iostate __a, _Ios_Iostate __b)
 166:/usr/include/c++/10/bits/ios_base.h ****   { return _Ios_Iostate(static_cast<int>(__a) & static_cast<int>(__b)); }
 167:/usr/include/c++/10/bits/ios_base.h **** 
 168:/usr/include/c++/10/bits/ios_base.h ****   inline _GLIBCXX_CONSTEXPR _Ios_Iostate
 169:/usr/include/c++/10/bits/ios_base.h ****   operator|(_Ios_Iostate __a, _Ios_Iostate __b)
 170:/usr/include/c++/10/bits/ios_base.h ****   { return _Ios_Iostate(static_cast<int>(__a) | static_cast<int>(__b)); }
 171:/usr/include/c++/10/bits/ios_base.h **** 
 172:/usr/include/c++/10/bits/ios_base.h ****   inline _GLIBCXX_CONSTEXPR _Ios_Iostate
 173:/usr/include/c++/10/bits/ios_base.h ****   operator^(_Ios_Iostate __a, _Ios_Iostate __b)
 174:/usr/include/c++/10/bits/ios_base.h ****   { return _Ios_Iostate(static_cast<int>(__a) ^ static_cast<int>(__b)); }
 175:/usr/include/c++/10/bits/ios_base.h **** 
 176:/usr/include/c++/10/bits/ios_base.h ****   inline _GLIBCXX_CONSTEXPR _Ios_Iostate
 177:/usr/include/c++/10/bits/ios_base.h ****   operator~(_Ios_Iostate __a)
 178:/usr/include/c++/10/bits/ios_base.h ****   { return _Ios_Iostate(~static_cast<int>(__a)); }
 179:/usr/include/c++/10/bits/ios_base.h **** 
 180:/usr/include/c++/10/bits/ios_base.h ****   inline const _Ios_Iostate&
 181:/usr/include/c++/10/bits/ios_base.h ****   operator|=(_Ios_Iostate& __a, _Ios_Iostate __b)
 182:/usr/include/c++/10/bits/ios_base.h ****   { return __a = __a | __b; }
 183:/usr/include/c++/10/bits/ios_base.h **** 
 184:/usr/include/c++/10/bits/ios_base.h ****   inline const _Ios_Iostate&
 185:/usr/include/c++/10/bits/ios_base.h ****   operator&=(_Ios_Iostate& __a, _Ios_Iostate __b)
 186:/usr/include/c++/10/bits/ios_base.h ****   { return __a = __a & __b; }
 187:/usr/include/c++/10/bits/ios_base.h **** 
 188:/usr/include/c++/10/bits/ios_base.h ****   inline const  _Ios_Iostate&
AARCH64 GAS  obj/Chapter12_3.s 			page 29


 189:/usr/include/c++/10/bits/ios_base.h ****   operator^=(_Ios_Iostate& __a, _Ios_Iostate __b)
 190:/usr/include/c++/10/bits/ios_base.h ****   { return __a = __a ^ __b; }
 191:/usr/include/c++/10/bits/ios_base.h **** 
 192:/usr/include/c++/10/bits/ios_base.h **** 
 193:/usr/include/c++/10/bits/ios_base.h ****   enum _Ios_Seekdir 
 194:/usr/include/c++/10/bits/ios_base.h ****     { 
 195:/usr/include/c++/10/bits/ios_base.h ****       _S_beg = 0,
 196:/usr/include/c++/10/bits/ios_base.h ****       _S_cur = _GLIBCXX_STDIO_SEEK_CUR,
 197:/usr/include/c++/10/bits/ios_base.h ****       _S_end = _GLIBCXX_STDIO_SEEK_END,
 198:/usr/include/c++/10/bits/ios_base.h ****       _S_ios_seekdir_end = 1L << 16 
 199:/usr/include/c++/10/bits/ios_base.h ****     };
 200:/usr/include/c++/10/bits/ios_base.h **** 
 201:/usr/include/c++/10/bits/ios_base.h **** #if __cplusplus >= 201103L
 202:/usr/include/c++/10/bits/ios_base.h ****   /// I/O error code
 203:/usr/include/c++/10/bits/ios_base.h ****   enum class io_errc { stream = 1 };
 204:/usr/include/c++/10/bits/ios_base.h **** 
 205:/usr/include/c++/10/bits/ios_base.h ****   template <> struct is_error_code_enum<io_errc> : public true_type { };
 206:/usr/include/c++/10/bits/ios_base.h **** 
 207:/usr/include/c++/10/bits/ios_base.h ****   const error_category& iostream_category() noexcept;
 208:/usr/include/c++/10/bits/ios_base.h **** 
 209:/usr/include/c++/10/bits/ios_base.h ****   inline error_code
 210:/usr/include/c++/10/bits/ios_base.h ****   make_error_code(io_errc __e) noexcept
 211:/usr/include/c++/10/bits/ios_base.h ****   { return error_code(static_cast<int>(__e), iostream_category()); }
 212:/usr/include/c++/10/bits/ios_base.h **** 
 213:/usr/include/c++/10/bits/ios_base.h ****   inline error_condition
 214:/usr/include/c++/10/bits/ios_base.h ****   make_error_condition(io_errc __e) noexcept
 215:/usr/include/c++/10/bits/ios_base.h ****   { return error_condition(static_cast<int>(__e), iostream_category()); }
 216:/usr/include/c++/10/bits/ios_base.h **** #endif
 217:/usr/include/c++/10/bits/ios_base.h **** 
 218:/usr/include/c++/10/bits/ios_base.h ****   // 27.4.2  Class ios_base
 219:/usr/include/c++/10/bits/ios_base.h ****   /**
 220:/usr/include/c++/10/bits/ios_base.h ****    *  @brief  The base of the I/O class hierarchy.
 221:/usr/include/c++/10/bits/ios_base.h ****    *  @ingroup io
 222:/usr/include/c++/10/bits/ios_base.h ****    *
 223:/usr/include/c++/10/bits/ios_base.h ****    *  This class defines everything that can be defined about I/O that does
 224:/usr/include/c++/10/bits/ios_base.h ****    *  not depend on the type of characters being input or output.  Most
 225:/usr/include/c++/10/bits/ios_base.h ****    *  people will only see @c ios_base when they need to specify the full
 226:/usr/include/c++/10/bits/ios_base.h ****    *  name of the various I/O flags (e.g., the openmodes).
 227:/usr/include/c++/10/bits/ios_base.h ****   */
 228:/usr/include/c++/10/bits/ios_base.h ****   class ios_base
 229:/usr/include/c++/10/bits/ios_base.h ****   {
 230:/usr/include/c++/10/bits/ios_base.h **** #if _GLIBCXX_USE_CXX11_ABI
 231:/usr/include/c++/10/bits/ios_base.h **** #if __cplusplus < 201103L
 232:/usr/include/c++/10/bits/ios_base.h ****     // Type that is layout-compatible with std::system_error
 233:/usr/include/c++/10/bits/ios_base.h ****     struct system_error : std::runtime_error
 234:/usr/include/c++/10/bits/ios_base.h ****     {
 235:/usr/include/c++/10/bits/ios_base.h ****       // Type that is layout-compatible with std::error_code
 236:/usr/include/c++/10/bits/ios_base.h ****       struct error_code
 237:/usr/include/c++/10/bits/ios_base.h ****       {
 238:/usr/include/c++/10/bits/ios_base.h **** 	error_code() { }
 239:/usr/include/c++/10/bits/ios_base.h ****       private:
 240:/usr/include/c++/10/bits/ios_base.h **** 	int		_M_value;
 241:/usr/include/c++/10/bits/ios_base.h **** 	const void*	_M_cat;
 242:/usr/include/c++/10/bits/ios_base.h ****       } _M_code;
 243:/usr/include/c++/10/bits/ios_base.h ****     };
 244:/usr/include/c++/10/bits/ios_base.h **** #endif
 245:/usr/include/c++/10/bits/ios_base.h **** #endif
AARCH64 GAS  obj/Chapter12_3.s 			page 30


 246:/usr/include/c++/10/bits/ios_base.h ****   public:
 247:/usr/include/c++/10/bits/ios_base.h **** 
 248:/usr/include/c++/10/bits/ios_base.h ****     /** 
 249:/usr/include/c++/10/bits/ios_base.h ****      *  @brief These are thrown to indicate problems with io.
 250:/usr/include/c++/10/bits/ios_base.h ****      *  @ingroup exceptions
 251:/usr/include/c++/10/bits/ios_base.h ****      *
 252:/usr/include/c++/10/bits/ios_base.h ****      *  27.4.2.1.1  Class ios_base::failure
 253:/usr/include/c++/10/bits/ios_base.h ****      */
 254:/usr/include/c++/10/bits/ios_base.h **** #if _GLIBCXX_USE_CXX11_ABI
 255:/usr/include/c++/10/bits/ios_base.h ****     class _GLIBCXX_ABI_TAG_CXX11 failure : public system_error
 256:/usr/include/c++/10/bits/ios_base.h ****     {
 257:/usr/include/c++/10/bits/ios_base.h ****     public:
 258:/usr/include/c++/10/bits/ios_base.h ****       explicit
 259:/usr/include/c++/10/bits/ios_base.h ****       failure(const string& __str);
 260:/usr/include/c++/10/bits/ios_base.h **** 
 261:/usr/include/c++/10/bits/ios_base.h **** #if __cplusplus >= 201103L
 262:/usr/include/c++/10/bits/ios_base.h ****       explicit
 263:/usr/include/c++/10/bits/ios_base.h ****       failure(const string&, const error_code&);
 264:/usr/include/c++/10/bits/ios_base.h **** 
 265:/usr/include/c++/10/bits/ios_base.h ****       explicit
 266:/usr/include/c++/10/bits/ios_base.h ****       failure(const char*, const error_code& = io_errc::stream);
 267:/usr/include/c++/10/bits/ios_base.h **** #endif
 268:/usr/include/c++/10/bits/ios_base.h **** 
 269:/usr/include/c++/10/bits/ios_base.h ****       virtual
 270:/usr/include/c++/10/bits/ios_base.h ****       ~failure() throw();
 271:/usr/include/c++/10/bits/ios_base.h **** 
 272:/usr/include/c++/10/bits/ios_base.h ****       virtual const char*
 273:/usr/include/c++/10/bits/ios_base.h ****       what() const throw();
 274:/usr/include/c++/10/bits/ios_base.h ****     };
 275:/usr/include/c++/10/bits/ios_base.h **** #else
 276:/usr/include/c++/10/bits/ios_base.h ****     class failure : public exception
 277:/usr/include/c++/10/bits/ios_base.h ****     {
 278:/usr/include/c++/10/bits/ios_base.h ****     public:
 279:/usr/include/c++/10/bits/ios_base.h ****       // _GLIBCXX_RESOLVE_LIB_DEFECTS
 280:/usr/include/c++/10/bits/ios_base.h ****       // 48.  Use of non-existent exception constructor
 281:/usr/include/c++/10/bits/ios_base.h ****       explicit
 282:/usr/include/c++/10/bits/ios_base.h ****       failure(const string& __str) throw();
 283:/usr/include/c++/10/bits/ios_base.h **** 
 284:/usr/include/c++/10/bits/ios_base.h ****       // This declaration is not useless:
 285:/usr/include/c++/10/bits/ios_base.h ****       // http://gcc.gnu.org/onlinedocs/gcc-4.3.2/gcc/Vague-Linkage.html
 286:/usr/include/c++/10/bits/ios_base.h ****       virtual
 287:/usr/include/c++/10/bits/ios_base.h ****       ~failure() throw();
 288:/usr/include/c++/10/bits/ios_base.h **** 
 289:/usr/include/c++/10/bits/ios_base.h ****       virtual const char*
 290:/usr/include/c++/10/bits/ios_base.h ****       what() const throw();
 291:/usr/include/c++/10/bits/ios_base.h **** 
 292:/usr/include/c++/10/bits/ios_base.h **** #if __cplusplus >= 201103L
 293:/usr/include/c++/10/bits/ios_base.h ****       // Define the new members required by C++11,
 294:/usr/include/c++/10/bits/ios_base.h ****       // even though the error_code cannot be stored.
 295:/usr/include/c++/10/bits/ios_base.h **** 
 296:/usr/include/c++/10/bits/ios_base.h ****       explicit
 297:/usr/include/c++/10/bits/ios_base.h ****       failure(const string& __s, const error_code&) noexcept
 298:/usr/include/c++/10/bits/ios_base.h ****       : failure(__s)
 299:/usr/include/c++/10/bits/ios_base.h ****       { }
 300:/usr/include/c++/10/bits/ios_base.h **** 
 301:/usr/include/c++/10/bits/ios_base.h ****       explicit
 302:/usr/include/c++/10/bits/ios_base.h ****       failure(const char* __s, const error_code& = error_code{})
AARCH64 GAS  obj/Chapter12_3.s 			page 31


 303:/usr/include/c++/10/bits/ios_base.h ****       : failure(string(__s))
 304:/usr/include/c++/10/bits/ios_base.h ****       { }
 305:/usr/include/c++/10/bits/ios_base.h **** 
 306:/usr/include/c++/10/bits/ios_base.h ****       // Stand-in for system_error::code() but returning by value.
 307:/usr/include/c++/10/bits/ios_base.h ****       error_code code() const noexcept { return error_code{}; }
 308:/usr/include/c++/10/bits/ios_base.h **** #endif
 309:/usr/include/c++/10/bits/ios_base.h **** 
 310:/usr/include/c++/10/bits/ios_base.h ****     private:
 311:/usr/include/c++/10/bits/ios_base.h ****       string _M_msg;
 312:/usr/include/c++/10/bits/ios_base.h ****     };
 313:/usr/include/c++/10/bits/ios_base.h **** #endif
 314:/usr/include/c++/10/bits/ios_base.h **** 
 315:/usr/include/c++/10/bits/ios_base.h ****     // 27.4.2.1.2  Type ios_base::fmtflags
 316:/usr/include/c++/10/bits/ios_base.h ****     /**
 317:/usr/include/c++/10/bits/ios_base.h ****      *  @brief This is a bitmask type.
 318:/usr/include/c++/10/bits/ios_base.h ****      *
 319:/usr/include/c++/10/bits/ios_base.h ****      *  @c @a _Ios_Fmtflags is implementation-defined, but it is valid to
 320:/usr/include/c++/10/bits/ios_base.h ****      *  perform bitwise operations on these values and expect the Right
 321:/usr/include/c++/10/bits/ios_base.h ****      *  Thing to happen.  Defined objects of type fmtflags are:
 322:/usr/include/c++/10/bits/ios_base.h ****      *  - boolalpha
 323:/usr/include/c++/10/bits/ios_base.h ****      *  - dec
 324:/usr/include/c++/10/bits/ios_base.h ****      *  - fixed
 325:/usr/include/c++/10/bits/ios_base.h ****      *  - hex
 326:/usr/include/c++/10/bits/ios_base.h ****      *  - internal
 327:/usr/include/c++/10/bits/ios_base.h ****      *  - left
 328:/usr/include/c++/10/bits/ios_base.h ****      *  - oct
 329:/usr/include/c++/10/bits/ios_base.h ****      *  - right
 330:/usr/include/c++/10/bits/ios_base.h ****      *  - scientific
 331:/usr/include/c++/10/bits/ios_base.h ****      *  - showbase
 332:/usr/include/c++/10/bits/ios_base.h ****      *  - showpoint
 333:/usr/include/c++/10/bits/ios_base.h ****      *  - showpos
 334:/usr/include/c++/10/bits/ios_base.h ****      *  - skipws
 335:/usr/include/c++/10/bits/ios_base.h ****      *  - unitbuf
 336:/usr/include/c++/10/bits/ios_base.h ****      *  - uppercase
 337:/usr/include/c++/10/bits/ios_base.h ****      *  - adjustfield
 338:/usr/include/c++/10/bits/ios_base.h ****      *  - basefield
 339:/usr/include/c++/10/bits/ios_base.h ****      *  - floatfield
 340:/usr/include/c++/10/bits/ios_base.h ****     */
 341:/usr/include/c++/10/bits/ios_base.h ****     typedef _Ios_Fmtflags fmtflags;
 342:/usr/include/c++/10/bits/ios_base.h **** 
 343:/usr/include/c++/10/bits/ios_base.h ****     /// Insert/extract @c bool in alphabetic rather than numeric format.
 344:/usr/include/c++/10/bits/ios_base.h ****     static const fmtflags boolalpha =   _S_boolalpha;
 345:/usr/include/c++/10/bits/ios_base.h **** 
 346:/usr/include/c++/10/bits/ios_base.h ****     /// Converts integer input or generates integer output in decimal base.
 347:/usr/include/c++/10/bits/ios_base.h ****     static const fmtflags dec =         _S_dec;
 348:/usr/include/c++/10/bits/ios_base.h **** 
 349:/usr/include/c++/10/bits/ios_base.h ****     /// Generate floating-point output in fixed-point notation.
 350:/usr/include/c++/10/bits/ios_base.h ****     static const fmtflags fixed =       _S_fixed;
 351:/usr/include/c++/10/bits/ios_base.h **** 
 352:/usr/include/c++/10/bits/ios_base.h ****     /// Converts integer input or generates integer output in hexadecimal base.
 353:/usr/include/c++/10/bits/ios_base.h ****     static const fmtflags hex =         _S_hex;
 354:/usr/include/c++/10/bits/ios_base.h **** 
 355:/usr/include/c++/10/bits/ios_base.h ****     /// Adds fill characters at a designated internal point in certain
 356:/usr/include/c++/10/bits/ios_base.h ****     /// generated output, or identical to @c right if no such point is
 357:/usr/include/c++/10/bits/ios_base.h ****     /// designated.
 358:/usr/include/c++/10/bits/ios_base.h ****     static const fmtflags internal =    _S_internal;
 359:/usr/include/c++/10/bits/ios_base.h **** 
AARCH64 GAS  obj/Chapter12_3.s 			page 32


 360:/usr/include/c++/10/bits/ios_base.h ****     /// Adds fill characters on the right (final positions) of certain
 361:/usr/include/c++/10/bits/ios_base.h ****     /// generated output.  (I.e., the thing you print is flush left.)
 362:/usr/include/c++/10/bits/ios_base.h ****     static const fmtflags left =        _S_left;
 363:/usr/include/c++/10/bits/ios_base.h **** 
 364:/usr/include/c++/10/bits/ios_base.h ****     /// Converts integer input or generates integer output in octal base.
 365:/usr/include/c++/10/bits/ios_base.h ****     static const fmtflags oct =         _S_oct;
 366:/usr/include/c++/10/bits/ios_base.h **** 
 367:/usr/include/c++/10/bits/ios_base.h ****     /// Adds fill characters on the left (initial positions) of certain
 368:/usr/include/c++/10/bits/ios_base.h ****     /// generated output.  (I.e., the thing you print is flush right.)
 369:/usr/include/c++/10/bits/ios_base.h ****     static const fmtflags right =       _S_right;
 370:/usr/include/c++/10/bits/ios_base.h **** 
 371:/usr/include/c++/10/bits/ios_base.h ****     /// Generates floating-point output in scientific notation.
 372:/usr/include/c++/10/bits/ios_base.h ****     static const fmtflags scientific =  _S_scientific;
 373:/usr/include/c++/10/bits/ios_base.h **** 
 374:/usr/include/c++/10/bits/ios_base.h ****     /// Generates a prefix indicating the numeric base of generated integer
 375:/usr/include/c++/10/bits/ios_base.h ****     /// output.
 376:/usr/include/c++/10/bits/ios_base.h ****     static const fmtflags showbase =    _S_showbase;
 377:/usr/include/c++/10/bits/ios_base.h **** 
 378:/usr/include/c++/10/bits/ios_base.h ****     /// Generates a decimal-point character unconditionally in generated
 379:/usr/include/c++/10/bits/ios_base.h ****     /// floating-point output.
 380:/usr/include/c++/10/bits/ios_base.h ****     static const fmtflags showpoint =   _S_showpoint;
 381:/usr/include/c++/10/bits/ios_base.h **** 
 382:/usr/include/c++/10/bits/ios_base.h ****     /// Generates a + sign in non-negative generated numeric output.
 383:/usr/include/c++/10/bits/ios_base.h ****     static const fmtflags showpos =     _S_showpos;
 384:/usr/include/c++/10/bits/ios_base.h **** 
 385:/usr/include/c++/10/bits/ios_base.h ****     /// Skips leading white space before certain input operations.
 386:/usr/include/c++/10/bits/ios_base.h ****     static const fmtflags skipws =      _S_skipws;
 387:/usr/include/c++/10/bits/ios_base.h **** 
 388:/usr/include/c++/10/bits/ios_base.h ****     /// Flushes output after each output operation.
 389:/usr/include/c++/10/bits/ios_base.h ****     static const fmtflags unitbuf =     _S_unitbuf;
 390:/usr/include/c++/10/bits/ios_base.h **** 
 391:/usr/include/c++/10/bits/ios_base.h ****     /// Replaces certain lowercase letters with their uppercase equivalents
 392:/usr/include/c++/10/bits/ios_base.h ****     /// in generated output.
 393:/usr/include/c++/10/bits/ios_base.h ****     static const fmtflags uppercase =   _S_uppercase;
 394:/usr/include/c++/10/bits/ios_base.h **** 
 395:/usr/include/c++/10/bits/ios_base.h ****     /// A mask of left|right|internal.  Useful for the 2-arg form of @c setf.
 396:/usr/include/c++/10/bits/ios_base.h ****     static const fmtflags adjustfield = _S_adjustfield;
 397:/usr/include/c++/10/bits/ios_base.h **** 
 398:/usr/include/c++/10/bits/ios_base.h ****     /// A mask of dec|oct|hex.  Useful for the 2-arg form of @c setf.
 399:/usr/include/c++/10/bits/ios_base.h ****     static const fmtflags basefield =   _S_basefield;
 400:/usr/include/c++/10/bits/ios_base.h **** 
 401:/usr/include/c++/10/bits/ios_base.h ****     /// A mask of scientific|fixed.  Useful for the 2-arg form of @c setf.
 402:/usr/include/c++/10/bits/ios_base.h ****     static const fmtflags floatfield =  _S_floatfield;
 403:/usr/include/c++/10/bits/ios_base.h **** 
 404:/usr/include/c++/10/bits/ios_base.h ****     // 27.4.2.1.3  Type ios_base::iostate
 405:/usr/include/c++/10/bits/ios_base.h ****     /**
 406:/usr/include/c++/10/bits/ios_base.h ****      *  @brief This is a bitmask type.
 407:/usr/include/c++/10/bits/ios_base.h ****      *
 408:/usr/include/c++/10/bits/ios_base.h ****      *  @c @a _Ios_Iostate is implementation-defined, but it is valid to
 409:/usr/include/c++/10/bits/ios_base.h ****      *  perform bitwise operations on these values and expect the Right
 410:/usr/include/c++/10/bits/ios_base.h ****      *  Thing to happen.  Defined objects of type iostate are:
 411:/usr/include/c++/10/bits/ios_base.h ****      *  - badbit
 412:/usr/include/c++/10/bits/ios_base.h ****      *  - eofbit
 413:/usr/include/c++/10/bits/ios_base.h ****      *  - failbit
 414:/usr/include/c++/10/bits/ios_base.h ****      *  - goodbit
 415:/usr/include/c++/10/bits/ios_base.h ****     */
 416:/usr/include/c++/10/bits/ios_base.h ****     typedef _Ios_Iostate iostate;
AARCH64 GAS  obj/Chapter12_3.s 			page 33


 417:/usr/include/c++/10/bits/ios_base.h **** 
 418:/usr/include/c++/10/bits/ios_base.h ****     /// Indicates a loss of integrity in an input or output sequence (such
 419:/usr/include/c++/10/bits/ios_base.h ****     /// as an irrecoverable read error from a file).
 420:/usr/include/c++/10/bits/ios_base.h ****     static const iostate badbit =	_S_badbit;
 421:/usr/include/c++/10/bits/ios_base.h **** 
 422:/usr/include/c++/10/bits/ios_base.h ****     /// Indicates that an input operation reached the end of an input sequence.
 423:/usr/include/c++/10/bits/ios_base.h ****     static const iostate eofbit =	_S_eofbit;
 424:/usr/include/c++/10/bits/ios_base.h **** 
 425:/usr/include/c++/10/bits/ios_base.h ****     /// Indicates that an input operation failed to read the expected
 426:/usr/include/c++/10/bits/ios_base.h ****     /// characters, or that an output operation failed to generate the
 427:/usr/include/c++/10/bits/ios_base.h ****     /// desired characters.
 428:/usr/include/c++/10/bits/ios_base.h ****     static const iostate failbit =	_S_failbit;
 429:/usr/include/c++/10/bits/ios_base.h **** 
 430:/usr/include/c++/10/bits/ios_base.h ****     /// Indicates all is well.
 431:/usr/include/c++/10/bits/ios_base.h ****     static const iostate goodbit =	_S_goodbit;
 432:/usr/include/c++/10/bits/ios_base.h **** 
 433:/usr/include/c++/10/bits/ios_base.h ****     // 27.4.2.1.4  Type ios_base::openmode
 434:/usr/include/c++/10/bits/ios_base.h ****     /**
 435:/usr/include/c++/10/bits/ios_base.h ****      *  @brief This is a bitmask type.
 436:/usr/include/c++/10/bits/ios_base.h ****      *
 437:/usr/include/c++/10/bits/ios_base.h ****      *  @c @a _Ios_Openmode is implementation-defined, but it is valid to
 438:/usr/include/c++/10/bits/ios_base.h ****      *  perform bitwise operations on these values and expect the Right
 439:/usr/include/c++/10/bits/ios_base.h ****      *  Thing to happen.  Defined objects of type openmode are:
 440:/usr/include/c++/10/bits/ios_base.h ****      *  - app
 441:/usr/include/c++/10/bits/ios_base.h ****      *  - ate
 442:/usr/include/c++/10/bits/ios_base.h ****      *  - binary
 443:/usr/include/c++/10/bits/ios_base.h ****      *  - in
 444:/usr/include/c++/10/bits/ios_base.h ****      *  - out
 445:/usr/include/c++/10/bits/ios_base.h ****      *  - trunc
 446:/usr/include/c++/10/bits/ios_base.h ****     */
 447:/usr/include/c++/10/bits/ios_base.h ****     typedef _Ios_Openmode openmode;
 448:/usr/include/c++/10/bits/ios_base.h **** 
 449:/usr/include/c++/10/bits/ios_base.h ****     /// Seek to end before each write.
 450:/usr/include/c++/10/bits/ios_base.h ****     static const openmode app =		_S_app;
 451:/usr/include/c++/10/bits/ios_base.h **** 
 452:/usr/include/c++/10/bits/ios_base.h ****     /// Open and seek to end immediately after opening.
 453:/usr/include/c++/10/bits/ios_base.h ****     static const openmode ate =		_S_ate;
 454:/usr/include/c++/10/bits/ios_base.h **** 
 455:/usr/include/c++/10/bits/ios_base.h ****     /// Perform input and output in binary mode (as opposed to text mode).
 456:/usr/include/c++/10/bits/ios_base.h ****     /// This is probably not what you think it is; see
 457:/usr/include/c++/10/bits/ios_base.h ****     /// https://gcc.gnu.org/onlinedocs/libstdc++/manual/fstreams.html#std.io.filestreams.binary
 458:/usr/include/c++/10/bits/ios_base.h ****     static const openmode binary =	_S_bin;
 459:/usr/include/c++/10/bits/ios_base.h **** 
 460:/usr/include/c++/10/bits/ios_base.h ****     /// Open for input.  Default for @c ifstream and fstream.
 461:/usr/include/c++/10/bits/ios_base.h ****     static const openmode in =		_S_in;
 462:/usr/include/c++/10/bits/ios_base.h **** 
 463:/usr/include/c++/10/bits/ios_base.h ****     /// Open for output.  Default for @c ofstream and fstream.
 464:/usr/include/c++/10/bits/ios_base.h ****     static const openmode out =		_S_out;
 465:/usr/include/c++/10/bits/ios_base.h **** 
 466:/usr/include/c++/10/bits/ios_base.h ****     /// Truncate an existing stream when opening.  Default for @c ofstream.
 467:/usr/include/c++/10/bits/ios_base.h ****     static const openmode trunc =	_S_trunc;
 468:/usr/include/c++/10/bits/ios_base.h **** 
 469:/usr/include/c++/10/bits/ios_base.h ****     // 27.4.2.1.5  Type ios_base::seekdir
 470:/usr/include/c++/10/bits/ios_base.h ****     /**
 471:/usr/include/c++/10/bits/ios_base.h ****      *  @brief This is an enumerated type.
 472:/usr/include/c++/10/bits/ios_base.h ****      *
 473:/usr/include/c++/10/bits/ios_base.h ****      *  @c @a _Ios_Seekdir is implementation-defined.  Defined values
AARCH64 GAS  obj/Chapter12_3.s 			page 34


 474:/usr/include/c++/10/bits/ios_base.h ****      *  of type seekdir are:
 475:/usr/include/c++/10/bits/ios_base.h ****      *  - beg
 476:/usr/include/c++/10/bits/ios_base.h ****      *  - cur, equivalent to @c SEEK_CUR in the C standard library.
 477:/usr/include/c++/10/bits/ios_base.h ****      *  - end, equivalent to @c SEEK_END in the C standard library.
 478:/usr/include/c++/10/bits/ios_base.h ****     */
 479:/usr/include/c++/10/bits/ios_base.h ****     typedef _Ios_Seekdir seekdir;
 480:/usr/include/c++/10/bits/ios_base.h **** 
 481:/usr/include/c++/10/bits/ios_base.h ****     /// Request a seek relative to the beginning of the stream.
 482:/usr/include/c++/10/bits/ios_base.h ****     static const seekdir beg =		_S_beg;
 483:/usr/include/c++/10/bits/ios_base.h **** 
 484:/usr/include/c++/10/bits/ios_base.h ****     /// Request a seek relative to the current position within the sequence.
 485:/usr/include/c++/10/bits/ios_base.h ****     static const seekdir cur =		_S_cur;
 486:/usr/include/c++/10/bits/ios_base.h **** 
 487:/usr/include/c++/10/bits/ios_base.h ****     /// Request a seek relative to the current end of the sequence.
 488:/usr/include/c++/10/bits/ios_base.h ****     static const seekdir end =		_S_end;
 489:/usr/include/c++/10/bits/ios_base.h **** 
 490:/usr/include/c++/10/bits/ios_base.h **** #if __cplusplus <= 201402L
 491:/usr/include/c++/10/bits/ios_base.h ****     // Annex D.6 (removed in C++17)
 492:/usr/include/c++/10/bits/ios_base.h ****     typedef int io_state
 493:/usr/include/c++/10/bits/ios_base.h ****       _GLIBCXX_DEPRECATED_SUGGEST("std::iostate");
 494:/usr/include/c++/10/bits/ios_base.h ****     typedef int open_mode
 495:/usr/include/c++/10/bits/ios_base.h ****       _GLIBCXX_DEPRECATED_SUGGEST("std::openmode");
 496:/usr/include/c++/10/bits/ios_base.h ****     typedef int seek_dir
 497:/usr/include/c++/10/bits/ios_base.h ****       _GLIBCXX_DEPRECATED_SUGGEST("std::seekdir");
 498:/usr/include/c++/10/bits/ios_base.h **** 
 499:/usr/include/c++/10/bits/ios_base.h ****     typedef std::streampos streampos
 500:/usr/include/c++/10/bits/ios_base.h ****       _GLIBCXX_DEPRECATED_SUGGEST("std::streampos");
 501:/usr/include/c++/10/bits/ios_base.h ****     typedef std::streamoff streamoff
 502:/usr/include/c++/10/bits/ios_base.h ****       _GLIBCXX_DEPRECATED_SUGGEST("std::streamoff");
 503:/usr/include/c++/10/bits/ios_base.h **** #endif
 504:/usr/include/c++/10/bits/ios_base.h **** 
 505:/usr/include/c++/10/bits/ios_base.h ****     // Callbacks;
 506:/usr/include/c++/10/bits/ios_base.h ****     /**
 507:/usr/include/c++/10/bits/ios_base.h ****      *  @brief  The set of events that may be passed to an event callback.
 508:/usr/include/c++/10/bits/ios_base.h ****      *
 509:/usr/include/c++/10/bits/ios_base.h ****      *  erase_event is used during ~ios() and copyfmt().  imbue_event is used
 510:/usr/include/c++/10/bits/ios_base.h ****      *  during imbue().  copyfmt_event is used during copyfmt().
 511:/usr/include/c++/10/bits/ios_base.h ****     */
 512:/usr/include/c++/10/bits/ios_base.h ****     enum event
 513:/usr/include/c++/10/bits/ios_base.h ****     {
 514:/usr/include/c++/10/bits/ios_base.h ****       erase_event,
 515:/usr/include/c++/10/bits/ios_base.h ****       imbue_event,
 516:/usr/include/c++/10/bits/ios_base.h ****       copyfmt_event
 517:/usr/include/c++/10/bits/ios_base.h ****     };
 518:/usr/include/c++/10/bits/ios_base.h **** 
 519:/usr/include/c++/10/bits/ios_base.h ****     /**
 520:/usr/include/c++/10/bits/ios_base.h ****      *  @brief  The type of an event callback function.
 521:/usr/include/c++/10/bits/ios_base.h ****      *  @param  __e  One of the members of the event enum.
 522:/usr/include/c++/10/bits/ios_base.h ****      *  @param  __b  Reference to the ios_base object.
 523:/usr/include/c++/10/bits/ios_base.h ****      *  @param  __i  The integer provided when the callback was registered.
 524:/usr/include/c++/10/bits/ios_base.h ****      *
 525:/usr/include/c++/10/bits/ios_base.h ****      *  Event callbacks are user defined functions that get called during
 526:/usr/include/c++/10/bits/ios_base.h ****      *  several ios_base and basic_ios functions, specifically imbue(),
 527:/usr/include/c++/10/bits/ios_base.h ****      *  copyfmt(), and ~ios().
 528:/usr/include/c++/10/bits/ios_base.h ****     */
 529:/usr/include/c++/10/bits/ios_base.h ****     typedef void (*event_callback) (event __e, ios_base& __b, int __i);
 530:/usr/include/c++/10/bits/ios_base.h **** 
AARCH64 GAS  obj/Chapter12_3.s 			page 35


 531:/usr/include/c++/10/bits/ios_base.h ****     /**
 532:/usr/include/c++/10/bits/ios_base.h ****      *  @brief  Add the callback __fn with parameter __index.
 533:/usr/include/c++/10/bits/ios_base.h ****      *  @param  __fn  The function to add.
 534:/usr/include/c++/10/bits/ios_base.h ****      *  @param  __index  The integer to pass to the function when invoked.
 535:/usr/include/c++/10/bits/ios_base.h ****      *
 536:/usr/include/c++/10/bits/ios_base.h ****      *  Registers a function as an event callback with an integer parameter to
 537:/usr/include/c++/10/bits/ios_base.h ****      *  be passed to the function when invoked.  Multiple copies of the
 538:/usr/include/c++/10/bits/ios_base.h ****      *  function are allowed.  If there are multiple callbacks, they are
 539:/usr/include/c++/10/bits/ios_base.h ****      *  invoked in the order they were registered.
 540:/usr/include/c++/10/bits/ios_base.h ****     */
 541:/usr/include/c++/10/bits/ios_base.h ****     void
 542:/usr/include/c++/10/bits/ios_base.h ****     register_callback(event_callback __fn, int __index);
 543:/usr/include/c++/10/bits/ios_base.h **** 
 544:/usr/include/c++/10/bits/ios_base.h ****   protected:
 545:/usr/include/c++/10/bits/ios_base.h ****     streamsize		_M_precision;
 546:/usr/include/c++/10/bits/ios_base.h ****     streamsize		_M_width;
 547:/usr/include/c++/10/bits/ios_base.h ****     fmtflags		_M_flags;
 548:/usr/include/c++/10/bits/ios_base.h ****     iostate		_M_exception;
 549:/usr/include/c++/10/bits/ios_base.h ****     iostate		_M_streambuf_state;
 550:/usr/include/c++/10/bits/ios_base.h **** 
 551:/usr/include/c++/10/bits/ios_base.h ****     // 27.4.2.6  Members for callbacks
 552:/usr/include/c++/10/bits/ios_base.h ****     // 27.4.2.6  ios_base callbacks
 553:/usr/include/c++/10/bits/ios_base.h ****     struct _Callback_list
 554:/usr/include/c++/10/bits/ios_base.h ****     {
 555:/usr/include/c++/10/bits/ios_base.h ****       // Data Members
 556:/usr/include/c++/10/bits/ios_base.h ****       _Callback_list*		_M_next;
 557:/usr/include/c++/10/bits/ios_base.h ****       ios_base::event_callback	_M_fn;
 558:/usr/include/c++/10/bits/ios_base.h ****       int			_M_index;
 559:/usr/include/c++/10/bits/ios_base.h ****       _Atomic_word		_M_refcount;  // 0 means one reference.
 560:/usr/include/c++/10/bits/ios_base.h **** 
 561:/usr/include/c++/10/bits/ios_base.h ****       _Callback_list(ios_base::event_callback __fn, int __index,
 562:/usr/include/c++/10/bits/ios_base.h **** 		     _Callback_list* __cb)
 563:/usr/include/c++/10/bits/ios_base.h ****       : _M_next(__cb), _M_fn(__fn), _M_index(__index), _M_refcount(0) { }
 564:/usr/include/c++/10/bits/ios_base.h **** 
 565:/usr/include/c++/10/bits/ios_base.h ****       void
 566:/usr/include/c++/10/bits/ios_base.h ****       _M_add_reference() { __gnu_cxx::__atomic_add_dispatch(&_M_refcount, 1); }
 567:/usr/include/c++/10/bits/ios_base.h **** 
 568:/usr/include/c++/10/bits/ios_base.h ****       // 0 => OK to delete.
 569:/usr/include/c++/10/bits/ios_base.h ****       int
 570:/usr/include/c++/10/bits/ios_base.h ****       _M_remove_reference() 
 571:/usr/include/c++/10/bits/ios_base.h ****       {
 572:/usr/include/c++/10/bits/ios_base.h ****         // Be race-detector-friendly.  For more info see bits/c++config.
 573:/usr/include/c++/10/bits/ios_base.h ****         _GLIBCXX_SYNCHRONIZATION_HAPPENS_BEFORE(&_M_refcount);
 574:/usr/include/c++/10/bits/ios_base.h ****         int __res = __gnu_cxx::__exchange_and_add_dispatch(&_M_refcount, -1);
 575:/usr/include/c++/10/bits/ios_base.h ****         if (__res == 0)
 576:/usr/include/c++/10/bits/ios_base.h ****           {
 577:/usr/include/c++/10/bits/ios_base.h ****             _GLIBCXX_SYNCHRONIZATION_HAPPENS_AFTER(&_M_refcount);
 578:/usr/include/c++/10/bits/ios_base.h ****           }
 579:/usr/include/c++/10/bits/ios_base.h ****         return __res;
 580:/usr/include/c++/10/bits/ios_base.h ****       }
 581:/usr/include/c++/10/bits/ios_base.h ****     };
 582:/usr/include/c++/10/bits/ios_base.h **** 
 583:/usr/include/c++/10/bits/ios_base.h ****      _Callback_list*	_M_callbacks;
 584:/usr/include/c++/10/bits/ios_base.h **** 
 585:/usr/include/c++/10/bits/ios_base.h ****     void
 586:/usr/include/c++/10/bits/ios_base.h ****     _M_call_callbacks(event __ev) throw();
 587:/usr/include/c++/10/bits/ios_base.h **** 
AARCH64 GAS  obj/Chapter12_3.s 			page 36


 588:/usr/include/c++/10/bits/ios_base.h ****     void
 589:/usr/include/c++/10/bits/ios_base.h ****     _M_dispose_callbacks(void) throw();
 590:/usr/include/c++/10/bits/ios_base.h **** 
 591:/usr/include/c++/10/bits/ios_base.h ****     // 27.4.2.5  Members for iword/pword storage
 592:/usr/include/c++/10/bits/ios_base.h ****     struct _Words
 593:/usr/include/c++/10/bits/ios_base.h ****     {
 594:/usr/include/c++/10/bits/ios_base.h ****       void*	_M_pword;
 595:/usr/include/c++/10/bits/ios_base.h ****       long	_M_iword;
 596:/usr/include/c++/10/bits/ios_base.h ****       _Words() : _M_pword(0), _M_iword(0) { }
 597:/usr/include/c++/10/bits/ios_base.h ****     };
 598:/usr/include/c++/10/bits/ios_base.h **** 
 599:/usr/include/c++/10/bits/ios_base.h ****     // Only for failed iword/pword calls.
 600:/usr/include/c++/10/bits/ios_base.h ****     _Words		_M_word_zero;
 601:/usr/include/c++/10/bits/ios_base.h **** 
 602:/usr/include/c++/10/bits/ios_base.h ****     // Guaranteed storage.
 603:/usr/include/c++/10/bits/ios_base.h ****     // The first 5 iword and pword slots are reserved for internal use.
 604:/usr/include/c++/10/bits/ios_base.h ****     enum { _S_local_word_size = 8 };
 605:/usr/include/c++/10/bits/ios_base.h ****     _Words		_M_local_word[_S_local_word_size];
 606:/usr/include/c++/10/bits/ios_base.h **** 
 607:/usr/include/c++/10/bits/ios_base.h ****     // Allocated storage.
 608:/usr/include/c++/10/bits/ios_base.h ****     int			_M_word_size;
 609:/usr/include/c++/10/bits/ios_base.h ****     _Words*		_M_word;
 610:/usr/include/c++/10/bits/ios_base.h **** 
 611:/usr/include/c++/10/bits/ios_base.h ****     _Words&
 612:/usr/include/c++/10/bits/ios_base.h ****     _M_grow_words(int __index, bool __iword);
 613:/usr/include/c++/10/bits/ios_base.h **** 
 614:/usr/include/c++/10/bits/ios_base.h ****     // Members for locale and locale caching.
 615:/usr/include/c++/10/bits/ios_base.h ****     locale		_M_ios_locale;
 616:/usr/include/c++/10/bits/ios_base.h **** 
 617:/usr/include/c++/10/bits/ios_base.h ****     void
 618:/usr/include/c++/10/bits/ios_base.h ****     _M_init() throw();
 619:/usr/include/c++/10/bits/ios_base.h **** 
 620:/usr/include/c++/10/bits/ios_base.h ****   public:
 621:/usr/include/c++/10/bits/ios_base.h **** 
 622:/usr/include/c++/10/bits/ios_base.h ****     // 27.4.2.1.6  Class ios_base::Init
 623:/usr/include/c++/10/bits/ios_base.h ****     // Used to initialize standard streams. In theory, g++ could use
 624:/usr/include/c++/10/bits/ios_base.h ****     // -finit-priority to order this stuff correctly without going
 625:/usr/include/c++/10/bits/ios_base.h ****     // through these machinations.
 626:/usr/include/c++/10/bits/ios_base.h ****     class Init
 627:/usr/include/c++/10/bits/ios_base.h ****     {
 628:/usr/include/c++/10/bits/ios_base.h ****       friend class ios_base;
 629:/usr/include/c++/10/bits/ios_base.h ****     public:
 630:/usr/include/c++/10/bits/ios_base.h ****       Init();
 631:/usr/include/c++/10/bits/ios_base.h ****       ~Init();
 632:/usr/include/c++/10/bits/ios_base.h **** 
 633:/usr/include/c++/10/bits/ios_base.h **** #if __cplusplus >= 201103L
 634:/usr/include/c++/10/bits/ios_base.h ****       Init(const Init&) = default;
 635:/usr/include/c++/10/bits/ios_base.h ****       Init& operator=(const Init&) = default;
 636:/usr/include/c++/10/bits/ios_base.h **** #endif
 637:/usr/include/c++/10/bits/ios_base.h **** 
 638:/usr/include/c++/10/bits/ios_base.h ****     private:
 639:/usr/include/c++/10/bits/ios_base.h ****       static _Atomic_word	_S_refcount;
 640:/usr/include/c++/10/bits/ios_base.h ****       static bool		_S_synced_with_stdio;
 641:/usr/include/c++/10/bits/ios_base.h ****     };
 642:/usr/include/c++/10/bits/ios_base.h **** 
 643:/usr/include/c++/10/bits/ios_base.h ****     // [27.4.2.2] fmtflags state functions
 644:/usr/include/c++/10/bits/ios_base.h ****     /**
AARCH64 GAS  obj/Chapter12_3.s 			page 37


 645:/usr/include/c++/10/bits/ios_base.h ****      *  @brief  Access to format flags.
 646:/usr/include/c++/10/bits/ios_base.h ****      *  @return  The format control flags for both input and output.
 647:/usr/include/c++/10/bits/ios_base.h ****     */
 648:/usr/include/c++/10/bits/ios_base.h ****     fmtflags
 649:/usr/include/c++/10/bits/ios_base.h ****     flags() const
 650:/usr/include/c++/10/bits/ios_base.h ****     { return _M_flags; }
 651:/usr/include/c++/10/bits/ios_base.h **** 
 652:/usr/include/c++/10/bits/ios_base.h ****     /**
 653:/usr/include/c++/10/bits/ios_base.h ****      *  @brief  Setting new format flags all at once.
 654:/usr/include/c++/10/bits/ios_base.h ****      *  @param  __fmtfl  The new flags to set.
 655:/usr/include/c++/10/bits/ios_base.h ****      *  @return  The previous format control flags.
 656:/usr/include/c++/10/bits/ios_base.h ****      *
 657:/usr/include/c++/10/bits/ios_base.h ****      *  This function overwrites all the format flags with @a __fmtfl.
 658:/usr/include/c++/10/bits/ios_base.h ****     */
 659:/usr/include/c++/10/bits/ios_base.h ****     fmtflags
 660:/usr/include/c++/10/bits/ios_base.h ****     flags(fmtflags __fmtfl)
 661:/usr/include/c++/10/bits/ios_base.h ****     {
 662:/usr/include/c++/10/bits/ios_base.h ****       fmtflags __old = _M_flags;
 663:/usr/include/c++/10/bits/ios_base.h ****       _M_flags = __fmtfl;
 664:/usr/include/c++/10/bits/ios_base.h ****       return __old;
 665:/usr/include/c++/10/bits/ios_base.h ****     }
 666:/usr/include/c++/10/bits/ios_base.h **** 
 667:/usr/include/c++/10/bits/ios_base.h ****     /**
 668:/usr/include/c++/10/bits/ios_base.h ****      *  @brief  Setting new format flags.
 669:/usr/include/c++/10/bits/ios_base.h ****      *  @param  __fmtfl  Additional flags to set.
 670:/usr/include/c++/10/bits/ios_base.h ****      *  @return  The previous format control flags.
 671:/usr/include/c++/10/bits/ios_base.h ****      *
 672:/usr/include/c++/10/bits/ios_base.h ****      *  This function sets additional flags in format control.  Flags that
 673:/usr/include/c++/10/bits/ios_base.h ****      *  were previously set remain set.
 674:/usr/include/c++/10/bits/ios_base.h ****     */
 675:/usr/include/c++/10/bits/ios_base.h ****     fmtflags
 676:/usr/include/c++/10/bits/ios_base.h ****     setf(fmtflags __fmtfl)
 677:/usr/include/c++/10/bits/ios_base.h ****     {
 678:/usr/include/c++/10/bits/ios_base.h ****       fmtflags __old = _M_flags;
 679:/usr/include/c++/10/bits/ios_base.h ****       _M_flags |= __fmtfl;
 680:/usr/include/c++/10/bits/ios_base.h ****       return __old;
 681:/usr/include/c++/10/bits/ios_base.h ****     }
 682:/usr/include/c++/10/bits/ios_base.h **** 
 683:/usr/include/c++/10/bits/ios_base.h ****     /**
 684:/usr/include/c++/10/bits/ios_base.h ****      *  @brief  Setting new format flags.
 685:/usr/include/c++/10/bits/ios_base.h ****      *  @param  __fmtfl  Additional flags to set.
 686:/usr/include/c++/10/bits/ios_base.h ****      *  @param  __mask  The flags mask for @a fmtfl.
 687:/usr/include/c++/10/bits/ios_base.h ****      *  @return  The previous format control flags.
 688:/usr/include/c++/10/bits/ios_base.h ****      *
 689:/usr/include/c++/10/bits/ios_base.h ****      *  This function clears @a mask in the format flags, then sets
 690:/usr/include/c++/10/bits/ios_base.h ****      *  @a fmtfl @c & @a mask.  An example mask is @c ios_base::adjustfield.
 691:/usr/include/c++/10/bits/ios_base.h ****     */
 692:/usr/include/c++/10/bits/ios_base.h ****     fmtflags
 693:/usr/include/c++/10/bits/ios_base.h ****     setf(fmtflags __fmtfl, fmtflags __mask)
 694:/usr/include/c++/10/bits/ios_base.h ****     {
 695:/usr/include/c++/10/bits/ios_base.h ****       fmtflags __old = _M_flags;
 696:/usr/include/c++/10/bits/ios_base.h ****       _M_flags &= ~__mask;
 697:/usr/include/c++/10/bits/ios_base.h ****       _M_flags |= (__fmtfl & __mask);
 698:/usr/include/c++/10/bits/ios_base.h ****       return __old;
 699:/usr/include/c++/10/bits/ios_base.h ****     }
 700:/usr/include/c++/10/bits/ios_base.h **** 
 701:/usr/include/c++/10/bits/ios_base.h ****     /**
AARCH64 GAS  obj/Chapter12_3.s 			page 38


 702:/usr/include/c++/10/bits/ios_base.h ****      *  @brief  Clearing format flags.
 703:/usr/include/c++/10/bits/ios_base.h ****      *  @param  __mask  The flags to unset.
 704:/usr/include/c++/10/bits/ios_base.h ****      *
 705:/usr/include/c++/10/bits/ios_base.h ****      *  This function clears @a __mask in the format flags.
 706:/usr/include/c++/10/bits/ios_base.h ****     */
 707:/usr/include/c++/10/bits/ios_base.h ****     void
 708:/usr/include/c++/10/bits/ios_base.h ****     unsetf(fmtflags __mask)
 709:/usr/include/c++/10/bits/ios_base.h ****     { _M_flags &= ~__mask; }
 710:/usr/include/c++/10/bits/ios_base.h **** 
 711:/usr/include/c++/10/bits/ios_base.h ****     /**
 712:/usr/include/c++/10/bits/ios_base.h ****      *  @brief  Flags access.
 713:/usr/include/c++/10/bits/ios_base.h ****      *  @return  The precision to generate on certain output operations.
 714:/usr/include/c++/10/bits/ios_base.h ****      *
 715:/usr/include/c++/10/bits/ios_base.h ****      *  Be careful if you try to give a definition of @a precision here; see
 716:/usr/include/c++/10/bits/ios_base.h ****      *  DR 189.
 717:/usr/include/c++/10/bits/ios_base.h ****     */
 718:/usr/include/c++/10/bits/ios_base.h ****     streamsize
 719:/usr/include/c++/10/bits/ios_base.h ****     precision() const
 720:/usr/include/c++/10/bits/ios_base.h ****     { return _M_precision; }
 721:/usr/include/c++/10/bits/ios_base.h **** 
 722:/usr/include/c++/10/bits/ios_base.h ****     /**
 723:/usr/include/c++/10/bits/ios_base.h ****      *  @brief  Changing flags.
 724:/usr/include/c++/10/bits/ios_base.h ****      *  @param  __prec  The new precision value.
 725:/usr/include/c++/10/bits/ios_base.h ****      *  @return  The previous value of precision().
 726:/usr/include/c++/10/bits/ios_base.h ****     */
 727:/usr/include/c++/10/bits/ios_base.h ****     streamsize
 728:/usr/include/c++/10/bits/ios_base.h ****     precision(streamsize __prec)
 729:/usr/include/c++/10/bits/ios_base.h ****     {
 730:/usr/include/c++/10/bits/ios_base.h ****       streamsize __old = _M_precision;
 731:/usr/include/c++/10/bits/ios_base.h ****       _M_precision = __prec;
 732:/usr/include/c++/10/bits/ios_base.h ****       return __old;
 733:/usr/include/c++/10/bits/ios_base.h ****     }
 734:/usr/include/c++/10/bits/ios_base.h **** 
 735:/usr/include/c++/10/bits/ios_base.h ****     /**
 736:/usr/include/c++/10/bits/ios_base.h ****      *  @brief  Flags access.
 737:/usr/include/c++/10/bits/ios_base.h ****      *  @return  The minimum field width to generate on output operations.
 738:/usr/include/c++/10/bits/ios_base.h ****      *
 739:/usr/include/c++/10/bits/ios_base.h ****      *  <em>Minimum field width</em> refers to the number of characters.
 740:/usr/include/c++/10/bits/ios_base.h ****     */
 741:/usr/include/c++/10/bits/ios_base.h ****     streamsize
 742:/usr/include/c++/10/bits/ios_base.h ****     width() const
 743:/usr/include/c++/10/bits/ios_base.h ****     { return _M_width; }
 744:/usr/include/c++/10/bits/ios_base.h **** 
 745:/usr/include/c++/10/bits/ios_base.h ****     /**
 746:/usr/include/c++/10/bits/ios_base.h ****      *  @brief  Changing flags.
 747:/usr/include/c++/10/bits/ios_base.h ****      *  @param  __wide  The new width value.
 748:/usr/include/c++/10/bits/ios_base.h ****      *  @return  The previous value of width().
 749:/usr/include/c++/10/bits/ios_base.h ****     */
 750:/usr/include/c++/10/bits/ios_base.h ****     streamsize
 751:/usr/include/c++/10/bits/ios_base.h ****     width(streamsize __wide)
 752:/usr/include/c++/10/bits/ios_base.h ****     {
 753:/usr/include/c++/10/bits/ios_base.h ****       streamsize __old = _M_width;
 754:/usr/include/c++/10/bits/ios_base.h ****       _M_width = __wide;
 755:/usr/include/c++/10/bits/ios_base.h ****       return __old;
 756:/usr/include/c++/10/bits/ios_base.h ****     }
 757:/usr/include/c++/10/bits/ios_base.h **** 
 758:/usr/include/c++/10/bits/ios_base.h ****     // [27.4.2.4] ios_base static members
AARCH64 GAS  obj/Chapter12_3.s 			page 39


 759:/usr/include/c++/10/bits/ios_base.h ****     /**
 760:/usr/include/c++/10/bits/ios_base.h ****      *  @brief  Interaction with the standard C I/O objects.
 761:/usr/include/c++/10/bits/ios_base.h ****      *  @param  __sync  Whether to synchronize or not.
 762:/usr/include/c++/10/bits/ios_base.h ****      *  @return  True if the standard streams were previously synchronized.
 763:/usr/include/c++/10/bits/ios_base.h ****      *
 764:/usr/include/c++/10/bits/ios_base.h ****      *  The synchronization referred to is @e only that between the standard
 765:/usr/include/c++/10/bits/ios_base.h ****      *  C facilities (e.g., stdout) and the standard C++ objects (e.g.,
 766:/usr/include/c++/10/bits/ios_base.h ****      *  cout).  User-declared streams are unaffected.  See
 767:/usr/include/c++/10/bits/ios_base.h ****      *  https://gcc.gnu.org/onlinedocs/libstdc++/manual/fstreams.html#std.io.filestreams.binary
 768:/usr/include/c++/10/bits/ios_base.h ****     */
 769:/usr/include/c++/10/bits/ios_base.h ****     static bool
 770:/usr/include/c++/10/bits/ios_base.h ****     sync_with_stdio(bool __sync = true);
 771:/usr/include/c++/10/bits/ios_base.h **** 
 772:/usr/include/c++/10/bits/ios_base.h ****     // [27.4.2.3] ios_base locale functions
 773:/usr/include/c++/10/bits/ios_base.h ****     /**
 774:/usr/include/c++/10/bits/ios_base.h ****      *  @brief  Setting a new locale.
 775:/usr/include/c++/10/bits/ios_base.h ****      *  @param  __loc  The new locale.
 776:/usr/include/c++/10/bits/ios_base.h ****      *  @return  The previous locale.
 777:/usr/include/c++/10/bits/ios_base.h ****      *
 778:/usr/include/c++/10/bits/ios_base.h ****      *  Sets the new locale for this stream, and then invokes each callback
 779:/usr/include/c++/10/bits/ios_base.h ****      *  with imbue_event.
 780:/usr/include/c++/10/bits/ios_base.h ****     */
 781:/usr/include/c++/10/bits/ios_base.h ****     locale
 782:/usr/include/c++/10/bits/ios_base.h ****     imbue(const locale& __loc) throw();
 783:/usr/include/c++/10/bits/ios_base.h **** 
 784:/usr/include/c++/10/bits/ios_base.h ****     /**
 785:/usr/include/c++/10/bits/ios_base.h ****      *  @brief  Locale access
 786:/usr/include/c++/10/bits/ios_base.h ****      *  @return  A copy of the current locale.
 787:/usr/include/c++/10/bits/ios_base.h ****      *
 788:/usr/include/c++/10/bits/ios_base.h ****      *  If @c imbue(loc) has previously been called, then this function
 789:/usr/include/c++/10/bits/ios_base.h ****      *  returns @c loc.  Otherwise, it returns a copy of @c std::locale(),
 790:/usr/include/c++/10/bits/ios_base.h ****      *  the global C++ locale.
 791:/usr/include/c++/10/bits/ios_base.h ****     */
 792:/usr/include/c++/10/bits/ios_base.h ****     locale
 793:/usr/include/c++/10/bits/ios_base.h ****     getloc() const
 794:/usr/include/c++/10/bits/ios_base.h ****     { return _M_ios_locale; }
 795:/usr/include/c++/10/bits/ios_base.h **** 
 796:/usr/include/c++/10/bits/ios_base.h ****     /**
 797:/usr/include/c++/10/bits/ios_base.h ****      *  @brief  Locale access
 798:/usr/include/c++/10/bits/ios_base.h ****      *  @return  A reference to the current locale.
 799:/usr/include/c++/10/bits/ios_base.h ****      *
 800:/usr/include/c++/10/bits/ios_base.h ****      *  Like getloc above, but returns a reference instead of
 801:/usr/include/c++/10/bits/ios_base.h ****      *  generating a copy.
 802:/usr/include/c++/10/bits/ios_base.h ****     */
 803:/usr/include/c++/10/bits/ios_base.h ****     const locale&
 804:/usr/include/c++/10/bits/ios_base.h ****     _M_getloc() const
 805:/usr/include/c++/10/bits/ios_base.h ****     { return _M_ios_locale; }
 806:/usr/include/c++/10/bits/ios_base.h **** 
 807:/usr/include/c++/10/bits/ios_base.h ****     // [27.4.2.5] ios_base storage functions
 808:/usr/include/c++/10/bits/ios_base.h ****     /**
 809:/usr/include/c++/10/bits/ios_base.h ****      *  @brief  Access to unique indices.
 810:/usr/include/c++/10/bits/ios_base.h ****      *  @return  An integer different from all previous calls.
 811:/usr/include/c++/10/bits/ios_base.h ****      *
 812:/usr/include/c++/10/bits/ios_base.h ****      *  This function returns a unique integer every time it is called.  It
 813:/usr/include/c++/10/bits/ios_base.h ****      *  can be used for any purpose, but is primarily intended to be a unique
 814:/usr/include/c++/10/bits/ios_base.h ****      *  index for the iword and pword functions.  The expectation is that an
 815:/usr/include/c++/10/bits/ios_base.h ****      *  application calls xalloc in order to obtain an index in the iword and
AARCH64 GAS  obj/Chapter12_3.s 			page 40


 816:/usr/include/c++/10/bits/ios_base.h ****      *  pword arrays that can be used without fear of conflict.
 817:/usr/include/c++/10/bits/ios_base.h ****      *
 818:/usr/include/c++/10/bits/ios_base.h ****      *  The implementation maintains a static variable that is incremented and
 819:/usr/include/c++/10/bits/ios_base.h ****      *  returned on each invocation.  xalloc is guaranteed to return an index
 820:/usr/include/c++/10/bits/ios_base.h ****      *  that is safe to use in the iword and pword arrays.
 821:/usr/include/c++/10/bits/ios_base.h ****     */
 822:/usr/include/c++/10/bits/ios_base.h ****     static int
 823:/usr/include/c++/10/bits/ios_base.h ****     xalloc() throw();
 824:/usr/include/c++/10/bits/ios_base.h **** 
 825:/usr/include/c++/10/bits/ios_base.h ****     /**
 826:/usr/include/c++/10/bits/ios_base.h ****      *  @brief  Access to integer array.
 827:/usr/include/c++/10/bits/ios_base.h ****      *  @param  __ix  Index into the array.
 828:/usr/include/c++/10/bits/ios_base.h ****      *  @return  A reference to an integer associated with the index.
 829:/usr/include/c++/10/bits/ios_base.h ****      *
 830:/usr/include/c++/10/bits/ios_base.h ****      *  The iword function provides access to an array of integers that can be
 831:/usr/include/c++/10/bits/ios_base.h ****      *  used for any purpose.  The array grows as required to hold the
 832:/usr/include/c++/10/bits/ios_base.h ****      *  supplied index.  All integers in the array are initialized to 0.
 833:/usr/include/c++/10/bits/ios_base.h ****      *
 834:/usr/include/c++/10/bits/ios_base.h ****      *  The implementation reserves several indices.  You should use xalloc to
 835:/usr/include/c++/10/bits/ios_base.h ****      *  obtain an index that is safe to use.  Also note that since the array
 836:/usr/include/c++/10/bits/ios_base.h ****      *  can grow dynamically, it is not safe to hold onto the reference.
 837:/usr/include/c++/10/bits/ios_base.h ****     */
 838:/usr/include/c++/10/bits/ios_base.h ****     long&
 839:/usr/include/c++/10/bits/ios_base.h ****     iword(int __ix)
 840:/usr/include/c++/10/bits/ios_base.h ****     {
 841:/usr/include/c++/10/bits/ios_base.h ****       _Words& __word = ((unsigned)__ix < (unsigned)_M_word_size)
 842:/usr/include/c++/10/bits/ios_base.h **** 			? _M_word[__ix] : _M_grow_words(__ix, true);
 843:/usr/include/c++/10/bits/ios_base.h ****       return __word._M_iword;
 844:/usr/include/c++/10/bits/ios_base.h ****     }
 845:/usr/include/c++/10/bits/ios_base.h **** 
 846:/usr/include/c++/10/bits/ios_base.h ****     /**
 847:/usr/include/c++/10/bits/ios_base.h ****      *  @brief  Access to void pointer array.
 848:/usr/include/c++/10/bits/ios_base.h ****      *  @param  __ix  Index into the array.
 849:/usr/include/c++/10/bits/ios_base.h ****      *  @return  A reference to a void* associated with the index.
 850:/usr/include/c++/10/bits/ios_base.h ****      *
 851:/usr/include/c++/10/bits/ios_base.h ****      *  The pword function provides access to an array of pointers that can be
 852:/usr/include/c++/10/bits/ios_base.h ****      *  used for any purpose.  The array grows as required to hold the
 853:/usr/include/c++/10/bits/ios_base.h ****      *  supplied index.  All pointers in the array are initialized to 0.
 854:/usr/include/c++/10/bits/ios_base.h ****      *
 855:/usr/include/c++/10/bits/ios_base.h ****      *  The implementation reserves several indices.  You should use xalloc to
 856:/usr/include/c++/10/bits/ios_base.h ****      *  obtain an index that is safe to use.  Also note that since the array
 857:/usr/include/c++/10/bits/ios_base.h ****      *  can grow dynamically, it is not safe to hold onto the reference.
 858:/usr/include/c++/10/bits/ios_base.h ****     */
 859:/usr/include/c++/10/bits/ios_base.h ****     void*&
 860:/usr/include/c++/10/bits/ios_base.h ****     pword(int __ix)
 861:/usr/include/c++/10/bits/ios_base.h ****     {
 862:/usr/include/c++/10/bits/ios_base.h ****       _Words& __word = ((unsigned)__ix < (unsigned)_M_word_size)
 863:/usr/include/c++/10/bits/ios_base.h **** 			? _M_word[__ix] : _M_grow_words(__ix, false);
 864:/usr/include/c++/10/bits/ios_base.h ****       return __word._M_pword;
 865:/usr/include/c++/10/bits/ios_base.h ****     }
 866:/usr/include/c++/10/bits/ios_base.h **** 
 867:/usr/include/c++/10/bits/ios_base.h ****     // Destructor
 868:/usr/include/c++/10/bits/ios_base.h ****     /**
 869:/usr/include/c++/10/bits/ios_base.h ****      *  Invokes each callback with erase_event.  Destroys local storage.
 870:/usr/include/c++/10/bits/ios_base.h ****      *
 871:/usr/include/c++/10/bits/ios_base.h ****      *  Note that the ios_base object for the standard streams never gets
 872:/usr/include/c++/10/bits/ios_base.h ****      *  destroyed.  As a result, any callbacks registered with the standard
AARCH64 GAS  obj/Chapter12_3.s 			page 41


 873:/usr/include/c++/10/bits/ios_base.h ****      *  streams will not get invoked with erase_event (unless copyfmt is
 874:/usr/include/c++/10/bits/ios_base.h ****      *  used).
 875:/usr/include/c++/10/bits/ios_base.h ****     */
 876:/usr/include/c++/10/bits/ios_base.h ****     virtual ~ios_base();
 877:/usr/include/c++/10/bits/ios_base.h **** 
 878:/usr/include/c++/10/bits/ios_base.h ****   protected:
 879:/usr/include/c++/10/bits/ios_base.h ****     ios_base() throw ();
 880:/usr/include/c++/10/bits/ios_base.h **** 
 881:/usr/include/c++/10/bits/ios_base.h **** #if __cplusplus < 201103L
 882:/usr/include/c++/10/bits/ios_base.h ****   // _GLIBCXX_RESOLVE_LIB_DEFECTS
 883:/usr/include/c++/10/bits/ios_base.h ****   // 50.  Copy constructor and assignment operator of ios_base
 884:/usr/include/c++/10/bits/ios_base.h ****   private:
 885:/usr/include/c++/10/bits/ios_base.h ****     ios_base(const ios_base&);
 886:/usr/include/c++/10/bits/ios_base.h **** 
 887:/usr/include/c++/10/bits/ios_base.h ****     ios_base&
 888:/usr/include/c++/10/bits/ios_base.h ****     operator=(const ios_base&);
 889:/usr/include/c++/10/bits/ios_base.h **** #else
 890:/usr/include/c++/10/bits/ios_base.h ****   public:
 891:/usr/include/c++/10/bits/ios_base.h ****     ios_base(const ios_base&) = delete;
 892:/usr/include/c++/10/bits/ios_base.h **** 
 893:/usr/include/c++/10/bits/ios_base.h ****     ios_base&
 894:/usr/include/c++/10/bits/ios_base.h ****     operator=(const ios_base&) = delete;
 895:/usr/include/c++/10/bits/ios_base.h **** 
 896:/usr/include/c++/10/bits/ios_base.h ****   protected:
 897:/usr/include/c++/10/bits/ios_base.h ****     void
 898:/usr/include/c++/10/bits/ios_base.h ****     _M_move(ios_base&) noexcept;
 899:/usr/include/c++/10/bits/ios_base.h **** 
 900:/usr/include/c++/10/bits/ios_base.h ****     void
 901:/usr/include/c++/10/bits/ios_base.h ****     _M_swap(ios_base& __rhs) noexcept;
 902:/usr/include/c++/10/bits/ios_base.h **** #endif
 903:/usr/include/c++/10/bits/ios_base.h ****   };
 904:/usr/include/c++/10/bits/ios_base.h **** 
 905:/usr/include/c++/10/bits/ios_base.h ****   // [27.4.5.1] fmtflags manipulators
 906:/usr/include/c++/10/bits/ios_base.h ****   /// Calls base.setf(ios_base::boolalpha).
 907:/usr/include/c++/10/bits/ios_base.h ****   inline ios_base&
 908:/usr/include/c++/10/bits/ios_base.h ****   boolalpha(ios_base& __base)
 329              		.loc 4 908 3 is_stmt 1 view .LVU72
 330              	.LBE217:
 331              	.LBE225:
 332              	.LBE230:
 909:/usr/include/c++/10/bits/ios_base.h ****   {
 910:/usr/include/c++/10/bits/ios_base.h ****     __base.setf(ios_base::boolalpha);
 333              		.loc 4 910 5 view .LVU73
 334              	.LBB231:
 335              	.LBB226:
 336              	.LBB224:
 337              	.LBB218:
 338              	.LBI218:
 676:/usr/include/c++/10/bits/ios_base.h ****     {
 339              		.loc 4 676 5 view .LVU74
 340              	.LBB219:
 678:/usr/include/c++/10/bits/ios_base.h ****       _M_flags |= __fmtfl;
 341              		.loc 4 678 7 view .LVU75
 679:/usr/include/c++/10/bits/ios_base.h ****       return __old;
 342              		.loc 4 679 7 view .LVU76
 343              	.LBB220:
 344              	.LBI220:
AARCH64 GAS  obj/Chapter12_3.s 			page 42


  99:/usr/include/c++/10/bits/ios_base.h ****   { return __a = __a | __b; }
 345              		.loc 4 99 3 view .LVU77
 346              	.LBB221:
 100:/usr/include/c++/10/bits/ios_base.h **** 
 347              		.loc 4 100 5 view .LVU78
 348              	.LBB222:
 349              	.LBI222:
  87:/usr/include/c++/10/bits/ios_base.h ****   { return _Ios_Fmtflags(static_cast<int>(__a) | static_cast<int>(__b)); }
 350              		.loc 4 87 3 view .LVU79
 351              	.LBB223:
  88:/usr/include/c++/10/bits/ios_base.h **** 
 352              		.loc 4 88 5 view .LVU80
  88:/usr/include/c++/10/bits/ios_base.h **** 
 353              		.loc 4 88 71 is_stmt 0 view .LVU81
 354 0150 431840B9 		ldr	w3, [x2, 24]
 355 0154 63000032 		orr	w3, w3, 1
 356              	.LBE223:
 357              	.LBE222:
 100:/usr/include/c++/10/bits/ios_base.h **** 
 358              		.loc 4 100 16 view .LVU82
 359 0158 431800B9 		str	w3, [x2, 24]
 360              	.LVL21:
 100:/usr/include/c++/10/bits/ios_base.h **** 
 361              		.loc 4 100 16 view .LVU83
 362              	.LBE221:
 363              	.LBE220:
 680:/usr/include/c++/10/bits/ios_base.h ****     }
 364              		.loc 4 680 7 is_stmt 1 view .LVU84
 680:/usr/include/c++/10/bits/ios_base.h ****     }
 365              		.loc 4 680 7 is_stmt 0 view .LVU85
 366              	.LBE219:
 367              	.LBE218:
 368              	.LBE224:
 369              	.LBE226:
 370              	.LBE231:
 911:/usr/include/c++/10/bits/ios_base.h ****     return __base;
 371              		.loc 4 911 5 is_stmt 1 view .LVU86
 372              	.LBB232:
 373              	.LBI227:
 174:/usr/include/c++/10/ostream ****       { return _M_insert(__n); }
 374              		.loc 2 174 7 view .LVU87
 375              	.LBB229:
 175:/usr/include/c++/10/ostream **** 
 376              		.loc 2 175 25 is_stmt 0 view .LVU88
 377 015c 00000094 		bl	_ZNSo9_M_insertIbEERSoT_
 378              	.LVL22:
 175:/usr/include/c++/10/ostream **** 
 379              		.loc 2 175 25 view .LVU89
 380 0160 FBBF0139 		strb	w27, [sp, 111]
 381              	.LVL23:
 175:/usr/include/c++/10/ostream **** 
 382              		.loc 2 175 25 view .LVU90
 383              	.LBE229:
 384              	.LBE232:
 385              	.LBB233:
 386              	.LBI233:
 517:/usr/include/c++/10/ostream ****     { return __ostream_insert(__out, &__c, 1); }
AARCH64 GAS  obj/Chapter12_3.s 			page 43


 387              		.loc 2 517 5 is_stmt 1 view .LVU91
 388              	.LBB234:
 518:/usr/include/c++/10/ostream **** 
 389              		.loc 2 518 30 is_stmt 0 view .LVU92
 390 0164 E10319AA 		mov	x1, x25
 391 0168 220080D2 		mov	x2, 1
 392 016c 00000094 		bl	_ZSt16__ostream_insertIcSt11char_traitsIcEERSt13basic_ostreamIT_T0_ES6_PKS3_l
 393              	.LVL24:
 518:/usr/include/c++/10/ostream **** 
 394              		.loc 2 518 30 view .LVU93
 395 0170 FBBF0139 		strb	w27, [sp, 111]
 396              	.LVL25:
 518:/usr/include/c++/10/ostream **** 
 397              		.loc 2 518 30 view .LVU94
 398              	.LBE234:
 399              	.LBE233:
 400              	.LBB235:
 401              	.LBI235:
 517:/usr/include/c++/10/ostream ****     { return __ostream_insert(__out, &__c, 1); }
 402              		.loc 2 517 5 is_stmt 1 view .LVU95
 403              	.LBB236:
 518:/usr/include/c++/10/ostream **** 
 404              		.loc 2 518 30 is_stmt 0 view .LVU96
 405 0174 E10319AA 		mov	x1, x25
 406 0178 E00313AA 		mov	x0, x19
 407 017c 220080D2 		mov	x2, 1
 408 0180 00000094 		bl	_ZSt16__ostream_insertIcSt11char_traitsIcEERSt13basic_ostreamIT_T0_ES6_PKS3_l
 409              	.LVL26:
 518:/usr/include/c++/10/ostream **** 
 410              		.loc 2 518 30 view .LVU97
 411              	.LBE236:
 412              	.LBE235:
  19:Chapter12_3.cpp ****     cout<<"result= "<<boolalpha<<result<<nl;
  20:Chapter12_3.cpp **** 	cout<<nl;
  21:Chapter12_3.cpp **** }
 413              		.loc 1 21 1 view .LVU98
 414 0184 F35341A9 		ldp	x19, x20, [sp, 16]
 415 0188 F55B42A9 		ldp	x21, x22, [sp, 32]
 416              	.LVL27:
 417              		.loc 1 21 1 view .LVU99
 418 018c F76343A9 		ldp	x23, x24, [sp, 48]
 419              	.LVL28:
 420              		.loc 1 21 1 view .LVU100
 421 0190 F96B44A9 		ldp	x25, x26, [sp, 64]
 422              	.LVL29:
 423              		.loc 1 21 1 view .LVU101
 424 0194 FB2B40F9 		ldr	x27, [sp, 80]
 425 0198 FD7BC7A8 		ldp	x29, x30, [sp], 112
 426              		.cfi_remember_state
 427              		.cfi_restore 30
 428              		.cfi_restore 29
 429              		.cfi_restore 27
 430              		.cfi_restore 25
 431              		.cfi_restore 26
 432              		.cfi_restore 23
 433              		.cfi_restore 24
 434              		.cfi_restore 21
AARCH64 GAS  obj/Chapter12_3.s 			page 44


 435              		.cfi_restore 22
 436              		.cfi_restore 19
 437              		.cfi_restore 20
 438              		.cfi_def_cfa_offset 0
 439 019c C0035FD6 		ret
 440              	.LVL30:
 441              		.p2align 2,,3
 442              	.L6:
 443              		.cfi_restore_state
 444              	.LBB237:
 445              	.LBB179:
 446              	.LBB172:
 447              	.LBI172:
 606:/usr/include/c++/10/ostream ****     {
 448              		.loc 2 606 5 is_stmt 1 view .LVU102
 449              	.LBB173:
 609:/usr/include/c++/10/ostream ****       else
 450              		.loc 2 609 16 is_stmt 0 view .LVU103
 451 01a0 13000090 		adrp	x19, :got:_ZSt4cout
 452 01a4 610240F9 		ldr	x1, [x19, #:got_lo12:_ZSt4cout]
 453              	.LVL31:
 609:/usr/include/c++/10/ostream ****       else
 454              		.loc 2 609 16 view .LVU104
 455 01a8 200040F9 		ldr	x0, [x1]
 456              	.LVL32:
 609:/usr/include/c++/10/ostream ****       else
 457              		.loc 2 609 16 view .LVU105
 458 01ac 00805EF8 		ldr	x0, [x0, -24]
 459 01b0 0000018B 		add	x0, x0, x1
 460              	.LVL33:
 461              	.LBB174:
 462              	.LBI174:
 463              		.file 5 "/usr/include/c++/10/bits/basic_ios.h"
   1:/usr/include/c++/10/bits/basic_ios.h **** // Iostreams base classes -*- C++ -*-
   2:/usr/include/c++/10/bits/basic_ios.h **** 
   3:/usr/include/c++/10/bits/basic_ios.h **** // Copyright (C) 1997-2020 Free Software Foundation, Inc.
   4:/usr/include/c++/10/bits/basic_ios.h **** //
   5:/usr/include/c++/10/bits/basic_ios.h **** // This file is part of the GNU ISO C++ Library.  This library is free
   6:/usr/include/c++/10/bits/basic_ios.h **** // software; you can redistribute it and/or modify it under the
   7:/usr/include/c++/10/bits/basic_ios.h **** // terms of the GNU General Public License as published by the
   8:/usr/include/c++/10/bits/basic_ios.h **** // Free Software Foundation; either version 3, or (at your option)
   9:/usr/include/c++/10/bits/basic_ios.h **** // any later version.
  10:/usr/include/c++/10/bits/basic_ios.h **** 
  11:/usr/include/c++/10/bits/basic_ios.h **** // This library is distributed in the hope that it will be useful,
  12:/usr/include/c++/10/bits/basic_ios.h **** // but WITHOUT ANY WARRANTY; without even the implied warranty of
  13:/usr/include/c++/10/bits/basic_ios.h **** // MERCHANTABILITY or FITNESS FOR A PARTICULAR PURPOSE.  See the
  14:/usr/include/c++/10/bits/basic_ios.h **** // GNU General Public License for more details.
  15:/usr/include/c++/10/bits/basic_ios.h **** 
  16:/usr/include/c++/10/bits/basic_ios.h **** // Under Section 7 of GPL version 3, you are granted additional
  17:/usr/include/c++/10/bits/basic_ios.h **** // permissions described in the GCC Runtime Library Exception, version
  18:/usr/include/c++/10/bits/basic_ios.h **** // 3.1, as published by the Free Software Foundation.
  19:/usr/include/c++/10/bits/basic_ios.h **** 
  20:/usr/include/c++/10/bits/basic_ios.h **** // You should have received a copy of the GNU General Public License and
  21:/usr/include/c++/10/bits/basic_ios.h **** // a copy of the GCC Runtime Library Exception along with this program;
  22:/usr/include/c++/10/bits/basic_ios.h **** // see the files COPYING3 and COPYING.RUNTIME respectively.  If not, see
  23:/usr/include/c++/10/bits/basic_ios.h **** // <http://www.gnu.org/licenses/>.
  24:/usr/include/c++/10/bits/basic_ios.h **** 
AARCH64 GAS  obj/Chapter12_3.s 			page 45


  25:/usr/include/c++/10/bits/basic_ios.h **** /** @file bits/basic_ios.h
  26:/usr/include/c++/10/bits/basic_ios.h ****  *  This is an internal header file, included by other library headers.
  27:/usr/include/c++/10/bits/basic_ios.h ****  *  Do not attempt to use it directly. @headername{ios}
  28:/usr/include/c++/10/bits/basic_ios.h ****  */
  29:/usr/include/c++/10/bits/basic_ios.h **** 
  30:/usr/include/c++/10/bits/basic_ios.h **** #ifndef _BASIC_IOS_H
  31:/usr/include/c++/10/bits/basic_ios.h **** #define _BASIC_IOS_H 1
  32:/usr/include/c++/10/bits/basic_ios.h **** 
  33:/usr/include/c++/10/bits/basic_ios.h **** #pragma GCC system_header
  34:/usr/include/c++/10/bits/basic_ios.h **** 
  35:/usr/include/c++/10/bits/basic_ios.h **** #include <bits/localefwd.h>
  36:/usr/include/c++/10/bits/basic_ios.h **** #include <bits/locale_classes.h>
  37:/usr/include/c++/10/bits/basic_ios.h **** #include <bits/locale_facets.h>
  38:/usr/include/c++/10/bits/basic_ios.h **** #include <bits/streambuf_iterator.h>
  39:/usr/include/c++/10/bits/basic_ios.h **** #include <bits/move.h>
  40:/usr/include/c++/10/bits/basic_ios.h **** 
  41:/usr/include/c++/10/bits/basic_ios.h **** namespace std _GLIBCXX_VISIBILITY(default)
  42:/usr/include/c++/10/bits/basic_ios.h **** {
  43:/usr/include/c++/10/bits/basic_ios.h **** _GLIBCXX_BEGIN_NAMESPACE_VERSION
  44:/usr/include/c++/10/bits/basic_ios.h **** 
  45:/usr/include/c++/10/bits/basic_ios.h ****   template<typename _Facet>
  46:/usr/include/c++/10/bits/basic_ios.h ****     inline const _Facet&
  47:/usr/include/c++/10/bits/basic_ios.h ****     __check_facet(const _Facet* __f)
  48:/usr/include/c++/10/bits/basic_ios.h ****     {
  49:/usr/include/c++/10/bits/basic_ios.h ****       if (!__f)
  50:/usr/include/c++/10/bits/basic_ios.h **** 	__throw_bad_cast();
  51:/usr/include/c++/10/bits/basic_ios.h ****       return *__f;
  52:/usr/include/c++/10/bits/basic_ios.h ****     }
  53:/usr/include/c++/10/bits/basic_ios.h **** 
  54:/usr/include/c++/10/bits/basic_ios.h ****   /**
  55:/usr/include/c++/10/bits/basic_ios.h ****    *  @brief Template class basic_ios, virtual base class for all
  56:/usr/include/c++/10/bits/basic_ios.h ****    *  stream classes. 
  57:/usr/include/c++/10/bits/basic_ios.h ****    *  @ingroup io
  58:/usr/include/c++/10/bits/basic_ios.h ****    *
  59:/usr/include/c++/10/bits/basic_ios.h ****    *  @tparam _CharT  Type of character stream.
  60:/usr/include/c++/10/bits/basic_ios.h ****    *  @tparam _Traits  Traits for character type, defaults to
  61:/usr/include/c++/10/bits/basic_ios.h ****    *                   char_traits<_CharT>.
  62:/usr/include/c++/10/bits/basic_ios.h ****    *
  63:/usr/include/c++/10/bits/basic_ios.h ****    *  Most of the member functions called dispatched on stream objects
  64:/usr/include/c++/10/bits/basic_ios.h ****    *  (e.g., @c std::cout.foo(bar);) are consolidated in this class.
  65:/usr/include/c++/10/bits/basic_ios.h ****   */
  66:/usr/include/c++/10/bits/basic_ios.h ****   template<typename _CharT, typename _Traits>
  67:/usr/include/c++/10/bits/basic_ios.h ****     class basic_ios : public ios_base
  68:/usr/include/c++/10/bits/basic_ios.h ****     {
  69:/usr/include/c++/10/bits/basic_ios.h ****     public:
  70:/usr/include/c++/10/bits/basic_ios.h ****       //@{
  71:/usr/include/c++/10/bits/basic_ios.h ****       /**
  72:/usr/include/c++/10/bits/basic_ios.h ****        *  These are standard types.  They permit a standardized way of
  73:/usr/include/c++/10/bits/basic_ios.h ****        *  referring to names of (or names dependent on) the template
  74:/usr/include/c++/10/bits/basic_ios.h ****        *  parameters, which are specific to the implementation.
  75:/usr/include/c++/10/bits/basic_ios.h ****       */
  76:/usr/include/c++/10/bits/basic_ios.h ****       typedef _CharT                                 char_type;
  77:/usr/include/c++/10/bits/basic_ios.h ****       typedef typename _Traits::int_type             int_type;
  78:/usr/include/c++/10/bits/basic_ios.h ****       typedef typename _Traits::pos_type             pos_type;
  79:/usr/include/c++/10/bits/basic_ios.h ****       typedef typename _Traits::off_type             off_type;
  80:/usr/include/c++/10/bits/basic_ios.h ****       typedef _Traits                                traits_type;
  81:/usr/include/c++/10/bits/basic_ios.h ****       //@}
AARCH64 GAS  obj/Chapter12_3.s 			page 46


  82:/usr/include/c++/10/bits/basic_ios.h **** 
  83:/usr/include/c++/10/bits/basic_ios.h ****       //@{
  84:/usr/include/c++/10/bits/basic_ios.h ****       /**
  85:/usr/include/c++/10/bits/basic_ios.h ****        *  These are non-standard types.
  86:/usr/include/c++/10/bits/basic_ios.h ****       */
  87:/usr/include/c++/10/bits/basic_ios.h ****       typedef ctype<_CharT>                          __ctype_type;
  88:/usr/include/c++/10/bits/basic_ios.h ****       typedef num_put<_CharT, ostreambuf_iterator<_CharT, _Traits> >
  89:/usr/include/c++/10/bits/basic_ios.h **** 						     __num_put_type;
  90:/usr/include/c++/10/bits/basic_ios.h ****       typedef num_get<_CharT, istreambuf_iterator<_CharT, _Traits> >
  91:/usr/include/c++/10/bits/basic_ios.h **** 						     __num_get_type;
  92:/usr/include/c++/10/bits/basic_ios.h ****       //@}
  93:/usr/include/c++/10/bits/basic_ios.h **** 
  94:/usr/include/c++/10/bits/basic_ios.h ****       // Data members:
  95:/usr/include/c++/10/bits/basic_ios.h ****     protected:
  96:/usr/include/c++/10/bits/basic_ios.h ****       basic_ostream<_CharT, _Traits>*                _M_tie;
  97:/usr/include/c++/10/bits/basic_ios.h ****       mutable char_type                              _M_fill;
  98:/usr/include/c++/10/bits/basic_ios.h ****       mutable bool                                   _M_fill_init;
  99:/usr/include/c++/10/bits/basic_ios.h ****       basic_streambuf<_CharT, _Traits>*              _M_streambuf;
 100:/usr/include/c++/10/bits/basic_ios.h **** 
 101:/usr/include/c++/10/bits/basic_ios.h ****       // Cached use_facet<ctype>, which is based on the current locale info.
 102:/usr/include/c++/10/bits/basic_ios.h ****       const __ctype_type*                            _M_ctype;
 103:/usr/include/c++/10/bits/basic_ios.h ****       // For ostream.
 104:/usr/include/c++/10/bits/basic_ios.h ****       const __num_put_type*                          _M_num_put;
 105:/usr/include/c++/10/bits/basic_ios.h ****       // For istream.
 106:/usr/include/c++/10/bits/basic_ios.h ****       const __num_get_type*                          _M_num_get;
 107:/usr/include/c++/10/bits/basic_ios.h **** 
 108:/usr/include/c++/10/bits/basic_ios.h ****     public:
 109:/usr/include/c++/10/bits/basic_ios.h ****       //@{
 110:/usr/include/c++/10/bits/basic_ios.h ****       /**
 111:/usr/include/c++/10/bits/basic_ios.h ****        *  @brief  The quick-and-easy status check.
 112:/usr/include/c++/10/bits/basic_ios.h ****        *
 113:/usr/include/c++/10/bits/basic_ios.h ****        *  This allows you to write constructs such as
 114:/usr/include/c++/10/bits/basic_ios.h ****        *  <code>if (!a_stream) ...</code> and <code>while (a_stream) ...</code>
 115:/usr/include/c++/10/bits/basic_ios.h ****       */
 116:/usr/include/c++/10/bits/basic_ios.h **** #if __cplusplus >= 201103L
 117:/usr/include/c++/10/bits/basic_ios.h ****       explicit operator bool() const
 118:/usr/include/c++/10/bits/basic_ios.h ****       { return !this->fail(); }
 119:/usr/include/c++/10/bits/basic_ios.h **** #else
 120:/usr/include/c++/10/bits/basic_ios.h ****       operator void*() const
 121:/usr/include/c++/10/bits/basic_ios.h ****       { return this->fail() ? 0 : const_cast<basic_ios*>(this); }
 122:/usr/include/c++/10/bits/basic_ios.h **** #endif
 123:/usr/include/c++/10/bits/basic_ios.h **** 
 124:/usr/include/c++/10/bits/basic_ios.h ****       bool
 125:/usr/include/c++/10/bits/basic_ios.h ****       operator!() const
 126:/usr/include/c++/10/bits/basic_ios.h ****       { return this->fail(); }
 127:/usr/include/c++/10/bits/basic_ios.h ****       //@}
 128:/usr/include/c++/10/bits/basic_ios.h **** 
 129:/usr/include/c++/10/bits/basic_ios.h ****       /**
 130:/usr/include/c++/10/bits/basic_ios.h ****        *  @brief  Returns the error state of the stream buffer.
 131:/usr/include/c++/10/bits/basic_ios.h ****        *  @return  A bit pattern (well, isn't everything?)
 132:/usr/include/c++/10/bits/basic_ios.h ****        *
 133:/usr/include/c++/10/bits/basic_ios.h ****        *  See std::ios_base::iostate for the possible bit values.  Most
 134:/usr/include/c++/10/bits/basic_ios.h ****        *  users will call one of the interpreting wrappers, e.g., good().
 135:/usr/include/c++/10/bits/basic_ios.h ****       */
 136:/usr/include/c++/10/bits/basic_ios.h ****       iostate
 137:/usr/include/c++/10/bits/basic_ios.h ****       rdstate() const
 138:/usr/include/c++/10/bits/basic_ios.h ****       { return _M_streambuf_state; }
AARCH64 GAS  obj/Chapter12_3.s 			page 47


 139:/usr/include/c++/10/bits/basic_ios.h **** 
 140:/usr/include/c++/10/bits/basic_ios.h ****       /**
 141:/usr/include/c++/10/bits/basic_ios.h ****        *  @brief  [Re]sets the error state.
 142:/usr/include/c++/10/bits/basic_ios.h ****        *  @param  __state  The new state flag(s) to set.
 143:/usr/include/c++/10/bits/basic_ios.h ****        *
 144:/usr/include/c++/10/bits/basic_ios.h ****        *  See std::ios_base::iostate for the possible bit values.  Most
 145:/usr/include/c++/10/bits/basic_ios.h ****        *  users will not need to pass an argument.
 146:/usr/include/c++/10/bits/basic_ios.h ****       */
 147:/usr/include/c++/10/bits/basic_ios.h ****       void
 148:/usr/include/c++/10/bits/basic_ios.h ****       clear(iostate __state = goodbit);
 149:/usr/include/c++/10/bits/basic_ios.h **** 
 150:/usr/include/c++/10/bits/basic_ios.h ****       /**
 151:/usr/include/c++/10/bits/basic_ios.h ****        *  @brief  Sets additional flags in the error state.
 152:/usr/include/c++/10/bits/basic_ios.h ****        *  @param  __state  The additional state flag(s) to set.
 153:/usr/include/c++/10/bits/basic_ios.h ****        *
 154:/usr/include/c++/10/bits/basic_ios.h ****        *  See std::ios_base::iostate for the possible bit values.
 155:/usr/include/c++/10/bits/basic_ios.h ****       */
 156:/usr/include/c++/10/bits/basic_ios.h ****       void
 157:/usr/include/c++/10/bits/basic_ios.h ****       setstate(iostate __state)
 464              		.loc 5 157 7 is_stmt 1 view .LVU106
 465              	.LBB175:
 466              	.LBB176:
 467              	.LBI176:
 137:/usr/include/c++/10/bits/basic_ios.h ****       { return _M_streambuf_state; }
 468              		.loc 5 137 7 view .LVU107
 137:/usr/include/c++/10/bits/basic_ios.h ****       { return _M_streambuf_state; }
 469              		.loc 5 137 7 is_stmt 0 view .LVU108
 470              	.LBE176:
 471              	.LBB177:
 472              	.LBI177:
 169:/usr/include/c++/10/bits/ios_base.h ****   { return _Ios_Iostate(static_cast<int>(__a) | static_cast<int>(__b)); }
 473              		.loc 4 169 3 is_stmt 1 view .LVU109
 474              	.LBB178:
 170:/usr/include/c++/10/bits/ios_base.h **** 
 475              		.loc 4 170 5 view .LVU110
 170:/usr/include/c++/10/bits/ios_base.h **** 
 476              		.loc 4 170 70 is_stmt 0 view .LVU111
 477 01b4 012040B9 		ldr	w1, [x0, 32]
 478              	.LBE178:
 479              	.LBE177:
 158:/usr/include/c++/10/bits/basic_ios.h ****       { this->clear(this->rdstate() | __state); }
 480              		.loc 5 158 20 view .LVU112
 481 01b8 21000032 		orr	w1, w1, 1
 482 01bc 00000094 		bl	_ZNSt9basic_iosIcSt11char_traitsIcEE5clearESt12_Ios_Iostate
 483              	.LVL34:
 484              		.loc 5 158 20 view .LVU113
 485 01c0 A4FFFF17 		b	.L3
 486              	.LBE175:
 487              	.LBE174:
 488              	.LBE173:
 489              	.LBE172:
 490              	.LBE179:
 491              	.LBE237:
 492              		.cfi_endproc
 493              	.LFE1832:
 494              		.size	_Z11printResultIiEvPKcT_S2_S2_S2_b, .-_Z11printResultIiEvPKcT_S2_S2_S2_b
 495              		.section	.text._Z11printResultIlEvPKcT_S2_S2_S2_b,"axG",@progbits,_Z11printResultIlEvPKcT_S2_S2_S2
AARCH64 GAS  obj/Chapter12_3.s 			page 48


 496              		.align	2
 497              		.p2align 4,,11
 498              		.weak	_Z11printResultIlEvPKcT_S2_S2_S2_b
 499              		.type	_Z11printResultIlEvPKcT_S2_S2_S2_b, %function
 500              	_Z11printResultIlEvPKcT_S2_S2_S2_b:
 501              	.LVL35:
 502              	.LFB1833:
  10:Chapter12_3.cpp **** {
 503              		.loc 1 10 6 is_stmt 1 view -0
 504              		.cfi_startproc
  10:Chapter12_3.cpp **** {
 505              		.loc 1 10 6 is_stmt 0 view .LVU115
 506 0000 FD7BB9A9 		stp	x29, x30, [sp, -112]!
 507              		.cfi_def_cfa_offset 112
 508              		.cfi_offset 29, -112
 509              		.cfi_offset 30, -104
 510 0004 FD030091 		mov	x29, sp
 511 0008 F35301A9 		stp	x19, x20, [sp, 16]
 512 000c F55B02A9 		stp	x21, x22, [sp, 32]
 513              		.cfi_offset 19, -96
 514              		.cfi_offset 20, -88
 515              		.cfi_offset 21, -80
 516              		.cfi_offset 22, -72
 517 0010 F60303AA 		mov	x22, x3
 518 0014 F50304AA 		mov	x21, x4
 519 0018 F76303A9 		stp	x23, x24, [sp, 48]
 520              		.cfi_offset 23, -64
 521              		.cfi_offset 24, -56
 522 001c F70302AA 		mov	x23, x2
 523 0020 B81C0012 		and	w24, w5, 255
 524              	.LVL36:
 525              	.LBB304:
 526              	.LBI304:
 606:/usr/include/c++/10/ostream ****     {
 527              		.loc 2 606 5 is_stmt 1 view .LVU116
 528              	.LBE304:
  10:Chapter12_3.cpp **** {
 529              		.loc 1 10 6 is_stmt 0 view .LVU117
 530 0024 F96B04A9 		stp	x25, x26, [sp, 64]
 531              		.cfi_offset 25, -48
 532              		.cfi_offset 26, -40
 533 0028 FA0301AA 		mov	x26, x1
 534 002c FB2B00F9 		str	x27, [sp, 80]
 535              		.cfi_offset 27, -32
 536              	.LBB316:
 537              	.LBB305:
 608:/usr/include/c++/10/ostream **** 	__out.setstate(ios_base::badbit);
 538              		.loc 2 608 7 view .LVU118
 539 0030 800B00B4 		cbz	x0, .L11
 540              		.loc 2 611 18 view .LVU119
 541 0034 13000090 		adrp	x19, :got:_ZSt4cout
 542 0038 F40300AA 		mov	x20, x0
 543              	.LVL37:
 544              	.LBB306:
 545              	.LBI306:
 358:/usr/include/c++/10/bits/char_traits.h ****       {
 546              		.loc 3 358 7 is_stmt 1 view .LVU120
AARCH64 GAS  obj/Chapter12_3.s 			page 49


 547              	.LBB307:
 548              		.loc 3 364 2 view .LVU121
 549              		.loc 3 364 25 is_stmt 0 view .LVU122
 550 003c 00000094 		bl	strlen
 551              	.LVL38:
 552              		.loc 3 364 25 view .LVU123
 553 0040 E20300AA 		mov	x2, x0
 554              	.LBE307:
 555              	.LBE306:
 556              		.loc 2 611 18 view .LVU124
 557 0044 600240F9 		ldr	x0, [x19, #:got_lo12:_ZSt4cout]
 558 0048 E10314AA 		mov	x1, x20
 559 004c 00000094 		bl	_ZSt16__ostream_insertIcSt11char_traitsIcEERSt13basic_ostreamIT_T0_ES6_PKS3_l
 560              	.LVL39:
 561              	.L9:
 562              		.loc 2 611 18 view .LVU125
 563              	.LBE305:
 564              	.LBE316:
 565              	.LBB317:
 566              	.LBB318:
 518:/usr/include/c++/10/ostream **** 
 567              		.loc 2 518 30 view .LVU126
 568 0050 730240F9 		ldr	x19, [x19, #:got_lo12:_ZSt4cout]
 569 0054 F9BF0191 		add	x25, sp, 111
 570 0058 5B018052 		mov	w27, 10
 571 005c E10319AA 		mov	x1, x25
 572 0060 E00313AA 		mov	x0, x19
 573 0064 220080D2 		mov	x2, 1
 574 0068 FBBF0139 		strb	w27, [sp, 111]
 575              	.LVL40:
 518:/usr/include/c++/10/ostream **** 
 576              		.loc 2 518 30 view .LVU127
 577              	.LBE318:
 578              	.LBI317:
 517:/usr/include/c++/10/ostream ****     { return __ostream_insert(__out, &__c, 1); }
 579              		.loc 2 517 5 is_stmt 1 view .LVU128
 580              	.LBB319:
 518:/usr/include/c++/10/ostream **** 
 581              		.loc 2 518 30 is_stmt 0 view .LVU129
 582 006c 00000094 		bl	_ZSt16__ostream_insertIcSt11char_traitsIcEERSt13basic_ostreamIT_T0_ES6_PKS3_l
 583              	.LVL41:
 518:/usr/include/c++/10/ostream **** 
 584              		.loc 2 518 30 view .LVU130
 585              	.LBE319:
 586              	.LBE317:
 587              	.LBB320:
 588              	.LBI320:
 606:/usr/include/c++/10/ostream ****     {
 589              		.loc 2 606 5 is_stmt 1 view .LVU131
 606:/usr/include/c++/10/ostream ****     {
 590              		.loc 2 606 5 is_stmt 0 view .LVU132
 591              	.LBE320:
 592              		.loc 3 364 2 is_stmt 1 view .LVU133
 593              	.LBB322:
 594              	.LBB321:
 595              		.loc 2 611 18 is_stmt 0 view .LVU134
 596 0070 620080D2 		mov	x2, 3
AARCH64 GAS  obj/Chapter12_3.s 			page 50


 597 0074 E00313AA 		mov	x0, x19
 598 0078 01000090 		adrp	x1, .LC0
 599 007c 21000091 		add	x1, x1, :lo12:.LC0
 600 0080 00000094 		bl	_ZSt16__ostream_insertIcSt11char_traitsIcEERSt13basic_ostreamIT_T0_ES6_PKS3_l
 601              	.LVL42:
 602              		.loc 2 611 18 view .LVU135
 603              	.LBE321:
 604              	.LBE322:
 605              	.LBB323:
 606              	.LBI323:
 166:/usr/include/c++/10/ostream ****       { return _M_insert(__n); }
 607              		.loc 2 166 7 is_stmt 1 view .LVU136
 608              	.LBE323:
 609              	.LBB326:
 610              	.LBB327:
 611              		.loc 2 611 18 is_stmt 0 view .LVU137
 612 0084 14000090 		adrp	x20, .LC1
 613              	.LBE327:
 614              	.LBE326:
 615              	.LBB330:
 616              	.LBB324:
 167:/usr/include/c++/10/ostream **** 
 617              		.loc 2 167 25 view .LVU138
 618 0088 E1031AAA 		mov	x1, x26
 619              	.LBE324:
 620              	.LBE330:
 621              	.LBB331:
 622              	.LBB328:
 623              		.loc 2 611 18 view .LVU139
 624 008c 94020091 		add	x20, x20, :lo12:.LC1
 625              	.LBE328:
 626              	.LBE331:
 627              	.LBB332:
 628              	.LBB325:
 167:/usr/include/c++/10/ostream **** 
 629              		.loc 2 167 25 view .LVU140
 630 0090 E00313AA 		mov	x0, x19
 631 0094 00000094 		bl	_ZNSo9_M_insertIlEERSoT_
 632              	.LVL43:
 167:/usr/include/c++/10/ostream **** 
 633              		.loc 2 167 25 view .LVU141
 634              	.LBE325:
 635              	.LBE332:
 636              	.LBB333:
 637              	.LBI326:
 606:/usr/include/c++/10/ostream ****     {
 638              		.loc 2 606 5 is_stmt 1 view .LVU142
 606:/usr/include/c++/10/ostream ****     {
 639              		.loc 2 606 5 is_stmt 0 view .LVU143
 640              	.LBE333:
 641              		.loc 3 364 2 is_stmt 1 view .LVU144
 642              	.LBB334:
 643              	.LBB329:
 644              		.loc 2 611 18 is_stmt 0 view .LVU145
 645 0098 E10314AA 		mov	x1, x20
 646 009c 620080D2 		mov	x2, 3
 647 00a0 00000094 		bl	_ZSt16__ostream_insertIcSt11char_traitsIcEERSt13basic_ostreamIT_T0_ES6_PKS3_l
AARCH64 GAS  obj/Chapter12_3.s 			page 51


 648              	.LVL44:
 649              		.loc 2 611 18 view .LVU146
 650              	.LBE329:
 651              	.LBE334:
 652              	.LBB335:
 653              	.LBI335:
 606:/usr/include/c++/10/ostream ****     {
 654              		.loc 2 606 5 is_stmt 1 view .LVU147
 606:/usr/include/c++/10/ostream ****     {
 655              		.loc 2 606 5 is_stmt 0 view .LVU148
 656              	.LBE335:
 657              		.loc 3 364 2 is_stmt 1 view .LVU149
 658              	.LBB337:
 659              	.LBB336:
 660              		.loc 2 611 18 is_stmt 0 view .LVU150
 661 00a4 620080D2 		mov	x2, 3
 662 00a8 E00313AA 		mov	x0, x19
 663 00ac 01000090 		adrp	x1, .LC2
 664 00b0 21000091 		add	x1, x1, :lo12:.LC2
 665 00b4 00000094 		bl	_ZSt16__ostream_insertIcSt11char_traitsIcEERSt13basic_ostreamIT_T0_ES6_PKS3_l
 666              	.LVL45:
 667              		.loc 2 611 18 view .LVU151
 668              	.LBE336:
 669              	.LBE337:
 670              	.LBB338:
 671              	.LBI338:
 166:/usr/include/c++/10/ostream ****       { return _M_insert(__n); }
 672              		.loc 2 166 7 is_stmt 1 view .LVU152
 673              	.LBB339:
 167:/usr/include/c++/10/ostream **** 
 674              		.loc 2 167 25 is_stmt 0 view .LVU153
 675 00b8 E10317AA 		mov	x1, x23
 676 00bc E00313AA 		mov	x0, x19
 677 00c0 00000094 		bl	_ZNSo9_M_insertIlEERSoT_
 678              	.LVL46:
 167:/usr/include/c++/10/ostream **** 
 679              		.loc 2 167 25 view .LVU154
 680              	.LBE339:
 681              	.LBE338:
 682              	.LBB340:
 683              	.LBI340:
 606:/usr/include/c++/10/ostream ****     {
 684              		.loc 2 606 5 is_stmt 1 view .LVU155
 606:/usr/include/c++/10/ostream ****     {
 685              		.loc 2 606 5 is_stmt 0 view .LVU156
 686              	.LBE340:
 687              		.loc 3 364 2 is_stmt 1 view .LVU157
 688              	.LBB342:
 689              	.LBB341:
 690              		.loc 2 611 18 is_stmt 0 view .LVU158
 691 00c4 E10314AA 		mov	x1, x20
 692 00c8 620080D2 		mov	x2, 3
 693 00cc 00000094 		bl	_ZSt16__ostream_insertIcSt11char_traitsIcEERSt13basic_ostreamIT_T0_ES6_PKS3_l
 694              	.LVL47:
 695              		.loc 2 611 18 view .LVU159
 696              	.LBE341:
 697              	.LBE342:
AARCH64 GAS  obj/Chapter12_3.s 			page 52


 698              	.LBB343:
 699              	.LBI343:
 606:/usr/include/c++/10/ostream ****     {
 700              		.loc 2 606 5 is_stmt 1 view .LVU160
 606:/usr/include/c++/10/ostream ****     {
 701              		.loc 2 606 5 is_stmt 0 view .LVU161
 702              	.LBE343:
 703              		.loc 3 364 2 is_stmt 1 view .LVU162
 704              	.LBB345:
 705              	.LBB344:
 706              		.loc 2 611 18 is_stmt 0 view .LVU163
 707 00d0 620080D2 		mov	x2, 3
 708 00d4 E00313AA 		mov	x0, x19
 709 00d8 01000090 		adrp	x1, .LC3
 710 00dc 21000091 		add	x1, x1, :lo12:.LC3
 711 00e0 00000094 		bl	_ZSt16__ostream_insertIcSt11char_traitsIcEERSt13basic_ostreamIT_T0_ES6_PKS3_l
 712              	.LVL48:
 713              		.loc 2 611 18 view .LVU164
 714              	.LBE344:
 715              	.LBE345:
 716              	.LBB346:
 717              	.LBI346:
 166:/usr/include/c++/10/ostream ****       { return _M_insert(__n); }
 718              		.loc 2 166 7 is_stmt 1 view .LVU165
 719              	.LBB347:
 167:/usr/include/c++/10/ostream **** 
 720              		.loc 2 167 25 is_stmt 0 view .LVU166
 721 00e4 E10316AA 		mov	x1, x22
 722 00e8 E00313AA 		mov	x0, x19
 723 00ec 00000094 		bl	_ZNSo9_M_insertIlEERSoT_
 724              	.LVL49:
 167:/usr/include/c++/10/ostream **** 
 725              		.loc 2 167 25 view .LVU167
 726              	.LBE347:
 727              	.LBE346:
 728              	.LBB348:
 729              	.LBI348:
 606:/usr/include/c++/10/ostream ****     {
 730              		.loc 2 606 5 is_stmt 1 view .LVU168
 606:/usr/include/c++/10/ostream ****     {
 731              		.loc 2 606 5 is_stmt 0 view .LVU169
 732              	.LBE348:
 733              		.loc 3 364 2 is_stmt 1 view .LVU170
 734              	.LBB350:
 735              	.LBB349:
 736              		.loc 2 611 18 is_stmt 0 view .LVU171
 737 00f0 E10314AA 		mov	x1, x20
 738 00f4 620080D2 		mov	x2, 3
 739 00f8 00000094 		bl	_ZSt16__ostream_insertIcSt11char_traitsIcEERSt13basic_ostreamIT_T0_ES6_PKS3_l
 740              	.LVL50:
 741              		.loc 2 611 18 view .LVU172
 742              	.LBE349:
 743              	.LBE350:
 744              	.LBB351:
 745              	.LBI351:
 606:/usr/include/c++/10/ostream ****     {
 746              		.loc 2 606 5 is_stmt 1 view .LVU173
AARCH64 GAS  obj/Chapter12_3.s 			page 53


 606:/usr/include/c++/10/ostream ****     {
 747              		.loc 2 606 5 is_stmt 0 view .LVU174
 748              	.LBE351:
 749              		.loc 3 364 2 is_stmt 1 view .LVU175
 750              	.LBB353:
 751              	.LBB352:
 752              		.loc 2 611 18 is_stmt 0 view .LVU176
 753 00fc A20080D2 		mov	x2, 5
 754 0100 E00313AA 		mov	x0, x19
 755 0104 01000090 		adrp	x1, .LC4
 756 0108 21000091 		add	x1, x1, :lo12:.LC4
 757 010c 00000094 		bl	_ZSt16__ostream_insertIcSt11char_traitsIcEERSt13basic_ostreamIT_T0_ES6_PKS3_l
 758              	.LVL51:
 759              		.loc 2 611 18 view .LVU177
 760              	.LBE352:
 761              	.LBE353:
 762              	.LBB354:
 763              	.LBI354:
 166:/usr/include/c++/10/ostream ****       { return _M_insert(__n); }
 764              		.loc 2 166 7 is_stmt 1 view .LVU178
 765              	.LBB355:
 167:/usr/include/c++/10/ostream **** 
 766              		.loc 2 167 25 is_stmt 0 view .LVU179
 767 0110 E10315AA 		mov	x1, x21
 768 0114 E00313AA 		mov	x0, x19
 769 0118 00000094 		bl	_ZNSo9_M_insertIlEERSoT_
 770              	.LVL52:
 167:/usr/include/c++/10/ostream **** 
 771              		.loc 2 167 25 view .LVU180
 772              	.LBE355:
 773              	.LBE354:
 774              	.LBB356:
 775              	.LBI356:
 606:/usr/include/c++/10/ostream ****     {
 776              		.loc 2 606 5 is_stmt 1 view .LVU181
 606:/usr/include/c++/10/ostream ****     {
 777              		.loc 2 606 5 is_stmt 0 view .LVU182
 778              	.LBE356:
 779              		.loc 3 364 2 is_stmt 1 view .LVU183
 780              	.LBB358:
 781              	.LBB357:
 782              		.loc 2 611 18 is_stmt 0 view .LVU184
 783 011c E10314AA 		mov	x1, x20
 784 0120 620080D2 		mov	x2, 3
 785 0124 00000094 		bl	_ZSt16__ostream_insertIcSt11char_traitsIcEERSt13basic_ostreamIT_T0_ES6_PKS3_l
 786              	.LVL53:
 787              		.loc 2 611 18 view .LVU185
 788              	.LBE357:
 789              	.LBE358:
 790              	.LBB359:
 791              	.LBI359:
 606:/usr/include/c++/10/ostream ****     {
 792              		.loc 2 606 5 is_stmt 1 view .LVU186
 606:/usr/include/c++/10/ostream ****     {
 793              		.loc 2 606 5 is_stmt 0 view .LVU187
 794              	.LBE359:
 795              		.loc 3 364 2 is_stmt 1 view .LVU188
AARCH64 GAS  obj/Chapter12_3.s 			page 54


 796              	.LBB361:
 797              	.LBB360:
 798              		.loc 2 611 18 is_stmt 0 view .LVU189
 799 0128 E00313AA 		mov	x0, x19
 800 012c 020180D2 		mov	x2, 8
 801 0130 01000090 		adrp	x1, .LC5
 802 0134 21000091 		add	x1, x1, :lo12:.LC5
 803 0138 00000094 		bl	_ZSt16__ostream_insertIcSt11char_traitsIcEERSt13basic_ostreamIT_T0_ES6_PKS3_l
 804              	.LVL54:
 805              		.loc 2 611 18 view .LVU190
 806              	.LBE360:
 807              	.LBE361:
 808              	.LBB362:
 809              	.LBI362:
 127:/usr/include/c++/10/ostream ****       {
 810              		.loc 2 127 7 is_stmt 1 view .LVU191
 811              	.LBB363:
 132:/usr/include/c++/10/ostream **** 	return *this;
 812              		.loc 2 132 6 is_stmt 0 view .LVU192
 813 013c 620240F9 		ldr	x2, [x19]
 814              	.LBE363:
 815              	.LBE362:
 816              	.LBB374:
 817              	.LBB375:
 175:/usr/include/c++/10/ostream **** 
 818              		.loc 2 175 25 view .LVU193
 819 0140 E103182A 		mov	w1, w24
 820 0144 E00313AA 		mov	x0, x19
 821              	.LBE375:
 822              	.LBE374:
 823              	.LBB377:
 824              	.LBB372:
 132:/usr/include/c++/10/ostream **** 	return *this;
 825              		.loc 2 132 6 view .LVU194
 826 0148 42805EF8 		ldr	x2, [x2, -24]
 827 014c 4200138B 		add	x2, x2, x19
 828              	.LVL55:
 829              	.LBB364:
 830              	.LBI364:
 908:/usr/include/c++/10/bits/ios_base.h ****   {
 831              		.loc 4 908 3 is_stmt 1 view .LVU195
 832              	.LBE364:
 833              	.LBE372:
 834              	.LBE377:
 910:/usr/include/c++/10/bits/ios_base.h ****     return __base;
 835              		.loc 4 910 5 view .LVU196
 836              	.LBB378:
 837              	.LBB373:
 838              	.LBB371:
 839              	.LBB365:
 840              	.LBI365:
 676:/usr/include/c++/10/bits/ios_base.h ****     {
 841              		.loc 4 676 5 view .LVU197
 842              	.LBB366:
 678:/usr/include/c++/10/bits/ios_base.h ****       _M_flags |= __fmtfl;
 843              		.loc 4 678 7 view .LVU198
 679:/usr/include/c++/10/bits/ios_base.h ****       return __old;
AARCH64 GAS  obj/Chapter12_3.s 			page 55


 844              		.loc 4 679 7 view .LVU199
 845              	.LBB367:
 846              	.LBI367:
  99:/usr/include/c++/10/bits/ios_base.h ****   { return __a = __a | __b; }
 847              		.loc 4 99 3 view .LVU200
 848              	.LBB368:
 100:/usr/include/c++/10/bits/ios_base.h **** 
 849              		.loc 4 100 5 view .LVU201
 850              	.LBB369:
 851              	.LBI369:
  87:/usr/include/c++/10/bits/ios_base.h ****   { return _Ios_Fmtflags(static_cast<int>(__a) | static_cast<int>(__b)); }
 852              		.loc 4 87 3 view .LVU202
 853              	.LBB370:
  88:/usr/include/c++/10/bits/ios_base.h **** 
 854              		.loc 4 88 5 view .LVU203
  88:/usr/include/c++/10/bits/ios_base.h **** 
 855              		.loc 4 88 71 is_stmt 0 view .LVU204
 856 0150 431840B9 		ldr	w3, [x2, 24]
 857 0154 63000032 		orr	w3, w3, 1
 858              	.LBE370:
 859              	.LBE369:
 100:/usr/include/c++/10/bits/ios_base.h **** 
 860              		.loc 4 100 16 view .LVU205
 861 0158 431800B9 		str	w3, [x2, 24]
 862              	.LVL56:
 100:/usr/include/c++/10/bits/ios_base.h **** 
 863              		.loc 4 100 16 view .LVU206
 864              	.LBE368:
 865              	.LBE367:
 680:/usr/include/c++/10/bits/ios_base.h ****     }
 866              		.loc 4 680 7 is_stmt 1 view .LVU207
 680:/usr/include/c++/10/bits/ios_base.h ****     }
 867              		.loc 4 680 7 is_stmt 0 view .LVU208
 868              	.LBE366:
 869              	.LBE365:
 870              	.LBE371:
 871              	.LBE373:
 872              	.LBE378:
 873              		.loc 4 911 5 is_stmt 1 view .LVU209
 874              	.LBB379:
 875              	.LBI374:
 174:/usr/include/c++/10/ostream ****       { return _M_insert(__n); }
 876              		.loc 2 174 7 view .LVU210
 877              	.LBB376:
 175:/usr/include/c++/10/ostream **** 
 878              		.loc 2 175 25 is_stmt 0 view .LVU211
 879 015c 00000094 		bl	_ZNSo9_M_insertIbEERSoT_
 880              	.LVL57:
 175:/usr/include/c++/10/ostream **** 
 881              		.loc 2 175 25 view .LVU212
 882 0160 FBBF0139 		strb	w27, [sp, 111]
 883              	.LVL58:
 175:/usr/include/c++/10/ostream **** 
 884              		.loc 2 175 25 view .LVU213
 885              	.LBE376:
 886              	.LBE379:
 887              	.LBB380:
AARCH64 GAS  obj/Chapter12_3.s 			page 56


 888              	.LBI380:
 517:/usr/include/c++/10/ostream ****     { return __ostream_insert(__out, &__c, 1); }
 889              		.loc 2 517 5 is_stmt 1 view .LVU214
 890              	.LBB381:
 518:/usr/include/c++/10/ostream **** 
 891              		.loc 2 518 30 is_stmt 0 view .LVU215
 892 0164 E10319AA 		mov	x1, x25
 893 0168 220080D2 		mov	x2, 1
 894 016c 00000094 		bl	_ZSt16__ostream_insertIcSt11char_traitsIcEERSt13basic_ostreamIT_T0_ES6_PKS3_l
 895              	.LVL59:
 518:/usr/include/c++/10/ostream **** 
 896              		.loc 2 518 30 view .LVU216
 897 0170 FBBF0139 		strb	w27, [sp, 111]
 898              	.LVL60:
 518:/usr/include/c++/10/ostream **** 
 899              		.loc 2 518 30 view .LVU217
 900              	.LBE381:
 901              	.LBE380:
 902              	.LBB382:
 903              	.LBI382:
 517:/usr/include/c++/10/ostream ****     { return __ostream_insert(__out, &__c, 1); }
 904              		.loc 2 517 5 is_stmt 1 view .LVU218
 905              	.LBB383:
 518:/usr/include/c++/10/ostream **** 
 906              		.loc 2 518 30 is_stmt 0 view .LVU219
 907 0174 E10319AA 		mov	x1, x25
 908 0178 E00313AA 		mov	x0, x19
 909 017c 220080D2 		mov	x2, 1
 910 0180 00000094 		bl	_ZSt16__ostream_insertIcSt11char_traitsIcEERSt13basic_ostreamIT_T0_ES6_PKS3_l
 911              	.LVL61:
 518:/usr/include/c++/10/ostream **** 
 912              		.loc 2 518 30 view .LVU220
 913              	.LBE383:
 914              	.LBE382:
 915              		.loc 1 21 1 view .LVU221
 916 0184 F35341A9 		ldp	x19, x20, [sp, 16]
 917 0188 F55B42A9 		ldp	x21, x22, [sp, 32]
 918              	.LVL62:
 919              		.loc 1 21 1 view .LVU222
 920 018c F76343A9 		ldp	x23, x24, [sp, 48]
 921              	.LVL63:
 922              		.loc 1 21 1 view .LVU223
 923 0190 F96B44A9 		ldp	x25, x26, [sp, 64]
 924              	.LVL64:
 925              		.loc 1 21 1 view .LVU224
 926 0194 FB2B40F9 		ldr	x27, [sp, 80]
 927 0198 FD7BC7A8 		ldp	x29, x30, [sp], 112
 928              		.cfi_remember_state
 929              		.cfi_restore 30
 930              		.cfi_restore 29
 931              		.cfi_restore 27
 932              		.cfi_restore 25
 933              		.cfi_restore 26
 934              		.cfi_restore 23
 935              		.cfi_restore 24
 936              		.cfi_restore 21
 937              		.cfi_restore 22
AARCH64 GAS  obj/Chapter12_3.s 			page 57


 938              		.cfi_restore 19
 939              		.cfi_restore 20
 940              		.cfi_def_cfa_offset 0
 941 019c C0035FD6 		ret
 942              	.LVL65:
 943              		.p2align 2,,3
 944              	.L11:
 945              		.cfi_restore_state
 946              	.LBB384:
 947              	.LBB315:
 948              	.LBB308:
 949              	.LBI308:
 606:/usr/include/c++/10/ostream ****     {
 950              		.loc 2 606 5 is_stmt 1 view .LVU225
 951              	.LBB309:
 609:/usr/include/c++/10/ostream ****       else
 952              		.loc 2 609 16 is_stmt 0 view .LVU226
 953 01a0 13000090 		adrp	x19, :got:_ZSt4cout
 954 01a4 610240F9 		ldr	x1, [x19, #:got_lo12:_ZSt4cout]
 955              	.LVL66:
 609:/usr/include/c++/10/ostream ****       else
 956              		.loc 2 609 16 view .LVU227
 957 01a8 200040F9 		ldr	x0, [x1]
 958              	.LVL67:
 609:/usr/include/c++/10/ostream ****       else
 959              		.loc 2 609 16 view .LVU228
 960 01ac 00805EF8 		ldr	x0, [x0, -24]
 961 01b0 0000018B 		add	x0, x0, x1
 962              	.LVL68:
 963              	.LBB310:
 964              	.LBI310:
 157:/usr/include/c++/10/bits/basic_ios.h ****       { this->clear(this->rdstate() | __state); }
 965              		.loc 5 157 7 is_stmt 1 view .LVU229
 966              	.LBB311:
 967              	.LBB312:
 968              	.LBI312:
 137:/usr/include/c++/10/bits/basic_ios.h ****       { return _M_streambuf_state; }
 969              		.loc 5 137 7 view .LVU230
 137:/usr/include/c++/10/bits/basic_ios.h ****       { return _M_streambuf_state; }
 970              		.loc 5 137 7 is_stmt 0 view .LVU231
 971              	.LBE312:
 972              	.LBB313:
 973              	.LBI313:
 169:/usr/include/c++/10/bits/ios_base.h ****   { return _Ios_Iostate(static_cast<int>(__a) | static_cast<int>(__b)); }
 974              		.loc 4 169 3 is_stmt 1 view .LVU232
 975              	.LBB314:
 170:/usr/include/c++/10/bits/ios_base.h **** 
 976              		.loc 4 170 5 view .LVU233
 170:/usr/include/c++/10/bits/ios_base.h **** 
 977              		.loc 4 170 70 is_stmt 0 view .LVU234
 978 01b4 012040B9 		ldr	w1, [x0, 32]
 979              	.LBE314:
 980              	.LBE313:
 981              		.loc 5 158 20 view .LVU235
 982 01b8 21000032 		orr	w1, w1, 1
 983 01bc 00000094 		bl	_ZNSt9basic_iosIcSt11char_traitsIcEE5clearESt12_Ios_Iostate
 984              	.LVL69:
AARCH64 GAS  obj/Chapter12_3.s 			page 58


 985              		.loc 5 158 20 view .LVU236
 986 01c0 A4FFFF17 		b	.L9
 987              	.LBE311:
 988              	.LBE310:
 989              	.LBE309:
 990              	.LBE308:
 991              	.LBE315:
 992              	.LBE384:
 993              		.cfi_endproc
 994              	.LFE1833:
 995              		.size	_Z11printResultIlEvPKcT_S2_S2_S2_b, .-_Z11printResultIlEvPKcT_S2_S2_S2_b
 996              		.section	.rodata.str1.8,"aMS",@progbits,1
 997              		.align	3
 998              	.LC6:
 999 0000 636F6D70 		.string	"compareA_ Test#1"
 999      61726541 
 999      5F205465 
 999      73742331 
 999      00
 1000 0011 00000000 		.align	3
 1000      000000
 1001              	.LC7:
 1002 0018 636F6D70 		.string	"compareA_ Test#2"
 1002      61726541 
 1002      5F205465 
 1002      73742332 
 1002      00
 1003 0029 00000000 		.align	3
 1003      000000
 1004              	.LC8:
 1005 0030 636F6D70 		.string	"compareB_ Test#1"
 1005      61726542 
 1005      5F205465 
 1005      73742331 
 1005      00
 1006 0041 00000000 		.align	3
 1006      000000
 1007              	.LC9:
 1008 0048 636F6D70 		.string	"compareC_ Test#1"
 1008      61726543 
 1008      5F205465 
 1008      73742331 
 1008      00
 1009 0059 00000000 		.align	3
 1009      000000
 1010              	.LC10:
 1011 0060 636F6D70 		.string	"compareC_ Test#2"
 1011      61726543 
 1011      5F205465 
 1011      73742332 
 1011      00
 1012 0071 00000000 		.align	3
 1012      000000
 1013              	.LC11:
 1014 0078 636F6D70 		.string	"compareC_ Test#3"
 1014      61726543 
 1014      5F205465 
AARCH64 GAS  obj/Chapter12_3.s 			page 59


 1014      73742333 
 1014      00
 1015              		.section	.text.startup,"ax",@progbits
 1016              		.align	2
 1017              		.p2align 4,,11
 1018              		.global	main
 1019              		.type	main, %function
 1020              	main:
 1021              	.LVL70:
 1022              	.LFB1588:
  22:Chapter12_3.cpp **** 
  23:Chapter12_3.cpp **** int main(int argc,char** argv)
  24:Chapter12_3.cpp **** {
 1023              		.loc 1 24 1 is_stmt 1 view -0
 1024              		.cfi_startproc
  25:Chapter12_3.cpp **** 	int32_t a1,b1,c1,sum1;
 1025              		.loc 1 25 2 view .LVU238
  26:Chapter12_3.cpp **** 	int64_t a2,b2,c2,sum2;
 1026              		.loc 1 26 2 view .LVU239
  27:Chapter12_3.cpp **** 	bool result;
 1027              		.loc 1 27 2 view .LVU240
  28:Chapter12_3.cpp **** 	
  29:Chapter12_3.cpp **** 	a1 = 10,b1 = 20,c1 = 30;
 1028              		.loc 1 29 2 view .LVU241
  30:Chapter12_3.cpp **** 	result = compareA_(a1,b1,c1,&sum1);
 1029              		.loc 1 30 2 view .LVU242
  24:Chapter12_3.cpp **** 	int32_t a1,b1,c1,sum1;
 1030              		.loc 1 24 1 is_stmt 0 view .LVU243
 1031 0000 FD7BBBA9 		stp	x29, x30, [sp, -80]!
 1032              		.cfi_def_cfa_offset 80
 1033              		.cfi_offset 29, -80
 1034              		.cfi_offset 30, -72
 1035              		.loc 1 30 20 view .LVU244
 1036 0004 C2038052 		mov	w2, 30
 1037 0008 81028052 		mov	w1, 20
 1038              	.LVL71:
  24:Chapter12_3.cpp **** 	int32_t a1,b1,c1,sum1;
 1039              		.loc 1 24 1 view .LVU245
 1040 000c FD030091 		mov	x29, sp
 1041 0010 F35301A9 		stp	x19, x20, [sp, 16]
 1042              		.cfi_offset 19, -64
 1043              		.cfi_offset 20, -56
 1044              		.loc 1 30 20 view .LVU246
 1045 0014 F3130191 		add	x19, sp, 68
 1046 0018 E30313AA 		mov	x3, x19
 1047 001c 40018052 		mov	w0, 10
 1048              	.LVL72:
  24:Chapter12_3.cpp **** 	int32_t a1,b1,c1,sum1;
 1049              		.loc 1 24 1 view .LVU247
 1050 0020 F55B02A9 		stp	x21, x22, [sp, 32]
 1051              		.cfi_offset 21, -48
 1052              		.cfi_offset 22, -40
  31:Chapter12_3.cpp **** 	printResult("compareA_ Test#1",a1,b1,c1,sum1,result);
  32:Chapter12_3.cpp **** 	a1 = 60,b1 = 25,c1 = 35;
  33:Chapter12_3.cpp **** 	result = compareA_(a1,b1,c1,&sum1);
  34:Chapter12_3.cpp **** 	printResult("compareA_ Test#2",a1,b1,c1,sum1,result);
  35:Chapter12_3.cpp **** 	
AARCH64 GAS  obj/Chapter12_3.s 			page 60


  36:Chapter12_3.cpp **** 	a2 = 6456743099,b2 = 2235785,c2 = 39865435;
  37:Chapter12_3.cpp **** 	result = compareB_(a2,b2,c2,&sum2);
 1053              		.loc 1 37 20 view .LVU248
 1054 0024 768B89D2 		mov	x22, 19547
  24:Chapter12_3.cpp **** 	int32_t a1,b1,c1,sum1;
 1055              		.loc 1 24 1 view .LVU249
 1056 0028 F76303A9 		stp	x23, x24, [sp, 48]
 1057              		.cfi_offset 23, -32
 1058              		.cfi_offset 24, -24
  30:Chapter12_3.cpp **** 	printResult("compareA_ Test#1",a1,b1,c1,sum1,result);
 1059              		.loc 1 30 20 view .LVU250
 1060 002c 00000094 		bl	compareA_
 1061              	.LVL73:
  31:Chapter12_3.cpp **** 	printResult("compareA_ Test#1",a1,b1,c1,sum1,result);
 1062              		.loc 1 31 2 is_stmt 1 view .LVU251
  31:Chapter12_3.cpp **** 	printResult("compareA_ Test#1",a1,b1,c1,sum1,result);
 1063              		.loc 1 31 13 is_stmt 0 view .LVU252
 1064 0030 E44740B9 		ldr	w4, [sp, 68]
 1065 0034 E503002A 		mov	w5, w0
 1066 0038 C3038052 		mov	w3, 30
 1067 003c 82028052 		mov	w2, 20
 1068 0040 41018052 		mov	w1, 10
 1069 0044 00000090 		adrp	x0, .LC6
 1070              	.LVL74:
  31:Chapter12_3.cpp **** 	printResult("compareA_ Test#1",a1,b1,c1,sum1,result);
 1071              		.loc 1 31 13 view .LVU253
 1072 0048 00000091 		add	x0, x0, :lo12:.LC6
 1073 004c 00000094 		bl	_Z11printResultIiEvPKcT_S2_S2_S2_b
 1074              	.LVL75:
  32:Chapter12_3.cpp **** 	result = compareA_(a1,b1,c1,&sum1);
 1075              		.loc 1 32 2 is_stmt 1 view .LVU254
  33:Chapter12_3.cpp **** 	printResult("compareA_ Test#2",a1,b1,c1,sum1,result);
 1076              		.loc 1 33 2 view .LVU255
 1077              		.loc 1 37 20 is_stmt 0 view .LVU256
 1078 0050 789782D2 		mov	x24, 5307
  33:Chapter12_3.cpp **** 	printResult("compareA_ Test#2",a1,b1,c1,sum1,result);
 1079              		.loc 1 33 20 view .LVU257
 1080 0054 E30313AA 		mov	x3, x19
 1081 0058 62048052 		mov	w2, 35
 1082 005c 21038052 		mov	w1, 25
 1083 0060 80078052 		mov	w0, 60
 1084 0064 00000094 		bl	compareA_
 1085              	.LVL76:
  34:Chapter12_3.cpp **** 	
 1086              		.loc 1 34 2 is_stmt 1 view .LVU258
  34:Chapter12_3.cpp **** 	
 1087              		.loc 1 34 13 is_stmt 0 view .LVU259
 1088 0068 E503002A 		mov	w5, w0
 1089 006c E44740B9 		ldr	w4, [sp, 68]
 1090              		.loc 1 37 20 view .LVU260
 1091 0070 F7230191 		add	x23, sp, 72
  34:Chapter12_3.cpp **** 	
 1092              		.loc 1 34 13 view .LVU261
 1093 0074 63048052 		mov	w3, 35
 1094 0078 22038052 		mov	w2, 25
 1095 007c 81078052 		mov	w1, 60
 1096              		.loc 1 37 20 view .LVU262
AARCH64 GAS  obj/Chapter12_3.s 			page 61


 1097 0080 35B183D2 		mov	x21, 7561
 1098 0084 581BB0F2 		movk	x24, 0x80da, lsl 16
  34:Chapter12_3.cpp **** 	
 1099              		.loc 1 34 13 view .LVU263
 1100 0088 00000090 		adrp	x0, .LC7
 1101              	.LVL77:
  34:Chapter12_3.cpp **** 	
 1102              		.loc 1 34 13 view .LVU264
 1103 008c 00000091 		add	x0, x0, :lo12:.LC7
 1104 0090 00000094 		bl	_Z11printResultIiEvPKcT_S2_S2_S2_b
 1105              	.LVL78:
  36:Chapter12_3.cpp **** 	result = compareB_(a2,b2,c2,&sum2);
 1106              		.loc 1 36 2 is_stmt 1 view .LVU265
 1107              		.loc 1 37 2 view .LVU266
 1108              		.loc 1 37 20 is_stmt 0 view .LVU267
 1109 0094 164CA0F2 		movk	x22, 0x260, lsl 16
 1110 0098 5504A0F2 		movk	x21, 0x22, lsl 16
 1111 009c E30317AA 		mov	x3, x23
 1112 00a0 E20316AA 		mov	x2, x22
 1113 00a4 E10315AA 		mov	x1, x21
 1114 00a8 3800C0F2 		movk	x24, 0x1, lsl 32
 1115 00ac E00318AA 		mov	x0, x24
 1116 00b0 00000094 		bl	compareB_
 1117              	.LVL79:
  38:Chapter12_3.cpp **** 	printResult("compareB_ Test#1",a2,b2,c2,sum2,result);
 1118              		.loc 1 38 2 is_stmt 1 view .LVU268
 1119              		.loc 1 38 13 is_stmt 0 view .LVU269
 1120 00b4 E42740F9 		ldr	x4, [sp, 72]
 1121 00b8 14000090 		adrp	x20, .LC8
 1122 00bc 94020091 		add	x20, x20, :lo12:.LC8
 1123 00c0 E503002A 		mov	w5, w0
 1124 00c4 E10318AA 		mov	x1, x24
 1125 00c8 E00314AA 		mov	x0, x20
 1126              	.LVL80:
 1127              		.loc 1 38 13 view .LVU270
 1128 00cc E30316AA 		mov	x3, x22
 1129 00d0 E20315AA 		mov	x2, x21
 1130 00d4 00000094 		bl	_Z11printResultIlEvPKcT_S2_S2_S2_b
 1131              	.LVL81:
  39:Chapter12_3.cpp **** 	a2 = -6456743021,b2 = 2235785,c2 = 39865435;
 1132              		.loc 1 39 2 is_stmt 1 view .LVU271
  40:Chapter12_3.cpp **** 	result = compareB_(a2,b2,c2,&sum2);
 1133              		.loc 1 40 2 view .LVU272
 1134              		.loc 1 40 20 is_stmt 0 view .LVU273
 1135 00d8 E30317AA 		mov	x3, x23
 1136 00dc 978D8292 		mov	x23, -5229
 1137 00e0 B7E4AFF2 		movk	x23, 0x7f25, lsl 16
 1138 00e4 E20316AA 		mov	x2, x22
 1139 00e8 E10315AA 		mov	x1, x21
 1140 00ec D7FFDFF2 		movk	x23, 0xfffe, lsl 32
 1141 00f0 E00317AA 		mov	x0, x23
 1142 00f4 00000094 		bl	compareB_
 1143              	.LVL82:
  41:Chapter12_3.cpp **** 	printResult("compareB_ Test#1",a2,b2,c2,sum2,result);
 1144              		.loc 1 41 2 is_stmt 1 view .LVU274
 1145              		.loc 1 41 13 is_stmt 0 view .LVU275
 1146 00f8 E42740F9 		ldr	x4, [sp, 72]
AARCH64 GAS  obj/Chapter12_3.s 			page 62


 1147 00fc E503002A 		mov	w5, w0
 1148 0100 E30316AA 		mov	x3, x22
 1149 0104 E20315AA 		mov	x2, x21
 1150 0108 E10317AA 		mov	x1, x23
 1151 010c E00314AA 		mov	x0, x20
 1152              	.LVL83:
 1153              		.loc 1 41 13 view .LVU276
 1154 0110 00000094 		bl	_Z11printResultIlEvPKcT_S2_S2_S2_b
 1155              	.LVL84:
  42:Chapter12_3.cpp **** 	
  43:Chapter12_3.cpp **** 	a1 = 10,b1 = 20,c1 = 30;
 1156              		.loc 1 43 2 is_stmt 1 view .LVU277
  44:Chapter12_3.cpp **** 	result = compareC_(a1,b1,c1,&sum1);
 1157              		.loc 1 44 2 view .LVU278
  45:Chapter12_3.cpp **** 	printResult("compareC_ Test#1",a1,b1,c1,sum1,result);
  46:Chapter12_3.cpp **** 	a1 = 1073741823,b1 = 1073741800,c1 = 0;
  47:Chapter12_3.cpp **** 	result = compareC_(a1,b1,c1,&sum1);
 1158              		.loc 1 47 20 is_stmt 0 view .LVU279
 1159 0114 14FD9F52 		mov	w20, 65512
  44:Chapter12_3.cpp **** 	result = compareC_(a1,b1,c1,&sum1);
 1160              		.loc 1 44 20 view .LVU280
 1161 0118 E30313AA 		mov	x3, x19
 1162 011c C2038052 		mov	w2, 30
 1163 0120 81028052 		mov	w1, 20
 1164 0124 40018052 		mov	w0, 10
 1165 0128 00000094 		bl	compareC_
 1166              	.LVL85:
  45:Chapter12_3.cpp **** 	printResult("compareC_ Test#1",a1,b1,c1,sum1,result);
 1167              		.loc 1 45 2 is_stmt 1 view .LVU281
  45:Chapter12_3.cpp **** 	printResult("compareC_ Test#1",a1,b1,c1,sum1,result);
 1168              		.loc 1 45 13 is_stmt 0 view .LVU282
 1169 012c E503002A 		mov	w5, w0
 1170 0130 E44740B9 		ldr	w4, [sp, 68]
 1171 0134 C3038052 		mov	w3, 30
 1172 0138 82028052 		mov	w2, 20
 1173 013c 41018052 		mov	w1, 10
 1174 0140 00000090 		adrp	x0, .LC9
 1175              	.LVL86:
  45:Chapter12_3.cpp **** 	printResult("compareC_ Test#1",a1,b1,c1,sum1,result);
 1176              		.loc 1 45 13 view .LVU283
 1177 0144 00000091 		add	x0, x0, :lo12:.LC9
 1178              		.loc 1 47 20 view .LVU284
 1179 0148 F4FFA772 		movk	w20, 0x3fff, lsl 16
  45:Chapter12_3.cpp **** 	printResult("compareC_ Test#1",a1,b1,c1,sum1,result);
 1180              		.loc 1 45 13 view .LVU285
 1181 014c 00000094 		bl	_Z11printResultIiEvPKcT_S2_S2_S2_b
 1182              	.LVL87:
  46:Chapter12_3.cpp **** 	result = compareC_(a1,b1,c1,&sum1);
 1183              		.loc 1 46 2 is_stmt 1 view .LVU286
 1184              		.loc 1 47 2 view .LVU287
 1185              		.loc 1 47 20 is_stmt 0 view .LVU288
 1186 0150 E30313AA 		mov	x3, x19
 1187 0154 E103142A 		mov	w1, w20
 1188 0158 02008052 		mov	w2, 0
 1189 015c 0000B812 		mov	w0, 1073741823
 1190 0160 00000094 		bl	compareC_
 1191              	.LVL88:
AARCH64 GAS  obj/Chapter12_3.s 			page 63


  48:Chapter12_3.cpp **** 	printResult("compareC_ Test#2",a1,b1,c1,sum1,result);
 1192              		.loc 1 48 2 is_stmt 1 view .LVU289
 1193              		.loc 1 48 13 is_stmt 0 view .LVU290
 1194 0164 E503002A 		mov	w5, w0
 1195 0168 E44740B9 		ldr	w4, [sp, 68]
 1196 016c E203142A 		mov	w2, w20
 1197 0170 03008052 		mov	w3, 0
 1198 0174 0100B812 		mov	w1, 1073741823
 1199 0178 00000090 		adrp	x0, .LC10
 1200              	.LVL89:
 1201              		.loc 1 48 13 view .LVU291
 1202 017c 00000091 		add	x0, x0, :lo12:.LC10
 1203 0180 00000094 		bl	_Z11printResultIiEvPKcT_S2_S2_S2_b
 1204              	.LVL90:
  49:Chapter12_3.cpp **** 	a1 = 1073741823,b1 = 5,c1 = 1073741823;
 1205              		.loc 1 49 2 is_stmt 1 view .LVU292
  50:Chapter12_3.cpp **** 	result = compareC_(a1,b1,c1,&sum1);
 1206              		.loc 1 50 2 view .LVU293
 1207              		.loc 1 50 20 is_stmt 0 view .LVU294
 1208 0184 E30313AA 		mov	x3, x19
 1209 0188 0200B812 		mov	w2, 1073741823
 1210 018c A1008052 		mov	w1, 5
 1211 0190 E003022A 		mov	w0, w2
 1212 0194 00000094 		bl	compareC_
 1213              	.LVL91:
  51:Chapter12_3.cpp **** 	printResult("compareC_ Test#3",a1,b1,c1,sum1,result);
 1214              		.loc 1 51 2 is_stmt 1 view .LVU295
 1215              		.loc 1 51 13 is_stmt 0 view .LVU296
 1216 0198 E503002A 		mov	w5, w0
 1217 019c E44740B9 		ldr	w4, [sp, 68]
 1218 01a0 0300B812 		mov	w3, 1073741823
 1219 01a4 A2008052 		mov	w2, 5
 1220 01a8 E103032A 		mov	w1, w3
 1221 01ac 00000090 		adrp	x0, .LC11
 1222              	.LVL92:
 1223              		.loc 1 51 13 view .LVU297
 1224 01b0 00000091 		add	x0, x0, :lo12:.LC11
 1225 01b4 00000094 		bl	_Z11printResultIiEvPKcT_S2_S2_S2_b
 1226              	.LVL93:
  52:Chapter12_3.cpp **** 	return 0;
 1227              		.loc 1 52 2 is_stmt 1 view .LVU298
  53:Chapter12_3.cpp **** }
 1228              		.loc 1 53 1 is_stmt 0 view .LVU299
 1229 01b8 00008052 		mov	w0, 0
 1230 01bc F35341A9 		ldp	x19, x20, [sp, 16]
 1231 01c0 F55B42A9 		ldp	x21, x22, [sp, 32]
 1232 01c4 F76343A9 		ldp	x23, x24, [sp, 48]
 1233 01c8 FD7BC5A8 		ldp	x29, x30, [sp], 80
 1234              		.cfi_restore 30
 1235              		.cfi_restore 29
 1236              		.cfi_restore 23
 1237              		.cfi_restore 24
 1238              		.cfi_restore 21
 1239              		.cfi_restore 22
 1240              		.cfi_restore 19
 1241              		.cfi_restore 20
 1242              		.cfi_def_cfa_offset 0
AARCH64 GAS  obj/Chapter12_3.s 			page 64


 1243 01cc C0035FD6 		ret
 1244              		.cfi_endproc
 1245              	.LFE1588:
 1246              		.size	main, .-main
 1247              		.align	2
 1248              		.p2align 4,,11
 1249              		.type	_GLOBAL__sub_I_main, %function
 1250              	_GLOBAL__sub_I_main:
 1251              	.LFB2090:
 1252              		.loc 1 53 1 is_stmt 1 view -0
 1253              		.cfi_startproc
 1254              	.LVL94:
 1255              	.LBB385:
 1256              	.LBI385:
 1257              		.loc 1 53 1 view .LVU301
 1258              	.LBE385:
 1259 01d0 FD7BBEA9 		stp	x29, x30, [sp, -32]!
 1260              		.cfi_def_cfa_offset 32
 1261              		.cfi_offset 29, -32
 1262              		.cfi_offset 30, -24
 1263 01d4 FD030091 		mov	x29, sp
 1264 01d8 F30B00F9 		str	x19, [sp, 16]
 1265              		.cfi_offset 19, -16
 1266              	.LBB389:
 1267              	.LBB386:
 1268              		.file 6 "/usr/include/c++/10/iostream"
   1:/usr/include/c++/10/iostream **** // Standard iostream objects -*- C++ -*-
   2:/usr/include/c++/10/iostream **** 
   3:/usr/include/c++/10/iostream **** // Copyright (C) 1997-2020 Free Software Foundation, Inc.
   4:/usr/include/c++/10/iostream **** //
   5:/usr/include/c++/10/iostream **** // This file is part of the GNU ISO C++ Library.  This library is free
   6:/usr/include/c++/10/iostream **** // software; you can redistribute it and/or modify it under the
   7:/usr/include/c++/10/iostream **** // terms of the GNU General Public License as published by the
   8:/usr/include/c++/10/iostream **** // Free Software Foundation; either version 3, or (at your option)
   9:/usr/include/c++/10/iostream **** // any later version.
  10:/usr/include/c++/10/iostream **** 
  11:/usr/include/c++/10/iostream **** // This library is distributed in the hope that it will be useful,
  12:/usr/include/c++/10/iostream **** // but WITHOUT ANY WARRANTY; without even the implied warranty of
  13:/usr/include/c++/10/iostream **** // MERCHANTABILITY or FITNESS FOR A PARTICULAR PURPOSE.  See the
  14:/usr/include/c++/10/iostream **** // GNU General Public License for more details.
  15:/usr/include/c++/10/iostream **** 
  16:/usr/include/c++/10/iostream **** // Under Section 7 of GPL version 3, you are granted additional
  17:/usr/include/c++/10/iostream **** // permissions described in the GCC Runtime Library Exception, version
  18:/usr/include/c++/10/iostream **** // 3.1, as published by the Free Software Foundation.
  19:/usr/include/c++/10/iostream **** 
  20:/usr/include/c++/10/iostream **** // You should have received a copy of the GNU General Public License and
  21:/usr/include/c++/10/iostream **** // a copy of the GCC Runtime Library Exception along with this program;
  22:/usr/include/c++/10/iostream **** // see the files COPYING3 and COPYING.RUNTIME respectively.  If not, see
  23:/usr/include/c++/10/iostream **** // <http://www.gnu.org/licenses/>.
  24:/usr/include/c++/10/iostream **** 
  25:/usr/include/c++/10/iostream **** /** @file include/iostream
  26:/usr/include/c++/10/iostream ****  *  This is a Standard C++ Library header.
  27:/usr/include/c++/10/iostream ****  */
  28:/usr/include/c++/10/iostream **** 
  29:/usr/include/c++/10/iostream **** //
  30:/usr/include/c++/10/iostream **** // ISO C++ 14882: 27.3  Standard iostream objects
  31:/usr/include/c++/10/iostream **** //
AARCH64 GAS  obj/Chapter12_3.s 			page 65


  32:/usr/include/c++/10/iostream **** 
  33:/usr/include/c++/10/iostream **** #ifndef _GLIBCXX_IOSTREAM
  34:/usr/include/c++/10/iostream **** #define _GLIBCXX_IOSTREAM 1
  35:/usr/include/c++/10/iostream **** 
  36:/usr/include/c++/10/iostream **** #pragma GCC system_header
  37:/usr/include/c++/10/iostream **** 
  38:/usr/include/c++/10/iostream **** #include <bits/c++config.h>
  39:/usr/include/c++/10/iostream **** #include <ostream>
  40:/usr/include/c++/10/iostream **** #include <istream>
  41:/usr/include/c++/10/iostream **** 
  42:/usr/include/c++/10/iostream **** namespace std _GLIBCXX_VISIBILITY(default)
  43:/usr/include/c++/10/iostream **** {
  44:/usr/include/c++/10/iostream **** _GLIBCXX_BEGIN_NAMESPACE_VERSION
  45:/usr/include/c++/10/iostream **** 
  46:/usr/include/c++/10/iostream ****   /**
  47:/usr/include/c++/10/iostream ****    *  @name Standard Stream Objects
  48:/usr/include/c++/10/iostream ****    *
  49:/usr/include/c++/10/iostream ****    *  The &lt;iostream&gt; header declares the eight <em>standard stream
  50:/usr/include/c++/10/iostream ****    *  objects</em>.  For other declarations, see
  51:/usr/include/c++/10/iostream ****    *  http://gcc.gnu.org/onlinedocs/libstdc++/manual/io.html
  52:/usr/include/c++/10/iostream ****    *  and the @link iosfwd I/O forward declarations @endlink
  53:/usr/include/c++/10/iostream ****    *
  54:/usr/include/c++/10/iostream ****    *  They are required by default to cooperate with the global C
  55:/usr/include/c++/10/iostream ****    *  library's @c FILE streams, and to be available during program
  56:/usr/include/c++/10/iostream ****    *  startup and termination. For more information, see the section of the
  57:/usr/include/c++/10/iostream ****    *  manual linked to above.
  58:/usr/include/c++/10/iostream ****   */
  59:/usr/include/c++/10/iostream ****   //@{
  60:/usr/include/c++/10/iostream ****   extern istream cin;		/// Linked to standard input
  61:/usr/include/c++/10/iostream ****   extern ostream cout;		/// Linked to standard output
  62:/usr/include/c++/10/iostream ****   extern ostream cerr;		/// Linked to standard error (unbuffered)
  63:/usr/include/c++/10/iostream ****   extern ostream clog;		/// Linked to standard error (buffered)
  64:/usr/include/c++/10/iostream **** 
  65:/usr/include/c++/10/iostream **** #ifdef _GLIBCXX_USE_WCHAR_T
  66:/usr/include/c++/10/iostream ****   extern wistream wcin;		/// Linked to standard input
  67:/usr/include/c++/10/iostream ****   extern wostream wcout;	/// Linked to standard output
  68:/usr/include/c++/10/iostream ****   extern wostream wcerr;	/// Linked to standard error (unbuffered)
  69:/usr/include/c++/10/iostream ****   extern wostream wclog;	/// Linked to standard error (buffered)
  70:/usr/include/c++/10/iostream **** #endif
  71:/usr/include/c++/10/iostream ****   //@}
  72:/usr/include/c++/10/iostream **** 
  73:/usr/include/c++/10/iostream ****   // For construction of filebuffers for cout, cin, cerr, clog et. al.
  74:/usr/include/c++/10/iostream ****   static ios_base::Init __ioinit;
 1269              		.loc 6 74 25 is_stmt 0 view .LVU302
 1270 01dc 13000090 		adrp	x19, .LANCHOR0
 1271 01e0 73020091 		add	x19, x19, :lo12:.LANCHOR0
 1272 01e4 E00313AA 		mov	x0, x19
 1273 01e8 00000094 		bl	_ZNSt8ios_base4InitC1Ev
 1274              	.LVL95:
 1275 01ec E10313AA 		mov	x1, x19
 1276 01f0 00000090 		adrp	x0, :got:_ZNSt8ios_base4InitD1Ev
 1277              	.LBE386:
 1278              	.LBE389:
 1279              		.loc 1 53 1 view .LVU303
 1280 01f4 F30B40F9 		ldr	x19, [sp, 16]
 1281              	.LBB390:
 1282              	.LBB387:
AARCH64 GAS  obj/Chapter12_3.s 			page 66


 1283              		.loc 6 74 25 view .LVU304
 1284 01f8 02000090 		adrp	x2, __dso_handle
 1285              	.LBE387:
 1286              	.LBE390:
 1287              		.loc 1 53 1 view .LVU305
 1288 01fc FD7BC2A8 		ldp	x29, x30, [sp], 32
 1289              		.cfi_restore 30
 1290              		.cfi_restore 29
 1291              		.cfi_restore 19
 1292              		.cfi_def_cfa_offset 0
 1293              	.LBB391:
 1294              	.LBB388:
 1295              		.loc 6 74 25 view .LVU306
 1296 0200 42000091 		add	x2, x2, :lo12:__dso_handle
 1297 0204 000040F9 		ldr	x0, [x0, #:got_lo12:_ZNSt8ios_base4InitD1Ev]
 1298 0208 00000014 		b	__cxa_atexit
 1299              	.LVL96:
 1300              	.LBE388:
 1301              	.LBE391:
 1302              		.cfi_endproc
 1303              	.LFE2090:
 1304              		.size	_GLOBAL__sub_I_main, .-_GLOBAL__sub_I_main
 1305              		.section	.init_array,"aw"
 1306              		.align	3
 1307 0000 00000000 		.xword	_GLOBAL__sub_I_main
 1307      00000000 
 1308              		.bss
 1309              		.align	3
 1310              		.set	.LANCHOR0,. + 0
 1311              		.type	_ZStL8__ioinit, %object
 1312              		.size	_ZStL8__ioinit, 1
 1313              	_ZStL8__ioinit:
 1314 0000 00       		.zero	1
 1315              		.text
 1316              	.Letext0:
 1317              		.file 7 "/usr/include/c++/10/cwchar"
 1318              		.file 8 "/usr/include/c++/10/bits/exception_ptr.h"
 1319              		.file 9 "/usr/include/aarch64-linux-gnu/c++/10/bits/c++config.h"
 1320              		.file 10 "/usr/include/c++/10/bits/stl_pair.h"
 1321              		.file 11 "/usr/include/c++/10/type_traits"
 1322              		.file 12 "/usr/include/c++/10/debug/debug.h"
 1323              		.file 13 "/usr/include/c++/10/cstdint"
 1324              		.file 14 "/usr/include/c++/10/clocale"
 1325              		.file 15 "/usr/include/c++/10/cstdlib"
 1326              		.file 16 "/usr/include/c++/10/cstdio"
 1327              		.file 17 "/usr/include/c++/10/bits/basic_string.h"
 1328              		.file 18 "/usr/include/c++/10/system_error"
 1329              		.file 19 "/usr/include/c++/10/cwctype"
 1330              		.file 20 "/usr/include/c++/10/bits/ostream.tcc"
 1331              		.file 21 "/usr/include/c++/10/iosfwd"
 1332              		.file 22 "/usr/include/c++/10/bits/basic_ios.tcc"
 1333              		.file 23 "/usr/include/c++/10/bits/ostream_insert.h"
 1334              		.file 24 "/usr/include/c++/10/bits/predefined_ops.h"
 1335              		.file 25 "/usr/lib/gcc/aarch64-linux-gnu/10/include/stddef.h"
 1336              		.file 26 "/usr/lib/gcc/aarch64-linux-gnu/10/include/stdarg.h"
 1337              		.file 27 "/usr/include/aarch64-linux-gnu/bits/types/wint_t.h"
 1338              		.file 28 "/usr/include/aarch64-linux-gnu/bits/types/__mbstate_t.h"
AARCH64 GAS  obj/Chapter12_3.s 			page 67


 1339              		.file 29 "/usr/include/aarch64-linux-gnu/bits/types/mbstate_t.h"
 1340              		.file 30 "/usr/include/aarch64-linux-gnu/bits/types/__FILE.h"
 1341              		.file 31 "/usr/include/aarch64-linux-gnu/bits/types/struct_FILE.h"
 1342              		.file 32 "/usr/include/aarch64-linux-gnu/bits/types/FILE.h"
 1343              		.file 33 "/usr/include/wchar.h"
 1344              		.file 34 "/usr/include/aarch64-linux-gnu/bits/types/struct_tm.h"
 1345              		.file 35 "/usr/include/aarch64-linux-gnu/bits/types.h"
 1346              		.file 36 "/usr/include/aarch64-linux-gnu/bits/stdint-intn.h"
 1347              		.file 37 "/usr/include/aarch64-linux-gnu/bits/stdint-uintn.h"
 1348              		.file 38 "/usr/include/stdint.h"
 1349              		.file 39 "/usr/include/locale.h"
 1350              		.file 40 "/usr/include/aarch64-linux-gnu/c++/10/bits/atomic_word.h"
 1351              		.file 41 "/usr/include/stdlib.h"
 1352              		.file 42 "/usr/include/aarch64-linux-gnu/bits/stdlib-float.h"
 1353              		.file 43 "/usr/include/aarch64-linux-gnu/bits/stdlib-bsearch.h"
 1354              		.file 44 "/usr/include/aarch64-linux-gnu/bits/types/__fpos_t.h"
 1355              		.file 45 "/usr/include/stdio.h"
 1356              		.file 46 "/usr/include/aarch64-linux-gnu/bits/stdio.h"
 1357              		.file 47 "/usr/include/aarch64-linux-gnu/bits/wctype-wchar.h"
 1358              		.file 48 "/usr/include/wctype.h"
 1359              		.file 49 "<built-in>"
 13292              		.section	.note.GNU-stack,"",@progbits
