	.arch armv8-a
	.file	"Chapter12_3.cpp"
	.text
.Ltext0:
	.section	.rodata._Z11printResultIiEvPKcT_S2_S2_S2_b.str1.8,"aMS",@progbits,1
	.align	3
.LC0:
	.string	"a= "
	.align	3
.LC1:
	.string	" | "
	.align	3
.LC2:
	.string	"b= "
	.align	3
.LC3:
	.string	"c= "
	.align	3
.LC4:
	.string	"sum= "
	.align	3
.LC5:
	.string	"result= "
	.section	.text._Z11printResultIiEvPKcT_S2_S2_S2_b,"axG",@progbits,_Z11printResultIiEvPKcT_S2_S2_S2_b,comdat
	.align	2
	.p2align 4,,11
	.weak	_Z11printResultIiEvPKcT_S2_S2_S2_b
	.type	_Z11printResultIiEvPKcT_S2_S2_S2_b, %function
_Z11printResultIiEvPKcT_S2_S2_S2_b:
.LVL0:
.LFB1832:
	.file 1 "Chapter12_3.cpp"
	.loc 1 10 6 view -0
	.cfi_startproc
	.loc 1 10 6 is_stmt 0 view .LVU1
	stp	x29, x30, [sp, -112]!
	.cfi_def_cfa_offset 112
	.cfi_offset 29, -112
	.cfi_offset 30, -104
	mov	x29, sp
	stp	x19, x20, [sp, 16]
	stp	x21, x22, [sp, 32]
	.cfi_offset 19, -96
	.cfi_offset 20, -88
	.cfi_offset 21, -80
	.cfi_offset 22, -72
	mov	w22, w3
	mov	w21, w4
	stp	x23, x24, [sp, 48]
	.cfi_offset 23, -64
	.cfi_offset 24, -56
	mov	w23, w2
	and	w24, w5, 255
.LVL1:
.LBB168:
.LBI168:
	.file 2 "/usr/include/c++/10/ostream"
	.loc 2 606 5 is_stmt 1 view .LVU2
.LBE168:
	.loc 1 10 6 is_stmt 0 view .LVU3
	stp	x25, x26, [sp, 64]
	.cfi_offset 25, -48
	.cfi_offset 26, -40
	mov	w26, w1
	str	x27, [sp, 80]
	.cfi_offset 27, -32
.LBB180:
.LBB169:
	.loc 2 608 7 view .LVU4
	cbz	x0, .L6
	.loc 2 611 18 view .LVU5
	adrp	x19, :got:_ZSt4cout
	mov	x20, x0
.LVL2:
.LBB170:
.LBI170:
	.file 3 "/usr/include/c++/10/bits/char_traits.h"
	.loc 3 358 7 is_stmt 1 view .LVU6
.LBB171:
	.loc 3 364 2 view .LVU7
	.loc 3 364 25 is_stmt 0 view .LVU8
	bl	strlen
.LVL3:
	.loc 3 364 25 view .LVU9
	mov	x2, x0
.LBE171:
.LBE170:
	.loc 2 611 18 view .LVU10
	ldr	x0, [x19, #:got_lo12:_ZSt4cout]
	mov	x1, x20
	bl	_ZSt16__ostream_insertIcSt11char_traitsIcEERSt13basic_ostreamIT_T0_ES6_PKS3_l
.LVL4:
.L3:
	.loc 2 611 18 view .LVU11
.LBE169:
.LBE180:
.LBB181:
.LBB182:
	.loc 2 518 30 view .LVU12
	ldr	x19, [x19, #:got_lo12:_ZSt4cout]
	add	x25, sp, 111
	mov	w27, 10
	mov	x1, x25
	mov	x0, x19
	mov	x2, 1
	strb	w27, [sp, 111]
.LVL5:
	.loc 2 518 30 view .LVU13
.LBE182:
.LBI181:
	.loc 2 517 5 is_stmt 1 view .LVU14
.LBB183:
	.loc 2 518 30 is_stmt 0 view .LVU15
	bl	_ZSt16__ostream_insertIcSt11char_traitsIcEERSt13basic_ostreamIT_T0_ES6_PKS3_l
.LVL6:
	.loc 2 518 30 view .LVU16
.LBE183:
.LBE181:
.LBB184:
.LBI184:
	.loc 2 606 5 is_stmt 1 view .LVU17
	.loc 2 606 5 is_stmt 0 view .LVU18
.LBE184:
	.loc 3 364 2 is_stmt 1 view .LVU19
.LBB186:
.LBB185:
	.loc 2 611 18 is_stmt 0 view .LVU20
	mov	x2, 3
	mov	x0, x19
	adrp	x1, .LC0
	add	x1, x1, :lo12:.LC0
	bl	_ZSt16__ostream_insertIcSt11char_traitsIcEERSt13basic_ostreamIT_T0_ES6_PKS3_l
.LVL7:
	.loc 2 611 18 view .LVU21
.LBE185:
.LBE186:
.LBB187:
.LBB188:
	adrp	x20, .LC1
.LBE188:
.LBE187:
	.loc 1 15 16 view .LVU22
	mov	w1, w26
.LBB191:
.LBB189:
	.loc 2 611 18 view .LVU23
	add	x20, x20, :lo12:.LC1
.LBE189:
.LBE191:
	.loc 1 15 16 view .LVU24
	mov	x0, x19
	bl	_ZNSolsEi
.LVL8:
.LBB192:
.LBI187:
	.loc 2 606 5 is_stmt 1 view .LVU25
	.loc 2 606 5 is_stmt 0 view .LVU26
.LBE192:
	.loc 3 364 2 is_stmt 1 view .LVU27
.LBB193:
.LBB190:
	.loc 2 611 18 is_stmt 0 view .LVU28
	mov	x1, x20
	mov	x2, 3
	bl	_ZSt16__ostream_insertIcSt11char_traitsIcEERSt13basic_ostreamIT_T0_ES6_PKS3_l
.LVL9:
	.loc 2 611 18 view .LVU29
.LBE190:
.LBE193:
.LBB194:
.LBI194:
	.loc 2 606 5 is_stmt 1 view .LVU30
	.loc 2 606 5 is_stmt 0 view .LVU31
.LBE194:
	.loc 3 364 2 is_stmt 1 view .LVU32
.LBB196:
.LBB195:
	.loc 2 611 18 is_stmt 0 view .LVU33
	mov	x2, 3
	mov	x0, x19
	adrp	x1, .LC2
	add	x1, x1, :lo12:.LC2
	bl	_ZSt16__ostream_insertIcSt11char_traitsIcEERSt13basic_ostreamIT_T0_ES6_PKS3_l
.LVL10:
	.loc 2 611 18 view .LVU34
.LBE195:
.LBE196:
	.loc 1 16 16 view .LVU35
	mov	w1, w23
	mov	x0, x19
	bl	_ZNSolsEi
.LVL11:
.LBB197:
.LBI197:
	.loc 2 606 5 is_stmt 1 view .LVU36
	.loc 2 606 5 is_stmt 0 view .LVU37
.LBE197:
	.loc 3 364 2 is_stmt 1 view .LVU38
.LBB199:
.LBB198:
	.loc 2 611 18 is_stmt 0 view .LVU39
	mov	x1, x20
	mov	x2, 3
	bl	_ZSt16__ostream_insertIcSt11char_traitsIcEERSt13basic_ostreamIT_T0_ES6_PKS3_l
.LVL12:
	.loc 2 611 18 view .LVU40
.LBE198:
.LBE199:
.LBB200:
.LBI200:
	.loc 2 606 5 is_stmt 1 view .LVU41
	.loc 2 606 5 is_stmt 0 view .LVU42
.LBE200:
	.loc 3 364 2 is_stmt 1 view .LVU43
.LBB202:
.LBB201:
	.loc 2 611 18 is_stmt 0 view .LVU44
	mov	x2, 3
	mov	x0, x19
	adrp	x1, .LC3
	add	x1, x1, :lo12:.LC3
	bl	_ZSt16__ostream_insertIcSt11char_traitsIcEERSt13basic_ostreamIT_T0_ES6_PKS3_l
.LVL13:
	.loc 2 611 18 view .LVU45
.LBE201:
.LBE202:
	.loc 1 17 16 view .LVU46
	mov	w1, w22
	mov	x0, x19
	bl	_ZNSolsEi
.LVL14:
.LBB203:
.LBI203:
	.loc 2 606 5 is_stmt 1 view .LVU47
	.loc 2 606 5 is_stmt 0 view .LVU48
.LBE203:
	.loc 3 364 2 is_stmt 1 view .LVU49
.LBB205:
.LBB204:
	.loc 2 611 18 is_stmt 0 view .LVU50
	mov	x1, x20
	mov	x2, 3
	bl	_ZSt16__ostream_insertIcSt11char_traitsIcEERSt13basic_ostreamIT_T0_ES6_PKS3_l
.LVL15:
	.loc 2 611 18 view .LVU51
.LBE204:
.LBE205:
.LBB206:
.LBI206:
	.loc 2 606 5 is_stmt 1 view .LVU52
	.loc 2 606 5 is_stmt 0 view .LVU53
.LBE206:
	.loc 3 364 2 is_stmt 1 view .LVU54
.LBB208:
.LBB207:
	.loc 2 611 18 is_stmt 0 view .LVU55
	mov	x2, 5
	mov	x0, x19
	adrp	x1, .LC4
	add	x1, x1, :lo12:.LC4
	bl	_ZSt16__ostream_insertIcSt11char_traitsIcEERSt13basic_ostreamIT_T0_ES6_PKS3_l
.LVL16:
	.loc 2 611 18 view .LVU56
.LBE207:
.LBE208:
	.loc 1 18 20 view .LVU57
	mov	w1, w21
	mov	x0, x19
	bl	_ZNSolsEi
.LVL17:
.LBB209:
.LBI209:
	.loc 2 606 5 is_stmt 1 view .LVU58
	.loc 2 606 5 is_stmt 0 view .LVU59
.LBE209:
	.loc 3 364 2 is_stmt 1 view .LVU60
.LBB211:
.LBB210:
	.loc 2 611 18 is_stmt 0 view .LVU61
	mov	x1, x20
	mov	x2, 3
	bl	_ZSt16__ostream_insertIcSt11char_traitsIcEERSt13basic_ostreamIT_T0_ES6_PKS3_l
.LVL18:
	.loc 2 611 18 view .LVU62
.LBE210:
.LBE211:
.LBB212:
.LBI212:
	.loc 2 606 5 is_stmt 1 view .LVU63
	.loc 2 606 5 is_stmt 0 view .LVU64
.LBE212:
	.loc 3 364 2 is_stmt 1 view .LVU65
.LBB214:
.LBB213:
	.loc 2 611 18 is_stmt 0 view .LVU66
	mov	x0, x19
	mov	x2, 8
	adrp	x1, .LC5
	add	x1, x1, :lo12:.LC5
	bl	_ZSt16__ostream_insertIcSt11char_traitsIcEERSt13basic_ostreamIT_T0_ES6_PKS3_l
.LVL19:
	.loc 2 611 18 view .LVU67
.LBE213:
.LBE214:
.LBB215:
.LBI215:
	.loc 2 127 7 is_stmt 1 view .LVU68
.LBB216:
	.loc 2 132 6 is_stmt 0 view .LVU69
	ldr	x2, [x19]
.LBE216:
.LBE215:
.LBB227:
.LBB228:
	.loc 2 175 25 view .LVU70
	mov	w1, w24
	mov	x0, x19
.LBE228:
.LBE227:
.LBB230:
.LBB225:
	.loc 2 132 6 view .LVU71
	ldr	x2, [x2, -24]
	add	x2, x2, x19
.LVL20:
.LBB217:
.LBI217:
	.file 4 "/usr/include/c++/10/bits/ios_base.h"
	.loc 4 908 3 is_stmt 1 view .LVU72
.LBE217:
.LBE225:
.LBE230:
	.loc 4 910 5 view .LVU73
.LBB231:
.LBB226:
.LBB224:
.LBB218:
.LBI218:
	.loc 4 676 5 view .LVU74
.LBB219:
	.loc 4 678 7 view .LVU75
	.loc 4 679 7 view .LVU76
.LBB220:
.LBI220:
	.loc 4 99 3 view .LVU77
.LBB221:
	.loc 4 100 5 view .LVU78
.LBB222:
.LBI222:
	.loc 4 87 3 view .LVU79
.LBB223:
	.loc 4 88 5 view .LVU80
	.loc 4 88 71 is_stmt 0 view .LVU81
	ldr	w3, [x2, 24]
	orr	w3, w3, 1
.LBE223:
.LBE222:
	.loc 4 100 16 view .LVU82
	str	w3, [x2, 24]
.LVL21:
	.loc 4 100 16 view .LVU83
.LBE221:
.LBE220:
	.loc 4 680 7 is_stmt 1 view .LVU84
	.loc 4 680 7 is_stmt 0 view .LVU85
.LBE219:
.LBE218:
.LBE224:
.LBE226:
.LBE231:
	.loc 4 911 5 is_stmt 1 view .LVU86
.LBB232:
.LBI227:
	.loc 2 174 7 view .LVU87
.LBB229:
	.loc 2 175 25 is_stmt 0 view .LVU88
	bl	_ZNSo9_M_insertIbEERSoT_
.LVL22:
	.loc 2 175 25 view .LVU89
	strb	w27, [sp, 111]
.LVL23:
	.loc 2 175 25 view .LVU90
.LBE229:
.LBE232:
.LBB233:
.LBI233:
	.loc 2 517 5 is_stmt 1 view .LVU91
.LBB234:
	.loc 2 518 30 is_stmt 0 view .LVU92
	mov	x1, x25
	mov	x2, 1
	bl	_ZSt16__ostream_insertIcSt11char_traitsIcEERSt13basic_ostreamIT_T0_ES6_PKS3_l
.LVL24:
	.loc 2 518 30 view .LVU93
	strb	w27, [sp, 111]
.LVL25:
	.loc 2 518 30 view .LVU94
.LBE234:
.LBE233:
.LBB235:
.LBI235:
	.loc 2 517 5 is_stmt 1 view .LVU95
.LBB236:
	.loc 2 518 30 is_stmt 0 view .LVU96
	mov	x1, x25
	mov	x0, x19
	mov	x2, 1
	bl	_ZSt16__ostream_insertIcSt11char_traitsIcEERSt13basic_ostreamIT_T0_ES6_PKS3_l
.LVL26:
	.loc 2 518 30 view .LVU97
.LBE236:
.LBE235:
	.loc 1 21 1 view .LVU98
	ldp	x19, x20, [sp, 16]
	ldp	x21, x22, [sp, 32]
.LVL27:
	.loc 1 21 1 view .LVU99
	ldp	x23, x24, [sp, 48]
.LVL28:
	.loc 1 21 1 view .LVU100
	ldp	x25, x26, [sp, 64]
.LVL29:
	.loc 1 21 1 view .LVU101
	ldr	x27, [sp, 80]
	ldp	x29, x30, [sp], 112
	.cfi_remember_state
	.cfi_restore 30
	.cfi_restore 29
	.cfi_restore 27
	.cfi_restore 25
	.cfi_restore 26
	.cfi_restore 23
	.cfi_restore 24
	.cfi_restore 21
	.cfi_restore 22
	.cfi_restore 19
	.cfi_restore 20
	.cfi_def_cfa_offset 0
	ret
.LVL30:
	.p2align 2,,3
.L6:
	.cfi_restore_state
.LBB237:
.LBB179:
.LBB172:
.LBI172:
	.loc 2 606 5 is_stmt 1 view .LVU102
.LBB173:
	.loc 2 609 16 is_stmt 0 view .LVU103
	adrp	x19, :got:_ZSt4cout
	ldr	x1, [x19, #:got_lo12:_ZSt4cout]
.LVL31:
	.loc 2 609 16 view .LVU104
	ldr	x0, [x1]
.LVL32:
	.loc 2 609 16 view .LVU105
	ldr	x0, [x0, -24]
	add	x0, x0, x1
.LVL33:
.LBB174:
.LBI174:
	.file 5 "/usr/include/c++/10/bits/basic_ios.h"
	.loc 5 157 7 is_stmt 1 view .LVU106
.LBB175:
.LBB176:
.LBI176:
	.loc 5 137 7 view .LVU107
	.loc 5 137 7 is_stmt 0 view .LVU108
.LBE176:
.LBB177:
.LBI177:
	.loc 4 169 3 is_stmt 1 view .LVU109
.LBB178:
	.loc 4 170 5 view .LVU110
	.loc 4 170 70 is_stmt 0 view .LVU111
	ldr	w1, [x0, 32]
.LBE178:
.LBE177:
	.loc 5 158 20 view .LVU112
	orr	w1, w1, 1
	bl	_ZNSt9basic_iosIcSt11char_traitsIcEE5clearESt12_Ios_Iostate
.LVL34:
	.loc 5 158 20 view .LVU113
	b	.L3
.LBE175:
.LBE174:
.LBE173:
.LBE172:
.LBE179:
.LBE237:
	.cfi_endproc
.LFE1832:
	.size	_Z11printResultIiEvPKcT_S2_S2_S2_b, .-_Z11printResultIiEvPKcT_S2_S2_S2_b
	.section	.text._Z11printResultIlEvPKcT_S2_S2_S2_b,"axG",@progbits,_Z11printResultIlEvPKcT_S2_S2_S2_b,comdat
	.align	2
	.p2align 4,,11
	.weak	_Z11printResultIlEvPKcT_S2_S2_S2_b
	.type	_Z11printResultIlEvPKcT_S2_S2_S2_b, %function
_Z11printResultIlEvPKcT_S2_S2_S2_b:
.LVL35:
.LFB1833:
	.loc 1 10 6 is_stmt 1 view -0
	.cfi_startproc
	.loc 1 10 6 is_stmt 0 view .LVU115
	stp	x29, x30, [sp, -112]!
	.cfi_def_cfa_offset 112
	.cfi_offset 29, -112
	.cfi_offset 30, -104
	mov	x29, sp
	stp	x19, x20, [sp, 16]
	stp	x21, x22, [sp, 32]
	.cfi_offset 19, -96
	.cfi_offset 20, -88
	.cfi_offset 21, -80
	.cfi_offset 22, -72
	mov	x22, x3
	mov	x21, x4
	stp	x23, x24, [sp, 48]
	.cfi_offset 23, -64
	.cfi_offset 24, -56
	mov	x23, x2
	and	w24, w5, 255
.LVL36:
.LBB304:
.LBI304:
	.loc 2 606 5 is_stmt 1 view .LVU116
.LBE304:
	.loc 1 10 6 is_stmt 0 view .LVU117
	stp	x25, x26, [sp, 64]
	.cfi_offset 25, -48
	.cfi_offset 26, -40
	mov	x26, x1
	str	x27, [sp, 80]
	.cfi_offset 27, -32
.LBB316:
.LBB305:
	.loc 2 608 7 view .LVU118
	cbz	x0, .L11
	.loc 2 611 18 view .LVU119
	adrp	x19, :got:_ZSt4cout
	mov	x20, x0
.LVL37:
.LBB306:
.LBI306:
	.loc 3 358 7 is_stmt 1 view .LVU120
.LBB307:
	.loc 3 364 2 view .LVU121
	.loc 3 364 25 is_stmt 0 view .LVU122
	bl	strlen
.LVL38:
	.loc 3 364 25 view .LVU123
	mov	x2, x0
.LBE307:
.LBE306:
	.loc 2 611 18 view .LVU124
	ldr	x0, [x19, #:got_lo12:_ZSt4cout]
	mov	x1, x20
	bl	_ZSt16__ostream_insertIcSt11char_traitsIcEERSt13basic_ostreamIT_T0_ES6_PKS3_l
.LVL39:
.L9:
	.loc 2 611 18 view .LVU125
.LBE305:
.LBE316:
.LBB317:
.LBB318:
	.loc 2 518 30 view .LVU126
	ldr	x19, [x19, #:got_lo12:_ZSt4cout]
	add	x25, sp, 111
	mov	w27, 10
	mov	x1, x25
	mov	x0, x19
	mov	x2, 1
	strb	w27, [sp, 111]
.LVL40:
	.loc 2 518 30 view .LVU127
.LBE318:
.LBI317:
	.loc 2 517 5 is_stmt 1 view .LVU128
.LBB319:
	.loc 2 518 30 is_stmt 0 view .LVU129
	bl	_ZSt16__ostream_insertIcSt11char_traitsIcEERSt13basic_ostreamIT_T0_ES6_PKS3_l
.LVL41:
	.loc 2 518 30 view .LVU130
.LBE319:
.LBE317:
.LBB320:
.LBI320:
	.loc 2 606 5 is_stmt 1 view .LVU131
	.loc 2 606 5 is_stmt 0 view .LVU132
.LBE320:
	.loc 3 364 2 is_stmt 1 view .LVU133
.LBB322:
.LBB321:
	.loc 2 611 18 is_stmt 0 view .LVU134
	mov	x2, 3
	mov	x0, x19
	adrp	x1, .LC0
	add	x1, x1, :lo12:.LC0
	bl	_ZSt16__ostream_insertIcSt11char_traitsIcEERSt13basic_ostreamIT_T0_ES6_PKS3_l
.LVL42:
	.loc 2 611 18 view .LVU135
.LBE321:
.LBE322:
.LBB323:
.LBI323:
	.loc 2 166 7 is_stmt 1 view .LVU136
.LBE323:
.LBB326:
.LBB327:
	.loc 2 611 18 is_stmt 0 view .LVU137
	adrp	x20, .LC1
.LBE327:
.LBE326:
.LBB330:
.LBB324:
	.loc 2 167 25 view .LVU138
	mov	x1, x26
.LBE324:
.LBE330:
.LBB331:
.LBB328:
	.loc 2 611 18 view .LVU139
	add	x20, x20, :lo12:.LC1
.LBE328:
.LBE331:
.LBB332:
.LBB325:
	.loc 2 167 25 view .LVU140
	mov	x0, x19
	bl	_ZNSo9_M_insertIlEERSoT_
.LVL43:
	.loc 2 167 25 view .LVU141
.LBE325:
.LBE332:
.LBB333:
.LBI326:
	.loc 2 606 5 is_stmt 1 view .LVU142
	.loc 2 606 5 is_stmt 0 view .LVU143
.LBE333:
	.loc 3 364 2 is_stmt 1 view .LVU144
.LBB334:
.LBB329:
	.loc 2 611 18 is_stmt 0 view .LVU145
	mov	x1, x20
	mov	x2, 3
	bl	_ZSt16__ostream_insertIcSt11char_traitsIcEERSt13basic_ostreamIT_T0_ES6_PKS3_l
.LVL44:
	.loc 2 611 18 view .LVU146
.LBE329:
.LBE334:
.LBB335:
.LBI335:
	.loc 2 606 5 is_stmt 1 view .LVU147
	.loc 2 606 5 is_stmt 0 view .LVU148
.LBE335:
	.loc 3 364 2 is_stmt 1 view .LVU149
.LBB337:
.LBB336:
	.loc 2 611 18 is_stmt 0 view .LVU150
	mov	x2, 3
	mov	x0, x19
	adrp	x1, .LC2
	add	x1, x1, :lo12:.LC2
	bl	_ZSt16__ostream_insertIcSt11char_traitsIcEERSt13basic_ostreamIT_T0_ES6_PKS3_l
.LVL45:
	.loc 2 611 18 view .LVU151
.LBE336:
.LBE337:
.LBB338:
.LBI338:
	.loc 2 166 7 is_stmt 1 view .LVU152
.LBB339:
	.loc 2 167 25 is_stmt 0 view .LVU153
	mov	x1, x23
	mov	x0, x19
	bl	_ZNSo9_M_insertIlEERSoT_
.LVL46:
	.loc 2 167 25 view .LVU154
.LBE339:
.LBE338:
.LBB340:
.LBI340:
	.loc 2 606 5 is_stmt 1 view .LVU155
	.loc 2 606 5 is_stmt 0 view .LVU156
.LBE340:
	.loc 3 364 2 is_stmt 1 view .LVU157
.LBB342:
.LBB341:
	.loc 2 611 18 is_stmt 0 view .LVU158
	mov	x1, x20
	mov	x2, 3
	bl	_ZSt16__ostream_insertIcSt11char_traitsIcEERSt13basic_ostreamIT_T0_ES6_PKS3_l
.LVL47:
	.loc 2 611 18 view .LVU159
.LBE341:
.LBE342:
.LBB343:
.LBI343:
	.loc 2 606 5 is_stmt 1 view .LVU160
	.loc 2 606 5 is_stmt 0 view .LVU161
.LBE343:
	.loc 3 364 2 is_stmt 1 view .LVU162
.LBB345:
.LBB344:
	.loc 2 611 18 is_stmt 0 view .LVU163
	mov	x2, 3
	mov	x0, x19
	adrp	x1, .LC3
	add	x1, x1, :lo12:.LC3
	bl	_ZSt16__ostream_insertIcSt11char_traitsIcEERSt13basic_ostreamIT_T0_ES6_PKS3_l
.LVL48:
	.loc 2 611 18 view .LVU164
.LBE344:
.LBE345:
.LBB346:
.LBI346:
	.loc 2 166 7 is_stmt 1 view .LVU165
.LBB347:
	.loc 2 167 25 is_stmt 0 view .LVU166
	mov	x1, x22
	mov	x0, x19
	bl	_ZNSo9_M_insertIlEERSoT_
.LVL49:
	.loc 2 167 25 view .LVU167
.LBE347:
.LBE346:
.LBB348:
.LBI348:
	.loc 2 606 5 is_stmt 1 view .LVU168
	.loc 2 606 5 is_stmt 0 view .LVU169
.LBE348:
	.loc 3 364 2 is_stmt 1 view .LVU170
.LBB350:
.LBB349:
	.loc 2 611 18 is_stmt 0 view .LVU171
	mov	x1, x20
	mov	x2, 3
	bl	_ZSt16__ostream_insertIcSt11char_traitsIcEERSt13basic_ostreamIT_T0_ES6_PKS3_l
.LVL50:
	.loc 2 611 18 view .LVU172
.LBE349:
.LBE350:
.LBB351:
.LBI351:
	.loc 2 606 5 is_stmt 1 view .LVU173
	.loc 2 606 5 is_stmt 0 view .LVU174
.LBE351:
	.loc 3 364 2 is_stmt 1 view .LVU175
.LBB353:
.LBB352:
	.loc 2 611 18 is_stmt 0 view .LVU176
	mov	x2, 5
	mov	x0, x19
	adrp	x1, .LC4
	add	x1, x1, :lo12:.LC4
	bl	_ZSt16__ostream_insertIcSt11char_traitsIcEERSt13basic_ostreamIT_T0_ES6_PKS3_l
.LVL51:
	.loc 2 611 18 view .LVU177
.LBE352:
.LBE353:
.LBB354:
.LBI354:
	.loc 2 166 7 is_stmt 1 view .LVU178
.LBB355:
	.loc 2 167 25 is_stmt 0 view .LVU179
	mov	x1, x21
	mov	x0, x19
	bl	_ZNSo9_M_insertIlEERSoT_
.LVL52:
	.loc 2 167 25 view .LVU180
.LBE355:
.LBE354:
.LBB356:
.LBI356:
	.loc 2 606 5 is_stmt 1 view .LVU181
	.loc 2 606 5 is_stmt 0 view .LVU182
.LBE356:
	.loc 3 364 2 is_stmt 1 view .LVU183
.LBB358:
.LBB357:
	.loc 2 611 18 is_stmt 0 view .LVU184
	mov	x1, x20
	mov	x2, 3
	bl	_ZSt16__ostream_insertIcSt11char_traitsIcEERSt13basic_ostreamIT_T0_ES6_PKS3_l
.LVL53:
	.loc 2 611 18 view .LVU185
.LBE357:
.LBE358:
.LBB359:
.LBI359:
	.loc 2 606 5 is_stmt 1 view .LVU186
	.loc 2 606 5 is_stmt 0 view .LVU187
.LBE359:
	.loc 3 364 2 is_stmt 1 view .LVU188
.LBB361:
.LBB360:
	.loc 2 611 18 is_stmt 0 view .LVU189
	mov	x0, x19
	mov	x2, 8
	adrp	x1, .LC5
	add	x1, x1, :lo12:.LC5
	bl	_ZSt16__ostream_insertIcSt11char_traitsIcEERSt13basic_ostreamIT_T0_ES6_PKS3_l
.LVL54:
	.loc 2 611 18 view .LVU190
.LBE360:
.LBE361:
.LBB362:
.LBI362:
	.loc 2 127 7 is_stmt 1 view .LVU191
.LBB363:
	.loc 2 132 6 is_stmt 0 view .LVU192
	ldr	x2, [x19]
.LBE363:
.LBE362:
.LBB374:
.LBB375:
	.loc 2 175 25 view .LVU193
	mov	w1, w24
	mov	x0, x19
.LBE375:
.LBE374:
.LBB377:
.LBB372:
	.loc 2 132 6 view .LVU194
	ldr	x2, [x2, -24]
	add	x2, x2, x19
.LVL55:
.LBB364:
.LBI364:
	.loc 4 908 3 is_stmt 1 view .LVU195
.LBE364:
.LBE372:
.LBE377:
	.loc 4 910 5 view .LVU196
.LBB378:
.LBB373:
.LBB371:
.LBB365:
.LBI365:
	.loc 4 676 5 view .LVU197
.LBB366:
	.loc 4 678 7 view .LVU198
	.loc 4 679 7 view .LVU199
.LBB367:
.LBI367:
	.loc 4 99 3 view .LVU200
.LBB368:
	.loc 4 100 5 view .LVU201
.LBB369:
.LBI369:
	.loc 4 87 3 view .LVU202
.LBB370:
	.loc 4 88 5 view .LVU203
	.loc 4 88 71 is_stmt 0 view .LVU204
	ldr	w3, [x2, 24]
	orr	w3, w3, 1
.LBE370:
.LBE369:
	.loc 4 100 16 view .LVU205
	str	w3, [x2, 24]
.LVL56:
	.loc 4 100 16 view .LVU206
.LBE368:
.LBE367:
	.loc 4 680 7 is_stmt 1 view .LVU207
	.loc 4 680 7 is_stmt 0 view .LVU208
.LBE366:
.LBE365:
.LBE371:
.LBE373:
.LBE378:
	.loc 4 911 5 is_stmt 1 view .LVU209
.LBB379:
.LBI374:
	.loc 2 174 7 view .LVU210
.LBB376:
	.loc 2 175 25 is_stmt 0 view .LVU211
	bl	_ZNSo9_M_insertIbEERSoT_
.LVL57:
	.loc 2 175 25 view .LVU212
	strb	w27, [sp, 111]
.LVL58:
	.loc 2 175 25 view .LVU213
.LBE376:
.LBE379:
.LBB380:
.LBI380:
	.loc 2 517 5 is_stmt 1 view .LVU214
.LBB381:
	.loc 2 518 30 is_stmt 0 view .LVU215
	mov	x1, x25
	mov	x2, 1
	bl	_ZSt16__ostream_insertIcSt11char_traitsIcEERSt13basic_ostreamIT_T0_ES6_PKS3_l
.LVL59:
	.loc 2 518 30 view .LVU216
	strb	w27, [sp, 111]
.LVL60:
	.loc 2 518 30 view .LVU217
.LBE381:
.LBE380:
.LBB382:
.LBI382:
	.loc 2 517 5 is_stmt 1 view .LVU218
.LBB383:
	.loc 2 518 30 is_stmt 0 view .LVU219
	mov	x1, x25
	mov	x0, x19
	mov	x2, 1
	bl	_ZSt16__ostream_insertIcSt11char_traitsIcEERSt13basic_ostreamIT_T0_ES6_PKS3_l
.LVL61:
	.loc 2 518 30 view .LVU220
.LBE383:
.LBE382:
	.loc 1 21 1 view .LVU221
	ldp	x19, x20, [sp, 16]
	ldp	x21, x22, [sp, 32]
.LVL62:
	.loc 1 21 1 view .LVU222
	ldp	x23, x24, [sp, 48]
.LVL63:
	.loc 1 21 1 view .LVU223
	ldp	x25, x26, [sp, 64]
.LVL64:
	.loc 1 21 1 view .LVU224
	ldr	x27, [sp, 80]
	ldp	x29, x30, [sp], 112
	.cfi_remember_state
	.cfi_restore 30
	.cfi_restore 29
	.cfi_restore 27
	.cfi_restore 25
	.cfi_restore 26
	.cfi_restore 23
	.cfi_restore 24
	.cfi_restore 21
	.cfi_restore 22
	.cfi_restore 19
	.cfi_restore 20
	.cfi_def_cfa_offset 0
	ret
.LVL65:
	.p2align 2,,3
.L11:
	.cfi_restore_state
.LBB384:
.LBB315:
.LBB308:
.LBI308:
	.loc 2 606 5 is_stmt 1 view .LVU225
.LBB309:
	.loc 2 609 16 is_stmt 0 view .LVU226
	adrp	x19, :got:_ZSt4cout
	ldr	x1, [x19, #:got_lo12:_ZSt4cout]
.LVL66:
	.loc 2 609 16 view .LVU227
	ldr	x0, [x1]
.LVL67:
	.loc 2 609 16 view .LVU228
	ldr	x0, [x0, -24]
	add	x0, x0, x1
.LVL68:
.LBB310:
.LBI310:
	.loc 5 157 7 is_stmt 1 view .LVU229
.LBB311:
.LBB312:
.LBI312:
	.loc 5 137 7 view .LVU230
	.loc 5 137 7 is_stmt 0 view .LVU231
.LBE312:
.LBB313:
.LBI313:
	.loc 4 169 3 is_stmt 1 view .LVU232
.LBB314:
	.loc 4 170 5 view .LVU233
	.loc 4 170 70 is_stmt 0 view .LVU234
	ldr	w1, [x0, 32]
.LBE314:
.LBE313:
	.loc 5 158 20 view .LVU235
	orr	w1, w1, 1
	bl	_ZNSt9basic_iosIcSt11char_traitsIcEE5clearESt12_Ios_Iostate
.LVL69:
	.loc 5 158 20 view .LVU236
	b	.L9
.LBE311:
.LBE310:
.LBE309:
.LBE308:
.LBE315:
.LBE384:
	.cfi_endproc
.LFE1833:
	.size	_Z11printResultIlEvPKcT_S2_S2_S2_b, .-_Z11printResultIlEvPKcT_S2_S2_S2_b
	.section	.rodata.str1.8,"aMS",@progbits,1
	.align	3
.LC6:
	.string	"compareA_ Test#1"
	.align	3
.LC7:
	.string	"compareA_ Test#2"
	.align	3
.LC8:
	.string	"compareB_ Test#1"
	.align	3
.LC9:
	.string	"compareC_ Test#1"
	.align	3
.LC10:
	.string	"compareC_ Test#2"
	.align	3
.LC11:
	.string	"compareC_ Test#3"
	.section	.text.startup,"ax",@progbits
	.align	2
	.p2align 4,,11
	.global	main
	.type	main, %function
main:
.LVL70:
.LFB1588:
	.loc 1 24 1 is_stmt 1 view -0
	.cfi_startproc
	.loc 1 25 2 view .LVU238
	.loc 1 26 2 view .LVU239
	.loc 1 27 2 view .LVU240
	.loc 1 29 2 view .LVU241
	.loc 1 30 2 view .LVU242
	.loc 1 24 1 is_stmt 0 view .LVU243
	stp	x29, x30, [sp, -80]!
	.cfi_def_cfa_offset 80
	.cfi_offset 29, -80
	.cfi_offset 30, -72
	.loc 1 30 20 view .LVU244
	mov	w2, 30
	mov	w1, 20
.LVL71:
	.loc 1 24 1 view .LVU245
	mov	x29, sp
	stp	x19, x20, [sp, 16]
	.cfi_offset 19, -64
	.cfi_offset 20, -56
	.loc 1 30 20 view .LVU246
	add	x19, sp, 68
	mov	x3, x19
	mov	w0, 10
.LVL72:
	.loc 1 24 1 view .LVU247
	stp	x21, x22, [sp, 32]
	.cfi_offset 21, -48
	.cfi_offset 22, -40
	.loc 1 37 20 view .LVU248
	mov	x22, 19547
	.loc 1 24 1 view .LVU249
	stp	x23, x24, [sp, 48]
	.cfi_offset 23, -32
	.cfi_offset 24, -24
	.loc 1 30 20 view .LVU250
	bl	compareA_
.LVL73:
	.loc 1 31 2 is_stmt 1 view .LVU251
	.loc 1 31 13 is_stmt 0 view .LVU252
	ldr	w4, [sp, 68]
	mov	w5, w0
	mov	w3, 30
	mov	w2, 20
	mov	w1, 10
	adrp	x0, .LC6
.LVL74:
	.loc 1 31 13 view .LVU253
	add	x0, x0, :lo12:.LC6
	bl	_Z11printResultIiEvPKcT_S2_S2_S2_b
.LVL75:
	.loc 1 32 2 is_stmt 1 view .LVU254
	.loc 1 33 2 view .LVU255
	.loc 1 37 20 is_stmt 0 view .LVU256
	mov	x24, 5307
	.loc 1 33 20 view .LVU257
	mov	x3, x19
	mov	w2, 35
	mov	w1, 25
	mov	w0, 60
	bl	compareA_
.LVL76:
	.loc 1 34 2 is_stmt 1 view .LVU258
	.loc 1 34 13 is_stmt 0 view .LVU259
	mov	w5, w0
	ldr	w4, [sp, 68]
	.loc 1 37 20 view .LVU260
	add	x23, sp, 72
	.loc 1 34 13 view .LVU261
	mov	w3, 35
	mov	w2, 25
	mov	w1, 60
	.loc 1 37 20 view .LVU262
	mov	x21, 7561
	movk	x24, 0x80da, lsl 16
	.loc 1 34 13 view .LVU263
	adrp	x0, .LC7
.LVL77:
	.loc 1 34 13 view .LVU264
	add	x0, x0, :lo12:.LC7
	bl	_Z11printResultIiEvPKcT_S2_S2_S2_b
.LVL78:
	.loc 1 36 2 is_stmt 1 view .LVU265
	.loc 1 37 2 view .LVU266
	.loc 1 37 20 is_stmt 0 view .LVU267
	movk	x22, 0x260, lsl 16
	movk	x21, 0x22, lsl 16
	mov	x3, x23
	mov	x2, x22
	mov	x1, x21
	movk	x24, 0x1, lsl 32
	mov	x0, x24
	bl	compareB_
.LVL79:
	.loc 1 38 2 is_stmt 1 view .LVU268
	.loc 1 38 13 is_stmt 0 view .LVU269
	ldr	x4, [sp, 72]
	adrp	x20, .LC8
	add	x20, x20, :lo12:.LC8
	mov	w5, w0
	mov	x1, x24
	mov	x0, x20
.LVL80:
	.loc 1 38 13 view .LVU270
	mov	x3, x22
	mov	x2, x21
	bl	_Z11printResultIlEvPKcT_S2_S2_S2_b
.LVL81:
	.loc 1 39 2 is_stmt 1 view .LVU271
	.loc 1 40 2 view .LVU272
	.loc 1 40 20 is_stmt 0 view .LVU273
	mov	x3, x23
	mov	x23, -5229
	movk	x23, 0x7f25, lsl 16
	mov	x2, x22
	mov	x1, x21
	movk	x23, 0xfffe, lsl 32
	mov	x0, x23
	bl	compareB_
.LVL82:
	.loc 1 41 2 is_stmt 1 view .LVU274
	.loc 1 41 13 is_stmt 0 view .LVU275
	ldr	x4, [sp, 72]
	mov	w5, w0
	mov	x3, x22
	mov	x2, x21
	mov	x1, x23
	mov	x0, x20
.LVL83:
	.loc 1 41 13 view .LVU276
	bl	_Z11printResultIlEvPKcT_S2_S2_S2_b
.LVL84:
	.loc 1 43 2 is_stmt 1 view .LVU277
	.loc 1 44 2 view .LVU278
	.loc 1 47 20 is_stmt 0 view .LVU279
	mov	w20, 65512
	.loc 1 44 20 view .LVU280
	mov	x3, x19
	mov	w2, 30
	mov	w1, 20
	mov	w0, 10
	bl	compareC_
.LVL85:
	.loc 1 45 2 is_stmt 1 view .LVU281
	.loc 1 45 13 is_stmt 0 view .LVU282
	mov	w5, w0
	ldr	w4, [sp, 68]
	mov	w3, 30
	mov	w2, 20
	mov	w1, 10
	adrp	x0, .LC9
.LVL86:
	.loc 1 45 13 view .LVU283
	add	x0, x0, :lo12:.LC9
	.loc 1 47 20 view .LVU284
	movk	w20, 0x3fff, lsl 16
	.loc 1 45 13 view .LVU285
	bl	_Z11printResultIiEvPKcT_S2_S2_S2_b
.LVL87:
	.loc 1 46 2 is_stmt 1 view .LVU286
	.loc 1 47 2 view .LVU287
	.loc 1 47 20 is_stmt 0 view .LVU288
	mov	x3, x19
	mov	w1, w20
	mov	w2, 0
	mov	w0, 1073741823
	bl	compareC_
.LVL88:
	.loc 1 48 2 is_stmt 1 view .LVU289
	.loc 1 48 13 is_stmt 0 view .LVU290
	mov	w5, w0
	ldr	w4, [sp, 68]
	mov	w2, w20
	mov	w3, 0
	mov	w1, 1073741823
	adrp	x0, .LC10
.LVL89:
	.loc 1 48 13 view .LVU291
	add	x0, x0, :lo12:.LC10
	bl	_Z11printResultIiEvPKcT_S2_S2_S2_b
.LVL90:
	.loc 1 49 2 is_stmt 1 view .LVU292
	.loc 1 50 2 view .LVU293
	.loc 1 50 20 is_stmt 0 view .LVU294
	mov	x3, x19
	mov	w2, 1073741823
	mov	w1, 5
	mov	w0, w2
	bl	compareC_
.LVL91:
	.loc 1 51 2 is_stmt 1 view .LVU295
	.loc 1 51 13 is_stmt 0 view .LVU296
	mov	w5, w0
	ldr	w4, [sp, 68]
	mov	w3, 1073741823
	mov	w2, 5
	mov	w1, w3
	adrp	x0, .LC11
.LVL92:
	.loc 1 51 13 view .LVU297
	add	x0, x0, :lo12:.LC11
	bl	_Z11printResultIiEvPKcT_S2_S2_S2_b
.LVL93:
	.loc 1 52 2 is_stmt 1 view .LVU298
	.loc 1 53 1 is_stmt 0 view .LVU299
	mov	w0, 0
	ldp	x19, x20, [sp, 16]
	ldp	x21, x22, [sp, 32]
	ldp	x23, x24, [sp, 48]
	ldp	x29, x30, [sp], 80
	.cfi_restore 30
	.cfi_restore 29
	.cfi_restore 23
	.cfi_restore 24
	.cfi_restore 21
	.cfi_restore 22
	.cfi_restore 19
	.cfi_restore 20
	.cfi_def_cfa_offset 0
	ret
	.cfi_endproc
.LFE1588:
	.size	main, .-main
	.align	2
	.p2align 4,,11
	.type	_GLOBAL__sub_I_main, %function
_GLOBAL__sub_I_main:
.LFB2090:
	.loc 1 53 1 is_stmt 1 view -0
	.cfi_startproc
.LVL94:
.LBB385:
.LBI385:
	.loc 1 53 1 view .LVU301
.LBE385:
	stp	x29, x30, [sp, -32]!
	.cfi_def_cfa_offset 32
	.cfi_offset 29, -32
	.cfi_offset 30, -24
	mov	x29, sp
	str	x19, [sp, 16]
	.cfi_offset 19, -16
.LBB389:
.LBB386:
	.file 6 "/usr/include/c++/10/iostream"
	.loc 6 74 25 is_stmt 0 view .LVU302
	adrp	x19, .LANCHOR0
	add	x19, x19, :lo12:.LANCHOR0
	mov	x0, x19
	bl	_ZNSt8ios_base4InitC1Ev
.LVL95:
	mov	x1, x19
	adrp	x0, :got:_ZNSt8ios_base4InitD1Ev
.LBE386:
.LBE389:
	.loc 1 53 1 view .LVU303
	ldr	x19, [sp, 16]
.LBB390:
.LBB387:
	.loc 6 74 25 view .LVU304
	adrp	x2, __dso_handle
.LBE387:
.LBE390:
	.loc 1 53 1 view .LVU305
	ldp	x29, x30, [sp], 32
	.cfi_restore 30
	.cfi_restore 29
	.cfi_restore 19
	.cfi_def_cfa_offset 0
.LBB391:
.LBB388:
	.loc 6 74 25 view .LVU306
	add	x2, x2, :lo12:__dso_handle
	ldr	x0, [x0, #:got_lo12:_ZNSt8ios_base4InitD1Ev]
	b	__cxa_atexit
.LVL96:
.LBE388:
.LBE391:
	.cfi_endproc
.LFE2090:
	.size	_GLOBAL__sub_I_main, .-_GLOBAL__sub_I_main
	.section	.init_array,"aw"
	.align	3
	.xword	_GLOBAL__sub_I_main
	.bss
	.align	3
	.set	.LANCHOR0,. + 0
	.type	_ZStL8__ioinit, %object
	.size	_ZStL8__ioinit, 1
_ZStL8__ioinit:
	.zero	1
	.text
.Letext0:
	.file 7 "/usr/include/c++/10/cwchar"
	.file 8 "/usr/include/c++/10/bits/exception_ptr.h"
	.file 9 "/usr/include/aarch64-linux-gnu/c++/10/bits/c++config.h"
	.file 10 "/usr/include/c++/10/bits/stl_pair.h"
	.file 11 "/usr/include/c++/10/type_traits"
	.file 12 "/usr/include/c++/10/debug/debug.h"
	.file 13 "/usr/include/c++/10/cstdint"
	.file 14 "/usr/include/c++/10/clocale"
	.file 15 "/usr/include/c++/10/cstdlib"
	.file 16 "/usr/include/c++/10/cstdio"
	.file 17 "/usr/include/c++/10/bits/basic_string.h"
	.file 18 "/usr/include/c++/10/system_error"
	.file 19 "/usr/include/c++/10/cwctype"
	.file 20 "/usr/include/c++/10/bits/ostream.tcc"
	.file 21 "/usr/include/c++/10/iosfwd"
	.file 22 "/usr/include/c++/10/bits/basic_ios.tcc"
	.file 23 "/usr/include/c++/10/bits/ostream_insert.h"
	.file 24 "/usr/include/c++/10/bits/predefined_ops.h"
	.file 25 "/usr/lib/gcc/aarch64-linux-gnu/10/include/stddef.h"
	.file 26 "/usr/lib/gcc/aarch64-linux-gnu/10/include/stdarg.h"
	.file 27 "/usr/include/aarch64-linux-gnu/bits/types/wint_t.h"
	.file 28 "/usr/include/aarch64-linux-gnu/bits/types/__mbstate_t.h"
	.file 29 "/usr/include/aarch64-linux-gnu/bits/types/mbstate_t.h"
	.file 30 "/usr/include/aarch64-linux-gnu/bits/types/__FILE.h"
	.file 31 "/usr/include/aarch64-linux-gnu/bits/types/struct_FILE.h"
	.file 32 "/usr/include/aarch64-linux-gnu/bits/types/FILE.h"
	.file 33 "/usr/include/wchar.h"
	.file 34 "/usr/include/aarch64-linux-gnu/bits/types/struct_tm.h"
	.file 35 "/usr/include/aarch64-linux-gnu/bits/types.h"
	.file 36 "/usr/include/aarch64-linux-gnu/bits/stdint-intn.h"
	.file 37 "/usr/include/aarch64-linux-gnu/bits/stdint-uintn.h"
	.file 38 "/usr/include/stdint.h"
	.file 39 "/usr/include/locale.h"
	.file 40 "/usr/include/aarch64-linux-gnu/c++/10/bits/atomic_word.h"
	.file 41 "/usr/include/stdlib.h"
	.file 42 "/usr/include/aarch64-linux-gnu/bits/stdlib-float.h"
	.file 43 "/usr/include/aarch64-linux-gnu/bits/stdlib-bsearch.h"
	.file 44 "/usr/include/aarch64-linux-gnu/bits/types/__fpos_t.h"
	.file 45 "/usr/include/stdio.h"
	.file 46 "/usr/include/aarch64-linux-gnu/bits/stdio.h"
	.file 47 "/usr/include/aarch64-linux-gnu/bits/wctype-wchar.h"
	.file 48 "/usr/include/wctype.h"
	.file 49 "<built-in>"
	.section	.note.GNU-stack,"",@progbits
