AARCH64 GAS  obj/Chapter12_2.s 			page 1


 GNU assembler version 2.35.2 (aarch64-linux-gnu)
	 using BFD version (GNU Binutils for Debian) 2.35.2.
 options passed	: -I -I -EL -march=armv8-a+simd -mabi=lp64 -aghl=obj/Chapter12_2.lst 
 input file    	: obj/Chapter12_2.s
 output file   	: obj/Chapter12_2.o
 target        	: aarch64-unknown-linux-gnu
 time stamp    	: 2022-07-22T14:45:06.000-0400

AARCH64 GAS  obj/Chapter12_2.s 			page 2


   1              		.arch armv8-a
   2              		.file	"Chapter12_2.cpp"
   3              		.text
   4              	.Ltext0:
   5              		.align	2
   6              		.p2align 4,,11
   7              		.type	_ZSt4endlIcSt11char_traitsIcEERSt13basic_ostreamIT_T0_ES6_.isra.0, %function
   8              	_ZSt4endlIcSt11char_traitsIcEERSt13basic_ostreamIT_T0_ES6_.isra.0:
   9              	.LVL0:
  10              	.LFB2093:
  11              		.file 1 "/usr/include/c++/10/ostream"
   1:/usr/include/c++/10/ostream **** // Output streams -*- C++ -*-
   2:/usr/include/c++/10/ostream **** 
   3:/usr/include/c++/10/ostream **** // Copyright (C) 1997-2020 Free Software Foundation, Inc.
   4:/usr/include/c++/10/ostream **** //
   5:/usr/include/c++/10/ostream **** // This file is part of the GNU ISO C++ Library.  This library is free
   6:/usr/include/c++/10/ostream **** // software; you can redistribute it and/or modify it under the
   7:/usr/include/c++/10/ostream **** // terms of the GNU General Public License as published by the
   8:/usr/include/c++/10/ostream **** // Free Software Foundation; either version 3, or (at your option)
   9:/usr/include/c++/10/ostream **** // any later version.
  10:/usr/include/c++/10/ostream **** 
  11:/usr/include/c++/10/ostream **** // This library is distributed in the hope that it will be useful,
  12:/usr/include/c++/10/ostream **** // but WITHOUT ANY WARRANTY; without even the implied warranty of
  13:/usr/include/c++/10/ostream **** // MERCHANTABILITY or FITNESS FOR A PARTICULAR PURPOSE.  See the
  14:/usr/include/c++/10/ostream **** // GNU General Public License for more details.
  15:/usr/include/c++/10/ostream **** 
  16:/usr/include/c++/10/ostream **** // Under Section 7 of GPL version 3, you are granted additional
  17:/usr/include/c++/10/ostream **** // permissions described in the GCC Runtime Library Exception, version
  18:/usr/include/c++/10/ostream **** // 3.1, as published by the Free Software Foundation.
  19:/usr/include/c++/10/ostream **** 
  20:/usr/include/c++/10/ostream **** // You should have received a copy of the GNU General Public License and
  21:/usr/include/c++/10/ostream **** // a copy of the GCC Runtime Library Exception along with this program;
  22:/usr/include/c++/10/ostream **** // see the files COPYING3 and COPYING.RUNTIME respectively.  If not, see
  23:/usr/include/c++/10/ostream **** // <http://www.gnu.org/licenses/>.
  24:/usr/include/c++/10/ostream **** 
  25:/usr/include/c++/10/ostream **** /** @file include/ostream
  26:/usr/include/c++/10/ostream ****  *  This is a Standard C++ Library header.
  27:/usr/include/c++/10/ostream ****  */
  28:/usr/include/c++/10/ostream **** 
  29:/usr/include/c++/10/ostream **** //
  30:/usr/include/c++/10/ostream **** // ISO C++ 14882: 27.6.2  Output streams
  31:/usr/include/c++/10/ostream **** //
  32:/usr/include/c++/10/ostream **** 
  33:/usr/include/c++/10/ostream **** #ifndef _GLIBCXX_OSTREAM
  34:/usr/include/c++/10/ostream **** #define _GLIBCXX_OSTREAM 1
  35:/usr/include/c++/10/ostream **** 
  36:/usr/include/c++/10/ostream **** #pragma GCC system_header
  37:/usr/include/c++/10/ostream **** 
  38:/usr/include/c++/10/ostream **** #include <ios>
  39:/usr/include/c++/10/ostream **** #include <bits/ostream_insert.h>
  40:/usr/include/c++/10/ostream **** 
  41:/usr/include/c++/10/ostream **** namespace std _GLIBCXX_VISIBILITY(default)
  42:/usr/include/c++/10/ostream **** {
  43:/usr/include/c++/10/ostream **** _GLIBCXX_BEGIN_NAMESPACE_VERSION
  44:/usr/include/c++/10/ostream **** 
  45:/usr/include/c++/10/ostream ****   /**
  46:/usr/include/c++/10/ostream ****    *  @brief  Template class basic_ostream.
AARCH64 GAS  obj/Chapter12_2.s 			page 3


  47:/usr/include/c++/10/ostream ****    *  @ingroup io
  48:/usr/include/c++/10/ostream ****    *
  49:/usr/include/c++/10/ostream ****    *  @tparam _CharT  Type of character stream.
  50:/usr/include/c++/10/ostream ****    *  @tparam _Traits  Traits for character type, defaults to
  51:/usr/include/c++/10/ostream ****    *                   char_traits<_CharT>.
  52:/usr/include/c++/10/ostream ****    *
  53:/usr/include/c++/10/ostream ****    *  This is the base class for all output streams.  It provides text
  54:/usr/include/c++/10/ostream ****    *  formatting of all builtin types, and communicates with any class
  55:/usr/include/c++/10/ostream ****    *  derived from basic_streambuf to do the actual output.
  56:/usr/include/c++/10/ostream ****   */
  57:/usr/include/c++/10/ostream ****   template<typename _CharT, typename _Traits>
  58:/usr/include/c++/10/ostream ****     class basic_ostream : virtual public basic_ios<_CharT, _Traits>
  59:/usr/include/c++/10/ostream ****     {
  60:/usr/include/c++/10/ostream ****     public:
  61:/usr/include/c++/10/ostream ****       // Types (inherited from basic_ios):
  62:/usr/include/c++/10/ostream ****       typedef _CharT			 		char_type;
  63:/usr/include/c++/10/ostream ****       typedef typename _Traits::int_type 		int_type;
  64:/usr/include/c++/10/ostream ****       typedef typename _Traits::pos_type 		pos_type;
  65:/usr/include/c++/10/ostream ****       typedef typename _Traits::off_type 		off_type;
  66:/usr/include/c++/10/ostream ****       typedef _Traits			 		traits_type;
  67:/usr/include/c++/10/ostream **** 
  68:/usr/include/c++/10/ostream ****       // Non-standard Types:
  69:/usr/include/c++/10/ostream ****       typedef basic_streambuf<_CharT, _Traits> 		__streambuf_type;
  70:/usr/include/c++/10/ostream ****       typedef basic_ios<_CharT, _Traits>		__ios_type;
  71:/usr/include/c++/10/ostream ****       typedef basic_ostream<_CharT, _Traits>		__ostream_type;
  72:/usr/include/c++/10/ostream ****       typedef num_put<_CharT, ostreambuf_iterator<_CharT, _Traits> >
  73:/usr/include/c++/10/ostream ****       							__num_put_type;
  74:/usr/include/c++/10/ostream ****       typedef ctype<_CharT>	      			__ctype_type;
  75:/usr/include/c++/10/ostream **** 
  76:/usr/include/c++/10/ostream ****       /**
  77:/usr/include/c++/10/ostream ****        *  @brief  Base constructor.
  78:/usr/include/c++/10/ostream ****        *
  79:/usr/include/c++/10/ostream ****        *  This ctor is almost never called by the user directly, rather from
  80:/usr/include/c++/10/ostream ****        *  derived classes' initialization lists, which pass a pointer to
  81:/usr/include/c++/10/ostream ****        *  their own stream buffer.
  82:/usr/include/c++/10/ostream ****       */
  83:/usr/include/c++/10/ostream ****       explicit
  84:/usr/include/c++/10/ostream ****       basic_ostream(__streambuf_type* __sb)
  85:/usr/include/c++/10/ostream ****       { this->init(__sb); }
  86:/usr/include/c++/10/ostream **** 
  87:/usr/include/c++/10/ostream ****       /**
  88:/usr/include/c++/10/ostream ****        *  @brief  Base destructor.
  89:/usr/include/c++/10/ostream ****        *
  90:/usr/include/c++/10/ostream ****        *  This does very little apart from providing a virtual base dtor.
  91:/usr/include/c++/10/ostream ****       */
  92:/usr/include/c++/10/ostream ****       virtual
  93:/usr/include/c++/10/ostream ****       ~basic_ostream() { }
  94:/usr/include/c++/10/ostream **** 
  95:/usr/include/c++/10/ostream ****       /// Safe prefix/suffix operations.
  96:/usr/include/c++/10/ostream ****       class sentry;
  97:/usr/include/c++/10/ostream ****       friend class sentry;
  98:/usr/include/c++/10/ostream **** 
  99:/usr/include/c++/10/ostream ****       //@{
 100:/usr/include/c++/10/ostream ****       /**
 101:/usr/include/c++/10/ostream ****        *  @brief  Interface for manipulators.
 102:/usr/include/c++/10/ostream ****        *
 103:/usr/include/c++/10/ostream ****        *  Manipulators such as @c std::endl and @c std::hex use these
AARCH64 GAS  obj/Chapter12_2.s 			page 4


 104:/usr/include/c++/10/ostream ****        *  functions in constructs like "std::cout << std::endl".  For more
 105:/usr/include/c++/10/ostream ****        *  information, see the iomanip header.
 106:/usr/include/c++/10/ostream ****       */
 107:/usr/include/c++/10/ostream ****       __ostream_type&
 108:/usr/include/c++/10/ostream ****       operator<<(__ostream_type& (*__pf)(__ostream_type&))
 109:/usr/include/c++/10/ostream ****       {
 110:/usr/include/c++/10/ostream **** 	// _GLIBCXX_RESOLVE_LIB_DEFECTS
 111:/usr/include/c++/10/ostream **** 	// DR 60. What is a formatted input function?
 112:/usr/include/c++/10/ostream **** 	// The inserters for manipulators are *not* formatted output functions.
 113:/usr/include/c++/10/ostream **** 	return __pf(*this);
 114:/usr/include/c++/10/ostream ****       }
 115:/usr/include/c++/10/ostream **** 
 116:/usr/include/c++/10/ostream ****       __ostream_type&
 117:/usr/include/c++/10/ostream ****       operator<<(__ios_type& (*__pf)(__ios_type&))
 118:/usr/include/c++/10/ostream ****       {
 119:/usr/include/c++/10/ostream **** 	// _GLIBCXX_RESOLVE_LIB_DEFECTS
 120:/usr/include/c++/10/ostream **** 	// DR 60. What is a formatted input function?
 121:/usr/include/c++/10/ostream **** 	// The inserters for manipulators are *not* formatted output functions.
 122:/usr/include/c++/10/ostream **** 	__pf(*this);
 123:/usr/include/c++/10/ostream **** 	return *this;
 124:/usr/include/c++/10/ostream ****       }
 125:/usr/include/c++/10/ostream **** 
 126:/usr/include/c++/10/ostream ****       __ostream_type&
 127:/usr/include/c++/10/ostream ****       operator<<(ios_base& (*__pf) (ios_base&))
 128:/usr/include/c++/10/ostream ****       {
 129:/usr/include/c++/10/ostream **** 	// _GLIBCXX_RESOLVE_LIB_DEFECTS
 130:/usr/include/c++/10/ostream **** 	// DR 60. What is a formatted input function?
 131:/usr/include/c++/10/ostream **** 	// The inserters for manipulators are *not* formatted output functions.
 132:/usr/include/c++/10/ostream **** 	__pf(*this);
 133:/usr/include/c++/10/ostream **** 	return *this;
 134:/usr/include/c++/10/ostream ****       }
 135:/usr/include/c++/10/ostream ****       //@}
 136:/usr/include/c++/10/ostream **** 
 137:/usr/include/c++/10/ostream ****       //@{
 138:/usr/include/c++/10/ostream ****       /**
 139:/usr/include/c++/10/ostream ****        *  @name Inserters
 140:/usr/include/c++/10/ostream ****        *
 141:/usr/include/c++/10/ostream ****        *  All the @c operator<< functions (aka <em>formatted output
 142:/usr/include/c++/10/ostream ****        *  functions</em>) have some common behavior.  Each starts by
 143:/usr/include/c++/10/ostream ****        *  constructing a temporary object of type std::basic_ostream::sentry.
 144:/usr/include/c++/10/ostream ****        *  This can have several effects, concluding with the setting of a
 145:/usr/include/c++/10/ostream ****        *  status flag; see the sentry documentation for more.
 146:/usr/include/c++/10/ostream ****        *
 147:/usr/include/c++/10/ostream ****        *  If the sentry status is good, the function tries to generate
 148:/usr/include/c++/10/ostream ****        *  whatever data is appropriate for the type of the argument.
 149:/usr/include/c++/10/ostream ****        *
 150:/usr/include/c++/10/ostream ****        *  If an exception is thrown during insertion, ios_base::badbit
 151:/usr/include/c++/10/ostream ****        *  will be turned on in the stream's error state without causing an
 152:/usr/include/c++/10/ostream ****        *  ios_base::failure to be thrown.  The original exception will then
 153:/usr/include/c++/10/ostream ****        *  be rethrown.
 154:/usr/include/c++/10/ostream ****       */
 155:/usr/include/c++/10/ostream **** 
 156:/usr/include/c++/10/ostream ****       //@{
 157:/usr/include/c++/10/ostream ****       /**
 158:/usr/include/c++/10/ostream ****        *  @brief Integer arithmetic inserters
 159:/usr/include/c++/10/ostream ****        *  @param  __n A variable of builtin integral type.
 160:/usr/include/c++/10/ostream ****        *  @return  @c *this if successful
AARCH64 GAS  obj/Chapter12_2.s 			page 5


 161:/usr/include/c++/10/ostream ****        *
 162:/usr/include/c++/10/ostream ****        *  These functions use the stream's current locale (specifically, the
 163:/usr/include/c++/10/ostream ****        *  @c num_get facet) to perform numeric formatting.
 164:/usr/include/c++/10/ostream ****       */
 165:/usr/include/c++/10/ostream ****       __ostream_type&
 166:/usr/include/c++/10/ostream ****       operator<<(long __n)
 167:/usr/include/c++/10/ostream ****       { return _M_insert(__n); }
 168:/usr/include/c++/10/ostream **** 
 169:/usr/include/c++/10/ostream ****       __ostream_type&
 170:/usr/include/c++/10/ostream ****       operator<<(unsigned long __n)
 171:/usr/include/c++/10/ostream ****       { return _M_insert(__n); }
 172:/usr/include/c++/10/ostream **** 
 173:/usr/include/c++/10/ostream ****       __ostream_type&
 174:/usr/include/c++/10/ostream ****       operator<<(bool __n)
 175:/usr/include/c++/10/ostream ****       { return _M_insert(__n); }
 176:/usr/include/c++/10/ostream **** 
 177:/usr/include/c++/10/ostream ****       __ostream_type&
 178:/usr/include/c++/10/ostream ****       operator<<(short __n);
 179:/usr/include/c++/10/ostream **** 
 180:/usr/include/c++/10/ostream ****       __ostream_type&
 181:/usr/include/c++/10/ostream ****       operator<<(unsigned short __n)
 182:/usr/include/c++/10/ostream ****       {
 183:/usr/include/c++/10/ostream **** 	// _GLIBCXX_RESOLVE_LIB_DEFECTS
 184:/usr/include/c++/10/ostream **** 	// 117. basic_ostream uses nonexistent num_put member functions.
 185:/usr/include/c++/10/ostream **** 	return _M_insert(static_cast<unsigned long>(__n));
 186:/usr/include/c++/10/ostream ****       }
 187:/usr/include/c++/10/ostream **** 
 188:/usr/include/c++/10/ostream ****       __ostream_type&
 189:/usr/include/c++/10/ostream ****       operator<<(int __n);
 190:/usr/include/c++/10/ostream **** 
 191:/usr/include/c++/10/ostream ****       __ostream_type&
 192:/usr/include/c++/10/ostream ****       operator<<(unsigned int __n)
 193:/usr/include/c++/10/ostream ****       {
 194:/usr/include/c++/10/ostream **** 	// _GLIBCXX_RESOLVE_LIB_DEFECTS
 195:/usr/include/c++/10/ostream **** 	// 117. basic_ostream uses nonexistent num_put member functions.
 196:/usr/include/c++/10/ostream **** 	return _M_insert(static_cast<unsigned long>(__n));
 197:/usr/include/c++/10/ostream ****       }
 198:/usr/include/c++/10/ostream **** 
 199:/usr/include/c++/10/ostream **** #ifdef _GLIBCXX_USE_LONG_LONG
 200:/usr/include/c++/10/ostream ****       __ostream_type&
 201:/usr/include/c++/10/ostream ****       operator<<(long long __n)
 202:/usr/include/c++/10/ostream ****       { return _M_insert(__n); }
 203:/usr/include/c++/10/ostream **** 
 204:/usr/include/c++/10/ostream ****       __ostream_type&
 205:/usr/include/c++/10/ostream ****       operator<<(unsigned long long __n)
 206:/usr/include/c++/10/ostream ****       { return _M_insert(__n); }
 207:/usr/include/c++/10/ostream **** #endif
 208:/usr/include/c++/10/ostream ****       //@}
 209:/usr/include/c++/10/ostream **** 
 210:/usr/include/c++/10/ostream ****       //@{
 211:/usr/include/c++/10/ostream ****       /**
 212:/usr/include/c++/10/ostream ****        *  @brief  Floating point arithmetic inserters
 213:/usr/include/c++/10/ostream ****        *  @param  __f A variable of builtin floating point type.
 214:/usr/include/c++/10/ostream ****        *  @return  @c *this if successful
 215:/usr/include/c++/10/ostream ****        *
 216:/usr/include/c++/10/ostream ****        *  These functions use the stream's current locale (specifically, the
 217:/usr/include/c++/10/ostream ****        *  @c num_get facet) to perform numeric formatting.
AARCH64 GAS  obj/Chapter12_2.s 			page 6


 218:/usr/include/c++/10/ostream ****       */
 219:/usr/include/c++/10/ostream ****       __ostream_type&
 220:/usr/include/c++/10/ostream ****       operator<<(double __f)
 221:/usr/include/c++/10/ostream ****       { return _M_insert(__f); }
 222:/usr/include/c++/10/ostream **** 
 223:/usr/include/c++/10/ostream ****       __ostream_type&
 224:/usr/include/c++/10/ostream ****       operator<<(float __f)
 225:/usr/include/c++/10/ostream ****       {
 226:/usr/include/c++/10/ostream **** 	// _GLIBCXX_RESOLVE_LIB_DEFECTS
 227:/usr/include/c++/10/ostream **** 	// 117. basic_ostream uses nonexistent num_put member functions.
 228:/usr/include/c++/10/ostream **** 	return _M_insert(static_cast<double>(__f));
 229:/usr/include/c++/10/ostream ****       }
 230:/usr/include/c++/10/ostream **** 
 231:/usr/include/c++/10/ostream ****       __ostream_type&
 232:/usr/include/c++/10/ostream ****       operator<<(long double __f)
 233:/usr/include/c++/10/ostream ****       { return _M_insert(__f); }
 234:/usr/include/c++/10/ostream ****       //@}
 235:/usr/include/c++/10/ostream **** 
 236:/usr/include/c++/10/ostream ****       /**
 237:/usr/include/c++/10/ostream ****        *  @brief  Pointer arithmetic inserters
 238:/usr/include/c++/10/ostream ****        *  @param  __p A variable of pointer type.
 239:/usr/include/c++/10/ostream ****        *  @return  @c *this if successful
 240:/usr/include/c++/10/ostream ****        *
 241:/usr/include/c++/10/ostream ****        *  These functions use the stream's current locale (specifically, the
 242:/usr/include/c++/10/ostream ****        *  @c num_get facet) to perform numeric formatting.
 243:/usr/include/c++/10/ostream ****       */
 244:/usr/include/c++/10/ostream ****       __ostream_type&
 245:/usr/include/c++/10/ostream ****       operator<<(const void* __p)
 246:/usr/include/c++/10/ostream ****       { return _M_insert(__p); }
 247:/usr/include/c++/10/ostream **** 
 248:/usr/include/c++/10/ostream **** #if __cplusplus >= 201703L
 249:/usr/include/c++/10/ostream ****       __ostream_type&
 250:/usr/include/c++/10/ostream ****       operator<<(nullptr_t)
 251:/usr/include/c++/10/ostream ****       { return *this << "nullptr"; }
 252:/usr/include/c++/10/ostream **** #endif
 253:/usr/include/c++/10/ostream **** 
 254:/usr/include/c++/10/ostream ****       /**
 255:/usr/include/c++/10/ostream ****        *  @brief  Extracting from another streambuf.
 256:/usr/include/c++/10/ostream ****        *  @param  __sb  A pointer to a streambuf
 257:/usr/include/c++/10/ostream ****        *
 258:/usr/include/c++/10/ostream ****        *  This function behaves like one of the basic arithmetic extractors,
 259:/usr/include/c++/10/ostream ****        *  in that it also constructs a sentry object and has the same error
 260:/usr/include/c++/10/ostream ****        *  handling behavior.
 261:/usr/include/c++/10/ostream ****        *
 262:/usr/include/c++/10/ostream ****        *  If @p __sb is NULL, the stream will set failbit in its error state.
 263:/usr/include/c++/10/ostream ****        *
 264:/usr/include/c++/10/ostream ****        *  Characters are extracted from @p __sb and inserted into @c *this
 265:/usr/include/c++/10/ostream ****        *  until one of the following occurs:
 266:/usr/include/c++/10/ostream ****        *
 267:/usr/include/c++/10/ostream ****        *  - the input stream reaches end-of-file,
 268:/usr/include/c++/10/ostream ****        *  - insertion into the output sequence fails (in this case, the
 269:/usr/include/c++/10/ostream ****        *    character that would have been inserted is not extracted), or
 270:/usr/include/c++/10/ostream ****        *  - an exception occurs while getting a character from @p __sb, which
 271:/usr/include/c++/10/ostream ****        *    sets failbit in the error state
 272:/usr/include/c++/10/ostream ****        *
 273:/usr/include/c++/10/ostream ****        *  If the function inserts no characters, failbit is set.
 274:/usr/include/c++/10/ostream ****       */
AARCH64 GAS  obj/Chapter12_2.s 			page 7


 275:/usr/include/c++/10/ostream ****       __ostream_type&
 276:/usr/include/c++/10/ostream ****       operator<<(__streambuf_type* __sb);
 277:/usr/include/c++/10/ostream ****       //@}
 278:/usr/include/c++/10/ostream **** 
 279:/usr/include/c++/10/ostream ****       //@{
 280:/usr/include/c++/10/ostream ****       /**
 281:/usr/include/c++/10/ostream ****        *  @name Unformatted Output Functions
 282:/usr/include/c++/10/ostream ****        *
 283:/usr/include/c++/10/ostream ****        *  All the unformatted output functions have some common behavior.
 284:/usr/include/c++/10/ostream ****        *  Each starts by constructing a temporary object of type
 285:/usr/include/c++/10/ostream ****        *  std::basic_ostream::sentry.  This has several effects, concluding
 286:/usr/include/c++/10/ostream ****        *  with the setting of a status flag; see the sentry documentation
 287:/usr/include/c++/10/ostream ****        *  for more.
 288:/usr/include/c++/10/ostream ****        *
 289:/usr/include/c++/10/ostream ****        *  If the sentry status is good, the function tries to generate
 290:/usr/include/c++/10/ostream ****        *  whatever data is appropriate for the type of the argument.
 291:/usr/include/c++/10/ostream ****        *
 292:/usr/include/c++/10/ostream ****        *  If an exception is thrown during insertion, ios_base::badbit
 293:/usr/include/c++/10/ostream ****        *  will be turned on in the stream's error state.  If badbit is on in
 294:/usr/include/c++/10/ostream ****        *  the stream's exceptions mask, the exception will be rethrown
 295:/usr/include/c++/10/ostream ****        *  without completing its actions.
 296:/usr/include/c++/10/ostream ****       */
 297:/usr/include/c++/10/ostream **** 
 298:/usr/include/c++/10/ostream ****       /**
 299:/usr/include/c++/10/ostream ****        *  @brief  Simple insertion.
 300:/usr/include/c++/10/ostream ****        *  @param  __c  The character to insert.
 301:/usr/include/c++/10/ostream ****        *  @return  *this
 302:/usr/include/c++/10/ostream ****        *
 303:/usr/include/c++/10/ostream ****        *  Tries to insert @p __c.
 304:/usr/include/c++/10/ostream ****        *
 305:/usr/include/c++/10/ostream ****        *  @note  This function is not overloaded on signed char and
 306:/usr/include/c++/10/ostream ****        *         unsigned char.
 307:/usr/include/c++/10/ostream ****       */
 308:/usr/include/c++/10/ostream ****       __ostream_type&
 309:/usr/include/c++/10/ostream ****       put(char_type __c);
 310:/usr/include/c++/10/ostream **** 
 311:/usr/include/c++/10/ostream ****       /**
 312:/usr/include/c++/10/ostream ****        *  @brief  Core write functionality, without sentry.
 313:/usr/include/c++/10/ostream ****        *  @param  __s  The array to insert.
 314:/usr/include/c++/10/ostream ****        *  @param  __n  Maximum number of characters to insert.
 315:/usr/include/c++/10/ostream ****       */
 316:/usr/include/c++/10/ostream ****       void
 317:/usr/include/c++/10/ostream ****       _M_write(const char_type* __s, streamsize __n)
 318:/usr/include/c++/10/ostream ****       {
 319:/usr/include/c++/10/ostream **** 	const streamsize __put = this->rdbuf()->sputn(__s, __n);
 320:/usr/include/c++/10/ostream **** 	if (__put != __n)
 321:/usr/include/c++/10/ostream **** 	  this->setstate(ios_base::badbit);
 322:/usr/include/c++/10/ostream ****       }
 323:/usr/include/c++/10/ostream **** 
 324:/usr/include/c++/10/ostream ****       /**
 325:/usr/include/c++/10/ostream ****        *  @brief  Character string insertion.
 326:/usr/include/c++/10/ostream ****        *  @param  __s  The array to insert.
 327:/usr/include/c++/10/ostream ****        *  @param  __n  Maximum number of characters to insert.
 328:/usr/include/c++/10/ostream ****        *  @return  *this
 329:/usr/include/c++/10/ostream ****        *
 330:/usr/include/c++/10/ostream ****        *  Characters are copied from @p __s and inserted into the stream until
 331:/usr/include/c++/10/ostream ****        *  one of the following happens:
AARCH64 GAS  obj/Chapter12_2.s 			page 8


 332:/usr/include/c++/10/ostream ****        *
 333:/usr/include/c++/10/ostream ****        *  - @p __n characters are inserted
 334:/usr/include/c++/10/ostream ****        *  - inserting into the output sequence fails (in this case, badbit
 335:/usr/include/c++/10/ostream ****        *    will be set in the stream's error state)
 336:/usr/include/c++/10/ostream ****        *
 337:/usr/include/c++/10/ostream ****        *  @note  This function is not overloaded on signed char and
 338:/usr/include/c++/10/ostream ****        *         unsigned char.
 339:/usr/include/c++/10/ostream ****       */
 340:/usr/include/c++/10/ostream ****       __ostream_type&
 341:/usr/include/c++/10/ostream ****       write(const char_type* __s, streamsize __n);
 342:/usr/include/c++/10/ostream ****       //@}
 343:/usr/include/c++/10/ostream **** 
 344:/usr/include/c++/10/ostream ****       /**
 345:/usr/include/c++/10/ostream ****        *  @brief  Synchronizing the stream buffer.
 346:/usr/include/c++/10/ostream ****        *  @return  *this
 347:/usr/include/c++/10/ostream ****        *
 348:/usr/include/c++/10/ostream ****        *  If @c rdbuf() is a null pointer, changes nothing.
 349:/usr/include/c++/10/ostream ****        *
 350:/usr/include/c++/10/ostream ****        *  Otherwise, calls @c rdbuf()->pubsync(), and if that returns -1,
 351:/usr/include/c++/10/ostream ****        *  sets badbit.
 352:/usr/include/c++/10/ostream ****       */
 353:/usr/include/c++/10/ostream ****       __ostream_type&
 354:/usr/include/c++/10/ostream ****       flush();
 355:/usr/include/c++/10/ostream **** 
 356:/usr/include/c++/10/ostream ****       /**
 357:/usr/include/c++/10/ostream ****        *  @brief  Getting the current write position.
 358:/usr/include/c++/10/ostream ****        *  @return  A file position object.
 359:/usr/include/c++/10/ostream ****        *
 360:/usr/include/c++/10/ostream ****        *  If @c fail() is not false, returns @c pos_type(-1) to indicate
 361:/usr/include/c++/10/ostream ****        *  failure.  Otherwise returns @c rdbuf()->pubseekoff(0,cur,out).
 362:/usr/include/c++/10/ostream ****       */
 363:/usr/include/c++/10/ostream ****       pos_type
 364:/usr/include/c++/10/ostream ****       tellp();
 365:/usr/include/c++/10/ostream **** 
 366:/usr/include/c++/10/ostream ****       /**
 367:/usr/include/c++/10/ostream ****        *  @brief  Changing the current write position.
 368:/usr/include/c++/10/ostream ****        *  @param  __pos  A file position object.
 369:/usr/include/c++/10/ostream ****        *  @return  *this
 370:/usr/include/c++/10/ostream ****        *
 371:/usr/include/c++/10/ostream ****        *  If @c fail() is not true, calls @c rdbuf()->pubseekpos(pos).  If
 372:/usr/include/c++/10/ostream ****        *  that function fails, sets failbit.
 373:/usr/include/c++/10/ostream ****       */
 374:/usr/include/c++/10/ostream ****       __ostream_type&
 375:/usr/include/c++/10/ostream ****       seekp(pos_type);
 376:/usr/include/c++/10/ostream **** 
 377:/usr/include/c++/10/ostream ****       /**
 378:/usr/include/c++/10/ostream ****        *  @brief  Changing the current write position.
 379:/usr/include/c++/10/ostream ****        *  @param  __off  A file offset object.
 380:/usr/include/c++/10/ostream ****        *  @param  __dir  The direction in which to seek.
 381:/usr/include/c++/10/ostream ****        *  @return  *this
 382:/usr/include/c++/10/ostream ****        *
 383:/usr/include/c++/10/ostream ****        *  If @c fail() is not true, calls @c rdbuf()->pubseekoff(off,dir).
 384:/usr/include/c++/10/ostream ****        *  If that function fails, sets failbit.
 385:/usr/include/c++/10/ostream ****       */
 386:/usr/include/c++/10/ostream ****        __ostream_type&
 387:/usr/include/c++/10/ostream ****       seekp(off_type, ios_base::seekdir);
 388:/usr/include/c++/10/ostream **** 
AARCH64 GAS  obj/Chapter12_2.s 			page 9


 389:/usr/include/c++/10/ostream ****     protected:
 390:/usr/include/c++/10/ostream ****       basic_ostream()
 391:/usr/include/c++/10/ostream ****       { this->init(0); }
 392:/usr/include/c++/10/ostream **** 
 393:/usr/include/c++/10/ostream **** #if __cplusplus >= 201103L
 394:/usr/include/c++/10/ostream ****       // Non-standard constructor that does not call init()
 395:/usr/include/c++/10/ostream ****       basic_ostream(basic_iostream<_CharT, _Traits>&) { }
 396:/usr/include/c++/10/ostream **** 
 397:/usr/include/c++/10/ostream ****       basic_ostream(const basic_ostream&) = delete;
 398:/usr/include/c++/10/ostream **** 
 399:/usr/include/c++/10/ostream ****       basic_ostream(basic_ostream&& __rhs)
 400:/usr/include/c++/10/ostream ****       : __ios_type()
 401:/usr/include/c++/10/ostream ****       { __ios_type::move(__rhs); }
 402:/usr/include/c++/10/ostream **** 
 403:/usr/include/c++/10/ostream ****       // 27.7.3.3 Assign/swap
 404:/usr/include/c++/10/ostream **** 
 405:/usr/include/c++/10/ostream ****       basic_ostream& operator=(const basic_ostream&) = delete;
 406:/usr/include/c++/10/ostream **** 
 407:/usr/include/c++/10/ostream ****       basic_ostream&
 408:/usr/include/c++/10/ostream ****       operator=(basic_ostream&& __rhs)
 409:/usr/include/c++/10/ostream ****       {
 410:/usr/include/c++/10/ostream **** 	swap(__rhs);
 411:/usr/include/c++/10/ostream **** 	return *this;
 412:/usr/include/c++/10/ostream ****       }
 413:/usr/include/c++/10/ostream **** 
 414:/usr/include/c++/10/ostream ****       void
 415:/usr/include/c++/10/ostream ****       swap(basic_ostream& __rhs)
 416:/usr/include/c++/10/ostream ****       { __ios_type::swap(__rhs); }
 417:/usr/include/c++/10/ostream **** #endif
 418:/usr/include/c++/10/ostream **** 
 419:/usr/include/c++/10/ostream ****       template<typename _ValueT>
 420:/usr/include/c++/10/ostream **** 	__ostream_type&
 421:/usr/include/c++/10/ostream **** 	_M_insert(_ValueT __v);
 422:/usr/include/c++/10/ostream ****     };
 423:/usr/include/c++/10/ostream **** 
 424:/usr/include/c++/10/ostream ****   /**
 425:/usr/include/c++/10/ostream ****    *  @brief  Performs setup work for output streams.
 426:/usr/include/c++/10/ostream ****    *
 427:/usr/include/c++/10/ostream ****    *  Objects of this class are created before all of the standard
 428:/usr/include/c++/10/ostream ****    *  inserters are run.  It is responsible for <em>exception-safe prefix and
 429:/usr/include/c++/10/ostream ****    *  suffix operations</em>.
 430:/usr/include/c++/10/ostream ****   */
 431:/usr/include/c++/10/ostream ****   template <typename _CharT, typename _Traits>
 432:/usr/include/c++/10/ostream ****     class basic_ostream<_CharT, _Traits>::sentry
 433:/usr/include/c++/10/ostream ****     {
 434:/usr/include/c++/10/ostream ****       // Data Members.
 435:/usr/include/c++/10/ostream ****       bool 				_M_ok;
 436:/usr/include/c++/10/ostream ****       basic_ostream<_CharT, _Traits>& 	_M_os;
 437:/usr/include/c++/10/ostream **** 
 438:/usr/include/c++/10/ostream ****     public:
 439:/usr/include/c++/10/ostream ****       /**
 440:/usr/include/c++/10/ostream ****        *  @brief  The constructor performs preparatory work.
 441:/usr/include/c++/10/ostream ****        *  @param  __os  The output stream to guard.
 442:/usr/include/c++/10/ostream ****        *
 443:/usr/include/c++/10/ostream ****        *  If the stream state is good (@a __os.good() is true), then if the
 444:/usr/include/c++/10/ostream ****        *  stream is tied to another output stream, @c is.tie()->flush()
 445:/usr/include/c++/10/ostream ****        *  is called to synchronize the output sequences.
AARCH64 GAS  obj/Chapter12_2.s 			page 10


 446:/usr/include/c++/10/ostream ****        *
 447:/usr/include/c++/10/ostream ****        *  If the stream state is still good, then the sentry state becomes
 448:/usr/include/c++/10/ostream ****        *  true (@a okay).
 449:/usr/include/c++/10/ostream ****       */
 450:/usr/include/c++/10/ostream ****       explicit
 451:/usr/include/c++/10/ostream ****       sentry(basic_ostream<_CharT, _Traits>& __os);
 452:/usr/include/c++/10/ostream **** 
 453:/usr/include/c++/10/ostream **** #pragma GCC diagnostic push
 454:/usr/include/c++/10/ostream **** #pragma GCC diagnostic ignored "-Wdeprecated-declarations"
 455:/usr/include/c++/10/ostream ****       /**
 456:/usr/include/c++/10/ostream ****        *  @brief  Possibly flushes the stream.
 457:/usr/include/c++/10/ostream ****        *
 458:/usr/include/c++/10/ostream ****        *  If @c ios_base::unitbuf is set in @c os.flags(), and
 459:/usr/include/c++/10/ostream ****        *  @c std::uncaught_exception() is true, the sentry destructor calls
 460:/usr/include/c++/10/ostream ****        *  @c flush() on the output stream.
 461:/usr/include/c++/10/ostream ****       */
 462:/usr/include/c++/10/ostream ****       ~sentry()
 463:/usr/include/c++/10/ostream ****       {
 464:/usr/include/c++/10/ostream **** 	// XXX MT
 465:/usr/include/c++/10/ostream **** 	if (bool(_M_os.flags() & ios_base::unitbuf) && !uncaught_exception())
 466:/usr/include/c++/10/ostream **** 	  {
 467:/usr/include/c++/10/ostream **** 	    // Can't call flush directly or else will get into recursive lock.
 468:/usr/include/c++/10/ostream **** 	    if (_M_os.rdbuf() && _M_os.rdbuf()->pubsync() == -1)
 469:/usr/include/c++/10/ostream **** 	      _M_os.setstate(ios_base::badbit);
 470:/usr/include/c++/10/ostream **** 	  }
 471:/usr/include/c++/10/ostream ****       }
 472:/usr/include/c++/10/ostream **** #pragma GCC diagnostic pop
 473:/usr/include/c++/10/ostream **** 
 474:/usr/include/c++/10/ostream ****       /**
 475:/usr/include/c++/10/ostream ****        *  @brief  Quick status checking.
 476:/usr/include/c++/10/ostream ****        *  @return  The sentry state.
 477:/usr/include/c++/10/ostream ****        *
 478:/usr/include/c++/10/ostream ****        *  For ease of use, sentries may be converted to booleans.  The
 479:/usr/include/c++/10/ostream ****        *  return value is that of the sentry state (true == okay).
 480:/usr/include/c++/10/ostream ****       */
 481:/usr/include/c++/10/ostream **** #if __cplusplus >= 201103L
 482:/usr/include/c++/10/ostream ****       explicit
 483:/usr/include/c++/10/ostream **** #endif
 484:/usr/include/c++/10/ostream ****       operator bool() const
 485:/usr/include/c++/10/ostream ****       { return _M_ok; }
 486:/usr/include/c++/10/ostream ****     };
 487:/usr/include/c++/10/ostream **** 
 488:/usr/include/c++/10/ostream ****   //@{
 489:/usr/include/c++/10/ostream ****   /**
 490:/usr/include/c++/10/ostream ****    *  @brief  Character inserters
 491:/usr/include/c++/10/ostream ****    *  @param  __out  An output stream.
 492:/usr/include/c++/10/ostream ****    *  @param  __c  A character.
 493:/usr/include/c++/10/ostream ****    *  @return  out
 494:/usr/include/c++/10/ostream ****    *
 495:/usr/include/c++/10/ostream ****    *  Behaves like one of the formatted arithmetic inserters described in
 496:/usr/include/c++/10/ostream ****    *  std::basic_ostream.  After constructing a sentry object with good
 497:/usr/include/c++/10/ostream ****    *  status, this function inserts a single character and any required
 498:/usr/include/c++/10/ostream ****    *  padding (as determined by [22.2.2.2.2]).  @c __out.width(0) is then
 499:/usr/include/c++/10/ostream ****    *  called.
 500:/usr/include/c++/10/ostream ****    *
 501:/usr/include/c++/10/ostream ****    *  If @p __c is of type @c char and the character type of the stream is not
 502:/usr/include/c++/10/ostream ****    *  @c char, the character is widened before insertion.
AARCH64 GAS  obj/Chapter12_2.s 			page 11


 503:/usr/include/c++/10/ostream ****   */
 504:/usr/include/c++/10/ostream ****   template<typename _CharT, typename _Traits>
 505:/usr/include/c++/10/ostream ****     inline basic_ostream<_CharT, _Traits>&
 506:/usr/include/c++/10/ostream ****     operator<<(basic_ostream<_CharT, _Traits>& __out, _CharT __c)
 507:/usr/include/c++/10/ostream ****     { return __ostream_insert(__out, &__c, 1); }
 508:/usr/include/c++/10/ostream **** 
 509:/usr/include/c++/10/ostream ****   template<typename _CharT, typename _Traits>
 510:/usr/include/c++/10/ostream ****     inline basic_ostream<_CharT, _Traits>&
 511:/usr/include/c++/10/ostream ****     operator<<(basic_ostream<_CharT, _Traits>& __out, char __c)
 512:/usr/include/c++/10/ostream ****     { return (__out << __out.widen(__c)); }
 513:/usr/include/c++/10/ostream **** 
 514:/usr/include/c++/10/ostream ****   // Specialization
 515:/usr/include/c++/10/ostream ****   template<typename _Traits>
 516:/usr/include/c++/10/ostream ****     inline basic_ostream<char, _Traits>&
 517:/usr/include/c++/10/ostream ****     operator<<(basic_ostream<char, _Traits>& __out, char __c)
 518:/usr/include/c++/10/ostream ****     { return __ostream_insert(__out, &__c, 1); }
 519:/usr/include/c++/10/ostream **** 
 520:/usr/include/c++/10/ostream ****   // Signed and unsigned
 521:/usr/include/c++/10/ostream ****   template<typename _Traits>
 522:/usr/include/c++/10/ostream ****     inline basic_ostream<char, _Traits>&
 523:/usr/include/c++/10/ostream ****     operator<<(basic_ostream<char, _Traits>& __out, signed char __c)
 524:/usr/include/c++/10/ostream ****     { return (__out << static_cast<char>(__c)); }
 525:/usr/include/c++/10/ostream **** 
 526:/usr/include/c++/10/ostream ****   template<typename _Traits>
 527:/usr/include/c++/10/ostream ****     inline basic_ostream<char, _Traits>&
 528:/usr/include/c++/10/ostream ****     operator<<(basic_ostream<char, _Traits>& __out, unsigned char __c)
 529:/usr/include/c++/10/ostream ****     { return (__out << static_cast<char>(__c)); }
 530:/usr/include/c++/10/ostream **** 
 531:/usr/include/c++/10/ostream **** #if __cplusplus > 201703L
 532:/usr/include/c++/10/ostream ****   // The following deleted overloads prevent formatting character values as
 533:/usr/include/c++/10/ostream ****   // numeric values.
 534:/usr/include/c++/10/ostream **** 
 535:/usr/include/c++/10/ostream **** #ifdef _GLIBCXX_USE_WCHAR_T
 536:/usr/include/c++/10/ostream ****   template<typename _Traits>
 537:/usr/include/c++/10/ostream ****     basic_ostream<char, _Traits>&
 538:/usr/include/c++/10/ostream ****     operator<<(basic_ostream<char, _Traits>&, wchar_t) = delete;
 539:/usr/include/c++/10/ostream **** #endif // _GLIBCXX_USE_WCHAR_T
 540:/usr/include/c++/10/ostream **** 
 541:/usr/include/c++/10/ostream **** #ifdef _GLIBCXX_USE_CHAR8_T
 542:/usr/include/c++/10/ostream ****   template<typename _Traits>
 543:/usr/include/c++/10/ostream ****     basic_ostream<char, _Traits>&
 544:/usr/include/c++/10/ostream ****     operator<<(basic_ostream<char, _Traits>&, char8_t) = delete;
 545:/usr/include/c++/10/ostream **** #endif
 546:/usr/include/c++/10/ostream **** 
 547:/usr/include/c++/10/ostream ****   template<typename _Traits>
 548:/usr/include/c++/10/ostream ****     basic_ostream<char, _Traits>&
 549:/usr/include/c++/10/ostream ****     operator<<(basic_ostream<char, _Traits>&, char16_t) = delete;
 550:/usr/include/c++/10/ostream **** 
 551:/usr/include/c++/10/ostream ****   template<typename _Traits>
 552:/usr/include/c++/10/ostream ****     basic_ostream<char, _Traits>&
 553:/usr/include/c++/10/ostream ****     operator<<(basic_ostream<char, _Traits>&, char32_t) = delete;
 554:/usr/include/c++/10/ostream **** 
 555:/usr/include/c++/10/ostream **** #ifdef _GLIBCXX_USE_WCHAR_T
 556:/usr/include/c++/10/ostream **** #ifdef _GLIBCXX_USE_CHAR8_T
 557:/usr/include/c++/10/ostream ****   template<typename _Traits>
 558:/usr/include/c++/10/ostream ****     basic_ostream<wchar_t, _Traits>&
 559:/usr/include/c++/10/ostream ****     operator<<(basic_ostream<wchar_t, _Traits>&, char8_t) = delete;
AARCH64 GAS  obj/Chapter12_2.s 			page 12


 560:/usr/include/c++/10/ostream **** #endif // _GLIBCXX_USE_CHAR8_T
 561:/usr/include/c++/10/ostream **** 
 562:/usr/include/c++/10/ostream ****   template<typename _Traits>
 563:/usr/include/c++/10/ostream ****     basic_ostream<wchar_t, _Traits>&
 564:/usr/include/c++/10/ostream ****     operator<<(basic_ostream<wchar_t, _Traits>&, char16_t) = delete;
 565:/usr/include/c++/10/ostream **** 
 566:/usr/include/c++/10/ostream ****   template<typename _Traits>
 567:/usr/include/c++/10/ostream ****     basic_ostream<wchar_t, _Traits>&
 568:/usr/include/c++/10/ostream ****     operator<<(basic_ostream<wchar_t, _Traits>&, char32_t) = delete;
 569:/usr/include/c++/10/ostream **** #endif // _GLIBCXX_USE_WCHAR_T
 570:/usr/include/c++/10/ostream **** #endif // C++20
 571:/usr/include/c++/10/ostream ****   //@}
 572:/usr/include/c++/10/ostream **** 
 573:/usr/include/c++/10/ostream ****   //@{
 574:/usr/include/c++/10/ostream ****   /**
 575:/usr/include/c++/10/ostream ****    *  @brief  String inserters
 576:/usr/include/c++/10/ostream ****    *  @param  __out  An output stream.
 577:/usr/include/c++/10/ostream ****    *  @param  __s  A character string.
 578:/usr/include/c++/10/ostream ****    *  @return  out
 579:/usr/include/c++/10/ostream ****    *  @pre  @p __s must be a non-NULL pointer
 580:/usr/include/c++/10/ostream ****    *
 581:/usr/include/c++/10/ostream ****    *  Behaves like one of the formatted arithmetic inserters described in
 582:/usr/include/c++/10/ostream ****    *  std::basic_ostream.  After constructing a sentry object with good
 583:/usr/include/c++/10/ostream ****    *  status, this function inserts @c traits::length(__s) characters starting
 584:/usr/include/c++/10/ostream ****    *  at @p __s, widened if necessary, followed by any required padding (as
 585:/usr/include/c++/10/ostream ****    *  determined by [22.2.2.2.2]).  @c __out.width(0) is then called.
 586:/usr/include/c++/10/ostream ****   */
 587:/usr/include/c++/10/ostream ****   template<typename _CharT, typename _Traits>
 588:/usr/include/c++/10/ostream ****     inline basic_ostream<_CharT, _Traits>&
 589:/usr/include/c++/10/ostream ****     operator<<(basic_ostream<_CharT, _Traits>& __out, const _CharT* __s)
 590:/usr/include/c++/10/ostream ****     {
 591:/usr/include/c++/10/ostream ****       if (!__s)
 592:/usr/include/c++/10/ostream **** 	__out.setstate(ios_base::badbit);
 593:/usr/include/c++/10/ostream ****       else
 594:/usr/include/c++/10/ostream **** 	__ostream_insert(__out, __s,
 595:/usr/include/c++/10/ostream **** 			 static_cast<streamsize>(_Traits::length(__s)));
 596:/usr/include/c++/10/ostream ****       return __out;
 597:/usr/include/c++/10/ostream ****     }
 598:/usr/include/c++/10/ostream **** 
 599:/usr/include/c++/10/ostream ****   template<typename _CharT, typename _Traits>
 600:/usr/include/c++/10/ostream ****     basic_ostream<_CharT, _Traits> &
 601:/usr/include/c++/10/ostream ****     operator<<(basic_ostream<_CharT, _Traits>& __out, const char* __s);
 602:/usr/include/c++/10/ostream **** 
 603:/usr/include/c++/10/ostream ****   // Partial specializations
 604:/usr/include/c++/10/ostream ****   template<typename _Traits>
 605:/usr/include/c++/10/ostream ****     inline basic_ostream<char, _Traits>&
 606:/usr/include/c++/10/ostream ****     operator<<(basic_ostream<char, _Traits>& __out, const char* __s)
 607:/usr/include/c++/10/ostream ****     {
 608:/usr/include/c++/10/ostream ****       if (!__s)
 609:/usr/include/c++/10/ostream **** 	__out.setstate(ios_base::badbit);
 610:/usr/include/c++/10/ostream ****       else
 611:/usr/include/c++/10/ostream **** 	__ostream_insert(__out, __s,
 612:/usr/include/c++/10/ostream **** 			 static_cast<streamsize>(_Traits::length(__s)));
 613:/usr/include/c++/10/ostream ****       return __out;
 614:/usr/include/c++/10/ostream ****     }
 615:/usr/include/c++/10/ostream **** 
 616:/usr/include/c++/10/ostream ****   // Signed and unsigned
AARCH64 GAS  obj/Chapter12_2.s 			page 13


 617:/usr/include/c++/10/ostream ****   template<typename _Traits>
 618:/usr/include/c++/10/ostream ****     inline basic_ostream<char, _Traits>&
 619:/usr/include/c++/10/ostream ****     operator<<(basic_ostream<char, _Traits>& __out, const signed char* __s)
 620:/usr/include/c++/10/ostream ****     { return (__out << reinterpret_cast<const char*>(__s)); }
 621:/usr/include/c++/10/ostream **** 
 622:/usr/include/c++/10/ostream ****   template<typename _Traits>
 623:/usr/include/c++/10/ostream ****     inline basic_ostream<char, _Traits> &
 624:/usr/include/c++/10/ostream ****     operator<<(basic_ostream<char, _Traits>& __out, const unsigned char* __s)
 625:/usr/include/c++/10/ostream ****     { return (__out << reinterpret_cast<const char*>(__s)); }
 626:/usr/include/c++/10/ostream **** 
 627:/usr/include/c++/10/ostream **** #if __cplusplus > 201703L
 628:/usr/include/c++/10/ostream ****    // The following deleted overloads prevent formatting strings as
 629:/usr/include/c++/10/ostream ****    // pointer values.
 630:/usr/include/c++/10/ostream **** 
 631:/usr/include/c++/10/ostream **** #ifdef _GLIBCXX_USE_WCHAR_T
 632:/usr/include/c++/10/ostream ****   template<typename _Traits>
 633:/usr/include/c++/10/ostream ****     basic_ostream<char, _Traits>&
 634:/usr/include/c++/10/ostream ****     operator<<(basic_ostream<char, _Traits>&, const wchar_t*) = delete;
 635:/usr/include/c++/10/ostream **** #endif // _GLIBCXX_USE_WCHAR_T
 636:/usr/include/c++/10/ostream **** 
 637:/usr/include/c++/10/ostream **** #ifdef _GLIBCXX_USE_CHAR8_T
 638:/usr/include/c++/10/ostream ****   template<typename _Traits>
 639:/usr/include/c++/10/ostream ****     basic_ostream<char, _Traits>&
 640:/usr/include/c++/10/ostream ****     operator<<(basic_ostream<char, _Traits>&, const char8_t*) = delete;
 641:/usr/include/c++/10/ostream **** #endif // _GLIBCXX_USE_CHAR8_T
 642:/usr/include/c++/10/ostream **** 
 643:/usr/include/c++/10/ostream ****   template<typename _Traits>
 644:/usr/include/c++/10/ostream ****     basic_ostream<char, _Traits>&
 645:/usr/include/c++/10/ostream ****     operator<<(basic_ostream<char, _Traits>&, const char16_t*) = delete;
 646:/usr/include/c++/10/ostream **** 
 647:/usr/include/c++/10/ostream ****   template<typename _Traits>
 648:/usr/include/c++/10/ostream ****     basic_ostream<char, _Traits>&
 649:/usr/include/c++/10/ostream ****     operator<<(basic_ostream<char, _Traits>&, const char32_t*) = delete;
 650:/usr/include/c++/10/ostream **** 
 651:/usr/include/c++/10/ostream **** #ifdef _GLIBCXX_USE_WCHAR_T
 652:/usr/include/c++/10/ostream **** #ifdef _GLIBCXX_USE_CHAR8_T
 653:/usr/include/c++/10/ostream ****   template<typename _Traits>
 654:/usr/include/c++/10/ostream ****     basic_ostream<wchar_t, _Traits>&
 655:/usr/include/c++/10/ostream ****     operator<<(basic_ostream<wchar_t, _Traits>&, const char8_t*) = delete;
 656:/usr/include/c++/10/ostream **** #endif
 657:/usr/include/c++/10/ostream **** 
 658:/usr/include/c++/10/ostream ****   template<typename _Traits>
 659:/usr/include/c++/10/ostream ****     basic_ostream<wchar_t, _Traits>&
 660:/usr/include/c++/10/ostream ****     operator<<(basic_ostream<wchar_t, _Traits>&, const char16_t*) = delete;
 661:/usr/include/c++/10/ostream **** 
 662:/usr/include/c++/10/ostream ****   template<typename _Traits>
 663:/usr/include/c++/10/ostream ****     basic_ostream<wchar_t, _Traits>&
 664:/usr/include/c++/10/ostream ****     operator<<(basic_ostream<wchar_t, _Traits>&, const char32_t*) = delete;
 665:/usr/include/c++/10/ostream **** #endif // _GLIBCXX_USE_WCHAR_T
 666:/usr/include/c++/10/ostream **** #endif // C++20
 667:/usr/include/c++/10/ostream ****   //@}
 668:/usr/include/c++/10/ostream **** 
 669:/usr/include/c++/10/ostream ****   // Standard basic_ostream manipulators
 670:/usr/include/c++/10/ostream **** 
 671:/usr/include/c++/10/ostream ****   /**
 672:/usr/include/c++/10/ostream ****    *  @brief  Write a newline and flush the stream.
 673:/usr/include/c++/10/ostream ****    *
AARCH64 GAS  obj/Chapter12_2.s 			page 14


 674:/usr/include/c++/10/ostream ****    *  This manipulator is often mistakenly used when a simple newline is
 675:/usr/include/c++/10/ostream ****    *  desired, leading to poor buffering performance.  See
 676:/usr/include/c++/10/ostream ****    *  https://gcc.gnu.org/onlinedocs/libstdc++/manual/streambufs.html#io.streambuf.buffering
 677:/usr/include/c++/10/ostream ****    *  for more on this subject.
 678:/usr/include/c++/10/ostream ****   */
 679:/usr/include/c++/10/ostream ****   template<typename _CharT, typename _Traits>
 680:/usr/include/c++/10/ostream ****     inline basic_ostream<_CharT, _Traits>&
 681:/usr/include/c++/10/ostream ****     endl(basic_ostream<_CharT, _Traits>& __os)
  12              		.loc 1 681 5 view -0
  13              		.cfi_startproc
  14              		.loc 1 681 5 is_stmt 0 view .LVU1
  15 0000 FD7BBEA9 		stp	x29, x30, [sp, -32]!
  16              		.cfi_def_cfa_offset 32
  17              		.cfi_offset 29, -32
  18              		.cfi_offset 30, -24
  19 0004 FD030091 		mov	x29, sp
  20 0008 F35301A9 		stp	x19, x20, [sp, 16]
  21              		.cfi_offset 19, -16
  22              		.cfi_offset 20, -8
  23              		.loc 1 681 5 view .LVU2
  24 000c F30300AA 		mov	x19, x0
 682:/usr/include/c++/10/ostream ****     { return flush(__os.put(__os.widen('\n'))); }
  25              		.loc 1 682 19 view .LVU3
  26 0010 000040F9 		ldr	x0, [x0]
  27              	.LVL1:
  28              		.loc 1 682 19 view .LVU4
  29 0014 00805EF8 		ldr	x0, [x0, -24]
  30 0018 6002008B 		add	x0, x19, x0
  31 001c 147840F9 		ldr	x20, [x0, 240]
  32              	.LVL2:
  33              	.LBB74:
  34              	.LBI74:
  35              		.file 2 "/usr/include/c++/10/bits/basic_ios.h"
   1:/usr/include/c++/10/bits/basic_ios.h **** // Iostreams base classes -*- C++ -*-
   2:/usr/include/c++/10/bits/basic_ios.h **** 
   3:/usr/include/c++/10/bits/basic_ios.h **** // Copyright (C) 1997-2020 Free Software Foundation, Inc.
   4:/usr/include/c++/10/bits/basic_ios.h **** //
   5:/usr/include/c++/10/bits/basic_ios.h **** // This file is part of the GNU ISO C++ Library.  This library is free
   6:/usr/include/c++/10/bits/basic_ios.h **** // software; you can redistribute it and/or modify it under the
   7:/usr/include/c++/10/bits/basic_ios.h **** // terms of the GNU General Public License as published by the
   8:/usr/include/c++/10/bits/basic_ios.h **** // Free Software Foundation; either version 3, or (at your option)
   9:/usr/include/c++/10/bits/basic_ios.h **** // any later version.
  10:/usr/include/c++/10/bits/basic_ios.h **** 
  11:/usr/include/c++/10/bits/basic_ios.h **** // This library is distributed in the hope that it will be useful,
  12:/usr/include/c++/10/bits/basic_ios.h **** // but WITHOUT ANY WARRANTY; without even the implied warranty of
  13:/usr/include/c++/10/bits/basic_ios.h **** // MERCHANTABILITY or FITNESS FOR A PARTICULAR PURPOSE.  See the
  14:/usr/include/c++/10/bits/basic_ios.h **** // GNU General Public License for more details.
  15:/usr/include/c++/10/bits/basic_ios.h **** 
  16:/usr/include/c++/10/bits/basic_ios.h **** // Under Section 7 of GPL version 3, you are granted additional
  17:/usr/include/c++/10/bits/basic_ios.h **** // permissions described in the GCC Runtime Library Exception, version
  18:/usr/include/c++/10/bits/basic_ios.h **** // 3.1, as published by the Free Software Foundation.
  19:/usr/include/c++/10/bits/basic_ios.h **** 
  20:/usr/include/c++/10/bits/basic_ios.h **** // You should have received a copy of the GNU General Public License and
  21:/usr/include/c++/10/bits/basic_ios.h **** // a copy of the GCC Runtime Library Exception along with this program;
  22:/usr/include/c++/10/bits/basic_ios.h **** // see the files COPYING3 and COPYING.RUNTIME respectively.  If not, see
  23:/usr/include/c++/10/bits/basic_ios.h **** // <http://www.gnu.org/licenses/>.
  24:/usr/include/c++/10/bits/basic_ios.h **** 
AARCH64 GAS  obj/Chapter12_2.s 			page 15


  25:/usr/include/c++/10/bits/basic_ios.h **** /** @file bits/basic_ios.h
  26:/usr/include/c++/10/bits/basic_ios.h ****  *  This is an internal header file, included by other library headers.
  27:/usr/include/c++/10/bits/basic_ios.h ****  *  Do not attempt to use it directly. @headername{ios}
  28:/usr/include/c++/10/bits/basic_ios.h ****  */
  29:/usr/include/c++/10/bits/basic_ios.h **** 
  30:/usr/include/c++/10/bits/basic_ios.h **** #ifndef _BASIC_IOS_H
  31:/usr/include/c++/10/bits/basic_ios.h **** #define _BASIC_IOS_H 1
  32:/usr/include/c++/10/bits/basic_ios.h **** 
  33:/usr/include/c++/10/bits/basic_ios.h **** #pragma GCC system_header
  34:/usr/include/c++/10/bits/basic_ios.h **** 
  35:/usr/include/c++/10/bits/basic_ios.h **** #include <bits/localefwd.h>
  36:/usr/include/c++/10/bits/basic_ios.h **** #include <bits/locale_classes.h>
  37:/usr/include/c++/10/bits/basic_ios.h **** #include <bits/locale_facets.h>
  38:/usr/include/c++/10/bits/basic_ios.h **** #include <bits/streambuf_iterator.h>
  39:/usr/include/c++/10/bits/basic_ios.h **** #include <bits/move.h>
  40:/usr/include/c++/10/bits/basic_ios.h **** 
  41:/usr/include/c++/10/bits/basic_ios.h **** namespace std _GLIBCXX_VISIBILITY(default)
  42:/usr/include/c++/10/bits/basic_ios.h **** {
  43:/usr/include/c++/10/bits/basic_ios.h **** _GLIBCXX_BEGIN_NAMESPACE_VERSION
  44:/usr/include/c++/10/bits/basic_ios.h **** 
  45:/usr/include/c++/10/bits/basic_ios.h ****   template<typename _Facet>
  46:/usr/include/c++/10/bits/basic_ios.h ****     inline const _Facet&
  47:/usr/include/c++/10/bits/basic_ios.h ****     __check_facet(const _Facet* __f)
  48:/usr/include/c++/10/bits/basic_ios.h ****     {
  49:/usr/include/c++/10/bits/basic_ios.h ****       if (!__f)
  50:/usr/include/c++/10/bits/basic_ios.h **** 	__throw_bad_cast();
  51:/usr/include/c++/10/bits/basic_ios.h ****       return *__f;
  52:/usr/include/c++/10/bits/basic_ios.h ****     }
  53:/usr/include/c++/10/bits/basic_ios.h **** 
  54:/usr/include/c++/10/bits/basic_ios.h ****   /**
  55:/usr/include/c++/10/bits/basic_ios.h ****    *  @brief Template class basic_ios, virtual base class for all
  56:/usr/include/c++/10/bits/basic_ios.h ****    *  stream classes. 
  57:/usr/include/c++/10/bits/basic_ios.h ****    *  @ingroup io
  58:/usr/include/c++/10/bits/basic_ios.h ****    *
  59:/usr/include/c++/10/bits/basic_ios.h ****    *  @tparam _CharT  Type of character stream.
  60:/usr/include/c++/10/bits/basic_ios.h ****    *  @tparam _Traits  Traits for character type, defaults to
  61:/usr/include/c++/10/bits/basic_ios.h ****    *                   char_traits<_CharT>.
  62:/usr/include/c++/10/bits/basic_ios.h ****    *
  63:/usr/include/c++/10/bits/basic_ios.h ****    *  Most of the member functions called dispatched on stream objects
  64:/usr/include/c++/10/bits/basic_ios.h ****    *  (e.g., @c std::cout.foo(bar);) are consolidated in this class.
  65:/usr/include/c++/10/bits/basic_ios.h ****   */
  66:/usr/include/c++/10/bits/basic_ios.h ****   template<typename _CharT, typename _Traits>
  67:/usr/include/c++/10/bits/basic_ios.h ****     class basic_ios : public ios_base
  68:/usr/include/c++/10/bits/basic_ios.h ****     {
  69:/usr/include/c++/10/bits/basic_ios.h ****     public:
  70:/usr/include/c++/10/bits/basic_ios.h ****       //@{
  71:/usr/include/c++/10/bits/basic_ios.h ****       /**
  72:/usr/include/c++/10/bits/basic_ios.h ****        *  These are standard types.  They permit a standardized way of
  73:/usr/include/c++/10/bits/basic_ios.h ****        *  referring to names of (or names dependent on) the template
  74:/usr/include/c++/10/bits/basic_ios.h ****        *  parameters, which are specific to the implementation.
  75:/usr/include/c++/10/bits/basic_ios.h ****       */
  76:/usr/include/c++/10/bits/basic_ios.h ****       typedef _CharT                                 char_type;
  77:/usr/include/c++/10/bits/basic_ios.h ****       typedef typename _Traits::int_type             int_type;
  78:/usr/include/c++/10/bits/basic_ios.h ****       typedef typename _Traits::pos_type             pos_type;
  79:/usr/include/c++/10/bits/basic_ios.h ****       typedef typename _Traits::off_type             off_type;
  80:/usr/include/c++/10/bits/basic_ios.h ****       typedef _Traits                                traits_type;
  81:/usr/include/c++/10/bits/basic_ios.h ****       //@}
AARCH64 GAS  obj/Chapter12_2.s 			page 16


  82:/usr/include/c++/10/bits/basic_ios.h **** 
  83:/usr/include/c++/10/bits/basic_ios.h ****       //@{
  84:/usr/include/c++/10/bits/basic_ios.h ****       /**
  85:/usr/include/c++/10/bits/basic_ios.h ****        *  These are non-standard types.
  86:/usr/include/c++/10/bits/basic_ios.h ****       */
  87:/usr/include/c++/10/bits/basic_ios.h ****       typedef ctype<_CharT>                          __ctype_type;
  88:/usr/include/c++/10/bits/basic_ios.h ****       typedef num_put<_CharT, ostreambuf_iterator<_CharT, _Traits> >
  89:/usr/include/c++/10/bits/basic_ios.h **** 						     __num_put_type;
  90:/usr/include/c++/10/bits/basic_ios.h ****       typedef num_get<_CharT, istreambuf_iterator<_CharT, _Traits> >
  91:/usr/include/c++/10/bits/basic_ios.h **** 						     __num_get_type;
  92:/usr/include/c++/10/bits/basic_ios.h ****       //@}
  93:/usr/include/c++/10/bits/basic_ios.h **** 
  94:/usr/include/c++/10/bits/basic_ios.h ****       // Data members:
  95:/usr/include/c++/10/bits/basic_ios.h ****     protected:
  96:/usr/include/c++/10/bits/basic_ios.h ****       basic_ostream<_CharT, _Traits>*                _M_tie;
  97:/usr/include/c++/10/bits/basic_ios.h ****       mutable char_type                              _M_fill;
  98:/usr/include/c++/10/bits/basic_ios.h ****       mutable bool                                   _M_fill_init;
  99:/usr/include/c++/10/bits/basic_ios.h ****       basic_streambuf<_CharT, _Traits>*              _M_streambuf;
 100:/usr/include/c++/10/bits/basic_ios.h **** 
 101:/usr/include/c++/10/bits/basic_ios.h ****       // Cached use_facet<ctype>, which is based on the current locale info.
 102:/usr/include/c++/10/bits/basic_ios.h ****       const __ctype_type*                            _M_ctype;
 103:/usr/include/c++/10/bits/basic_ios.h ****       // For ostream.
 104:/usr/include/c++/10/bits/basic_ios.h ****       const __num_put_type*                          _M_num_put;
 105:/usr/include/c++/10/bits/basic_ios.h ****       // For istream.
 106:/usr/include/c++/10/bits/basic_ios.h ****       const __num_get_type*                          _M_num_get;
 107:/usr/include/c++/10/bits/basic_ios.h **** 
 108:/usr/include/c++/10/bits/basic_ios.h ****     public:
 109:/usr/include/c++/10/bits/basic_ios.h ****       //@{
 110:/usr/include/c++/10/bits/basic_ios.h ****       /**
 111:/usr/include/c++/10/bits/basic_ios.h ****        *  @brief  The quick-and-easy status check.
 112:/usr/include/c++/10/bits/basic_ios.h ****        *
 113:/usr/include/c++/10/bits/basic_ios.h ****        *  This allows you to write constructs such as
 114:/usr/include/c++/10/bits/basic_ios.h ****        *  <code>if (!a_stream) ...</code> and <code>while (a_stream) ...</code>
 115:/usr/include/c++/10/bits/basic_ios.h ****       */
 116:/usr/include/c++/10/bits/basic_ios.h **** #if __cplusplus >= 201103L
 117:/usr/include/c++/10/bits/basic_ios.h ****       explicit operator bool() const
 118:/usr/include/c++/10/bits/basic_ios.h ****       { return !this->fail(); }
 119:/usr/include/c++/10/bits/basic_ios.h **** #else
 120:/usr/include/c++/10/bits/basic_ios.h ****       operator void*() const
 121:/usr/include/c++/10/bits/basic_ios.h ****       { return this->fail() ? 0 : const_cast<basic_ios*>(this); }
 122:/usr/include/c++/10/bits/basic_ios.h **** #endif
 123:/usr/include/c++/10/bits/basic_ios.h **** 
 124:/usr/include/c++/10/bits/basic_ios.h ****       bool
 125:/usr/include/c++/10/bits/basic_ios.h ****       operator!() const
 126:/usr/include/c++/10/bits/basic_ios.h ****       { return this->fail(); }
 127:/usr/include/c++/10/bits/basic_ios.h ****       //@}
 128:/usr/include/c++/10/bits/basic_ios.h **** 
 129:/usr/include/c++/10/bits/basic_ios.h ****       /**
 130:/usr/include/c++/10/bits/basic_ios.h ****        *  @brief  Returns the error state of the stream buffer.
 131:/usr/include/c++/10/bits/basic_ios.h ****        *  @return  A bit pattern (well, isn't everything?)
 132:/usr/include/c++/10/bits/basic_ios.h ****        *
 133:/usr/include/c++/10/bits/basic_ios.h ****        *  See std::ios_base::iostate for the possible bit values.  Most
 134:/usr/include/c++/10/bits/basic_ios.h ****        *  users will call one of the interpreting wrappers, e.g., good().
 135:/usr/include/c++/10/bits/basic_ios.h ****       */
 136:/usr/include/c++/10/bits/basic_ios.h ****       iostate
 137:/usr/include/c++/10/bits/basic_ios.h ****       rdstate() const
 138:/usr/include/c++/10/bits/basic_ios.h ****       { return _M_streambuf_state; }
AARCH64 GAS  obj/Chapter12_2.s 			page 17


 139:/usr/include/c++/10/bits/basic_ios.h **** 
 140:/usr/include/c++/10/bits/basic_ios.h ****       /**
 141:/usr/include/c++/10/bits/basic_ios.h ****        *  @brief  [Re]sets the error state.
 142:/usr/include/c++/10/bits/basic_ios.h ****        *  @param  __state  The new state flag(s) to set.
 143:/usr/include/c++/10/bits/basic_ios.h ****        *
 144:/usr/include/c++/10/bits/basic_ios.h ****        *  See std::ios_base::iostate for the possible bit values.  Most
 145:/usr/include/c++/10/bits/basic_ios.h ****        *  users will not need to pass an argument.
 146:/usr/include/c++/10/bits/basic_ios.h ****       */
 147:/usr/include/c++/10/bits/basic_ios.h ****       void
 148:/usr/include/c++/10/bits/basic_ios.h ****       clear(iostate __state = goodbit);
 149:/usr/include/c++/10/bits/basic_ios.h **** 
 150:/usr/include/c++/10/bits/basic_ios.h ****       /**
 151:/usr/include/c++/10/bits/basic_ios.h ****        *  @brief  Sets additional flags in the error state.
 152:/usr/include/c++/10/bits/basic_ios.h ****        *  @param  __state  The additional state flag(s) to set.
 153:/usr/include/c++/10/bits/basic_ios.h ****        *
 154:/usr/include/c++/10/bits/basic_ios.h ****        *  See std::ios_base::iostate for the possible bit values.
 155:/usr/include/c++/10/bits/basic_ios.h ****       */
 156:/usr/include/c++/10/bits/basic_ios.h ****       void
 157:/usr/include/c++/10/bits/basic_ios.h ****       setstate(iostate __state)
 158:/usr/include/c++/10/bits/basic_ios.h ****       { this->clear(this->rdstate() | __state); }
 159:/usr/include/c++/10/bits/basic_ios.h **** 
 160:/usr/include/c++/10/bits/basic_ios.h ****       // Flip the internal state on for the proper state bits, then
 161:/usr/include/c++/10/bits/basic_ios.h ****       // rethrows the propagated exception if bit also set in
 162:/usr/include/c++/10/bits/basic_ios.h ****       // exceptions().
 163:/usr/include/c++/10/bits/basic_ios.h ****       void
 164:/usr/include/c++/10/bits/basic_ios.h ****       _M_setstate(iostate __state)
 165:/usr/include/c++/10/bits/basic_ios.h ****       {
 166:/usr/include/c++/10/bits/basic_ios.h **** 	// 27.6.1.2.1 Common requirements.
 167:/usr/include/c++/10/bits/basic_ios.h **** 	// Turn this on without causing an ios::failure to be thrown.
 168:/usr/include/c++/10/bits/basic_ios.h **** 	_M_streambuf_state |= __state;
 169:/usr/include/c++/10/bits/basic_ios.h **** 	if (this->exceptions() & __state)
 170:/usr/include/c++/10/bits/basic_ios.h **** 	  __throw_exception_again;
 171:/usr/include/c++/10/bits/basic_ios.h ****       }
 172:/usr/include/c++/10/bits/basic_ios.h **** 
 173:/usr/include/c++/10/bits/basic_ios.h ****       /**
 174:/usr/include/c++/10/bits/basic_ios.h ****        *  @brief  Fast error checking.
 175:/usr/include/c++/10/bits/basic_ios.h ****        *  @return  True if no error flags are set.
 176:/usr/include/c++/10/bits/basic_ios.h ****        *
 177:/usr/include/c++/10/bits/basic_ios.h ****        *  A wrapper around rdstate.
 178:/usr/include/c++/10/bits/basic_ios.h ****       */
 179:/usr/include/c++/10/bits/basic_ios.h ****       bool
 180:/usr/include/c++/10/bits/basic_ios.h ****       good() const
 181:/usr/include/c++/10/bits/basic_ios.h ****       { return this->rdstate() == 0; }
 182:/usr/include/c++/10/bits/basic_ios.h **** 
 183:/usr/include/c++/10/bits/basic_ios.h ****       /**
 184:/usr/include/c++/10/bits/basic_ios.h ****        *  @brief  Fast error checking.
 185:/usr/include/c++/10/bits/basic_ios.h ****        *  @return  True if the eofbit is set.
 186:/usr/include/c++/10/bits/basic_ios.h ****        *
 187:/usr/include/c++/10/bits/basic_ios.h ****        *  Note that other iostate flags may also be set.
 188:/usr/include/c++/10/bits/basic_ios.h ****       */
 189:/usr/include/c++/10/bits/basic_ios.h ****       bool
 190:/usr/include/c++/10/bits/basic_ios.h ****       eof() const
 191:/usr/include/c++/10/bits/basic_ios.h ****       { return (this->rdstate() & eofbit) != 0; }
 192:/usr/include/c++/10/bits/basic_ios.h **** 
 193:/usr/include/c++/10/bits/basic_ios.h ****       /**
 194:/usr/include/c++/10/bits/basic_ios.h ****        *  @brief  Fast error checking.
 195:/usr/include/c++/10/bits/basic_ios.h ****        *  @return  True if either the badbit or the failbit is set.
AARCH64 GAS  obj/Chapter12_2.s 			page 18


 196:/usr/include/c++/10/bits/basic_ios.h ****        *
 197:/usr/include/c++/10/bits/basic_ios.h ****        *  Checking the badbit in fail() is historical practice.
 198:/usr/include/c++/10/bits/basic_ios.h ****        *  Note that other iostate flags may also be set.
 199:/usr/include/c++/10/bits/basic_ios.h ****       */
 200:/usr/include/c++/10/bits/basic_ios.h ****       bool
 201:/usr/include/c++/10/bits/basic_ios.h ****       fail() const
 202:/usr/include/c++/10/bits/basic_ios.h ****       { return (this->rdstate() & (badbit | failbit)) != 0; }
 203:/usr/include/c++/10/bits/basic_ios.h **** 
 204:/usr/include/c++/10/bits/basic_ios.h ****       /**
 205:/usr/include/c++/10/bits/basic_ios.h ****        *  @brief  Fast error checking.
 206:/usr/include/c++/10/bits/basic_ios.h ****        *  @return  True if the badbit is set.
 207:/usr/include/c++/10/bits/basic_ios.h ****        *
 208:/usr/include/c++/10/bits/basic_ios.h ****        *  Note that other iostate flags may also be set.
 209:/usr/include/c++/10/bits/basic_ios.h ****       */
 210:/usr/include/c++/10/bits/basic_ios.h ****       bool
 211:/usr/include/c++/10/bits/basic_ios.h ****       bad() const
 212:/usr/include/c++/10/bits/basic_ios.h ****       { return (this->rdstate() & badbit) != 0; }
 213:/usr/include/c++/10/bits/basic_ios.h **** 
 214:/usr/include/c++/10/bits/basic_ios.h ****       /**
 215:/usr/include/c++/10/bits/basic_ios.h ****        *  @brief  Throwing exceptions on errors.
 216:/usr/include/c++/10/bits/basic_ios.h ****        *  @return  The current exceptions mask.
 217:/usr/include/c++/10/bits/basic_ios.h ****        *
 218:/usr/include/c++/10/bits/basic_ios.h ****        *  This changes nothing in the stream.  See the one-argument version
 219:/usr/include/c++/10/bits/basic_ios.h ****        *  of exceptions(iostate) for the meaning of the return value.
 220:/usr/include/c++/10/bits/basic_ios.h ****       */
 221:/usr/include/c++/10/bits/basic_ios.h ****       iostate
 222:/usr/include/c++/10/bits/basic_ios.h ****       exceptions() const
 223:/usr/include/c++/10/bits/basic_ios.h ****       { return _M_exception; }
 224:/usr/include/c++/10/bits/basic_ios.h **** 
 225:/usr/include/c++/10/bits/basic_ios.h ****       /**
 226:/usr/include/c++/10/bits/basic_ios.h ****        *  @brief  Throwing exceptions on errors.
 227:/usr/include/c++/10/bits/basic_ios.h ****        *  @param  __except  The new exceptions mask.
 228:/usr/include/c++/10/bits/basic_ios.h ****        *
 229:/usr/include/c++/10/bits/basic_ios.h ****        *  By default, error flags are set silently.  You can set an
 230:/usr/include/c++/10/bits/basic_ios.h ****        *  exceptions mask for each stream; if a bit in the mask becomes set
 231:/usr/include/c++/10/bits/basic_ios.h ****        *  in the error flags, then an exception of type
 232:/usr/include/c++/10/bits/basic_ios.h ****        *  std::ios_base::failure is thrown.
 233:/usr/include/c++/10/bits/basic_ios.h ****        *
 234:/usr/include/c++/10/bits/basic_ios.h ****        *  If the error flag is already set when the exceptions mask is
 235:/usr/include/c++/10/bits/basic_ios.h ****        *  added, the exception is immediately thrown.  Try running the
 236:/usr/include/c++/10/bits/basic_ios.h ****        *  following under GCC 3.1 or later:
 237:/usr/include/c++/10/bits/basic_ios.h ****        *  @code
 238:/usr/include/c++/10/bits/basic_ios.h ****        *  #include <iostream>
 239:/usr/include/c++/10/bits/basic_ios.h ****        *  #include <fstream>
 240:/usr/include/c++/10/bits/basic_ios.h ****        *  #include <exception>
 241:/usr/include/c++/10/bits/basic_ios.h ****        *
 242:/usr/include/c++/10/bits/basic_ios.h ****        *  int main()
 243:/usr/include/c++/10/bits/basic_ios.h ****        *  {
 244:/usr/include/c++/10/bits/basic_ios.h ****        *      std::set_terminate (__gnu_cxx::__verbose_terminate_handler);
 245:/usr/include/c++/10/bits/basic_ios.h ****        *
 246:/usr/include/c++/10/bits/basic_ios.h ****        *      std::ifstream f ("/etc/motd");
 247:/usr/include/c++/10/bits/basic_ios.h ****        *
 248:/usr/include/c++/10/bits/basic_ios.h ****        *      std::cerr << "Setting badbit\n";
 249:/usr/include/c++/10/bits/basic_ios.h ****        *      f.setstate (std::ios_base::badbit);
 250:/usr/include/c++/10/bits/basic_ios.h ****        *
 251:/usr/include/c++/10/bits/basic_ios.h ****        *      std::cerr << "Setting exception mask\n";
 252:/usr/include/c++/10/bits/basic_ios.h ****        *      f.exceptions (std::ios_base::badbit);
AARCH64 GAS  obj/Chapter12_2.s 			page 19


 253:/usr/include/c++/10/bits/basic_ios.h ****        *  }
 254:/usr/include/c++/10/bits/basic_ios.h ****        *  @endcode
 255:/usr/include/c++/10/bits/basic_ios.h ****       */
 256:/usr/include/c++/10/bits/basic_ios.h ****       void
 257:/usr/include/c++/10/bits/basic_ios.h ****       exceptions(iostate __except)
 258:/usr/include/c++/10/bits/basic_ios.h ****       {
 259:/usr/include/c++/10/bits/basic_ios.h ****         _M_exception = __except;
 260:/usr/include/c++/10/bits/basic_ios.h ****         this->clear(_M_streambuf_state);
 261:/usr/include/c++/10/bits/basic_ios.h ****       }
 262:/usr/include/c++/10/bits/basic_ios.h **** 
 263:/usr/include/c++/10/bits/basic_ios.h ****       // Constructor/destructor:
 264:/usr/include/c++/10/bits/basic_ios.h ****       /**
 265:/usr/include/c++/10/bits/basic_ios.h ****        *  @brief  Constructor performs initialization.
 266:/usr/include/c++/10/bits/basic_ios.h ****        *
 267:/usr/include/c++/10/bits/basic_ios.h ****        *  The parameter is passed by derived streams.
 268:/usr/include/c++/10/bits/basic_ios.h ****       */
 269:/usr/include/c++/10/bits/basic_ios.h ****       explicit
 270:/usr/include/c++/10/bits/basic_ios.h ****       basic_ios(basic_streambuf<_CharT, _Traits>* __sb)
 271:/usr/include/c++/10/bits/basic_ios.h ****       : ios_base(), _M_tie(0), _M_fill(), _M_fill_init(false), _M_streambuf(0),
 272:/usr/include/c++/10/bits/basic_ios.h **** 	_M_ctype(0), _M_num_put(0), _M_num_get(0)
 273:/usr/include/c++/10/bits/basic_ios.h ****       { this->init(__sb); }
 274:/usr/include/c++/10/bits/basic_ios.h **** 
 275:/usr/include/c++/10/bits/basic_ios.h ****       /**
 276:/usr/include/c++/10/bits/basic_ios.h ****        *  @brief  Empty.
 277:/usr/include/c++/10/bits/basic_ios.h ****        *
 278:/usr/include/c++/10/bits/basic_ios.h ****        *  The destructor does nothing.  More specifically, it does not
 279:/usr/include/c++/10/bits/basic_ios.h ****        *  destroy the streambuf held by rdbuf().
 280:/usr/include/c++/10/bits/basic_ios.h ****       */
 281:/usr/include/c++/10/bits/basic_ios.h ****       virtual
 282:/usr/include/c++/10/bits/basic_ios.h ****       ~basic_ios() { }
 283:/usr/include/c++/10/bits/basic_ios.h **** 
 284:/usr/include/c++/10/bits/basic_ios.h ****       // Members:
 285:/usr/include/c++/10/bits/basic_ios.h ****       /**
 286:/usr/include/c++/10/bits/basic_ios.h ****        *  @brief  Fetches the current @e tied stream.
 287:/usr/include/c++/10/bits/basic_ios.h ****        *  @return  A pointer to the tied stream, or NULL if the stream is
 288:/usr/include/c++/10/bits/basic_ios.h ****        *           not tied.
 289:/usr/include/c++/10/bits/basic_ios.h ****        *
 290:/usr/include/c++/10/bits/basic_ios.h ****        *  A stream may be @e tied (or synchronized) to a second output
 291:/usr/include/c++/10/bits/basic_ios.h ****        *  stream.  When this stream performs any I/O, the tied stream is
 292:/usr/include/c++/10/bits/basic_ios.h ****        *  first flushed.  For example, @c std::cin is tied to @c std::cout.
 293:/usr/include/c++/10/bits/basic_ios.h ****       */
 294:/usr/include/c++/10/bits/basic_ios.h ****       basic_ostream<_CharT, _Traits>*
 295:/usr/include/c++/10/bits/basic_ios.h ****       tie() const
 296:/usr/include/c++/10/bits/basic_ios.h ****       { return _M_tie; }
 297:/usr/include/c++/10/bits/basic_ios.h **** 
 298:/usr/include/c++/10/bits/basic_ios.h ****       /**
 299:/usr/include/c++/10/bits/basic_ios.h ****        *  @brief  Ties this stream to an output stream.
 300:/usr/include/c++/10/bits/basic_ios.h ****        *  @param  __tiestr  The output stream.
 301:/usr/include/c++/10/bits/basic_ios.h ****        *  @return  The previously tied output stream, or NULL if the stream
 302:/usr/include/c++/10/bits/basic_ios.h ****        *           was not tied.
 303:/usr/include/c++/10/bits/basic_ios.h ****        *
 304:/usr/include/c++/10/bits/basic_ios.h ****        *  This sets up a new tie; see tie() for more.
 305:/usr/include/c++/10/bits/basic_ios.h ****       */
 306:/usr/include/c++/10/bits/basic_ios.h ****       basic_ostream<_CharT, _Traits>*
 307:/usr/include/c++/10/bits/basic_ios.h ****       tie(basic_ostream<_CharT, _Traits>* __tiestr)
 308:/usr/include/c++/10/bits/basic_ios.h ****       {
 309:/usr/include/c++/10/bits/basic_ios.h ****         basic_ostream<_CharT, _Traits>* __old = _M_tie;
AARCH64 GAS  obj/Chapter12_2.s 			page 20


 310:/usr/include/c++/10/bits/basic_ios.h ****         _M_tie = __tiestr;
 311:/usr/include/c++/10/bits/basic_ios.h ****         return __old;
 312:/usr/include/c++/10/bits/basic_ios.h ****       }
 313:/usr/include/c++/10/bits/basic_ios.h **** 
 314:/usr/include/c++/10/bits/basic_ios.h ****       /**
 315:/usr/include/c++/10/bits/basic_ios.h ****        *  @brief  Accessing the underlying buffer.
 316:/usr/include/c++/10/bits/basic_ios.h ****        *  @return  The current stream buffer.
 317:/usr/include/c++/10/bits/basic_ios.h ****        *
 318:/usr/include/c++/10/bits/basic_ios.h ****        *  This does not change the state of the stream.
 319:/usr/include/c++/10/bits/basic_ios.h ****       */
 320:/usr/include/c++/10/bits/basic_ios.h ****       basic_streambuf<_CharT, _Traits>*
 321:/usr/include/c++/10/bits/basic_ios.h ****       rdbuf() const
 322:/usr/include/c++/10/bits/basic_ios.h ****       { return _M_streambuf; }
 323:/usr/include/c++/10/bits/basic_ios.h **** 
 324:/usr/include/c++/10/bits/basic_ios.h ****       /**
 325:/usr/include/c++/10/bits/basic_ios.h ****        *  @brief  Changing the underlying buffer.
 326:/usr/include/c++/10/bits/basic_ios.h ****        *  @param  __sb  The new stream buffer.
 327:/usr/include/c++/10/bits/basic_ios.h ****        *  @return  The previous stream buffer.
 328:/usr/include/c++/10/bits/basic_ios.h ****        *
 329:/usr/include/c++/10/bits/basic_ios.h ****        *  Associates a new buffer with the current stream, and clears the
 330:/usr/include/c++/10/bits/basic_ios.h ****        *  error state.
 331:/usr/include/c++/10/bits/basic_ios.h ****        *
 332:/usr/include/c++/10/bits/basic_ios.h ****        *  Due to historical accidents which the LWG refuses to correct, the
 333:/usr/include/c++/10/bits/basic_ios.h ****        *  I/O library suffers from a design error:  this function is hidden
 334:/usr/include/c++/10/bits/basic_ios.h ****        *  in derived classes by overrides of the zero-argument @c rdbuf(),
 335:/usr/include/c++/10/bits/basic_ios.h ****        *  which is non-virtual for hysterical raisins.  As a result, you
 336:/usr/include/c++/10/bits/basic_ios.h ****        *  must use explicit qualifications to access this function via any
 337:/usr/include/c++/10/bits/basic_ios.h ****        *  derived class.  For example:
 338:/usr/include/c++/10/bits/basic_ios.h ****        *
 339:/usr/include/c++/10/bits/basic_ios.h ****        *  @code
 340:/usr/include/c++/10/bits/basic_ios.h ****        *  std::fstream     foo;         // or some other derived type
 341:/usr/include/c++/10/bits/basic_ios.h ****        *  std::streambuf*  p = .....;
 342:/usr/include/c++/10/bits/basic_ios.h ****        *
 343:/usr/include/c++/10/bits/basic_ios.h ****        *  foo.ios::rdbuf(p);            // ios == basic_ios<char>
 344:/usr/include/c++/10/bits/basic_ios.h ****        *  @endcode
 345:/usr/include/c++/10/bits/basic_ios.h ****       */
 346:/usr/include/c++/10/bits/basic_ios.h ****       basic_streambuf<_CharT, _Traits>*
 347:/usr/include/c++/10/bits/basic_ios.h ****       rdbuf(basic_streambuf<_CharT, _Traits>* __sb);
 348:/usr/include/c++/10/bits/basic_ios.h **** 
 349:/usr/include/c++/10/bits/basic_ios.h ****       /**
 350:/usr/include/c++/10/bits/basic_ios.h ****        *  @brief  Copies fields of __rhs into this.
 351:/usr/include/c++/10/bits/basic_ios.h ****        *  @param  __rhs  The source values for the copies.
 352:/usr/include/c++/10/bits/basic_ios.h ****        *  @return  Reference to this object.
 353:/usr/include/c++/10/bits/basic_ios.h ****        *
 354:/usr/include/c++/10/bits/basic_ios.h ****        *  All fields of __rhs are copied into this object except that rdbuf()
 355:/usr/include/c++/10/bits/basic_ios.h ****        *  and rdstate() remain unchanged.  All values in the pword and iword
 356:/usr/include/c++/10/bits/basic_ios.h ****        *  arrays are copied.  Before copying, each callback is invoked with
 357:/usr/include/c++/10/bits/basic_ios.h ****        *  erase_event.  After copying, each (new) callback is invoked with
 358:/usr/include/c++/10/bits/basic_ios.h ****        *  copyfmt_event.  The final step is to copy exceptions().
 359:/usr/include/c++/10/bits/basic_ios.h ****       */
 360:/usr/include/c++/10/bits/basic_ios.h ****       basic_ios&
 361:/usr/include/c++/10/bits/basic_ios.h ****       copyfmt(const basic_ios& __rhs);
 362:/usr/include/c++/10/bits/basic_ios.h **** 
 363:/usr/include/c++/10/bits/basic_ios.h ****       /**
 364:/usr/include/c++/10/bits/basic_ios.h ****        *  @brief  Retrieves the @a empty character.
 365:/usr/include/c++/10/bits/basic_ios.h ****        *  @return  The current fill character.
 366:/usr/include/c++/10/bits/basic_ios.h ****        *
AARCH64 GAS  obj/Chapter12_2.s 			page 21


 367:/usr/include/c++/10/bits/basic_ios.h ****        *  It defaults to a space (' ') in the current locale.
 368:/usr/include/c++/10/bits/basic_ios.h ****       */
 369:/usr/include/c++/10/bits/basic_ios.h ****       char_type
 370:/usr/include/c++/10/bits/basic_ios.h ****       fill() const
 371:/usr/include/c++/10/bits/basic_ios.h ****       {
 372:/usr/include/c++/10/bits/basic_ios.h **** 	if (!_M_fill_init)
 373:/usr/include/c++/10/bits/basic_ios.h **** 	  {
 374:/usr/include/c++/10/bits/basic_ios.h **** 	    _M_fill = this->widen(' ');
 375:/usr/include/c++/10/bits/basic_ios.h **** 	    _M_fill_init = true;
 376:/usr/include/c++/10/bits/basic_ios.h **** 	  }
 377:/usr/include/c++/10/bits/basic_ios.h **** 	return _M_fill;
 378:/usr/include/c++/10/bits/basic_ios.h ****       }
 379:/usr/include/c++/10/bits/basic_ios.h **** 
 380:/usr/include/c++/10/bits/basic_ios.h ****       /**
 381:/usr/include/c++/10/bits/basic_ios.h ****        *  @brief  Sets a new @a empty character.
 382:/usr/include/c++/10/bits/basic_ios.h ****        *  @param  __ch  The new character.
 383:/usr/include/c++/10/bits/basic_ios.h ****        *  @return  The previous fill character.
 384:/usr/include/c++/10/bits/basic_ios.h ****        *
 385:/usr/include/c++/10/bits/basic_ios.h ****        *  The fill character is used to fill out space when P+ characters
 386:/usr/include/c++/10/bits/basic_ios.h ****        *  have been requested (e.g., via setw), Q characters are actually
 387:/usr/include/c++/10/bits/basic_ios.h ****        *  used, and Q<P.  It defaults to a space (' ') in the current locale.
 388:/usr/include/c++/10/bits/basic_ios.h ****       */
 389:/usr/include/c++/10/bits/basic_ios.h ****       char_type
 390:/usr/include/c++/10/bits/basic_ios.h ****       fill(char_type __ch)
 391:/usr/include/c++/10/bits/basic_ios.h ****       {
 392:/usr/include/c++/10/bits/basic_ios.h **** 	char_type __old = this->fill();
 393:/usr/include/c++/10/bits/basic_ios.h **** 	_M_fill = __ch;
 394:/usr/include/c++/10/bits/basic_ios.h **** 	return __old;
 395:/usr/include/c++/10/bits/basic_ios.h ****       }
 396:/usr/include/c++/10/bits/basic_ios.h **** 
 397:/usr/include/c++/10/bits/basic_ios.h ****       // Locales:
 398:/usr/include/c++/10/bits/basic_ios.h ****       /**
 399:/usr/include/c++/10/bits/basic_ios.h ****        *  @brief  Moves to a new locale.
 400:/usr/include/c++/10/bits/basic_ios.h ****        *  @param  __loc  The new locale.
 401:/usr/include/c++/10/bits/basic_ios.h ****        *  @return  The previous locale.
 402:/usr/include/c++/10/bits/basic_ios.h ****        *
 403:/usr/include/c++/10/bits/basic_ios.h ****        *  Calls @c ios_base::imbue(loc), and if a stream buffer is associated
 404:/usr/include/c++/10/bits/basic_ios.h ****        *  with this stream, calls that buffer's @c pubimbue(loc).
 405:/usr/include/c++/10/bits/basic_ios.h ****        *
 406:/usr/include/c++/10/bits/basic_ios.h ****        *  Additional l10n notes are at
 407:/usr/include/c++/10/bits/basic_ios.h ****        *  http://gcc.gnu.org/onlinedocs/libstdc++/manual/localization.html
 408:/usr/include/c++/10/bits/basic_ios.h ****       */
 409:/usr/include/c++/10/bits/basic_ios.h ****       locale
 410:/usr/include/c++/10/bits/basic_ios.h ****       imbue(const locale& __loc);
 411:/usr/include/c++/10/bits/basic_ios.h **** 
 412:/usr/include/c++/10/bits/basic_ios.h ****       /**
 413:/usr/include/c++/10/bits/basic_ios.h ****        *  @brief  Squeezes characters.
 414:/usr/include/c++/10/bits/basic_ios.h ****        *  @param  __c  The character to narrow.
 415:/usr/include/c++/10/bits/basic_ios.h ****        *  @param  __dfault  The character to narrow.
 416:/usr/include/c++/10/bits/basic_ios.h ****        *  @return  The narrowed character.
 417:/usr/include/c++/10/bits/basic_ios.h ****        *
 418:/usr/include/c++/10/bits/basic_ios.h ****        *  Maps a character of @c char_type to a character of @c char,
 419:/usr/include/c++/10/bits/basic_ios.h ****        *  if possible.
 420:/usr/include/c++/10/bits/basic_ios.h ****        *
 421:/usr/include/c++/10/bits/basic_ios.h ****        *  Returns the result of
 422:/usr/include/c++/10/bits/basic_ios.h ****        *  @code
 423:/usr/include/c++/10/bits/basic_ios.h ****        *    std::use_facet<ctype<char_type> >(getloc()).narrow(c,dfault)
AARCH64 GAS  obj/Chapter12_2.s 			page 22


 424:/usr/include/c++/10/bits/basic_ios.h ****        *  @endcode
 425:/usr/include/c++/10/bits/basic_ios.h ****        *
 426:/usr/include/c++/10/bits/basic_ios.h ****        *  Additional l10n notes are at
 427:/usr/include/c++/10/bits/basic_ios.h ****        *  http://gcc.gnu.org/onlinedocs/libstdc++/manual/localization.html
 428:/usr/include/c++/10/bits/basic_ios.h ****       */
 429:/usr/include/c++/10/bits/basic_ios.h ****       char
 430:/usr/include/c++/10/bits/basic_ios.h ****       narrow(char_type __c, char __dfault) const
 431:/usr/include/c++/10/bits/basic_ios.h ****       { return __check_facet(_M_ctype).narrow(__c, __dfault); }
 432:/usr/include/c++/10/bits/basic_ios.h **** 
 433:/usr/include/c++/10/bits/basic_ios.h ****       /**
 434:/usr/include/c++/10/bits/basic_ios.h ****        *  @brief  Widens characters.
 435:/usr/include/c++/10/bits/basic_ios.h ****        *  @param  __c  The character to widen.
 436:/usr/include/c++/10/bits/basic_ios.h ****        *  @return  The widened character.
 437:/usr/include/c++/10/bits/basic_ios.h ****        *
 438:/usr/include/c++/10/bits/basic_ios.h ****        *  Maps a character of @c char to a character of @c char_type.
 439:/usr/include/c++/10/bits/basic_ios.h ****        *
 440:/usr/include/c++/10/bits/basic_ios.h ****        *  Returns the result of
 441:/usr/include/c++/10/bits/basic_ios.h ****        *  @code
 442:/usr/include/c++/10/bits/basic_ios.h ****        *    std::use_facet<ctype<char_type> >(getloc()).widen(c)
 443:/usr/include/c++/10/bits/basic_ios.h ****        *  @endcode
 444:/usr/include/c++/10/bits/basic_ios.h ****        *
 445:/usr/include/c++/10/bits/basic_ios.h ****        *  Additional l10n notes are at
 446:/usr/include/c++/10/bits/basic_ios.h ****        *  http://gcc.gnu.org/onlinedocs/libstdc++/manual/localization.html
 447:/usr/include/c++/10/bits/basic_ios.h ****       */
 448:/usr/include/c++/10/bits/basic_ios.h ****       char_type
 449:/usr/include/c++/10/bits/basic_ios.h ****       widen(char __c) const
  36              		.loc 2 449 7 is_stmt 1 view .LVU5
  37              	.LBB75:
  38              	.LBI75:
  47:/usr/include/c++/10/bits/basic_ios.h ****     {
  39              		.loc 2 47 5 view .LVU6
  40              	.LBB76:
  49:/usr/include/c++/10/bits/basic_ios.h **** 	__throw_bad_cast();
  41              		.loc 2 49 7 is_stmt 0 view .LVU7
  42 0020 540200B4 		cbz	x20, .L7
  43              	.LVL3:
  49:/usr/include/c++/10/bits/basic_ios.h **** 	__throw_bad_cast();
  44              		.loc 2 49 7 view .LVU8
  45              	.LBE76:
  46              	.LBE75:
  47              	.LBB78:
  48              	.LBI78:
  49              		.file 3 "/usr/include/c++/10/bits/locale_facets.h"
   1:/usr/include/c++/10/bits/locale_facets.h **** // Locale support -*- C++ -*-
   2:/usr/include/c++/10/bits/locale_facets.h **** 
   3:/usr/include/c++/10/bits/locale_facets.h **** // Copyright (C) 1997-2020 Free Software Foundation, Inc.
   4:/usr/include/c++/10/bits/locale_facets.h **** //
   5:/usr/include/c++/10/bits/locale_facets.h **** // This file is part of the GNU ISO C++ Library.  This library is free
   6:/usr/include/c++/10/bits/locale_facets.h **** // software; you can redistribute it and/or modify it under the
   7:/usr/include/c++/10/bits/locale_facets.h **** // terms of the GNU General Public License as published by the
   8:/usr/include/c++/10/bits/locale_facets.h **** // Free Software Foundation; either version 3, or (at your option)
   9:/usr/include/c++/10/bits/locale_facets.h **** // any later version.
  10:/usr/include/c++/10/bits/locale_facets.h **** 
  11:/usr/include/c++/10/bits/locale_facets.h **** // This library is distributed in the hope that it will be useful,
  12:/usr/include/c++/10/bits/locale_facets.h **** // but WITHOUT ANY WARRANTY; without even the implied warranty of
  13:/usr/include/c++/10/bits/locale_facets.h **** // MERCHANTABILITY or FITNESS FOR A PARTICULAR PURPOSE.  See the
  14:/usr/include/c++/10/bits/locale_facets.h **** // GNU General Public License for more details.
AARCH64 GAS  obj/Chapter12_2.s 			page 23


  15:/usr/include/c++/10/bits/locale_facets.h **** 
  16:/usr/include/c++/10/bits/locale_facets.h **** // Under Section 7 of GPL version 3, you are granted additional
  17:/usr/include/c++/10/bits/locale_facets.h **** // permissions described in the GCC Runtime Library Exception, version
  18:/usr/include/c++/10/bits/locale_facets.h **** // 3.1, as published by the Free Software Foundation.
  19:/usr/include/c++/10/bits/locale_facets.h **** 
  20:/usr/include/c++/10/bits/locale_facets.h **** // You should have received a copy of the GNU General Public License and
  21:/usr/include/c++/10/bits/locale_facets.h **** // a copy of the GCC Runtime Library Exception along with this program;
  22:/usr/include/c++/10/bits/locale_facets.h **** // see the files COPYING3 and COPYING.RUNTIME respectively.  If not, see
  23:/usr/include/c++/10/bits/locale_facets.h **** // <http://www.gnu.org/licenses/>.
  24:/usr/include/c++/10/bits/locale_facets.h **** 
  25:/usr/include/c++/10/bits/locale_facets.h **** /** @file bits/locale_facets.h
  26:/usr/include/c++/10/bits/locale_facets.h ****  *  This is an internal header file, included by other library headers.
  27:/usr/include/c++/10/bits/locale_facets.h ****  *  Do not attempt to use it directly. @headername{locale}
  28:/usr/include/c++/10/bits/locale_facets.h ****  */
  29:/usr/include/c++/10/bits/locale_facets.h **** 
  30:/usr/include/c++/10/bits/locale_facets.h **** //
  31:/usr/include/c++/10/bits/locale_facets.h **** // ISO C++ 14882: 22.1  Locales
  32:/usr/include/c++/10/bits/locale_facets.h **** //
  33:/usr/include/c++/10/bits/locale_facets.h **** 
  34:/usr/include/c++/10/bits/locale_facets.h **** #ifndef _LOCALE_FACETS_H
  35:/usr/include/c++/10/bits/locale_facets.h **** #define _LOCALE_FACETS_H 1
  36:/usr/include/c++/10/bits/locale_facets.h **** 
  37:/usr/include/c++/10/bits/locale_facets.h **** #pragma GCC system_header
  38:/usr/include/c++/10/bits/locale_facets.h **** 
  39:/usr/include/c++/10/bits/locale_facets.h **** #include <cwctype>	// For wctype_t
  40:/usr/include/c++/10/bits/locale_facets.h **** #include <cctype>
  41:/usr/include/c++/10/bits/locale_facets.h **** #include <bits/ctype_base.h>
  42:/usr/include/c++/10/bits/locale_facets.h **** #include <iosfwd>
  43:/usr/include/c++/10/bits/locale_facets.h **** #include <bits/ios_base.h>  // For ios_base, ios_base::iostate
  44:/usr/include/c++/10/bits/locale_facets.h **** #include <streambuf>
  45:/usr/include/c++/10/bits/locale_facets.h **** #include <bits/cpp_type_traits.h>
  46:/usr/include/c++/10/bits/locale_facets.h **** #include <ext/type_traits.h>
  47:/usr/include/c++/10/bits/locale_facets.h **** #include <ext/numeric_traits.h>
  48:/usr/include/c++/10/bits/locale_facets.h **** #include <bits/streambuf_iterator.h>
  49:/usr/include/c++/10/bits/locale_facets.h **** 
  50:/usr/include/c++/10/bits/locale_facets.h **** namespace std _GLIBCXX_VISIBILITY(default)
  51:/usr/include/c++/10/bits/locale_facets.h **** {
  52:/usr/include/c++/10/bits/locale_facets.h **** _GLIBCXX_BEGIN_NAMESPACE_VERSION
  53:/usr/include/c++/10/bits/locale_facets.h **** 
  54:/usr/include/c++/10/bits/locale_facets.h ****   // NB: Don't instantiate required wchar_t facets if no wchar_t support.
  55:/usr/include/c++/10/bits/locale_facets.h **** #ifdef _GLIBCXX_USE_WCHAR_T
  56:/usr/include/c++/10/bits/locale_facets.h **** # define  _GLIBCXX_NUM_FACETS 28
  57:/usr/include/c++/10/bits/locale_facets.h **** # define  _GLIBCXX_NUM_CXX11_FACETS 16
  58:/usr/include/c++/10/bits/locale_facets.h **** #else
  59:/usr/include/c++/10/bits/locale_facets.h **** # define  _GLIBCXX_NUM_FACETS 14
  60:/usr/include/c++/10/bits/locale_facets.h **** # define  _GLIBCXX_NUM_CXX11_FACETS 8
  61:/usr/include/c++/10/bits/locale_facets.h **** #endif
  62:/usr/include/c++/10/bits/locale_facets.h **** #ifdef _GLIBCXX_USE_CHAR8_T
  63:/usr/include/c++/10/bits/locale_facets.h **** # define _GLIBCXX_NUM_UNICODE_FACETS 4
  64:/usr/include/c++/10/bits/locale_facets.h **** #else
  65:/usr/include/c++/10/bits/locale_facets.h **** # define _GLIBCXX_NUM_UNICODE_FACETS 2
  66:/usr/include/c++/10/bits/locale_facets.h **** #endif
  67:/usr/include/c++/10/bits/locale_facets.h **** 
  68:/usr/include/c++/10/bits/locale_facets.h ****   // Convert string to numeric value of type _Tp and store results.
  69:/usr/include/c++/10/bits/locale_facets.h ****   // NB: This is specialized for all required types, there is no
  70:/usr/include/c++/10/bits/locale_facets.h ****   // generic definition.
  71:/usr/include/c++/10/bits/locale_facets.h ****   template<typename _Tp>
AARCH64 GAS  obj/Chapter12_2.s 			page 24


  72:/usr/include/c++/10/bits/locale_facets.h ****     void
  73:/usr/include/c++/10/bits/locale_facets.h ****     __convert_to_v(const char*, _Tp&, ios_base::iostate&,
  74:/usr/include/c++/10/bits/locale_facets.h **** 		   const __c_locale&) throw();
  75:/usr/include/c++/10/bits/locale_facets.h **** 
  76:/usr/include/c++/10/bits/locale_facets.h ****   // Explicit specializations for required types.
  77:/usr/include/c++/10/bits/locale_facets.h ****   template<>
  78:/usr/include/c++/10/bits/locale_facets.h ****     void
  79:/usr/include/c++/10/bits/locale_facets.h ****     __convert_to_v(const char*, float&, ios_base::iostate&,
  80:/usr/include/c++/10/bits/locale_facets.h **** 		   const __c_locale&) throw();
  81:/usr/include/c++/10/bits/locale_facets.h **** 
  82:/usr/include/c++/10/bits/locale_facets.h ****   template<>
  83:/usr/include/c++/10/bits/locale_facets.h ****     void
  84:/usr/include/c++/10/bits/locale_facets.h ****     __convert_to_v(const char*, double&, ios_base::iostate&,
  85:/usr/include/c++/10/bits/locale_facets.h **** 		   const __c_locale&) throw();
  86:/usr/include/c++/10/bits/locale_facets.h **** 
  87:/usr/include/c++/10/bits/locale_facets.h ****   template<>
  88:/usr/include/c++/10/bits/locale_facets.h ****     void
  89:/usr/include/c++/10/bits/locale_facets.h ****     __convert_to_v(const char*, long double&, ios_base::iostate&,
  90:/usr/include/c++/10/bits/locale_facets.h **** 		   const __c_locale&) throw();
  91:/usr/include/c++/10/bits/locale_facets.h **** 
  92:/usr/include/c++/10/bits/locale_facets.h ****   // NB: __pad is a struct, rather than a function, so it can be
  93:/usr/include/c++/10/bits/locale_facets.h ****   // partially-specialized.
  94:/usr/include/c++/10/bits/locale_facets.h ****   template<typename _CharT, typename _Traits>
  95:/usr/include/c++/10/bits/locale_facets.h ****     struct __pad
  96:/usr/include/c++/10/bits/locale_facets.h ****     {
  97:/usr/include/c++/10/bits/locale_facets.h ****       static void
  98:/usr/include/c++/10/bits/locale_facets.h ****       _S_pad(ios_base& __io, _CharT __fill, _CharT* __news,
  99:/usr/include/c++/10/bits/locale_facets.h **** 	     const _CharT* __olds, streamsize __newlen, streamsize __oldlen);
 100:/usr/include/c++/10/bits/locale_facets.h ****     };
 101:/usr/include/c++/10/bits/locale_facets.h **** 
 102:/usr/include/c++/10/bits/locale_facets.h ****   // Used by both numeric and monetary facets.
 103:/usr/include/c++/10/bits/locale_facets.h ****   // Inserts "group separator" characters into an array of characters.
 104:/usr/include/c++/10/bits/locale_facets.h ****   // It's recursive, one iteration per group.  It moves the characters
 105:/usr/include/c++/10/bits/locale_facets.h ****   // in the buffer this way: "xxxx12345" -> "12,345xxx".  Call this
 106:/usr/include/c++/10/bits/locale_facets.h ****   // only with __gsize != 0.
 107:/usr/include/c++/10/bits/locale_facets.h ****   template<typename _CharT>
 108:/usr/include/c++/10/bits/locale_facets.h ****     _CharT*
 109:/usr/include/c++/10/bits/locale_facets.h ****     __add_grouping(_CharT* __s, _CharT __sep,
 110:/usr/include/c++/10/bits/locale_facets.h **** 		   const char* __gbeg, size_t __gsize,
 111:/usr/include/c++/10/bits/locale_facets.h **** 		   const _CharT* __first, const _CharT* __last);
 112:/usr/include/c++/10/bits/locale_facets.h **** 
 113:/usr/include/c++/10/bits/locale_facets.h ****   // This template permits specializing facet output code for
 114:/usr/include/c++/10/bits/locale_facets.h ****   // ostreambuf_iterator.  For ostreambuf_iterator, sputn is
 115:/usr/include/c++/10/bits/locale_facets.h ****   // significantly more efficient than incrementing iterators.
 116:/usr/include/c++/10/bits/locale_facets.h ****   template<typename _CharT>
 117:/usr/include/c++/10/bits/locale_facets.h ****     inline
 118:/usr/include/c++/10/bits/locale_facets.h ****     ostreambuf_iterator<_CharT>
 119:/usr/include/c++/10/bits/locale_facets.h ****     __write(ostreambuf_iterator<_CharT> __s, const _CharT* __ws, int __len)
 120:/usr/include/c++/10/bits/locale_facets.h ****     {
 121:/usr/include/c++/10/bits/locale_facets.h ****       __s._M_put(__ws, __len);
 122:/usr/include/c++/10/bits/locale_facets.h ****       return __s;
 123:/usr/include/c++/10/bits/locale_facets.h ****     }
 124:/usr/include/c++/10/bits/locale_facets.h **** 
 125:/usr/include/c++/10/bits/locale_facets.h ****   // This is the unspecialized form of the template.
 126:/usr/include/c++/10/bits/locale_facets.h ****   template<typename _CharT, typename _OutIter>
 127:/usr/include/c++/10/bits/locale_facets.h ****     inline
 128:/usr/include/c++/10/bits/locale_facets.h ****     _OutIter
AARCH64 GAS  obj/Chapter12_2.s 			page 25


 129:/usr/include/c++/10/bits/locale_facets.h ****     __write(_OutIter __s, const _CharT* __ws, int __len)
 130:/usr/include/c++/10/bits/locale_facets.h ****     {
 131:/usr/include/c++/10/bits/locale_facets.h ****       for (int __j = 0; __j < __len; __j++, ++__s)
 132:/usr/include/c++/10/bits/locale_facets.h **** 	*__s = __ws[__j];
 133:/usr/include/c++/10/bits/locale_facets.h ****       return __s;
 134:/usr/include/c++/10/bits/locale_facets.h ****     }
 135:/usr/include/c++/10/bits/locale_facets.h **** 
 136:/usr/include/c++/10/bits/locale_facets.h **** 
 137:/usr/include/c++/10/bits/locale_facets.h ****   // 22.2.1.1  Template class ctype
 138:/usr/include/c++/10/bits/locale_facets.h ****   // Include host and configuration specific ctype enums for ctype_base.
 139:/usr/include/c++/10/bits/locale_facets.h **** 
 140:/usr/include/c++/10/bits/locale_facets.h ****   /**
 141:/usr/include/c++/10/bits/locale_facets.h ****    *  @brief  Common base for ctype facet
 142:/usr/include/c++/10/bits/locale_facets.h ****    *
 143:/usr/include/c++/10/bits/locale_facets.h ****    *  This template class provides implementations of the public functions
 144:/usr/include/c++/10/bits/locale_facets.h ****    *  that forward to the protected virtual functions.
 145:/usr/include/c++/10/bits/locale_facets.h ****    *
 146:/usr/include/c++/10/bits/locale_facets.h ****    *  This template also provides abstract stubs for the protected virtual
 147:/usr/include/c++/10/bits/locale_facets.h ****    *  functions.
 148:/usr/include/c++/10/bits/locale_facets.h ****   */
 149:/usr/include/c++/10/bits/locale_facets.h ****   template<typename _CharT>
 150:/usr/include/c++/10/bits/locale_facets.h ****     class __ctype_abstract_base : public locale::facet, public ctype_base
 151:/usr/include/c++/10/bits/locale_facets.h ****     {
 152:/usr/include/c++/10/bits/locale_facets.h ****     public:
 153:/usr/include/c++/10/bits/locale_facets.h ****       // Types:
 154:/usr/include/c++/10/bits/locale_facets.h ****       /// Typedef for the template parameter
 155:/usr/include/c++/10/bits/locale_facets.h ****       typedef _CharT char_type;
 156:/usr/include/c++/10/bits/locale_facets.h **** 
 157:/usr/include/c++/10/bits/locale_facets.h ****       /**
 158:/usr/include/c++/10/bits/locale_facets.h ****        *  @brief  Test char_type classification.
 159:/usr/include/c++/10/bits/locale_facets.h ****        *
 160:/usr/include/c++/10/bits/locale_facets.h ****        *  This function finds a mask M for @a __c and compares it to
 161:/usr/include/c++/10/bits/locale_facets.h ****        *  mask @a __m.  It does so by returning the value of
 162:/usr/include/c++/10/bits/locale_facets.h ****        *  ctype<char_type>::do_is().
 163:/usr/include/c++/10/bits/locale_facets.h ****        *
 164:/usr/include/c++/10/bits/locale_facets.h ****        *  @param __c  The char_type to compare the mask of.
 165:/usr/include/c++/10/bits/locale_facets.h ****        *  @param __m  The mask to compare against.
 166:/usr/include/c++/10/bits/locale_facets.h ****        *  @return  (M & __m) != 0.
 167:/usr/include/c++/10/bits/locale_facets.h ****       */
 168:/usr/include/c++/10/bits/locale_facets.h ****       bool
 169:/usr/include/c++/10/bits/locale_facets.h ****       is(mask __m, char_type __c) const
 170:/usr/include/c++/10/bits/locale_facets.h ****       { return this->do_is(__m, __c); }
 171:/usr/include/c++/10/bits/locale_facets.h **** 
 172:/usr/include/c++/10/bits/locale_facets.h ****       /**
 173:/usr/include/c++/10/bits/locale_facets.h ****        *  @brief  Return a mask array.
 174:/usr/include/c++/10/bits/locale_facets.h ****        *
 175:/usr/include/c++/10/bits/locale_facets.h ****        *  This function finds the mask for each char_type in the range [lo,hi)
 176:/usr/include/c++/10/bits/locale_facets.h ****        *  and successively writes it to vec.  vec must have as many elements
 177:/usr/include/c++/10/bits/locale_facets.h ****        *  as the char array.  It does so by returning the value of
 178:/usr/include/c++/10/bits/locale_facets.h ****        *  ctype<char_type>::do_is().
 179:/usr/include/c++/10/bits/locale_facets.h ****        *
 180:/usr/include/c++/10/bits/locale_facets.h ****        *  @param __lo  Pointer to start of range.
 181:/usr/include/c++/10/bits/locale_facets.h ****        *  @param __hi  Pointer to end of range.
 182:/usr/include/c++/10/bits/locale_facets.h ****        *  @param __vec  Pointer to an array of mask storage.
 183:/usr/include/c++/10/bits/locale_facets.h ****        *  @return  @a __hi.
 184:/usr/include/c++/10/bits/locale_facets.h ****       */
 185:/usr/include/c++/10/bits/locale_facets.h ****       const char_type*
AARCH64 GAS  obj/Chapter12_2.s 			page 26


 186:/usr/include/c++/10/bits/locale_facets.h ****       is(const char_type *__lo, const char_type *__hi, mask *__vec) const
 187:/usr/include/c++/10/bits/locale_facets.h ****       { return this->do_is(__lo, __hi, __vec); }
 188:/usr/include/c++/10/bits/locale_facets.h **** 
 189:/usr/include/c++/10/bits/locale_facets.h ****       /**
 190:/usr/include/c++/10/bits/locale_facets.h ****        *  @brief  Find char_type matching a mask
 191:/usr/include/c++/10/bits/locale_facets.h ****        *
 192:/usr/include/c++/10/bits/locale_facets.h ****        *  This function searches for and returns the first char_type c in
 193:/usr/include/c++/10/bits/locale_facets.h ****        *  [lo,hi) for which is(m,c) is true.  It does so by returning
 194:/usr/include/c++/10/bits/locale_facets.h ****        *  ctype<char_type>::do_scan_is().
 195:/usr/include/c++/10/bits/locale_facets.h ****        *
 196:/usr/include/c++/10/bits/locale_facets.h ****        *  @param __m  The mask to compare against.
 197:/usr/include/c++/10/bits/locale_facets.h ****        *  @param __lo  Pointer to start of range.
 198:/usr/include/c++/10/bits/locale_facets.h ****        *  @param __hi  Pointer to end of range.
 199:/usr/include/c++/10/bits/locale_facets.h ****        *  @return  Pointer to matching char_type if found, else @a __hi.
 200:/usr/include/c++/10/bits/locale_facets.h ****       */
 201:/usr/include/c++/10/bits/locale_facets.h ****       const char_type*
 202:/usr/include/c++/10/bits/locale_facets.h ****       scan_is(mask __m, const char_type* __lo, const char_type* __hi) const
 203:/usr/include/c++/10/bits/locale_facets.h ****       { return this->do_scan_is(__m, __lo, __hi); }
 204:/usr/include/c++/10/bits/locale_facets.h **** 
 205:/usr/include/c++/10/bits/locale_facets.h ****       /**
 206:/usr/include/c++/10/bits/locale_facets.h ****        *  @brief  Find char_type not matching a mask
 207:/usr/include/c++/10/bits/locale_facets.h ****        *
 208:/usr/include/c++/10/bits/locale_facets.h ****        *  This function searches for and returns the first char_type c in
 209:/usr/include/c++/10/bits/locale_facets.h ****        *  [lo,hi) for which is(m,c) is false.  It does so by returning
 210:/usr/include/c++/10/bits/locale_facets.h ****        *  ctype<char_type>::do_scan_not().
 211:/usr/include/c++/10/bits/locale_facets.h ****        *
 212:/usr/include/c++/10/bits/locale_facets.h ****        *  @param __m  The mask to compare against.
 213:/usr/include/c++/10/bits/locale_facets.h ****        *  @param __lo  Pointer to first char in range.
 214:/usr/include/c++/10/bits/locale_facets.h ****        *  @param __hi  Pointer to end of range.
 215:/usr/include/c++/10/bits/locale_facets.h ****        *  @return  Pointer to non-matching char if found, else @a __hi.
 216:/usr/include/c++/10/bits/locale_facets.h ****       */
 217:/usr/include/c++/10/bits/locale_facets.h ****       const char_type*
 218:/usr/include/c++/10/bits/locale_facets.h ****       scan_not(mask __m, const char_type* __lo, const char_type* __hi) const
 219:/usr/include/c++/10/bits/locale_facets.h ****       { return this->do_scan_not(__m, __lo, __hi); }
 220:/usr/include/c++/10/bits/locale_facets.h **** 
 221:/usr/include/c++/10/bits/locale_facets.h ****       /**
 222:/usr/include/c++/10/bits/locale_facets.h ****        *  @brief  Convert to uppercase.
 223:/usr/include/c++/10/bits/locale_facets.h ****        *
 224:/usr/include/c++/10/bits/locale_facets.h ****        *  This function converts the argument to uppercase if possible.
 225:/usr/include/c++/10/bits/locale_facets.h ****        *  If not possible (for example, '2'), returns the argument.  It does
 226:/usr/include/c++/10/bits/locale_facets.h ****        *  so by returning ctype<char_type>::do_toupper().
 227:/usr/include/c++/10/bits/locale_facets.h ****        *
 228:/usr/include/c++/10/bits/locale_facets.h ****        *  @param __c  The char_type to convert.
 229:/usr/include/c++/10/bits/locale_facets.h ****        *  @return  The uppercase char_type if convertible, else @a __c.
 230:/usr/include/c++/10/bits/locale_facets.h ****       */
 231:/usr/include/c++/10/bits/locale_facets.h ****       char_type
 232:/usr/include/c++/10/bits/locale_facets.h ****       toupper(char_type __c) const
 233:/usr/include/c++/10/bits/locale_facets.h ****       { return this->do_toupper(__c); }
 234:/usr/include/c++/10/bits/locale_facets.h **** 
 235:/usr/include/c++/10/bits/locale_facets.h ****       /**
 236:/usr/include/c++/10/bits/locale_facets.h ****        *  @brief  Convert array to uppercase.
 237:/usr/include/c++/10/bits/locale_facets.h ****        *
 238:/usr/include/c++/10/bits/locale_facets.h ****        *  This function converts each char_type in the range [lo,hi) to
 239:/usr/include/c++/10/bits/locale_facets.h ****        *  uppercase if possible.  Other elements remain untouched.  It does so
 240:/usr/include/c++/10/bits/locale_facets.h ****        *  by returning ctype<char_type>:: do_toupper(lo, hi).
 241:/usr/include/c++/10/bits/locale_facets.h ****        *
 242:/usr/include/c++/10/bits/locale_facets.h ****        *  @param __lo  Pointer to start of range.
AARCH64 GAS  obj/Chapter12_2.s 			page 27


 243:/usr/include/c++/10/bits/locale_facets.h ****        *  @param __hi  Pointer to end of range.
 244:/usr/include/c++/10/bits/locale_facets.h ****        *  @return  @a __hi.
 245:/usr/include/c++/10/bits/locale_facets.h ****       */
 246:/usr/include/c++/10/bits/locale_facets.h ****       const char_type*
 247:/usr/include/c++/10/bits/locale_facets.h ****       toupper(char_type *__lo, const char_type* __hi) const
 248:/usr/include/c++/10/bits/locale_facets.h ****       { return this->do_toupper(__lo, __hi); }
 249:/usr/include/c++/10/bits/locale_facets.h **** 
 250:/usr/include/c++/10/bits/locale_facets.h ****       /**
 251:/usr/include/c++/10/bits/locale_facets.h ****        *  @brief  Convert to lowercase.
 252:/usr/include/c++/10/bits/locale_facets.h ****        *
 253:/usr/include/c++/10/bits/locale_facets.h ****        *  This function converts the argument to lowercase if possible.  If
 254:/usr/include/c++/10/bits/locale_facets.h ****        *  not possible (for example, '2'), returns the argument.  It does so
 255:/usr/include/c++/10/bits/locale_facets.h ****        *  by returning ctype<char_type>::do_tolower(c).
 256:/usr/include/c++/10/bits/locale_facets.h ****        *
 257:/usr/include/c++/10/bits/locale_facets.h ****        *  @param __c  The char_type to convert.
 258:/usr/include/c++/10/bits/locale_facets.h ****        *  @return  The lowercase char_type if convertible, else @a __c.
 259:/usr/include/c++/10/bits/locale_facets.h ****       */
 260:/usr/include/c++/10/bits/locale_facets.h ****       char_type
 261:/usr/include/c++/10/bits/locale_facets.h ****       tolower(char_type __c) const
 262:/usr/include/c++/10/bits/locale_facets.h ****       { return this->do_tolower(__c); }
 263:/usr/include/c++/10/bits/locale_facets.h **** 
 264:/usr/include/c++/10/bits/locale_facets.h ****       /**
 265:/usr/include/c++/10/bits/locale_facets.h ****        *  @brief  Convert array to lowercase.
 266:/usr/include/c++/10/bits/locale_facets.h ****        *
 267:/usr/include/c++/10/bits/locale_facets.h ****        *  This function converts each char_type in the range [__lo,__hi) to
 268:/usr/include/c++/10/bits/locale_facets.h ****        *  lowercase if possible.  Other elements remain untouched.  It does so
 269:/usr/include/c++/10/bits/locale_facets.h ****        *  by returning ctype<char_type>:: do_tolower(__lo, __hi).
 270:/usr/include/c++/10/bits/locale_facets.h ****        *
 271:/usr/include/c++/10/bits/locale_facets.h ****        *  @param __lo  Pointer to start of range.
 272:/usr/include/c++/10/bits/locale_facets.h ****        *  @param __hi  Pointer to end of range.
 273:/usr/include/c++/10/bits/locale_facets.h ****        *  @return  @a __hi.
 274:/usr/include/c++/10/bits/locale_facets.h ****       */
 275:/usr/include/c++/10/bits/locale_facets.h ****       const char_type*
 276:/usr/include/c++/10/bits/locale_facets.h ****       tolower(char_type* __lo, const char_type* __hi) const
 277:/usr/include/c++/10/bits/locale_facets.h ****       { return this->do_tolower(__lo, __hi); }
 278:/usr/include/c++/10/bits/locale_facets.h **** 
 279:/usr/include/c++/10/bits/locale_facets.h ****       /**
 280:/usr/include/c++/10/bits/locale_facets.h ****        *  @brief  Widen char to char_type
 281:/usr/include/c++/10/bits/locale_facets.h ****        *
 282:/usr/include/c++/10/bits/locale_facets.h ****        *  This function converts the char argument to char_type using the
 283:/usr/include/c++/10/bits/locale_facets.h ****        *  simplest reasonable transformation.  It does so by returning
 284:/usr/include/c++/10/bits/locale_facets.h ****        *  ctype<char_type>::do_widen(c).
 285:/usr/include/c++/10/bits/locale_facets.h ****        *
 286:/usr/include/c++/10/bits/locale_facets.h ****        *  Note: this is not what you want for codepage conversions.  See
 287:/usr/include/c++/10/bits/locale_facets.h ****        *  codecvt for that.
 288:/usr/include/c++/10/bits/locale_facets.h ****        *
 289:/usr/include/c++/10/bits/locale_facets.h ****        *  @param __c  The char to convert.
 290:/usr/include/c++/10/bits/locale_facets.h ****        *  @return  The converted char_type.
 291:/usr/include/c++/10/bits/locale_facets.h ****       */
 292:/usr/include/c++/10/bits/locale_facets.h ****       char_type
 293:/usr/include/c++/10/bits/locale_facets.h ****       widen(char __c) const
 294:/usr/include/c++/10/bits/locale_facets.h ****       { return this->do_widen(__c); }
 295:/usr/include/c++/10/bits/locale_facets.h **** 
 296:/usr/include/c++/10/bits/locale_facets.h ****       /**
 297:/usr/include/c++/10/bits/locale_facets.h ****        *  @brief  Widen array to char_type
 298:/usr/include/c++/10/bits/locale_facets.h ****        *
 299:/usr/include/c++/10/bits/locale_facets.h ****        *  This function converts each char in the input to char_type using the
AARCH64 GAS  obj/Chapter12_2.s 			page 28


 300:/usr/include/c++/10/bits/locale_facets.h ****        *  simplest reasonable transformation.  It does so by returning
 301:/usr/include/c++/10/bits/locale_facets.h ****        *  ctype<char_type>::do_widen(c).
 302:/usr/include/c++/10/bits/locale_facets.h ****        *
 303:/usr/include/c++/10/bits/locale_facets.h ****        *  Note: this is not what you want for codepage conversions.  See
 304:/usr/include/c++/10/bits/locale_facets.h ****        *  codecvt for that.
 305:/usr/include/c++/10/bits/locale_facets.h ****        *
 306:/usr/include/c++/10/bits/locale_facets.h ****        *  @param __lo  Pointer to start of range.
 307:/usr/include/c++/10/bits/locale_facets.h ****        *  @param __hi  Pointer to end of range.
 308:/usr/include/c++/10/bits/locale_facets.h ****        *  @param __to  Pointer to the destination array.
 309:/usr/include/c++/10/bits/locale_facets.h ****        *  @return  @a __hi.
 310:/usr/include/c++/10/bits/locale_facets.h ****       */
 311:/usr/include/c++/10/bits/locale_facets.h ****       const char*
 312:/usr/include/c++/10/bits/locale_facets.h ****       widen(const char* __lo, const char* __hi, char_type* __to) const
 313:/usr/include/c++/10/bits/locale_facets.h ****       { return this->do_widen(__lo, __hi, __to); }
 314:/usr/include/c++/10/bits/locale_facets.h **** 
 315:/usr/include/c++/10/bits/locale_facets.h ****       /**
 316:/usr/include/c++/10/bits/locale_facets.h ****        *  @brief  Narrow char_type to char
 317:/usr/include/c++/10/bits/locale_facets.h ****        *
 318:/usr/include/c++/10/bits/locale_facets.h ****        *  This function converts the char_type to char using the simplest
 319:/usr/include/c++/10/bits/locale_facets.h ****        *  reasonable transformation.  If the conversion fails, dfault is
 320:/usr/include/c++/10/bits/locale_facets.h ****        *  returned instead.  It does so by returning
 321:/usr/include/c++/10/bits/locale_facets.h ****        *  ctype<char_type>::do_narrow(__c).
 322:/usr/include/c++/10/bits/locale_facets.h ****        *
 323:/usr/include/c++/10/bits/locale_facets.h ****        *  Note: this is not what you want for codepage conversions.  See
 324:/usr/include/c++/10/bits/locale_facets.h ****        *  codecvt for that.
 325:/usr/include/c++/10/bits/locale_facets.h ****        *
 326:/usr/include/c++/10/bits/locale_facets.h ****        *  @param __c  The char_type to convert.
 327:/usr/include/c++/10/bits/locale_facets.h ****        *  @param __dfault  Char to return if conversion fails.
 328:/usr/include/c++/10/bits/locale_facets.h ****        *  @return  The converted char.
 329:/usr/include/c++/10/bits/locale_facets.h ****       */
 330:/usr/include/c++/10/bits/locale_facets.h ****       char
 331:/usr/include/c++/10/bits/locale_facets.h ****       narrow(char_type __c, char __dfault) const
 332:/usr/include/c++/10/bits/locale_facets.h ****       { return this->do_narrow(__c, __dfault); }
 333:/usr/include/c++/10/bits/locale_facets.h **** 
 334:/usr/include/c++/10/bits/locale_facets.h ****       /**
 335:/usr/include/c++/10/bits/locale_facets.h ****        *  @brief  Narrow array to char array
 336:/usr/include/c++/10/bits/locale_facets.h ****        *
 337:/usr/include/c++/10/bits/locale_facets.h ****        *  This function converts each char_type in the input to char using the
 338:/usr/include/c++/10/bits/locale_facets.h ****        *  simplest reasonable transformation and writes the results to the
 339:/usr/include/c++/10/bits/locale_facets.h ****        *  destination array.  For any char_type in the input that cannot be
 340:/usr/include/c++/10/bits/locale_facets.h ****        *  converted, @a dfault is used instead.  It does so by returning
 341:/usr/include/c++/10/bits/locale_facets.h ****        *  ctype<char_type>::do_narrow(__lo, __hi, __dfault, __to).
 342:/usr/include/c++/10/bits/locale_facets.h ****        *
 343:/usr/include/c++/10/bits/locale_facets.h ****        *  Note: this is not what you want for codepage conversions.  See
 344:/usr/include/c++/10/bits/locale_facets.h ****        *  codecvt for that.
 345:/usr/include/c++/10/bits/locale_facets.h ****        *
 346:/usr/include/c++/10/bits/locale_facets.h ****        *  @param __lo  Pointer to start of range.
 347:/usr/include/c++/10/bits/locale_facets.h ****        *  @param __hi  Pointer to end of range.
 348:/usr/include/c++/10/bits/locale_facets.h ****        *  @param __dfault  Char to use if conversion fails.
 349:/usr/include/c++/10/bits/locale_facets.h ****        *  @param __to  Pointer to the destination array.
 350:/usr/include/c++/10/bits/locale_facets.h ****        *  @return  @a __hi.
 351:/usr/include/c++/10/bits/locale_facets.h ****       */
 352:/usr/include/c++/10/bits/locale_facets.h ****       const char_type*
 353:/usr/include/c++/10/bits/locale_facets.h ****       narrow(const char_type* __lo, const char_type* __hi,
 354:/usr/include/c++/10/bits/locale_facets.h **** 	      char __dfault, char* __to) const
 355:/usr/include/c++/10/bits/locale_facets.h ****       { return this->do_narrow(__lo, __hi, __dfault, __to); }
 356:/usr/include/c++/10/bits/locale_facets.h **** 
AARCH64 GAS  obj/Chapter12_2.s 			page 29


 357:/usr/include/c++/10/bits/locale_facets.h ****     protected:
 358:/usr/include/c++/10/bits/locale_facets.h ****       explicit
 359:/usr/include/c++/10/bits/locale_facets.h ****       __ctype_abstract_base(size_t __refs = 0): facet(__refs) { }
 360:/usr/include/c++/10/bits/locale_facets.h **** 
 361:/usr/include/c++/10/bits/locale_facets.h ****       virtual
 362:/usr/include/c++/10/bits/locale_facets.h ****       ~__ctype_abstract_base() { }
 363:/usr/include/c++/10/bits/locale_facets.h **** 
 364:/usr/include/c++/10/bits/locale_facets.h ****       /**
 365:/usr/include/c++/10/bits/locale_facets.h ****        *  @brief  Test char_type classification.
 366:/usr/include/c++/10/bits/locale_facets.h ****        *
 367:/usr/include/c++/10/bits/locale_facets.h ****        *  This function finds a mask M for @a c and compares it to mask @a m.
 368:/usr/include/c++/10/bits/locale_facets.h ****        *
 369:/usr/include/c++/10/bits/locale_facets.h ****        *  do_is() is a hook for a derived facet to change the behavior of
 370:/usr/include/c++/10/bits/locale_facets.h ****        *  classifying.  do_is() must always return the same result for the
 371:/usr/include/c++/10/bits/locale_facets.h ****        *  same input.
 372:/usr/include/c++/10/bits/locale_facets.h ****        *
 373:/usr/include/c++/10/bits/locale_facets.h ****        *  @param __c  The char_type to find the mask of.
 374:/usr/include/c++/10/bits/locale_facets.h ****        *  @param __m  The mask to compare against.
 375:/usr/include/c++/10/bits/locale_facets.h ****        *  @return  (M & __m) != 0.
 376:/usr/include/c++/10/bits/locale_facets.h ****       */
 377:/usr/include/c++/10/bits/locale_facets.h ****       virtual bool
 378:/usr/include/c++/10/bits/locale_facets.h ****       do_is(mask __m, char_type __c) const = 0;
 379:/usr/include/c++/10/bits/locale_facets.h **** 
 380:/usr/include/c++/10/bits/locale_facets.h ****       /**
 381:/usr/include/c++/10/bits/locale_facets.h ****        *  @brief  Return a mask array.
 382:/usr/include/c++/10/bits/locale_facets.h ****        *
 383:/usr/include/c++/10/bits/locale_facets.h ****        *  This function finds the mask for each char_type in the range [lo,hi)
 384:/usr/include/c++/10/bits/locale_facets.h ****        *  and successively writes it to vec.  vec must have as many elements
 385:/usr/include/c++/10/bits/locale_facets.h ****        *  as the input.
 386:/usr/include/c++/10/bits/locale_facets.h ****        *
 387:/usr/include/c++/10/bits/locale_facets.h ****        *  do_is() is a hook for a derived facet to change the behavior of
 388:/usr/include/c++/10/bits/locale_facets.h ****        *  classifying.  do_is() must always return the same result for the
 389:/usr/include/c++/10/bits/locale_facets.h ****        *  same input.
 390:/usr/include/c++/10/bits/locale_facets.h ****        *
 391:/usr/include/c++/10/bits/locale_facets.h ****        *  @param __lo  Pointer to start of range.
 392:/usr/include/c++/10/bits/locale_facets.h ****        *  @param __hi  Pointer to end of range.
 393:/usr/include/c++/10/bits/locale_facets.h ****        *  @param __vec  Pointer to an array of mask storage.
 394:/usr/include/c++/10/bits/locale_facets.h ****        *  @return  @a __hi.
 395:/usr/include/c++/10/bits/locale_facets.h ****       */
 396:/usr/include/c++/10/bits/locale_facets.h ****       virtual const char_type*
 397:/usr/include/c++/10/bits/locale_facets.h ****       do_is(const char_type* __lo, const char_type* __hi,
 398:/usr/include/c++/10/bits/locale_facets.h **** 	    mask* __vec) const = 0;
 399:/usr/include/c++/10/bits/locale_facets.h **** 
 400:/usr/include/c++/10/bits/locale_facets.h ****       /**
 401:/usr/include/c++/10/bits/locale_facets.h ****        *  @brief  Find char_type matching mask
 402:/usr/include/c++/10/bits/locale_facets.h ****        *
 403:/usr/include/c++/10/bits/locale_facets.h ****        *  This function searches for and returns the first char_type c in
 404:/usr/include/c++/10/bits/locale_facets.h ****        *  [__lo,__hi) for which is(__m,c) is true.
 405:/usr/include/c++/10/bits/locale_facets.h ****        *
 406:/usr/include/c++/10/bits/locale_facets.h ****        *  do_scan_is() is a hook for a derived facet to change the behavior of
 407:/usr/include/c++/10/bits/locale_facets.h ****        *  match searching.  do_is() must always return the same result for the
 408:/usr/include/c++/10/bits/locale_facets.h ****        *  same input.
 409:/usr/include/c++/10/bits/locale_facets.h ****        *
 410:/usr/include/c++/10/bits/locale_facets.h ****        *  @param __m  The mask to compare against.
 411:/usr/include/c++/10/bits/locale_facets.h ****        *  @param __lo  Pointer to start of range.
 412:/usr/include/c++/10/bits/locale_facets.h ****        *  @param __hi  Pointer to end of range.
 413:/usr/include/c++/10/bits/locale_facets.h ****        *  @return  Pointer to a matching char_type if found, else @a __hi.
AARCH64 GAS  obj/Chapter12_2.s 			page 30


 414:/usr/include/c++/10/bits/locale_facets.h ****       */
 415:/usr/include/c++/10/bits/locale_facets.h ****       virtual const char_type*
 416:/usr/include/c++/10/bits/locale_facets.h ****       do_scan_is(mask __m, const char_type* __lo,
 417:/usr/include/c++/10/bits/locale_facets.h **** 		 const char_type* __hi) const = 0;
 418:/usr/include/c++/10/bits/locale_facets.h **** 
 419:/usr/include/c++/10/bits/locale_facets.h ****       /**
 420:/usr/include/c++/10/bits/locale_facets.h ****        *  @brief  Find char_type not matching mask
 421:/usr/include/c++/10/bits/locale_facets.h ****        *
 422:/usr/include/c++/10/bits/locale_facets.h ****        *  This function searches for and returns a pointer to the first
 423:/usr/include/c++/10/bits/locale_facets.h ****        *  char_type c of [lo,hi) for which is(m,c) is false.
 424:/usr/include/c++/10/bits/locale_facets.h ****        *
 425:/usr/include/c++/10/bits/locale_facets.h ****        *  do_scan_is() is a hook for a derived facet to change the behavior of
 426:/usr/include/c++/10/bits/locale_facets.h ****        *  match searching.  do_is() must always return the same result for the
 427:/usr/include/c++/10/bits/locale_facets.h ****        *  same input.
 428:/usr/include/c++/10/bits/locale_facets.h ****        *
 429:/usr/include/c++/10/bits/locale_facets.h ****        *  @param __m  The mask to compare against.
 430:/usr/include/c++/10/bits/locale_facets.h ****        *  @param __lo  Pointer to start of range.
 431:/usr/include/c++/10/bits/locale_facets.h ****        *  @param __hi  Pointer to end of range.
 432:/usr/include/c++/10/bits/locale_facets.h ****        *  @return  Pointer to a non-matching char_type if found, else @a __hi.
 433:/usr/include/c++/10/bits/locale_facets.h ****       */
 434:/usr/include/c++/10/bits/locale_facets.h ****       virtual const char_type*
 435:/usr/include/c++/10/bits/locale_facets.h ****       do_scan_not(mask __m, const char_type* __lo,
 436:/usr/include/c++/10/bits/locale_facets.h **** 		  const char_type* __hi) const = 0;
 437:/usr/include/c++/10/bits/locale_facets.h **** 
 438:/usr/include/c++/10/bits/locale_facets.h ****       /**
 439:/usr/include/c++/10/bits/locale_facets.h ****        *  @brief  Convert to uppercase.
 440:/usr/include/c++/10/bits/locale_facets.h ****        *
 441:/usr/include/c++/10/bits/locale_facets.h ****        *  This virtual function converts the char_type argument to uppercase
 442:/usr/include/c++/10/bits/locale_facets.h ****        *  if possible.  If not possible (for example, '2'), returns the
 443:/usr/include/c++/10/bits/locale_facets.h ****        *  argument.
 444:/usr/include/c++/10/bits/locale_facets.h ****        *
 445:/usr/include/c++/10/bits/locale_facets.h ****        *  do_toupper() is a hook for a derived facet to change the behavior of
 446:/usr/include/c++/10/bits/locale_facets.h ****        *  uppercasing.  do_toupper() must always return the same result for
 447:/usr/include/c++/10/bits/locale_facets.h ****        *  the same input.
 448:/usr/include/c++/10/bits/locale_facets.h ****        *
 449:/usr/include/c++/10/bits/locale_facets.h ****        *  @param __c  The char_type to convert.
 450:/usr/include/c++/10/bits/locale_facets.h ****        *  @return  The uppercase char_type if convertible, else @a __c.
 451:/usr/include/c++/10/bits/locale_facets.h ****       */
 452:/usr/include/c++/10/bits/locale_facets.h ****       virtual char_type
 453:/usr/include/c++/10/bits/locale_facets.h ****       do_toupper(char_type __c) const = 0;
 454:/usr/include/c++/10/bits/locale_facets.h **** 
 455:/usr/include/c++/10/bits/locale_facets.h ****       /**
 456:/usr/include/c++/10/bits/locale_facets.h ****        *  @brief  Convert array to uppercase.
 457:/usr/include/c++/10/bits/locale_facets.h ****        *
 458:/usr/include/c++/10/bits/locale_facets.h ****        *  This virtual function converts each char_type in the range [__lo,__hi)
 459:/usr/include/c++/10/bits/locale_facets.h ****        *  to uppercase if possible.  Other elements remain untouched.
 460:/usr/include/c++/10/bits/locale_facets.h ****        *
 461:/usr/include/c++/10/bits/locale_facets.h ****        *  do_toupper() is a hook for a derived facet to change the behavior of
 462:/usr/include/c++/10/bits/locale_facets.h ****        *  uppercasing.  do_toupper() must always return the same result for
 463:/usr/include/c++/10/bits/locale_facets.h ****        *  the same input.
 464:/usr/include/c++/10/bits/locale_facets.h ****        *
 465:/usr/include/c++/10/bits/locale_facets.h ****        *  @param __lo  Pointer to start of range.
 466:/usr/include/c++/10/bits/locale_facets.h ****        *  @param __hi  Pointer to end of range.
 467:/usr/include/c++/10/bits/locale_facets.h ****        *  @return  @a __hi.
 468:/usr/include/c++/10/bits/locale_facets.h ****       */
 469:/usr/include/c++/10/bits/locale_facets.h ****       virtual const char_type*
 470:/usr/include/c++/10/bits/locale_facets.h ****       do_toupper(char_type* __lo, const char_type* __hi) const = 0;
AARCH64 GAS  obj/Chapter12_2.s 			page 31


 471:/usr/include/c++/10/bits/locale_facets.h **** 
 472:/usr/include/c++/10/bits/locale_facets.h ****       /**
 473:/usr/include/c++/10/bits/locale_facets.h ****        *  @brief  Convert to lowercase.
 474:/usr/include/c++/10/bits/locale_facets.h ****        *
 475:/usr/include/c++/10/bits/locale_facets.h ****        *  This virtual function converts the argument to lowercase if
 476:/usr/include/c++/10/bits/locale_facets.h ****        *  possible.  If not possible (for example, '2'), returns the argument.
 477:/usr/include/c++/10/bits/locale_facets.h ****        *
 478:/usr/include/c++/10/bits/locale_facets.h ****        *  do_tolower() is a hook for a derived facet to change the behavior of
 479:/usr/include/c++/10/bits/locale_facets.h ****        *  lowercasing.  do_tolower() must always return the same result for
 480:/usr/include/c++/10/bits/locale_facets.h ****        *  the same input.
 481:/usr/include/c++/10/bits/locale_facets.h ****        *
 482:/usr/include/c++/10/bits/locale_facets.h ****        *  @param __c  The char_type to convert.
 483:/usr/include/c++/10/bits/locale_facets.h ****        *  @return  The lowercase char_type if convertible, else @a __c.
 484:/usr/include/c++/10/bits/locale_facets.h ****       */
 485:/usr/include/c++/10/bits/locale_facets.h ****       virtual char_type
 486:/usr/include/c++/10/bits/locale_facets.h ****       do_tolower(char_type __c) const = 0;
 487:/usr/include/c++/10/bits/locale_facets.h **** 
 488:/usr/include/c++/10/bits/locale_facets.h ****       /**
 489:/usr/include/c++/10/bits/locale_facets.h ****        *  @brief  Convert array to lowercase.
 490:/usr/include/c++/10/bits/locale_facets.h ****        *
 491:/usr/include/c++/10/bits/locale_facets.h ****        *  This virtual function converts each char_type in the range [__lo,__hi)
 492:/usr/include/c++/10/bits/locale_facets.h ****        *  to lowercase if possible.  Other elements remain untouched.
 493:/usr/include/c++/10/bits/locale_facets.h ****        *
 494:/usr/include/c++/10/bits/locale_facets.h ****        *  do_tolower() is a hook for a derived facet to change the behavior of
 495:/usr/include/c++/10/bits/locale_facets.h ****        *  lowercasing.  do_tolower() must always return the same result for
 496:/usr/include/c++/10/bits/locale_facets.h ****        *  the same input.
 497:/usr/include/c++/10/bits/locale_facets.h ****        *
 498:/usr/include/c++/10/bits/locale_facets.h ****        *  @param __lo  Pointer to start of range.
 499:/usr/include/c++/10/bits/locale_facets.h ****        *  @param __hi  Pointer to end of range.
 500:/usr/include/c++/10/bits/locale_facets.h ****        *  @return  @a __hi.
 501:/usr/include/c++/10/bits/locale_facets.h ****       */
 502:/usr/include/c++/10/bits/locale_facets.h ****       virtual const char_type*
 503:/usr/include/c++/10/bits/locale_facets.h ****       do_tolower(char_type* __lo, const char_type* __hi) const = 0;
 504:/usr/include/c++/10/bits/locale_facets.h **** 
 505:/usr/include/c++/10/bits/locale_facets.h ****       /**
 506:/usr/include/c++/10/bits/locale_facets.h ****        *  @brief  Widen char
 507:/usr/include/c++/10/bits/locale_facets.h ****        *
 508:/usr/include/c++/10/bits/locale_facets.h ****        *  This virtual function converts the char to char_type using the
 509:/usr/include/c++/10/bits/locale_facets.h ****        *  simplest reasonable transformation.
 510:/usr/include/c++/10/bits/locale_facets.h ****        *
 511:/usr/include/c++/10/bits/locale_facets.h ****        *  do_widen() is a hook for a derived facet to change the behavior of
 512:/usr/include/c++/10/bits/locale_facets.h ****        *  widening.  do_widen() must always return the same result for the
 513:/usr/include/c++/10/bits/locale_facets.h ****        *  same input.
 514:/usr/include/c++/10/bits/locale_facets.h ****        *
 515:/usr/include/c++/10/bits/locale_facets.h ****        *  Note: this is not what you want for codepage conversions.  See
 516:/usr/include/c++/10/bits/locale_facets.h ****        *  codecvt for that.
 517:/usr/include/c++/10/bits/locale_facets.h ****        *
 518:/usr/include/c++/10/bits/locale_facets.h ****        *  @param __c  The char to convert.
 519:/usr/include/c++/10/bits/locale_facets.h ****        *  @return  The converted char_type
 520:/usr/include/c++/10/bits/locale_facets.h ****       */
 521:/usr/include/c++/10/bits/locale_facets.h ****       virtual char_type
 522:/usr/include/c++/10/bits/locale_facets.h ****       do_widen(char __c) const = 0;
 523:/usr/include/c++/10/bits/locale_facets.h **** 
 524:/usr/include/c++/10/bits/locale_facets.h ****       /**
 525:/usr/include/c++/10/bits/locale_facets.h ****        *  @brief  Widen char array
 526:/usr/include/c++/10/bits/locale_facets.h ****        *
 527:/usr/include/c++/10/bits/locale_facets.h ****        *  This function converts each char in the input to char_type using the
AARCH64 GAS  obj/Chapter12_2.s 			page 32


 528:/usr/include/c++/10/bits/locale_facets.h ****        *  simplest reasonable transformation.
 529:/usr/include/c++/10/bits/locale_facets.h ****        *
 530:/usr/include/c++/10/bits/locale_facets.h ****        *  do_widen() is a hook for a derived facet to change the behavior of
 531:/usr/include/c++/10/bits/locale_facets.h ****        *  widening.  do_widen() must always return the same result for the
 532:/usr/include/c++/10/bits/locale_facets.h ****        *  same input.
 533:/usr/include/c++/10/bits/locale_facets.h ****        *
 534:/usr/include/c++/10/bits/locale_facets.h ****        *  Note: this is not what you want for codepage conversions.  See
 535:/usr/include/c++/10/bits/locale_facets.h ****        *  codecvt for that.
 536:/usr/include/c++/10/bits/locale_facets.h ****        *
 537:/usr/include/c++/10/bits/locale_facets.h ****        *  @param __lo  Pointer to start range.
 538:/usr/include/c++/10/bits/locale_facets.h ****        *  @param __hi  Pointer to end of range.
 539:/usr/include/c++/10/bits/locale_facets.h ****        *  @param __to  Pointer to the destination array.
 540:/usr/include/c++/10/bits/locale_facets.h ****        *  @return  @a __hi.
 541:/usr/include/c++/10/bits/locale_facets.h ****       */
 542:/usr/include/c++/10/bits/locale_facets.h ****       virtual const char*
 543:/usr/include/c++/10/bits/locale_facets.h ****       do_widen(const char* __lo, const char* __hi, char_type* __to) const = 0;
 544:/usr/include/c++/10/bits/locale_facets.h **** 
 545:/usr/include/c++/10/bits/locale_facets.h ****       /**
 546:/usr/include/c++/10/bits/locale_facets.h ****        *  @brief  Narrow char_type to char
 547:/usr/include/c++/10/bits/locale_facets.h ****        *
 548:/usr/include/c++/10/bits/locale_facets.h ****        *  This virtual function converts the argument to char using the
 549:/usr/include/c++/10/bits/locale_facets.h ****        *  simplest reasonable transformation.  If the conversion fails, dfault
 550:/usr/include/c++/10/bits/locale_facets.h ****        *  is returned instead.
 551:/usr/include/c++/10/bits/locale_facets.h ****        *
 552:/usr/include/c++/10/bits/locale_facets.h ****        *  do_narrow() is a hook for a derived facet to change the behavior of
 553:/usr/include/c++/10/bits/locale_facets.h ****        *  narrowing.  do_narrow() must always return the same result for the
 554:/usr/include/c++/10/bits/locale_facets.h ****        *  same input.
 555:/usr/include/c++/10/bits/locale_facets.h ****        *
 556:/usr/include/c++/10/bits/locale_facets.h ****        *  Note: this is not what you want for codepage conversions.  See
 557:/usr/include/c++/10/bits/locale_facets.h ****        *  codecvt for that.
 558:/usr/include/c++/10/bits/locale_facets.h ****        *
 559:/usr/include/c++/10/bits/locale_facets.h ****        *  @param __c  The char_type to convert.
 560:/usr/include/c++/10/bits/locale_facets.h ****        *  @param __dfault  Char to return if conversion fails.
 561:/usr/include/c++/10/bits/locale_facets.h ****        *  @return  The converted char.
 562:/usr/include/c++/10/bits/locale_facets.h ****       */
 563:/usr/include/c++/10/bits/locale_facets.h ****       virtual char
 564:/usr/include/c++/10/bits/locale_facets.h ****       do_narrow(char_type __c, char __dfault) const = 0;
 565:/usr/include/c++/10/bits/locale_facets.h **** 
 566:/usr/include/c++/10/bits/locale_facets.h ****       /**
 567:/usr/include/c++/10/bits/locale_facets.h ****        *  @brief  Narrow char_type array to char
 568:/usr/include/c++/10/bits/locale_facets.h ****        *
 569:/usr/include/c++/10/bits/locale_facets.h ****        *  This virtual function converts each char_type in the range
 570:/usr/include/c++/10/bits/locale_facets.h ****        *  [__lo,__hi) to char using the simplest reasonable
 571:/usr/include/c++/10/bits/locale_facets.h ****        *  transformation and writes the results to the destination
 572:/usr/include/c++/10/bits/locale_facets.h ****        *  array.  For any element in the input that cannot be
 573:/usr/include/c++/10/bits/locale_facets.h ****        *  converted, @a __dfault is used instead.
 574:/usr/include/c++/10/bits/locale_facets.h ****        *
 575:/usr/include/c++/10/bits/locale_facets.h ****        *  do_narrow() is a hook for a derived facet to change the behavior of
 576:/usr/include/c++/10/bits/locale_facets.h ****        *  narrowing.  do_narrow() must always return the same result for the
 577:/usr/include/c++/10/bits/locale_facets.h ****        *  same input.
 578:/usr/include/c++/10/bits/locale_facets.h ****        *
 579:/usr/include/c++/10/bits/locale_facets.h ****        *  Note: this is not what you want for codepage conversions.  See
 580:/usr/include/c++/10/bits/locale_facets.h ****        *  codecvt for that.
 581:/usr/include/c++/10/bits/locale_facets.h ****        *
 582:/usr/include/c++/10/bits/locale_facets.h ****        *  @param __lo  Pointer to start of range.
 583:/usr/include/c++/10/bits/locale_facets.h ****        *  @param __hi  Pointer to end of range.
 584:/usr/include/c++/10/bits/locale_facets.h ****        *  @param __dfault  Char to use if conversion fails.
AARCH64 GAS  obj/Chapter12_2.s 			page 33


 585:/usr/include/c++/10/bits/locale_facets.h ****        *  @param __to  Pointer to the destination array.
 586:/usr/include/c++/10/bits/locale_facets.h ****        *  @return  @a __hi.
 587:/usr/include/c++/10/bits/locale_facets.h ****       */
 588:/usr/include/c++/10/bits/locale_facets.h ****       virtual const char_type*
 589:/usr/include/c++/10/bits/locale_facets.h ****       do_narrow(const char_type* __lo, const char_type* __hi,
 590:/usr/include/c++/10/bits/locale_facets.h **** 		char __dfault, char* __to) const = 0;
 591:/usr/include/c++/10/bits/locale_facets.h ****     };
 592:/usr/include/c++/10/bits/locale_facets.h **** 
 593:/usr/include/c++/10/bits/locale_facets.h ****   /**
 594:/usr/include/c++/10/bits/locale_facets.h ****    *  @brief  Primary class template ctype facet.
 595:/usr/include/c++/10/bits/locale_facets.h ****    *  @ingroup locales
 596:/usr/include/c++/10/bits/locale_facets.h ****    *
 597:/usr/include/c++/10/bits/locale_facets.h ****    *  This template class defines classification and conversion functions for
 598:/usr/include/c++/10/bits/locale_facets.h ****    *  character sets.  It wraps cctype functionality.  Ctype gets used by
 599:/usr/include/c++/10/bits/locale_facets.h ****    *  streams for many I/O operations.
 600:/usr/include/c++/10/bits/locale_facets.h ****    *
 601:/usr/include/c++/10/bits/locale_facets.h ****    *  This template provides the protected virtual functions the developer
 602:/usr/include/c++/10/bits/locale_facets.h ****    *  will have to replace in a derived class or specialization to make a
 603:/usr/include/c++/10/bits/locale_facets.h ****    *  working facet.  The public functions that access them are defined in
 604:/usr/include/c++/10/bits/locale_facets.h ****    *  __ctype_abstract_base, to allow for implementation flexibility.  See
 605:/usr/include/c++/10/bits/locale_facets.h ****    *  ctype<wchar_t> for an example.  The functions are documented in
 606:/usr/include/c++/10/bits/locale_facets.h ****    *  __ctype_abstract_base.
 607:/usr/include/c++/10/bits/locale_facets.h ****    *
 608:/usr/include/c++/10/bits/locale_facets.h ****    *  Note: implementations are provided for all the protected virtual
 609:/usr/include/c++/10/bits/locale_facets.h ****    *  functions, but will likely not be useful.
 610:/usr/include/c++/10/bits/locale_facets.h ****   */
 611:/usr/include/c++/10/bits/locale_facets.h ****   template<typename _CharT>
 612:/usr/include/c++/10/bits/locale_facets.h ****     class ctype : public __ctype_abstract_base<_CharT>
 613:/usr/include/c++/10/bits/locale_facets.h ****     {
 614:/usr/include/c++/10/bits/locale_facets.h ****     public:
 615:/usr/include/c++/10/bits/locale_facets.h ****       // Types:
 616:/usr/include/c++/10/bits/locale_facets.h ****       typedef _CharT			char_type;
 617:/usr/include/c++/10/bits/locale_facets.h ****       typedef typename __ctype_abstract_base<_CharT>::mask mask;
 618:/usr/include/c++/10/bits/locale_facets.h **** 
 619:/usr/include/c++/10/bits/locale_facets.h ****       /// The facet id for ctype<char_type>
 620:/usr/include/c++/10/bits/locale_facets.h ****       static locale::id			id;
 621:/usr/include/c++/10/bits/locale_facets.h **** 
 622:/usr/include/c++/10/bits/locale_facets.h ****       explicit
 623:/usr/include/c++/10/bits/locale_facets.h ****       ctype(size_t __refs = 0) : __ctype_abstract_base<_CharT>(__refs) { }
 624:/usr/include/c++/10/bits/locale_facets.h **** 
 625:/usr/include/c++/10/bits/locale_facets.h ****    protected:
 626:/usr/include/c++/10/bits/locale_facets.h ****       virtual
 627:/usr/include/c++/10/bits/locale_facets.h ****       ~ctype();
 628:/usr/include/c++/10/bits/locale_facets.h **** 
 629:/usr/include/c++/10/bits/locale_facets.h ****       virtual bool
 630:/usr/include/c++/10/bits/locale_facets.h ****       do_is(mask __m, char_type __c) const;
 631:/usr/include/c++/10/bits/locale_facets.h **** 
 632:/usr/include/c++/10/bits/locale_facets.h ****       virtual const char_type*
 633:/usr/include/c++/10/bits/locale_facets.h ****       do_is(const char_type* __lo, const char_type* __hi, mask* __vec) const;
 634:/usr/include/c++/10/bits/locale_facets.h **** 
 635:/usr/include/c++/10/bits/locale_facets.h ****       virtual const char_type*
 636:/usr/include/c++/10/bits/locale_facets.h ****       do_scan_is(mask __m, const char_type* __lo, const char_type* __hi) const;
 637:/usr/include/c++/10/bits/locale_facets.h **** 
 638:/usr/include/c++/10/bits/locale_facets.h ****       virtual const char_type*
 639:/usr/include/c++/10/bits/locale_facets.h ****       do_scan_not(mask __m, const char_type* __lo,
 640:/usr/include/c++/10/bits/locale_facets.h **** 		  const char_type* __hi) const;
 641:/usr/include/c++/10/bits/locale_facets.h **** 
AARCH64 GAS  obj/Chapter12_2.s 			page 34


 642:/usr/include/c++/10/bits/locale_facets.h ****       virtual char_type
 643:/usr/include/c++/10/bits/locale_facets.h ****       do_toupper(char_type __c) const;
 644:/usr/include/c++/10/bits/locale_facets.h **** 
 645:/usr/include/c++/10/bits/locale_facets.h ****       virtual const char_type*
 646:/usr/include/c++/10/bits/locale_facets.h ****       do_toupper(char_type* __lo, const char_type* __hi) const;
 647:/usr/include/c++/10/bits/locale_facets.h **** 
 648:/usr/include/c++/10/bits/locale_facets.h ****       virtual char_type
 649:/usr/include/c++/10/bits/locale_facets.h ****       do_tolower(char_type __c) const;
 650:/usr/include/c++/10/bits/locale_facets.h **** 
 651:/usr/include/c++/10/bits/locale_facets.h ****       virtual const char_type*
 652:/usr/include/c++/10/bits/locale_facets.h ****       do_tolower(char_type* __lo, const char_type* __hi) const;
 653:/usr/include/c++/10/bits/locale_facets.h **** 
 654:/usr/include/c++/10/bits/locale_facets.h ****       virtual char_type
 655:/usr/include/c++/10/bits/locale_facets.h ****       do_widen(char __c) const;
 656:/usr/include/c++/10/bits/locale_facets.h **** 
 657:/usr/include/c++/10/bits/locale_facets.h ****       virtual const char*
 658:/usr/include/c++/10/bits/locale_facets.h ****       do_widen(const char* __lo, const char* __hi, char_type* __dest) const;
 659:/usr/include/c++/10/bits/locale_facets.h **** 
 660:/usr/include/c++/10/bits/locale_facets.h ****       virtual char
 661:/usr/include/c++/10/bits/locale_facets.h ****       do_narrow(char_type, char __dfault) const;
 662:/usr/include/c++/10/bits/locale_facets.h **** 
 663:/usr/include/c++/10/bits/locale_facets.h ****       virtual const char_type*
 664:/usr/include/c++/10/bits/locale_facets.h ****       do_narrow(const char_type* __lo, const char_type* __hi,
 665:/usr/include/c++/10/bits/locale_facets.h **** 		char __dfault, char* __to) const;
 666:/usr/include/c++/10/bits/locale_facets.h ****     };
 667:/usr/include/c++/10/bits/locale_facets.h **** 
 668:/usr/include/c++/10/bits/locale_facets.h ****   template<typename _CharT>
 669:/usr/include/c++/10/bits/locale_facets.h ****     locale::id ctype<_CharT>::id;
 670:/usr/include/c++/10/bits/locale_facets.h **** 
 671:/usr/include/c++/10/bits/locale_facets.h ****   /**
 672:/usr/include/c++/10/bits/locale_facets.h ****    *  @brief  The ctype<char> specialization.
 673:/usr/include/c++/10/bits/locale_facets.h ****    *  @ingroup locales
 674:/usr/include/c++/10/bits/locale_facets.h ****    *
 675:/usr/include/c++/10/bits/locale_facets.h ****    *  This class defines classification and conversion functions for
 676:/usr/include/c++/10/bits/locale_facets.h ****    *  the char type.  It gets used by char streams for many I/O
 677:/usr/include/c++/10/bits/locale_facets.h ****    *  operations.  The char specialization provides a number of
 678:/usr/include/c++/10/bits/locale_facets.h ****    *  optimizations as well.
 679:/usr/include/c++/10/bits/locale_facets.h ****   */
 680:/usr/include/c++/10/bits/locale_facets.h ****   template<>
 681:/usr/include/c++/10/bits/locale_facets.h ****     class ctype<char> : public locale::facet, public ctype_base
 682:/usr/include/c++/10/bits/locale_facets.h ****     {
 683:/usr/include/c++/10/bits/locale_facets.h ****     public:
 684:/usr/include/c++/10/bits/locale_facets.h ****       // Types:
 685:/usr/include/c++/10/bits/locale_facets.h ****       /// Typedef for the template parameter char.
 686:/usr/include/c++/10/bits/locale_facets.h ****       typedef char		char_type;
 687:/usr/include/c++/10/bits/locale_facets.h **** 
 688:/usr/include/c++/10/bits/locale_facets.h ****     protected:
 689:/usr/include/c++/10/bits/locale_facets.h ****       // Data Members:
 690:/usr/include/c++/10/bits/locale_facets.h ****       __c_locale		_M_c_locale_ctype;
 691:/usr/include/c++/10/bits/locale_facets.h ****       bool			_M_del;
 692:/usr/include/c++/10/bits/locale_facets.h ****       __to_type			_M_toupper;
 693:/usr/include/c++/10/bits/locale_facets.h ****       __to_type			_M_tolower;
 694:/usr/include/c++/10/bits/locale_facets.h ****       const mask*		_M_table;
 695:/usr/include/c++/10/bits/locale_facets.h ****       mutable char		_M_widen_ok;
 696:/usr/include/c++/10/bits/locale_facets.h ****       mutable char		_M_widen[1 + static_cast<unsigned char>(-1)];
 697:/usr/include/c++/10/bits/locale_facets.h ****       mutable char		_M_narrow[1 + static_cast<unsigned char>(-1)];
 698:/usr/include/c++/10/bits/locale_facets.h ****       mutable char		_M_narrow_ok;	// 0 uninitialized, 1 init,
AARCH64 GAS  obj/Chapter12_2.s 			page 35


 699:/usr/include/c++/10/bits/locale_facets.h **** 						// 2 memcpy can't be used
 700:/usr/include/c++/10/bits/locale_facets.h **** 
 701:/usr/include/c++/10/bits/locale_facets.h ****     public:
 702:/usr/include/c++/10/bits/locale_facets.h ****       /// The facet id for ctype<char>
 703:/usr/include/c++/10/bits/locale_facets.h ****       static locale::id        id;
 704:/usr/include/c++/10/bits/locale_facets.h ****       /// The size of the mask table.  It is SCHAR_MAX + 1.
 705:/usr/include/c++/10/bits/locale_facets.h ****       static const size_t      table_size = 1 + static_cast<unsigned char>(-1);
 706:/usr/include/c++/10/bits/locale_facets.h **** 
 707:/usr/include/c++/10/bits/locale_facets.h ****       /**
 708:/usr/include/c++/10/bits/locale_facets.h ****        *  @brief  Constructor performs initialization.
 709:/usr/include/c++/10/bits/locale_facets.h ****        *
 710:/usr/include/c++/10/bits/locale_facets.h ****        *  This is the constructor provided by the standard.
 711:/usr/include/c++/10/bits/locale_facets.h ****        *
 712:/usr/include/c++/10/bits/locale_facets.h ****        *  @param __table If non-zero, table is used as the per-char mask.
 713:/usr/include/c++/10/bits/locale_facets.h ****        *               Else classic_table() is used.
 714:/usr/include/c++/10/bits/locale_facets.h ****        *  @param __del   If true, passes ownership of table to this facet.
 715:/usr/include/c++/10/bits/locale_facets.h ****        *  @param __refs  Passed to the base facet class.
 716:/usr/include/c++/10/bits/locale_facets.h ****       */
 717:/usr/include/c++/10/bits/locale_facets.h ****       explicit
 718:/usr/include/c++/10/bits/locale_facets.h ****       ctype(const mask* __table = 0, bool __del = false, size_t __refs = 0);
 719:/usr/include/c++/10/bits/locale_facets.h **** 
 720:/usr/include/c++/10/bits/locale_facets.h ****       /**
 721:/usr/include/c++/10/bits/locale_facets.h ****        *  @brief  Constructor performs static initialization.
 722:/usr/include/c++/10/bits/locale_facets.h ****        *
 723:/usr/include/c++/10/bits/locale_facets.h ****        *  This constructor is used to construct the initial C locale facet.
 724:/usr/include/c++/10/bits/locale_facets.h ****        *
 725:/usr/include/c++/10/bits/locale_facets.h ****        *  @param __cloc  Handle to C locale data.
 726:/usr/include/c++/10/bits/locale_facets.h ****        *  @param __table If non-zero, table is used as the per-char mask.
 727:/usr/include/c++/10/bits/locale_facets.h ****        *  @param __del   If true, passes ownership of table to this facet.
 728:/usr/include/c++/10/bits/locale_facets.h ****        *  @param __refs  Passed to the base facet class.
 729:/usr/include/c++/10/bits/locale_facets.h ****       */
 730:/usr/include/c++/10/bits/locale_facets.h ****       explicit
 731:/usr/include/c++/10/bits/locale_facets.h ****       ctype(__c_locale __cloc, const mask* __table = 0, bool __del = false,
 732:/usr/include/c++/10/bits/locale_facets.h **** 	    size_t __refs = 0);
 733:/usr/include/c++/10/bits/locale_facets.h **** 
 734:/usr/include/c++/10/bits/locale_facets.h ****       /**
 735:/usr/include/c++/10/bits/locale_facets.h ****        *  @brief  Test char classification.
 736:/usr/include/c++/10/bits/locale_facets.h ****        *
 737:/usr/include/c++/10/bits/locale_facets.h ****        *  This function compares the mask table[c] to @a __m.
 738:/usr/include/c++/10/bits/locale_facets.h ****        *
 739:/usr/include/c++/10/bits/locale_facets.h ****        *  @param __c  The char to compare the mask of.
 740:/usr/include/c++/10/bits/locale_facets.h ****        *  @param __m  The mask to compare against.
 741:/usr/include/c++/10/bits/locale_facets.h ****        *  @return  True if __m & table[__c] is true, false otherwise.
 742:/usr/include/c++/10/bits/locale_facets.h ****       */
 743:/usr/include/c++/10/bits/locale_facets.h ****       inline bool
 744:/usr/include/c++/10/bits/locale_facets.h ****       is(mask __m, char __c) const;
 745:/usr/include/c++/10/bits/locale_facets.h **** 
 746:/usr/include/c++/10/bits/locale_facets.h ****       /**
 747:/usr/include/c++/10/bits/locale_facets.h ****        *  @brief  Return a mask array.
 748:/usr/include/c++/10/bits/locale_facets.h ****        *
 749:/usr/include/c++/10/bits/locale_facets.h ****        *  This function finds the mask for each char in the range [lo, hi) and
 750:/usr/include/c++/10/bits/locale_facets.h ****        *  successively writes it to vec.  vec must have as many elements as
 751:/usr/include/c++/10/bits/locale_facets.h ****        *  the char array.
 752:/usr/include/c++/10/bits/locale_facets.h ****        *
 753:/usr/include/c++/10/bits/locale_facets.h ****        *  @param __lo  Pointer to start of range.
 754:/usr/include/c++/10/bits/locale_facets.h ****        *  @param __hi  Pointer to end of range.
 755:/usr/include/c++/10/bits/locale_facets.h ****        *  @param __vec  Pointer to an array of mask storage.
AARCH64 GAS  obj/Chapter12_2.s 			page 36


 756:/usr/include/c++/10/bits/locale_facets.h ****        *  @return  @a __hi.
 757:/usr/include/c++/10/bits/locale_facets.h ****       */
 758:/usr/include/c++/10/bits/locale_facets.h ****       inline const char*
 759:/usr/include/c++/10/bits/locale_facets.h ****       is(const char* __lo, const char* __hi, mask* __vec) const;
 760:/usr/include/c++/10/bits/locale_facets.h **** 
 761:/usr/include/c++/10/bits/locale_facets.h ****       /**
 762:/usr/include/c++/10/bits/locale_facets.h ****        *  @brief  Find char matching a mask
 763:/usr/include/c++/10/bits/locale_facets.h ****        *
 764:/usr/include/c++/10/bits/locale_facets.h ****        *  This function searches for and returns the first char in [lo,hi) for
 765:/usr/include/c++/10/bits/locale_facets.h ****        *  which is(m,char) is true.
 766:/usr/include/c++/10/bits/locale_facets.h ****        *
 767:/usr/include/c++/10/bits/locale_facets.h ****        *  @param __m  The mask to compare against.
 768:/usr/include/c++/10/bits/locale_facets.h ****        *  @param __lo  Pointer to start of range.
 769:/usr/include/c++/10/bits/locale_facets.h ****        *  @param __hi  Pointer to end of range.
 770:/usr/include/c++/10/bits/locale_facets.h ****        *  @return  Pointer to a matching char if found, else @a __hi.
 771:/usr/include/c++/10/bits/locale_facets.h ****       */
 772:/usr/include/c++/10/bits/locale_facets.h ****       inline const char*
 773:/usr/include/c++/10/bits/locale_facets.h ****       scan_is(mask __m, const char* __lo, const char* __hi) const;
 774:/usr/include/c++/10/bits/locale_facets.h **** 
 775:/usr/include/c++/10/bits/locale_facets.h ****       /**
 776:/usr/include/c++/10/bits/locale_facets.h ****        *  @brief  Find char not matching a mask
 777:/usr/include/c++/10/bits/locale_facets.h ****        *
 778:/usr/include/c++/10/bits/locale_facets.h ****        *  This function searches for and returns a pointer to the first char
 779:/usr/include/c++/10/bits/locale_facets.h ****        *  in [__lo,__hi) for which is(m,char) is false.
 780:/usr/include/c++/10/bits/locale_facets.h ****        *
 781:/usr/include/c++/10/bits/locale_facets.h ****        *  @param __m  The mask to compare against.
 782:/usr/include/c++/10/bits/locale_facets.h ****        *  @param __lo  Pointer to start of range.
 783:/usr/include/c++/10/bits/locale_facets.h ****        *  @param __hi  Pointer to end of range.
 784:/usr/include/c++/10/bits/locale_facets.h ****        *  @return  Pointer to a non-matching char if found, else @a __hi.
 785:/usr/include/c++/10/bits/locale_facets.h ****       */
 786:/usr/include/c++/10/bits/locale_facets.h ****       inline const char*
 787:/usr/include/c++/10/bits/locale_facets.h ****       scan_not(mask __m, const char* __lo, const char* __hi) const;
 788:/usr/include/c++/10/bits/locale_facets.h **** 
 789:/usr/include/c++/10/bits/locale_facets.h ****       /**
 790:/usr/include/c++/10/bits/locale_facets.h ****        *  @brief  Convert to uppercase.
 791:/usr/include/c++/10/bits/locale_facets.h ****        *
 792:/usr/include/c++/10/bits/locale_facets.h ****        *  This function converts the char argument to uppercase if possible.
 793:/usr/include/c++/10/bits/locale_facets.h ****        *  If not possible (for example, '2'), returns the argument.
 794:/usr/include/c++/10/bits/locale_facets.h ****        *
 795:/usr/include/c++/10/bits/locale_facets.h ****        *  toupper() acts as if it returns ctype<char>::do_toupper(c).
 796:/usr/include/c++/10/bits/locale_facets.h ****        *  do_toupper() must always return the same result for the same input.
 797:/usr/include/c++/10/bits/locale_facets.h ****        *
 798:/usr/include/c++/10/bits/locale_facets.h ****        *  @param __c  The char to convert.
 799:/usr/include/c++/10/bits/locale_facets.h ****        *  @return  The uppercase char if convertible, else @a __c.
 800:/usr/include/c++/10/bits/locale_facets.h ****       */
 801:/usr/include/c++/10/bits/locale_facets.h ****       char_type
 802:/usr/include/c++/10/bits/locale_facets.h ****       toupper(char_type __c) const
 803:/usr/include/c++/10/bits/locale_facets.h ****       { return this->do_toupper(__c); }
 804:/usr/include/c++/10/bits/locale_facets.h **** 
 805:/usr/include/c++/10/bits/locale_facets.h ****       /**
 806:/usr/include/c++/10/bits/locale_facets.h ****        *  @brief  Convert array to uppercase.
 807:/usr/include/c++/10/bits/locale_facets.h ****        *
 808:/usr/include/c++/10/bits/locale_facets.h ****        *  This function converts each char in the range [__lo,__hi) to uppercase
 809:/usr/include/c++/10/bits/locale_facets.h ****        *  if possible.  Other chars remain untouched.
 810:/usr/include/c++/10/bits/locale_facets.h ****        *
 811:/usr/include/c++/10/bits/locale_facets.h ****        *  toupper() acts as if it returns ctype<char>:: do_toupper(__lo, __hi).
 812:/usr/include/c++/10/bits/locale_facets.h ****        *  do_toupper() must always return the same result for the same input.
AARCH64 GAS  obj/Chapter12_2.s 			page 37


 813:/usr/include/c++/10/bits/locale_facets.h ****        *
 814:/usr/include/c++/10/bits/locale_facets.h ****        *  @param __lo  Pointer to first char in range.
 815:/usr/include/c++/10/bits/locale_facets.h ****        *  @param __hi  Pointer to end of range.
 816:/usr/include/c++/10/bits/locale_facets.h ****        *  @return  @a __hi.
 817:/usr/include/c++/10/bits/locale_facets.h ****       */
 818:/usr/include/c++/10/bits/locale_facets.h ****       const char_type*
 819:/usr/include/c++/10/bits/locale_facets.h ****       toupper(char_type *__lo, const char_type* __hi) const
 820:/usr/include/c++/10/bits/locale_facets.h ****       { return this->do_toupper(__lo, __hi); }
 821:/usr/include/c++/10/bits/locale_facets.h **** 
 822:/usr/include/c++/10/bits/locale_facets.h ****       /**
 823:/usr/include/c++/10/bits/locale_facets.h ****        *  @brief  Convert to lowercase.
 824:/usr/include/c++/10/bits/locale_facets.h ****        *
 825:/usr/include/c++/10/bits/locale_facets.h ****        *  This function converts the char argument to lowercase if possible.
 826:/usr/include/c++/10/bits/locale_facets.h ****        *  If not possible (for example, '2'), returns the argument.
 827:/usr/include/c++/10/bits/locale_facets.h ****        *
 828:/usr/include/c++/10/bits/locale_facets.h ****        *  tolower() acts as if it returns ctype<char>::do_tolower(__c).
 829:/usr/include/c++/10/bits/locale_facets.h ****        *  do_tolower() must always return the same result for the same input.
 830:/usr/include/c++/10/bits/locale_facets.h ****        *
 831:/usr/include/c++/10/bits/locale_facets.h ****        *  @param __c  The char to convert.
 832:/usr/include/c++/10/bits/locale_facets.h ****        *  @return  The lowercase char if convertible, else @a __c.
 833:/usr/include/c++/10/bits/locale_facets.h ****       */
 834:/usr/include/c++/10/bits/locale_facets.h ****       char_type
 835:/usr/include/c++/10/bits/locale_facets.h ****       tolower(char_type __c) const
 836:/usr/include/c++/10/bits/locale_facets.h ****       { return this->do_tolower(__c); }
 837:/usr/include/c++/10/bits/locale_facets.h **** 
 838:/usr/include/c++/10/bits/locale_facets.h ****       /**
 839:/usr/include/c++/10/bits/locale_facets.h ****        *  @brief  Convert array to lowercase.
 840:/usr/include/c++/10/bits/locale_facets.h ****        *
 841:/usr/include/c++/10/bits/locale_facets.h ****        *  This function converts each char in the range [lo,hi) to lowercase
 842:/usr/include/c++/10/bits/locale_facets.h ****        *  if possible.  Other chars remain untouched.
 843:/usr/include/c++/10/bits/locale_facets.h ****        *
 844:/usr/include/c++/10/bits/locale_facets.h ****        *  tolower() acts as if it returns ctype<char>:: do_tolower(__lo, __hi).
 845:/usr/include/c++/10/bits/locale_facets.h ****        *  do_tolower() must always return the same result for the same input.
 846:/usr/include/c++/10/bits/locale_facets.h ****        *
 847:/usr/include/c++/10/bits/locale_facets.h ****        *  @param __lo  Pointer to first char in range.
 848:/usr/include/c++/10/bits/locale_facets.h ****        *  @param __hi  Pointer to end of range.
 849:/usr/include/c++/10/bits/locale_facets.h ****        *  @return  @a __hi.
 850:/usr/include/c++/10/bits/locale_facets.h ****       */
 851:/usr/include/c++/10/bits/locale_facets.h ****       const char_type*
 852:/usr/include/c++/10/bits/locale_facets.h ****       tolower(char_type* __lo, const char_type* __hi) const
 853:/usr/include/c++/10/bits/locale_facets.h ****       { return this->do_tolower(__lo, __hi); }
 854:/usr/include/c++/10/bits/locale_facets.h **** 
 855:/usr/include/c++/10/bits/locale_facets.h ****       /**
 856:/usr/include/c++/10/bits/locale_facets.h ****        *  @brief  Widen char
 857:/usr/include/c++/10/bits/locale_facets.h ****        *
 858:/usr/include/c++/10/bits/locale_facets.h ****        *  This function converts the char to char_type using the simplest
 859:/usr/include/c++/10/bits/locale_facets.h ****        *  reasonable transformation.  For an underived ctype<char> facet, the
 860:/usr/include/c++/10/bits/locale_facets.h ****        *  argument will be returned unchanged.
 861:/usr/include/c++/10/bits/locale_facets.h ****        *
 862:/usr/include/c++/10/bits/locale_facets.h ****        *  This function works as if it returns ctype<char>::do_widen(c).
 863:/usr/include/c++/10/bits/locale_facets.h ****        *  do_widen() must always return the same result for the same input.
 864:/usr/include/c++/10/bits/locale_facets.h ****        *
 865:/usr/include/c++/10/bits/locale_facets.h ****        *  Note: this is not what you want for codepage conversions.  See
 866:/usr/include/c++/10/bits/locale_facets.h ****        *  codecvt for that.
 867:/usr/include/c++/10/bits/locale_facets.h ****        *
 868:/usr/include/c++/10/bits/locale_facets.h ****        *  @param __c  The char to convert.
 869:/usr/include/c++/10/bits/locale_facets.h ****        *  @return  The converted character.
AARCH64 GAS  obj/Chapter12_2.s 			page 38


 870:/usr/include/c++/10/bits/locale_facets.h ****       */
 871:/usr/include/c++/10/bits/locale_facets.h ****       char_type
 872:/usr/include/c++/10/bits/locale_facets.h ****       widen(char __c) const
  50              		.loc 3 872 7 is_stmt 1 view .LVU9
  51              	.LBB79:
 873:/usr/include/c++/10/bits/locale_facets.h ****       {
 874:/usr/include/c++/10/bits/locale_facets.h **** 	if (_M_widen_ok)
  52              		.loc 3 874 2 view .LVU10
  53 0024 80E24039 		ldrb	w0, [x20, 56]
  54              	.LVL4:
  55              		.loc 3 874 2 is_stmt 0 view .LVU11
  56 0028 E0000034 		cbz	w0, .L3
 875:/usr/include/c++/10/bits/locale_facets.h **** 	  return _M_widen[static_cast<unsigned char>(__c)];
  57              		.loc 3 875 4 is_stmt 1 view .LVU12
  58              		.loc 3 875 51 is_stmt 0 view .LVU13
  59 002c 810E4139 		ldrb	w1, [x20, 67]
  60              	.LVL5:
  61              	.L4:
  62              		.loc 3 875 51 view .LVU14
  63              	.LBE79:
  64              	.LBE78:
  65              	.LBE74:
  66              		.loc 1 682 19 view .LVU15
  67 0030 E00313AA 		mov	x0, x19
  68 0034 00000094 		bl	_ZNSo3putEc
  69              	.LVL6:
  70              	.LBB85:
  71              	.LBI85:
 683:/usr/include/c++/10/ostream **** 
 684:/usr/include/c++/10/ostream ****   /**
 685:/usr/include/c++/10/ostream ****    *  @brief  Write a null character into the output sequence.
 686:/usr/include/c++/10/ostream ****    *
 687:/usr/include/c++/10/ostream ****    *  <em>Null character</em> is @c CharT() by definition.  For CharT
 688:/usr/include/c++/10/ostream ****    *  of @c char, this correctly writes the ASCII @c NUL character
 689:/usr/include/c++/10/ostream ****    *  string terminator.
 690:/usr/include/c++/10/ostream ****   */
 691:/usr/include/c++/10/ostream ****   template<typename _CharT, typename _Traits>
 692:/usr/include/c++/10/ostream ****     inline basic_ostream<_CharT, _Traits>&
 693:/usr/include/c++/10/ostream ****     ends(basic_ostream<_CharT, _Traits>& __os)
 694:/usr/include/c++/10/ostream ****     { return __os.put(_CharT()); }
 695:/usr/include/c++/10/ostream **** 
 696:/usr/include/c++/10/ostream ****   /**
 697:/usr/include/c++/10/ostream ****    *  @brief  Flushes the output stream.
 698:/usr/include/c++/10/ostream ****    *
 699:/usr/include/c++/10/ostream ****    *  This manipulator simply calls the stream's @c flush() member function.
 700:/usr/include/c++/10/ostream ****   */
 701:/usr/include/c++/10/ostream ****   template<typename _CharT, typename _Traits>
 702:/usr/include/c++/10/ostream ****     inline basic_ostream<_CharT, _Traits>&
 703:/usr/include/c++/10/ostream ****     flush(basic_ostream<_CharT, _Traits>& __os)
  72              		.loc 1 703 5 is_stmt 1 view .LVU16
  73              	.LBE85:
 682:/usr/include/c++/10/ostream **** 
  74              		.loc 1 682 49 is_stmt 0 view .LVU17
  75 0038 F35341A9 		ldp	x19, x20, [sp, 16]
  76              	.LVL7:
 682:/usr/include/c++/10/ostream **** 
  77              		.loc 1 682 49 view .LVU18
AARCH64 GAS  obj/Chapter12_2.s 			page 39


  78 003c FD7BC2A8 		ldp	x29, x30, [sp], 32
  79              		.cfi_remember_state
  80              		.cfi_restore 30
  81              		.cfi_restore 29
  82              		.cfi_restore 19
  83              		.cfi_restore 20
  84              		.cfi_def_cfa_offset 0
  85              	.LBB87:
  86              	.LBB86:
 704:/usr/include/c++/10/ostream ****     { return __os.flush(); }
  87              		.loc 1 704 24 view .LVU19
  88 0040 00000014 		b	_ZNSo5flushEv
  89              	.LVL8:
  90              	.L3:
  91              		.cfi_restore_state
  92              		.loc 1 704 24 view .LVU20
  93              	.LBE86:
  94              	.LBE87:
  95              	.LBB88:
  96              	.LBB83:
  97              	.LBB82:
  98              	.LBB80:
  99              	.LBI80:
 872:/usr/include/c++/10/bits/locale_facets.h ****       {
 100              		.loc 3 872 7 is_stmt 1 view .LVU21
 101              	.LBB81:
 876:/usr/include/c++/10/bits/locale_facets.h **** 	this->_M_widen_init();
 102              		.loc 3 876 2 view .LVU22
 103              		.loc 3 876 21 is_stmt 0 view .LVU23
 104 0044 E00314AA 		mov	x0, x20
 105 0048 00000094 		bl	_ZNKSt5ctypeIcE13_M_widen_initEv
 106              	.LVL9:
 877:/usr/include/c++/10/bits/locale_facets.h **** 	return this->do_widen(__c);
 107              		.loc 3 877 2 is_stmt 1 view .LVU24
 108              		.loc 3 877 27 is_stmt 0 view .LVU25
 109 004c 820240F9 		ldr	x2, [x20]
 110              		.loc 3 877 23 view .LVU26
 111 0050 41018052 		mov	w1, 10
 112 0054 E00314AA 		mov	x0, x20
 113 0058 421840F9 		ldr	x2, [x2, 48]
 114 005c 40003FD6 		blr	x2
 115              	.LVL10:
 116 0060 011C0012 		and	w1, w0, 255
 117              	.LVL11:
 118              		.loc 3 877 23 view .LVU27
 119 0064 F3FFFF17 		b	.L4
 120              	.LVL12:
 121              	.L7:
 122              		.loc 3 877 23 view .LVU28
 123              	.LBE81:
 124              	.LBE80:
 125              	.LBE82:
 126              	.LBE83:
 127              	.LBB84:
 128              	.LBB77:
  50:/usr/include/c++/10/bits/basic_ios.h ****       return *__f;
 129              		.loc 2 50 18 view .LVU29
AARCH64 GAS  obj/Chapter12_2.s 			page 40


 130 0068 00000094 		bl	_ZSt16__throw_bad_castv
 131              	.LVL13:
  50:/usr/include/c++/10/bits/basic_ios.h ****       return *__f;
 132              		.loc 2 50 18 view .LVU30
 133              	.LBE77:
 134              	.LBE84:
 135              	.LBE88:
 136              		.cfi_endproc
 137              	.LFE2093:
 138              		.size	_ZSt4endlIcSt11char_traitsIcEERSt13basic_ostreamIT_T0_ES6_.isra.0, .-_ZSt4endlIcSt11char_tra
 139              		.align	2
 140 006c 1F2003D5 		.p2align 4,,11
 141              		.global	_Z9local_VariiiillllPiPl
 142              		.type	_Z9local_VariiiillllPiPl, %function
 143              	_Z9local_VariiiillllPiPl:
 144              	.LVL14:
 145              	.LFB1587:
 146              		.file 4 "Chapter12_2.cpp"
   1:Chapter12_2.cpp **** #include<iostream>
   2:Chapter12_2.cpp **** #include<cstdint>
   3:Chapter12_2.cpp **** 
   4:Chapter12_2.cpp **** using namespace std;
   5:Chapter12_2.cpp **** 
   6:Chapter12_2.cpp **** int64_t global_var1;
   7:Chapter12_2.cpp **** int32_t global_var2;
   8:Chapter12_2.cpp **** 
   9:Chapter12_2.cpp **** extern "C" void local_Var_(int32_t a,
  10:Chapter12_2.cpp ****                            int32_t b,
  11:Chapter12_2.cpp ****                            int32_t c,
  12:Chapter12_2.cpp **** 						   int32_t d,
  13:Chapter12_2.cpp **** 						   int64_t e,
  14:Chapter12_2.cpp ****                            int64_t f,
  15:Chapter12_2.cpp ****                            int64_t g,
  16:Chapter12_2.cpp ****                            int64_t h,
  17:Chapter12_2.cpp ****                            int32_t*x, 
  18:Chapter12_2.cpp ****                            int64_t*y );
  19:Chapter12_2.cpp **** 						   
  20:Chapter12_2.cpp **** void local_Var(int32_t a,
  21:Chapter12_2.cpp ****                int32_t b,
  22:Chapter12_2.cpp ****                int32_t c,
  23:Chapter12_2.cpp **** 	       int32_t d,
  24:Chapter12_2.cpp **** 	       int64_t e,
  25:Chapter12_2.cpp ****                int64_t f,
  26:Chapter12_2.cpp ****                int64_t g,
  27:Chapter12_2.cpp ****                int64_t h,
  28:Chapter12_2.cpp ****                int32_t*x, 
  29:Chapter12_2.cpp ****                int64_t*y )
  30:Chapter12_2.cpp **** {
 147              		.loc 4 30 1 is_stmt 1 view -0
 148              		.cfi_startproc
  31:Chapter12_2.cpp **** 	int32_t t0 = a+b-c;
 149              		.loc 4 31 2 view .LVU32
  32:Chapter12_2.cpp **** 	int32_t t1 = d+global_var2;
  33:Chapter12_2.cpp ****         int64_t t2 = e-f+g;
  34:Chapter12_2.cpp ****         int64_t t3 = h-global_var1;
 150              		.loc 4 34 23 is_stmt 0 view .LVU33
 151 0070 08000090 		adrp	x8, .LANCHOR0
AARCH64 GAS  obj/Chapter12_2.s 			page 41


 152 0074 09010091 		add	x9, x8, :lo12:.LANCHOR0
  31:Chapter12_2.cpp **** 	int32_t t0 = a+b-c;
 153              		.loc 4 31 16 view .LVU34
 154 0078 0000010B 		add	w0, w0, w1
 155              	.LVL15:
  33:Chapter12_2.cpp ****         int64_t t3 = h-global_var1;
 156              		.loc 4 33 23 view .LVU35
 157 007c 840005CB 		sub	x4, x4, x5
 158              	.LVL16:
 159              		.loc 4 34 17 view .LVU36
 160 0080 080140F9 		ldr	x8, [x8, #:lo12:.LANCHOR0]
  31:Chapter12_2.cpp **** 	int32_t t0 = a+b-c;
 161              		.loc 4 31 10 view .LVU37
 162 0084 0000024B 		sub	w0, w0, w2
  32:Chapter12_2.cpp **** 	int32_t t1 = d+global_var2;
 163              		.loc 4 32 10 view .LVU38
 164 0088 290940B9 		ldr	w9, [x9, 8]
  33:Chapter12_2.cpp ****         int64_t t3 = h-global_var1;
 165              		.loc 4 33 17 view .LVU39
 166 008c 8400068B 		add	x4, x4, x6
  30:Chapter12_2.cpp **** 	int32_t t0 = a+b-c;
 167              		.loc 4 30 1 view .LVU40
 168 0090 E20740A9 		ldp	x2, x1, [sp]
 169              	.LVL17:
  32:Chapter12_2.cpp **** 	int32_t t1 = d+global_var2;
 170              		.loc 4 32 10 view .LVU41
 171 0094 6300090B 		add	w3, w3, w9
 172              	.LVL18:
 173              		.loc 4 34 17 view .LVU42
 174 0098 E70008CB 		sub	x7, x7, x8
 175              	.LVL19:
  32:Chapter12_2.cpp **** 	int32_t t1 = d+global_var2;
 176              		.loc 4 32 2 is_stmt 1 view .LVU43
  33:Chapter12_2.cpp ****         int64_t t3 = h-global_var1;
 177              		.loc 4 33 9 view .LVU44
 178              		.loc 4 34 9 view .LVU45
  35:Chapter12_2.cpp ****         *x = t0*t1;
 179              		.loc 4 35 9 view .LVU46
 180              		.loc 4 35 16 is_stmt 0 view .LVU47
 181 009c 007C031B 		mul	w0, w0, w3
  36:Chapter12_2.cpp ****         *y = t2*t3;	
 182              		.loc 4 36 16 view .LVU48
 183 00a0 847C079B 		mul	x4, x4, x7
  35:Chapter12_2.cpp ****         *x = t0*t1;
 184              		.loc 4 35 12 view .LVU49
 185 00a4 400000B9 		str	w0, [x2]
 186              		.loc 4 36 9 is_stmt 1 view .LVU50
 187              		.loc 4 36 12 is_stmt 0 view .LVU51
 188 00a8 240000F9 		str	x4, [x1]
  37:Chapter12_2.cpp **** 			   }			   
 189              		.loc 4 37 7 view .LVU52
 190 00ac C0035FD6 		ret
 191              		.cfi_endproc
 192              	.LFE1587:
 193              		.size	_Z9local_VariiiillllPiPl, .-_Z9local_VariiiillllPiPl
 194              		.section	.rodata.str1.8,"aMS",@progbits,1
 195              		.align	3
AARCH64 GAS  obj/Chapter12_2.s 			page 42


 196              	.LC0:
 197 0000 432B2B20 		.string	"C++ result: "
 197      72657375 
 197      6C743A20 
 197      00
 198 000d 000000   		.align	3
 199              	.LC1:
 200 0010 2000     		.string	" "
 201 0012 00000000 		.align	3
 201      0000
 202              	.LC2:
 203 0018 41736D20 		.string	"Asm result: "
 203      72657375 
 203      6C743A20 
 203      00
 204              		.section	.text.startup,"ax",@progbits
 205              		.align	2
 206              		.p2align 4,,11
 207              		.global	main
 208              		.type	main, %function
 209              	main:
 210              	.LVL20:
 211              	.LFB1588:
  38:Chapter12_2.cpp **** 
  39:Chapter12_2.cpp **** 
  40:Chapter12_2.cpp **** 
  41:Chapter12_2.cpp **** int main(int argc,char** argv)
  42:Chapter12_2.cpp **** {
 212              		.loc 4 42 1 is_stmt 1 view -0
 213              		.cfi_startproc
  43:Chapter12_2.cpp **** 	int32_t a = 4462;
 214              		.loc 4 43 2 view .LVU54
  44:Chapter12_2.cpp **** 	int32_t b = 7584;
 215              		.loc 4 44 2 view .LVU55
  45:Chapter12_2.cpp **** 	int32_t c = -1299;
 216              		.loc 4 45 2 view .LVU56
  46:Chapter12_2.cpp **** 	int32_t d = 9746;
 217              		.loc 4 46 2 view .LVU57
  47:Chapter12_2.cpp **** 	int64_t e = 9827463;
 218              		.loc 4 47 2 view .LVU58
  48:Chapter12_2.cpp **** 	int64_t f = -2574367;
 219              		.loc 4 48 2 view .LVU59
  49:Chapter12_2.cpp **** 	int64_t g = -7346437;
 220              		.loc 4 49 2 view .LVU60
  50:Chapter12_2.cpp **** 	int64_t h = 4857489;
 221              		.loc 4 50 2 view .LVU61
  51:Chapter12_2.cpp **** 	int32_t x; 
 222              		.loc 4 51 2 view .LVU62
  52:Chapter12_2.cpp ****         int64_t y;
 223              		.loc 4 52 9 view .LVU63
  53:Chapter12_2.cpp **** 	local_Var(a,b,c,d,e,f,g,h,&x,&y);
 224              		.loc 4 53 2 view .LVU64
  42:Chapter12_2.cpp **** 	int32_t a = 4462;
 225              		.loc 4 42 1 is_stmt 0 view .LVU65
 226 0000 FF8301D1 		sub	sp, sp, #96
 227              		.cfi_def_cfa_offset 96
 228              	.LVL21:
AARCH64 GAS  obj/Chapter12_2.s 			page 43


 229              	.LBB89:
 230              	.LBI89:
  20:Chapter12_2.cpp ****                int32_t b,
 231              		.loc 4 20 6 is_stmt 1 view .LVU66
 232              	.LBB90:
  31:Chapter12_2.cpp **** 	int32_t t1 = d+global_var2;
 233              		.loc 4 31 2 view .LVU67
  32:Chapter12_2.cpp ****         int64_t t2 = e-f+g;
 234              		.loc 4 32 2 view .LVU68
  33:Chapter12_2.cpp ****         int64_t t3 = h-global_var1;
 235              		.loc 4 33 9 view .LVU69
  34:Chapter12_2.cpp ****         *x = t0*t1;
 236              		.loc 4 34 9 view .LVU70
  34:Chapter12_2.cpp ****         *x = t0*t1;
 237              		.loc 4 34 23 is_stmt 0 view .LVU71
 238 0004 00000090 		adrp	x0, .LANCHOR0
 239              	.LVL22:
  34:Chapter12_2.cpp ****         *x = t0*t1;
 240              		.loc 4 34 23 view .LVU72
 241 0008 01000091 		add	x1, x0, :lo12:.LANCHOR0
 242              	.LVL23:
  35:Chapter12_2.cpp ****         *y = t2*t3;	
 243              		.loc 4 35 16 view .LVU73
 244 000c 23848652 		mov	w3, 13345
 245              	.LBE90:
 246              	.LBE89:
 247              	.LBB97:
 248              	.LBB98:
 611:/usr/include/c++/10/ostream **** 			 static_cast<streamsize>(_Traits::length(__s)));
 249              		.loc 1 611 18 view .LVU74
 250 0010 820180D2 		mov	x2, 12
 251              	.LBE98:
 252              	.LBE97:
  42:Chapter12_2.cpp **** 	int32_t a = 4462;
 253              		.loc 4 42 1 view .LVU75
 254 0014 FD7B01A9 		stp	x29, x30, [sp, 16]
 255              		.cfi_offset 29, -80
 256              		.cfi_offset 30, -72
 257 0018 FD430091 		add	x29, sp, 16
 258              	.LBB103:
 259              	.LBB91:
  34:Chapter12_2.cpp ****         *x = t0*t1;
 260              		.loc 4 34 17 view .LVU76
 261 001c 040040F9 		ldr	x4, [x0, #:lo12:.LANCHOR0]
  36:Chapter12_2.cpp **** 			   }			   
 262              		.loc 4 36 16 view .LVU77
 263 0020 207484D2 		mov	x0, 9121
  32:Chapter12_2.cpp ****         int64_t t2 = e-f+g;
 264              		.loc 4 32 10 view .LVU78
 265 0024 250840B9 		ldr	w5, [x1, 8]
  36:Chapter12_2.cpp **** 			   }			   
 266              		.loc 4 36 16 view .LVU79
 267 0028 A009A0F2 		movk	x0, 0x4d, lsl 16
 268              	.LBE91:
 269              	.LBE103:
  42:Chapter12_2.cpp **** 	int32_t a = 4462;
 270              		.loc 4 42 1 view .LVU80
AARCH64 GAS  obj/Chapter12_2.s 			page 44


 271 002c F72300F9 		str	x23, [sp, 64]
 272              		.cfi_offset 23, -32
 273              	.LBB104:
 274              	.LBB92:
  34:Chapter12_2.cpp ****         *x = t0*t1;
 275              		.loc 4 34 17 view .LVU81
 276 0030 37D283D2 		mov	x23, 7825
 277 0034 5709A0F2 		movk	x23, 0x4a, lsl 16
 278 0038 E40204CB 		sub	x4, x23, x4
 279              	.LVL24:
  35:Chapter12_2.cpp ****         *y = t2*t3;	
 280              		.loc 4 35 9 is_stmt 1 view .LVU82
  36:Chapter12_2.cpp **** 			   }			   
 281              		.loc 4 36 9 view .LVU83
 282              	.LBE92:
 283              	.LBE104:
  42:Chapter12_2.cpp **** 	int32_t a = 4462;
 284              		.loc 4 42 1 is_stmt 0 view .LVU84
 285 003c F55B03A9 		stp	x21, x22, [sp, 48]
 286              		.cfi_offset 21, -48
 287              		.cfi_offset 22, -40
 288              	.LBB105:
 289              	.LBB93:
  32:Chapter12_2.cpp ****         int64_t t2 = e-f+g;
 290              		.loc 4 32 10 view .LVU85
 291 0040 56C28452 		mov	w22, 9746
 292 0044 A500160B 		add	w5, w5, w22
 293              	.LBE93:
 294              	.LBE105:
  42:Chapter12_2.cpp **** 	int32_t a = 4462;
 295              		.loc 4 42 1 view .LVU86
 296 0048 F35302A9 		stp	x19, x20, [sp, 32]
 297              		.cfi_offset 19, -64
 298              		.cfi_offset 20, -56
 299              	.LBB106:
 300              	.LBB99:
 611:/usr/include/c++/10/ostream **** 			 static_cast<streamsize>(_Traits::length(__s)));
 301              		.loc 1 611 18 view .LVU87
 302 004c 13000090 		adrp	x19, :got:_ZSt4cout
 303              	.LBE99:
 304              	.LBE106:
 305              	.LBB107:
 306              	.LBB94:
  36:Chapter12_2.cpp **** 			   }			   
 307              		.loc 4 36 16 view .LVU88
 308 0050 847C009B 		mul	x4, x4, x0
 309              	.LVL25:
  35:Chapter12_2.cpp ****         *y = t2*t3;	
 310              		.loc 4 35 16 view .LVU89
 311 0054 A57C031B 		mul	w5, w5, w3
 312              	.LBE94:
 313              	.LBE107:
 314              	.LBB108:
 315              	.LBB100:
 611:/usr/include/c++/10/ostream **** 			 static_cast<streamsize>(_Traits::length(__s)));
 316              		.loc 1 611 18 view .LVU90
 317 0058 01000090 		adrp	x1, .LC0
AARCH64 GAS  obj/Chapter12_2.s 			page 45


 318 005c 730240F9 		ldr	x19, [x19, #:got_lo12:_ZSt4cout]
 319 0060 21000091 		add	x1, x1, :lo12:.LC0
 320              	.LBE100:
 321              	.LBE108:
 322              	.LBB109:
 323              	.LBB95:
  35:Chapter12_2.cpp ****         *y = t2*t3;	
 324              		.loc 4 35 12 view .LVU91
 325 0064 E55700B9 		str	w5, [sp, 84]
 326              	.LBE95:
 327              	.LBE109:
 328              	.LBB110:
 329              	.LBB111:
 611:/usr/include/c++/10/ostream **** 			 static_cast<streamsize>(_Traits::length(__s)));
 330              		.loc 1 611 18 view .LVU92
 331 0068 14000090 		adrp	x20, .LC1
 332              	.LBE111:
 333              	.LBE110:
 334              	.LBB114:
 335              	.LBB101:
 336 006c E00313AA 		mov	x0, x19
 337              	.LBE101:
 338              	.LBE114:
 339              	.LBB115:
 340              	.LBB96:
  36:Chapter12_2.cpp **** 			   }			   
 341              		.loc 4 36 12 view .LVU93
 342 0070 E42F00F9 		str	x4, [sp, 88]
 343              	.LVL26:
  36:Chapter12_2.cpp **** 			   }			   
 344              		.loc 4 36 12 view .LVU94
 345              	.LBE96:
 346              	.LBE115:
  54:Chapter12_2.cpp **** 	cout<<"C++ result: "<<endl;
 347              		.loc 4 54 2 is_stmt 1 view .LVU95
 348              	.LBB116:
 349              	.LBI97:
 606:/usr/include/c++/10/ostream ****     {
 350              		.loc 1 606 5 view .LVU96
 606:/usr/include/c++/10/ostream ****     {
 351              		.loc 1 606 5 is_stmt 0 view .LVU97
 352              	.LBE116:
 353              		.file 5 "/usr/include/c++/10/bits/char_traits.h"
   1:/usr/include/c++/10/bits/char_traits.h **** // Character Traits for use by standard string and iostream -*- C++ -*-
   2:/usr/include/c++/10/bits/char_traits.h **** 
   3:/usr/include/c++/10/bits/char_traits.h **** // Copyright (C) 1997-2020 Free Software Foundation, Inc.
   4:/usr/include/c++/10/bits/char_traits.h **** //
   5:/usr/include/c++/10/bits/char_traits.h **** // This file is part of the GNU ISO C++ Library.  This library is free
   6:/usr/include/c++/10/bits/char_traits.h **** // software; you can redistribute it and/or modify it under the
   7:/usr/include/c++/10/bits/char_traits.h **** // terms of the GNU General Public License as published by the
   8:/usr/include/c++/10/bits/char_traits.h **** // Free Software Foundation; either version 3, or (at your option)
   9:/usr/include/c++/10/bits/char_traits.h **** // any later version.
  10:/usr/include/c++/10/bits/char_traits.h **** 
  11:/usr/include/c++/10/bits/char_traits.h **** // This library is distributed in the hope that it will be useful,
  12:/usr/include/c++/10/bits/char_traits.h **** // but WITHOUT ANY WARRANTY; without even the implied warranty of
  13:/usr/include/c++/10/bits/char_traits.h **** // MERCHANTABILITY or FITNESS FOR A PARTICULAR PURPOSE.  See the
  14:/usr/include/c++/10/bits/char_traits.h **** // GNU General Public License for more details.
AARCH64 GAS  obj/Chapter12_2.s 			page 46


  15:/usr/include/c++/10/bits/char_traits.h **** 
  16:/usr/include/c++/10/bits/char_traits.h **** // Under Section 7 of GPL version 3, you are granted additional
  17:/usr/include/c++/10/bits/char_traits.h **** // permissions described in the GCC Runtime Library Exception, version
  18:/usr/include/c++/10/bits/char_traits.h **** // 3.1, as published by the Free Software Foundation.
  19:/usr/include/c++/10/bits/char_traits.h **** 
  20:/usr/include/c++/10/bits/char_traits.h **** // You should have received a copy of the GNU General Public License and
  21:/usr/include/c++/10/bits/char_traits.h **** // a copy of the GCC Runtime Library Exception along with this program;
  22:/usr/include/c++/10/bits/char_traits.h **** // see the files COPYING3 and COPYING.RUNTIME respectively.  If not, see
  23:/usr/include/c++/10/bits/char_traits.h **** // <http://www.gnu.org/licenses/>.
  24:/usr/include/c++/10/bits/char_traits.h **** 
  25:/usr/include/c++/10/bits/char_traits.h **** /** @file bits/char_traits.h
  26:/usr/include/c++/10/bits/char_traits.h ****  *  This is an internal header file, included by other library headers.
  27:/usr/include/c++/10/bits/char_traits.h ****  *  Do not attempt to use it directly. @headername{string}
  28:/usr/include/c++/10/bits/char_traits.h ****  */
  29:/usr/include/c++/10/bits/char_traits.h **** 
  30:/usr/include/c++/10/bits/char_traits.h **** //
  31:/usr/include/c++/10/bits/char_traits.h **** // ISO C++ 14882: 21  Strings library
  32:/usr/include/c++/10/bits/char_traits.h **** //
  33:/usr/include/c++/10/bits/char_traits.h **** 
  34:/usr/include/c++/10/bits/char_traits.h **** #ifndef _CHAR_TRAITS_H
  35:/usr/include/c++/10/bits/char_traits.h **** #define _CHAR_TRAITS_H 1
  36:/usr/include/c++/10/bits/char_traits.h **** 
  37:/usr/include/c++/10/bits/char_traits.h **** #pragma GCC system_header
  38:/usr/include/c++/10/bits/char_traits.h **** 
  39:/usr/include/c++/10/bits/char_traits.h **** #include <bits/stl_algobase.h>  // std::copy, std::fill_n
  40:/usr/include/c++/10/bits/char_traits.h **** #include <bits/postypes.h>      // For streampos
  41:/usr/include/c++/10/bits/char_traits.h **** #include <cwchar>               // For WEOF, wmemmove, wmemset, etc.
  42:/usr/include/c++/10/bits/char_traits.h **** #if __cplusplus > 201703L
  43:/usr/include/c++/10/bits/char_traits.h **** # include <compare>
  44:/usr/include/c++/10/bits/char_traits.h **** #endif
  45:/usr/include/c++/10/bits/char_traits.h **** 
  46:/usr/include/c++/10/bits/char_traits.h **** #ifndef _GLIBCXX_ALWAYS_INLINE
  47:/usr/include/c++/10/bits/char_traits.h **** # define _GLIBCXX_ALWAYS_INLINE inline __attribute__((__always_inline__))
  48:/usr/include/c++/10/bits/char_traits.h **** #endif
  49:/usr/include/c++/10/bits/char_traits.h **** 
  50:/usr/include/c++/10/bits/char_traits.h **** namespace __gnu_cxx _GLIBCXX_VISIBILITY(default)
  51:/usr/include/c++/10/bits/char_traits.h **** {
  52:/usr/include/c++/10/bits/char_traits.h **** _GLIBCXX_BEGIN_NAMESPACE_VERSION
  53:/usr/include/c++/10/bits/char_traits.h **** 
  54:/usr/include/c++/10/bits/char_traits.h ****   /**
  55:/usr/include/c++/10/bits/char_traits.h ****    *  @brief  Mapping from character type to associated types.
  56:/usr/include/c++/10/bits/char_traits.h ****    *
  57:/usr/include/c++/10/bits/char_traits.h ****    *  @note This is an implementation class for the generic version
  58:/usr/include/c++/10/bits/char_traits.h ****    *  of char_traits.  It defines int_type, off_type, pos_type, and
  59:/usr/include/c++/10/bits/char_traits.h ****    *  state_type.  By default these are unsigned long, streamoff,
  60:/usr/include/c++/10/bits/char_traits.h ****    *  streampos, and mbstate_t.  Users who need a different set of
  61:/usr/include/c++/10/bits/char_traits.h ****    *  types, but who don't need to change the definitions of any function
  62:/usr/include/c++/10/bits/char_traits.h ****    *  defined in char_traits, can specialize __gnu_cxx::_Char_types
  63:/usr/include/c++/10/bits/char_traits.h ****    *  while leaving __gnu_cxx::char_traits alone. */
  64:/usr/include/c++/10/bits/char_traits.h ****   template<typename _CharT>
  65:/usr/include/c++/10/bits/char_traits.h ****     struct _Char_types
  66:/usr/include/c++/10/bits/char_traits.h ****     {
  67:/usr/include/c++/10/bits/char_traits.h ****       typedef unsigned long   int_type;
  68:/usr/include/c++/10/bits/char_traits.h ****       typedef std::streampos  pos_type;
  69:/usr/include/c++/10/bits/char_traits.h ****       typedef std::streamoff  off_type;
  70:/usr/include/c++/10/bits/char_traits.h ****       typedef std::mbstate_t  state_type;
  71:/usr/include/c++/10/bits/char_traits.h ****     };
AARCH64 GAS  obj/Chapter12_2.s 			page 47


  72:/usr/include/c++/10/bits/char_traits.h **** 
  73:/usr/include/c++/10/bits/char_traits.h **** 
  74:/usr/include/c++/10/bits/char_traits.h ****   /**
  75:/usr/include/c++/10/bits/char_traits.h ****    *  @brief  Base class used to implement std::char_traits.
  76:/usr/include/c++/10/bits/char_traits.h ****    *
  77:/usr/include/c++/10/bits/char_traits.h ****    *  @note For any given actual character type, this definition is
  78:/usr/include/c++/10/bits/char_traits.h ****    *  probably wrong.  (Most of the member functions are likely to be
  79:/usr/include/c++/10/bits/char_traits.h ****    *  right, but the int_type and state_type typedefs, and the eof()
  80:/usr/include/c++/10/bits/char_traits.h ****    *  member function, are likely to be wrong.)  The reason this class
  81:/usr/include/c++/10/bits/char_traits.h ****    *  exists is so users can specialize it.  Classes in namespace std
  82:/usr/include/c++/10/bits/char_traits.h ****    *  may not be specialized for fundamental types, but classes in
  83:/usr/include/c++/10/bits/char_traits.h ****    *  namespace __gnu_cxx may be.
  84:/usr/include/c++/10/bits/char_traits.h ****    *
  85:/usr/include/c++/10/bits/char_traits.h ****    *  See https://gcc.gnu.org/onlinedocs/libstdc++/manual/strings.html#strings.string.character_typ
  86:/usr/include/c++/10/bits/char_traits.h ****    *  for advice on how to make use of this class for @a unusual character
  87:/usr/include/c++/10/bits/char_traits.h ****    *  types. Also, check out include/ext/pod_char_traits.h.  
  88:/usr/include/c++/10/bits/char_traits.h ****    */
  89:/usr/include/c++/10/bits/char_traits.h ****   template<typename _CharT>
  90:/usr/include/c++/10/bits/char_traits.h ****     struct char_traits
  91:/usr/include/c++/10/bits/char_traits.h ****     {
  92:/usr/include/c++/10/bits/char_traits.h ****       typedef _CharT                                    char_type;
  93:/usr/include/c++/10/bits/char_traits.h ****       typedef typename _Char_types<_CharT>::int_type    int_type;
  94:/usr/include/c++/10/bits/char_traits.h ****       typedef typename _Char_types<_CharT>::pos_type    pos_type;
  95:/usr/include/c++/10/bits/char_traits.h ****       typedef typename _Char_types<_CharT>::off_type    off_type;
  96:/usr/include/c++/10/bits/char_traits.h ****       typedef typename _Char_types<_CharT>::state_type  state_type;
  97:/usr/include/c++/10/bits/char_traits.h **** #if __cpp_lib_three_way_comparison
  98:/usr/include/c++/10/bits/char_traits.h ****       using comparison_category = std::strong_ordering;
  99:/usr/include/c++/10/bits/char_traits.h **** #endif
 100:/usr/include/c++/10/bits/char_traits.h **** 
 101:/usr/include/c++/10/bits/char_traits.h ****       static _GLIBCXX14_CONSTEXPR void
 102:/usr/include/c++/10/bits/char_traits.h ****       assign(char_type& __c1, const char_type& __c2)
 103:/usr/include/c++/10/bits/char_traits.h ****       { __c1 = __c2; }
 104:/usr/include/c++/10/bits/char_traits.h **** 
 105:/usr/include/c++/10/bits/char_traits.h ****       static _GLIBCXX_CONSTEXPR bool
 106:/usr/include/c++/10/bits/char_traits.h ****       eq(const char_type& __c1, const char_type& __c2)
 107:/usr/include/c++/10/bits/char_traits.h ****       { return __c1 == __c2; }
 108:/usr/include/c++/10/bits/char_traits.h **** 
 109:/usr/include/c++/10/bits/char_traits.h ****       static _GLIBCXX_CONSTEXPR bool
 110:/usr/include/c++/10/bits/char_traits.h ****       lt(const char_type& __c1, const char_type& __c2)
 111:/usr/include/c++/10/bits/char_traits.h ****       { return __c1 < __c2; }
 112:/usr/include/c++/10/bits/char_traits.h **** 
 113:/usr/include/c++/10/bits/char_traits.h ****       static _GLIBCXX14_CONSTEXPR int
 114:/usr/include/c++/10/bits/char_traits.h ****       compare(const char_type* __s1, const char_type* __s2, std::size_t __n);
 115:/usr/include/c++/10/bits/char_traits.h **** 
 116:/usr/include/c++/10/bits/char_traits.h ****       static _GLIBCXX14_CONSTEXPR std::size_t
 117:/usr/include/c++/10/bits/char_traits.h ****       length(const char_type* __s);
 118:/usr/include/c++/10/bits/char_traits.h **** 
 119:/usr/include/c++/10/bits/char_traits.h ****       static _GLIBCXX14_CONSTEXPR const char_type*
 120:/usr/include/c++/10/bits/char_traits.h ****       find(const char_type* __s, std::size_t __n, const char_type& __a);
 121:/usr/include/c++/10/bits/char_traits.h **** 
 122:/usr/include/c++/10/bits/char_traits.h ****       static _GLIBCXX20_CONSTEXPR char_type*
 123:/usr/include/c++/10/bits/char_traits.h ****       move(char_type* __s1, const char_type* __s2, std::size_t __n);
 124:/usr/include/c++/10/bits/char_traits.h **** 
 125:/usr/include/c++/10/bits/char_traits.h ****       static _GLIBCXX20_CONSTEXPR char_type*
 126:/usr/include/c++/10/bits/char_traits.h ****       copy(char_type* __s1, const char_type* __s2, std::size_t __n);
 127:/usr/include/c++/10/bits/char_traits.h **** 
 128:/usr/include/c++/10/bits/char_traits.h ****       static _GLIBCXX20_CONSTEXPR char_type*
AARCH64 GAS  obj/Chapter12_2.s 			page 48


 129:/usr/include/c++/10/bits/char_traits.h ****       assign(char_type* __s, std::size_t __n, char_type __a);
 130:/usr/include/c++/10/bits/char_traits.h **** 
 131:/usr/include/c++/10/bits/char_traits.h ****       static _GLIBCXX_CONSTEXPR char_type
 132:/usr/include/c++/10/bits/char_traits.h ****       to_char_type(const int_type& __c)
 133:/usr/include/c++/10/bits/char_traits.h ****       { return static_cast<char_type>(__c); }
 134:/usr/include/c++/10/bits/char_traits.h **** 
 135:/usr/include/c++/10/bits/char_traits.h ****       static _GLIBCXX_CONSTEXPR int_type
 136:/usr/include/c++/10/bits/char_traits.h ****       to_int_type(const char_type& __c)
 137:/usr/include/c++/10/bits/char_traits.h ****       { return static_cast<int_type>(__c); }
 138:/usr/include/c++/10/bits/char_traits.h **** 
 139:/usr/include/c++/10/bits/char_traits.h ****       static _GLIBCXX_CONSTEXPR bool
 140:/usr/include/c++/10/bits/char_traits.h ****       eq_int_type(const int_type& __c1, const int_type& __c2)
 141:/usr/include/c++/10/bits/char_traits.h ****       { return __c1 == __c2; }
 142:/usr/include/c++/10/bits/char_traits.h **** 
 143:/usr/include/c++/10/bits/char_traits.h ****       static _GLIBCXX_CONSTEXPR int_type
 144:/usr/include/c++/10/bits/char_traits.h ****       eof()
 145:/usr/include/c++/10/bits/char_traits.h ****       { return static_cast<int_type>(_GLIBCXX_STDIO_EOF); }
 146:/usr/include/c++/10/bits/char_traits.h **** 
 147:/usr/include/c++/10/bits/char_traits.h ****       static _GLIBCXX_CONSTEXPR int_type
 148:/usr/include/c++/10/bits/char_traits.h ****       not_eof(const int_type& __c)
 149:/usr/include/c++/10/bits/char_traits.h ****       { return !eq_int_type(__c, eof()) ? __c : to_int_type(char_type()); }
 150:/usr/include/c++/10/bits/char_traits.h ****     };
 151:/usr/include/c++/10/bits/char_traits.h **** 
 152:/usr/include/c++/10/bits/char_traits.h ****   template<typename _CharT>
 153:/usr/include/c++/10/bits/char_traits.h ****     _GLIBCXX14_CONSTEXPR int
 154:/usr/include/c++/10/bits/char_traits.h ****     char_traits<_CharT>::
 155:/usr/include/c++/10/bits/char_traits.h ****     compare(const char_type* __s1, const char_type* __s2, std::size_t __n)
 156:/usr/include/c++/10/bits/char_traits.h ****     {
 157:/usr/include/c++/10/bits/char_traits.h ****       for (std::size_t __i = 0; __i < __n; ++__i)
 158:/usr/include/c++/10/bits/char_traits.h **** 	if (lt(__s1[__i], __s2[__i]))
 159:/usr/include/c++/10/bits/char_traits.h **** 	  return -1;
 160:/usr/include/c++/10/bits/char_traits.h **** 	else if (lt(__s2[__i], __s1[__i]))
 161:/usr/include/c++/10/bits/char_traits.h **** 	  return 1;
 162:/usr/include/c++/10/bits/char_traits.h ****       return 0;
 163:/usr/include/c++/10/bits/char_traits.h ****     }
 164:/usr/include/c++/10/bits/char_traits.h **** 
 165:/usr/include/c++/10/bits/char_traits.h ****   template<typename _CharT>
 166:/usr/include/c++/10/bits/char_traits.h ****     _GLIBCXX14_CONSTEXPR std::size_t
 167:/usr/include/c++/10/bits/char_traits.h ****     char_traits<_CharT>::
 168:/usr/include/c++/10/bits/char_traits.h ****     length(const char_type* __p)
 169:/usr/include/c++/10/bits/char_traits.h ****     {
 170:/usr/include/c++/10/bits/char_traits.h ****       std::size_t __i = 0;
 171:/usr/include/c++/10/bits/char_traits.h ****       while (!eq(__p[__i], char_type()))
 172:/usr/include/c++/10/bits/char_traits.h ****         ++__i;
 173:/usr/include/c++/10/bits/char_traits.h ****       return __i;
 174:/usr/include/c++/10/bits/char_traits.h ****     }
 175:/usr/include/c++/10/bits/char_traits.h **** 
 176:/usr/include/c++/10/bits/char_traits.h ****   template<typename _CharT>
 177:/usr/include/c++/10/bits/char_traits.h ****     _GLIBCXX14_CONSTEXPR const typename char_traits<_CharT>::char_type*
 178:/usr/include/c++/10/bits/char_traits.h ****     char_traits<_CharT>::
 179:/usr/include/c++/10/bits/char_traits.h ****     find(const char_type* __s, std::size_t __n, const char_type& __a)
 180:/usr/include/c++/10/bits/char_traits.h ****     {
 181:/usr/include/c++/10/bits/char_traits.h ****       for (std::size_t __i = 0; __i < __n; ++__i)
 182:/usr/include/c++/10/bits/char_traits.h ****         if (eq(__s[__i], __a))
 183:/usr/include/c++/10/bits/char_traits.h ****           return __s + __i;
 184:/usr/include/c++/10/bits/char_traits.h ****       return 0;
 185:/usr/include/c++/10/bits/char_traits.h ****     }
AARCH64 GAS  obj/Chapter12_2.s 			page 49


 186:/usr/include/c++/10/bits/char_traits.h **** 
 187:/usr/include/c++/10/bits/char_traits.h ****   template<typename _CharT>
 188:/usr/include/c++/10/bits/char_traits.h ****     _GLIBCXX20_CONSTEXPR
 189:/usr/include/c++/10/bits/char_traits.h ****     typename char_traits<_CharT>::char_type*
 190:/usr/include/c++/10/bits/char_traits.h ****     char_traits<_CharT>::
 191:/usr/include/c++/10/bits/char_traits.h ****     move(char_type* __s1, const char_type* __s2, std::size_t __n)
 192:/usr/include/c++/10/bits/char_traits.h ****     {
 193:/usr/include/c++/10/bits/char_traits.h ****       if (__n == 0)
 194:/usr/include/c++/10/bits/char_traits.h **** 	return __s1;
 195:/usr/include/c++/10/bits/char_traits.h **** #ifdef __cpp_lib_is_constant_evaluated
 196:/usr/include/c++/10/bits/char_traits.h ****       if (std::is_constant_evaluated())
 197:/usr/include/c++/10/bits/char_traits.h **** 	{
 198:/usr/include/c++/10/bits/char_traits.h **** 	  if (__s1 > __s2 && __s1 < __s2 + __n)
 199:/usr/include/c++/10/bits/char_traits.h **** 	    std::copy_backward(__s2, __s2 + __n, __s1);
 200:/usr/include/c++/10/bits/char_traits.h **** 	  else
 201:/usr/include/c++/10/bits/char_traits.h **** 	    std::copy(__s2, __s2 + __n, __s1);
 202:/usr/include/c++/10/bits/char_traits.h **** 	  return __s1;
 203:/usr/include/c++/10/bits/char_traits.h **** 	}
 204:/usr/include/c++/10/bits/char_traits.h **** #endif
 205:/usr/include/c++/10/bits/char_traits.h ****       return static_cast<_CharT*>(__builtin_memmove(__s1, __s2,
 206:/usr/include/c++/10/bits/char_traits.h **** 						    __n * sizeof(char_type)));
 207:/usr/include/c++/10/bits/char_traits.h ****     }
 208:/usr/include/c++/10/bits/char_traits.h **** 
 209:/usr/include/c++/10/bits/char_traits.h ****   template<typename _CharT>
 210:/usr/include/c++/10/bits/char_traits.h ****     _GLIBCXX20_CONSTEXPR
 211:/usr/include/c++/10/bits/char_traits.h ****     typename char_traits<_CharT>::char_type*
 212:/usr/include/c++/10/bits/char_traits.h ****     char_traits<_CharT>::
 213:/usr/include/c++/10/bits/char_traits.h ****     copy(char_type* __s1, const char_type* __s2, std::size_t __n)
 214:/usr/include/c++/10/bits/char_traits.h ****     {
 215:/usr/include/c++/10/bits/char_traits.h ****       // NB: Inline std::copy so no recursive dependencies.
 216:/usr/include/c++/10/bits/char_traits.h ****       std::copy(__s2, __s2 + __n, __s1);
 217:/usr/include/c++/10/bits/char_traits.h ****       return __s1;
 218:/usr/include/c++/10/bits/char_traits.h ****     }
 219:/usr/include/c++/10/bits/char_traits.h **** 
 220:/usr/include/c++/10/bits/char_traits.h ****   template<typename _CharT>
 221:/usr/include/c++/10/bits/char_traits.h ****     _GLIBCXX20_CONSTEXPR
 222:/usr/include/c++/10/bits/char_traits.h ****     typename char_traits<_CharT>::char_type*
 223:/usr/include/c++/10/bits/char_traits.h ****     char_traits<_CharT>::
 224:/usr/include/c++/10/bits/char_traits.h ****     assign(char_type* __s, std::size_t __n, char_type __a)
 225:/usr/include/c++/10/bits/char_traits.h ****     {
 226:/usr/include/c++/10/bits/char_traits.h ****       // NB: Inline std::fill_n so no recursive dependencies.
 227:/usr/include/c++/10/bits/char_traits.h ****       std::fill_n(__s, __n, __a);
 228:/usr/include/c++/10/bits/char_traits.h ****       return __s;
 229:/usr/include/c++/10/bits/char_traits.h ****     }
 230:/usr/include/c++/10/bits/char_traits.h **** 
 231:/usr/include/c++/10/bits/char_traits.h **** _GLIBCXX_END_NAMESPACE_VERSION
 232:/usr/include/c++/10/bits/char_traits.h **** } // namespace
 233:/usr/include/c++/10/bits/char_traits.h **** 
 234:/usr/include/c++/10/bits/char_traits.h **** namespace std _GLIBCXX_VISIBILITY(default)
 235:/usr/include/c++/10/bits/char_traits.h **** {
 236:/usr/include/c++/10/bits/char_traits.h **** _GLIBCXX_BEGIN_NAMESPACE_VERSION
 237:/usr/include/c++/10/bits/char_traits.h **** 
 238:/usr/include/c++/10/bits/char_traits.h **** #if __cplusplus >= 201703L
 239:/usr/include/c++/10/bits/char_traits.h **** 
 240:/usr/include/c++/10/bits/char_traits.h **** #if __cplusplus == 201703L
 241:/usr/include/c++/10/bits/char_traits.h **** // Unofficial macro indicating P0426R1 support
 242:/usr/include/c++/10/bits/char_traits.h **** # define __cpp_lib_constexpr_char_traits 201611L
AARCH64 GAS  obj/Chapter12_2.s 			page 50


 243:/usr/include/c++/10/bits/char_traits.h **** #else
 244:/usr/include/c++/10/bits/char_traits.h **** // Also support P1032R1 in C++20
 245:/usr/include/c++/10/bits/char_traits.h **** # define __cpp_lib_constexpr_char_traits 201811L
 246:/usr/include/c++/10/bits/char_traits.h **** #endif
 247:/usr/include/c++/10/bits/char_traits.h **** 
 248:/usr/include/c++/10/bits/char_traits.h ****   /**
 249:/usr/include/c++/10/bits/char_traits.h ****    *  @brief Determine whether the characters of a NULL-terminated
 250:/usr/include/c++/10/bits/char_traits.h ****    *  string are known at compile time.
 251:/usr/include/c++/10/bits/char_traits.h ****    *  @param  __s  The string.
 252:/usr/include/c++/10/bits/char_traits.h ****    *
 253:/usr/include/c++/10/bits/char_traits.h ****    *  Assumes that _CharT is a built-in character type.
 254:/usr/include/c++/10/bits/char_traits.h ****    */
 255:/usr/include/c++/10/bits/char_traits.h ****   template<typename _CharT>
 256:/usr/include/c++/10/bits/char_traits.h ****     static _GLIBCXX_ALWAYS_INLINE constexpr bool
 257:/usr/include/c++/10/bits/char_traits.h ****     __constant_string_p(const _CharT* __s)
 258:/usr/include/c++/10/bits/char_traits.h ****     {
 259:/usr/include/c++/10/bits/char_traits.h **** #ifdef _GLIBCXX_HAVE_BUILTIN_IS_CONSTANT_EVALUATED
 260:/usr/include/c++/10/bits/char_traits.h ****       (void) __s;
 261:/usr/include/c++/10/bits/char_traits.h ****       // In constexpr contexts all strings should be constant.
 262:/usr/include/c++/10/bits/char_traits.h ****       return __builtin_is_constant_evaluated();
 263:/usr/include/c++/10/bits/char_traits.h **** #else
 264:/usr/include/c++/10/bits/char_traits.h ****       while (__builtin_constant_p(*__s) && *__s)
 265:/usr/include/c++/10/bits/char_traits.h **** 	__s++;
 266:/usr/include/c++/10/bits/char_traits.h ****       return __builtin_constant_p(*__s);
 267:/usr/include/c++/10/bits/char_traits.h **** #endif
 268:/usr/include/c++/10/bits/char_traits.h ****     }
 269:/usr/include/c++/10/bits/char_traits.h **** 
 270:/usr/include/c++/10/bits/char_traits.h ****   /**
 271:/usr/include/c++/10/bits/char_traits.h ****    *  @brief Determine whether the characters of a character array are
 272:/usr/include/c++/10/bits/char_traits.h ****    *  known at compile time.
 273:/usr/include/c++/10/bits/char_traits.h ****    *  @param  __a  The character array.
 274:/usr/include/c++/10/bits/char_traits.h ****    *  @param  __n  Number of characters.
 275:/usr/include/c++/10/bits/char_traits.h ****    *
 276:/usr/include/c++/10/bits/char_traits.h ****    *  Assumes that _CharT is a built-in character type.
 277:/usr/include/c++/10/bits/char_traits.h ****    */
 278:/usr/include/c++/10/bits/char_traits.h ****   template<typename _CharT>
 279:/usr/include/c++/10/bits/char_traits.h ****     static _GLIBCXX_ALWAYS_INLINE constexpr bool
 280:/usr/include/c++/10/bits/char_traits.h ****     __constant_char_array_p(const _CharT* __a, size_t __n)
 281:/usr/include/c++/10/bits/char_traits.h ****     {
 282:/usr/include/c++/10/bits/char_traits.h **** #ifdef _GLIBCXX_HAVE_BUILTIN_IS_CONSTANT_EVALUATED
 283:/usr/include/c++/10/bits/char_traits.h ****       (void) __a;
 284:/usr/include/c++/10/bits/char_traits.h ****       (void) __n;
 285:/usr/include/c++/10/bits/char_traits.h ****       // In constexpr contexts all character arrays should be constant.
 286:/usr/include/c++/10/bits/char_traits.h ****       return __builtin_is_constant_evaluated();
 287:/usr/include/c++/10/bits/char_traits.h **** #else
 288:/usr/include/c++/10/bits/char_traits.h ****       size_t __i = 0;
 289:/usr/include/c++/10/bits/char_traits.h ****       while (__i < __n && __builtin_constant_p(__a[__i]))
 290:/usr/include/c++/10/bits/char_traits.h **** 	__i++;
 291:/usr/include/c++/10/bits/char_traits.h ****       return __i == __n;
 292:/usr/include/c++/10/bits/char_traits.h **** #endif
 293:/usr/include/c++/10/bits/char_traits.h ****     }
 294:/usr/include/c++/10/bits/char_traits.h **** #endif
 295:/usr/include/c++/10/bits/char_traits.h **** 
 296:/usr/include/c++/10/bits/char_traits.h ****   // 21.1
 297:/usr/include/c++/10/bits/char_traits.h ****   /**
 298:/usr/include/c++/10/bits/char_traits.h ****    *  @brief  Basis for explicit traits specializations.
 299:/usr/include/c++/10/bits/char_traits.h ****    *
AARCH64 GAS  obj/Chapter12_2.s 			page 51


 300:/usr/include/c++/10/bits/char_traits.h ****    *  @note  For any given actual character type, this definition is
 301:/usr/include/c++/10/bits/char_traits.h ****    *  probably wrong.  Since this is just a thin wrapper around
 302:/usr/include/c++/10/bits/char_traits.h ****    *  __gnu_cxx::char_traits, it is possible to achieve a more
 303:/usr/include/c++/10/bits/char_traits.h ****    *  appropriate definition by specializing __gnu_cxx::char_traits.
 304:/usr/include/c++/10/bits/char_traits.h ****    *
 305:/usr/include/c++/10/bits/char_traits.h ****    *  See https://gcc.gnu.org/onlinedocs/libstdc++/manual/strings.html#strings.string.character_typ
 306:/usr/include/c++/10/bits/char_traits.h ****    *  for advice on how to make use of this class for @a unusual character
 307:/usr/include/c++/10/bits/char_traits.h ****    *  types. Also, check out include/ext/pod_char_traits.h.
 308:/usr/include/c++/10/bits/char_traits.h ****   */
 309:/usr/include/c++/10/bits/char_traits.h ****   template<class _CharT>
 310:/usr/include/c++/10/bits/char_traits.h ****     struct char_traits : public __gnu_cxx::char_traits<_CharT>
 311:/usr/include/c++/10/bits/char_traits.h ****     { };
 312:/usr/include/c++/10/bits/char_traits.h **** 
 313:/usr/include/c++/10/bits/char_traits.h **** 
 314:/usr/include/c++/10/bits/char_traits.h ****   /// 21.1.3.1  char_traits specializations
 315:/usr/include/c++/10/bits/char_traits.h ****   template<>
 316:/usr/include/c++/10/bits/char_traits.h ****     struct char_traits<char>
 317:/usr/include/c++/10/bits/char_traits.h ****     {
 318:/usr/include/c++/10/bits/char_traits.h ****       typedef char              char_type;
 319:/usr/include/c++/10/bits/char_traits.h ****       typedef int               int_type;
 320:/usr/include/c++/10/bits/char_traits.h ****       typedef streampos         pos_type;
 321:/usr/include/c++/10/bits/char_traits.h ****       typedef streamoff         off_type;
 322:/usr/include/c++/10/bits/char_traits.h ****       typedef mbstate_t         state_type;
 323:/usr/include/c++/10/bits/char_traits.h **** #if __cpp_lib_three_way_comparison
 324:/usr/include/c++/10/bits/char_traits.h ****       using comparison_category = strong_ordering;
 325:/usr/include/c++/10/bits/char_traits.h **** #endif
 326:/usr/include/c++/10/bits/char_traits.h **** 
 327:/usr/include/c++/10/bits/char_traits.h ****       static _GLIBCXX17_CONSTEXPR void
 328:/usr/include/c++/10/bits/char_traits.h ****       assign(char_type& __c1, const char_type& __c2) _GLIBCXX_NOEXCEPT
 329:/usr/include/c++/10/bits/char_traits.h ****       { __c1 = __c2; }
 330:/usr/include/c++/10/bits/char_traits.h **** 
 331:/usr/include/c++/10/bits/char_traits.h ****       static _GLIBCXX_CONSTEXPR bool
 332:/usr/include/c++/10/bits/char_traits.h ****       eq(const char_type& __c1, const char_type& __c2) _GLIBCXX_NOEXCEPT
 333:/usr/include/c++/10/bits/char_traits.h ****       { return __c1 == __c2; }
 334:/usr/include/c++/10/bits/char_traits.h **** 
 335:/usr/include/c++/10/bits/char_traits.h ****       static _GLIBCXX_CONSTEXPR bool
 336:/usr/include/c++/10/bits/char_traits.h ****       lt(const char_type& __c1, const char_type& __c2) _GLIBCXX_NOEXCEPT
 337:/usr/include/c++/10/bits/char_traits.h ****       {
 338:/usr/include/c++/10/bits/char_traits.h **** 	// LWG 467.
 339:/usr/include/c++/10/bits/char_traits.h **** 	return (static_cast<unsigned char>(__c1)
 340:/usr/include/c++/10/bits/char_traits.h **** 		< static_cast<unsigned char>(__c2));
 341:/usr/include/c++/10/bits/char_traits.h ****       }
 342:/usr/include/c++/10/bits/char_traits.h **** 
 343:/usr/include/c++/10/bits/char_traits.h ****       static _GLIBCXX17_CONSTEXPR int
 344:/usr/include/c++/10/bits/char_traits.h ****       compare(const char_type* __s1, const char_type* __s2, size_t __n)
 345:/usr/include/c++/10/bits/char_traits.h ****       {
 346:/usr/include/c++/10/bits/char_traits.h **** 	if (__n == 0)
 347:/usr/include/c++/10/bits/char_traits.h **** 	  return 0;
 348:/usr/include/c++/10/bits/char_traits.h **** #if __cplusplus >= 201703L
 349:/usr/include/c++/10/bits/char_traits.h **** 	if (__builtin_constant_p(__n)
 350:/usr/include/c++/10/bits/char_traits.h **** 	    && __constant_char_array_p(__s1, __n)
 351:/usr/include/c++/10/bits/char_traits.h **** 	    && __constant_char_array_p(__s2, __n))
 352:/usr/include/c++/10/bits/char_traits.h **** 	  return __gnu_cxx::char_traits<char_type>::compare(__s1, __s2, __n);
 353:/usr/include/c++/10/bits/char_traits.h **** #endif
 354:/usr/include/c++/10/bits/char_traits.h **** 	return __builtin_memcmp(__s1, __s2, __n);
 355:/usr/include/c++/10/bits/char_traits.h ****       }
 356:/usr/include/c++/10/bits/char_traits.h **** 
AARCH64 GAS  obj/Chapter12_2.s 			page 52


 357:/usr/include/c++/10/bits/char_traits.h ****       static _GLIBCXX17_CONSTEXPR size_t
 358:/usr/include/c++/10/bits/char_traits.h ****       length(const char_type* __s)
 359:/usr/include/c++/10/bits/char_traits.h ****       {
 360:/usr/include/c++/10/bits/char_traits.h **** #if __cplusplus >= 201703L
 361:/usr/include/c++/10/bits/char_traits.h **** 	if (__constant_string_p(__s))
 362:/usr/include/c++/10/bits/char_traits.h **** 	  return __gnu_cxx::char_traits<char_type>::length(__s);
 363:/usr/include/c++/10/bits/char_traits.h **** #endif
 364:/usr/include/c++/10/bits/char_traits.h **** 	return __builtin_strlen(__s);
 354              		.loc 5 364 2 is_stmt 1 view .LVU98
 355              	.LBB117:
 356              	.LBB102:
 611:/usr/include/c++/10/ostream **** 			 static_cast<streamsize>(_Traits::length(__s)));
 357              		.loc 1 611 18 is_stmt 0 view .LVU99
 358 0074 00000094 		bl	_ZSt16__ostream_insertIcSt11char_traitsIcEERSt13basic_ostreamIT_T0_ES6_PKS3_l
 359              	.LVL27:
 611:/usr/include/c++/10/ostream **** 			 static_cast<streamsize>(_Traits::length(__s)));
 360              		.loc 1 611 18 view .LVU100
 361              	.LBE102:
 362              	.LBE117:
 363              	.LBB118:
 364              	.LBI118:
 108:/usr/include/c++/10/ostream ****       {
 365              		.loc 1 108 7 is_stmt 1 view .LVU101
 366              	.LBE118:
 367              	.LBB120:
 368              	.LBB112:
 611:/usr/include/c++/10/ostream **** 			 static_cast<streamsize>(_Traits::length(__s)));
 369              		.loc 1 611 18 is_stmt 0 view .LVU102
 370 0078 94020091 		add	x20, x20, :lo12:.LC1
 371              	.LBE112:
 372              	.LBE120:
 373              	.LBB121:
 374              	.LBB119:
 113:/usr/include/c++/10/ostream ****       }
 375              		.loc 1 113 13 view .LVU103
 376 007c E00313AA 		mov	x0, x19
 377 0080 00000094 		bl	_ZSt4endlIcSt11char_traitsIcEERSt13basic_ostreamIT_T0_ES6_.isra.0
 378              	.LVL28:
 113:/usr/include/c++/10/ostream ****       }
 379              		.loc 1 113 13 view .LVU104
 380              	.LBE119:
 381              	.LBE121:
  55:Chapter12_2.cpp ****         cout <<x<<" "<<y<<endl;
 382              		.loc 4 55 9 is_stmt 1 view .LVU105
 383              		.loc 4 55 19 is_stmt 0 view .LVU106
 384 0084 E15740B9 		ldr	w1, [sp, 84]
 385 0088 E00313AA 		mov	x0, x19
 386 008c 00000094 		bl	_ZNSolsEi
 387              	.LVL29:
 388 0090 F50300AA 		mov	x21, x0
 389              	.LVL30:
 390              	.LBB122:
 391              	.LBI110:
 606:/usr/include/c++/10/ostream ****     {
 392              		.loc 1 606 5 is_stmt 1 view .LVU107
 606:/usr/include/c++/10/ostream ****     {
 393              		.loc 1 606 5 is_stmt 0 view .LVU108
AARCH64 GAS  obj/Chapter12_2.s 			page 53


 394              	.LBE122:
 395              		.loc 5 364 2 is_stmt 1 view .LVU109
 396              	.LBB123:
 397              	.LBB113:
 611:/usr/include/c++/10/ostream **** 			 static_cast<streamsize>(_Traits::length(__s)));
 398              		.loc 1 611 18 is_stmt 0 view .LVU110
 399 0094 220080D2 		mov	x2, 1
 400 0098 E10314AA 		mov	x1, x20
 401 009c 00000094 		bl	_ZSt16__ostream_insertIcSt11char_traitsIcEERSt13basic_ostreamIT_T0_ES6_PKS3_l
 402              	.LVL31:
 611:/usr/include/c++/10/ostream **** 			 static_cast<streamsize>(_Traits::length(__s)));
 403              		.loc 1 611 18 view .LVU111
 404              	.LBE113:
 405              	.LBE123:
 406              	.LBB124:
 407              	.LBI124:
 166:/usr/include/c++/10/ostream ****       { return _M_insert(__n); }
 408              		.loc 1 166 7 is_stmt 1 view .LVU112
 409              	.LBB125:
 167:/usr/include/c++/10/ostream **** 
 410              		.loc 1 167 25 is_stmt 0 view .LVU113
 411 00a0 E12F40F9 		ldr	x1, [sp, 88]
 412 00a4 E00315AA 		mov	x0, x21
 413 00a8 00000094 		bl	_ZNSo9_M_insertIlEERSoT_
 414              	.LVL32:
 167:/usr/include/c++/10/ostream **** 
 415              		.loc 1 167 25 view .LVU114
 416              	.LBE125:
 417              	.LBE124:
 418              	.LBB126:
 419              	.LBI126:
 108:/usr/include/c++/10/ostream ****       {
 420              		.loc 1 108 7 is_stmt 1 view .LVU115
 421              	.LBB127:
 113:/usr/include/c++/10/ostream ****       }
 422              		.loc 1 113 13 is_stmt 0 view .LVU116
 423 00ac 00000094 		bl	_ZSt4endlIcSt11char_traitsIcEERSt13basic_ostreamIT_T0_ES6_.isra.0
 424              	.LVL33:
 113:/usr/include/c++/10/ostream ****       }
 425              		.loc 1 113 13 view .LVU117
 426              	.LBE127:
 427              	.LBE126:
  56:Chapter12_2.cpp **** 	local_Var_(a,b,c,d,e,f,g,h,&x,&y);	    
 428              		.loc 4 56 2 is_stmt 1 view .LVU118
 429              		.loc 4 56 12 is_stmt 0 view .LVU119
 430 00b0 E70317AA 		mov	x7, x23
 431 00b4 E303162A 		mov	w3, w22
 432 00b8 E0630191 		add	x0, sp, 88
 433 00bc E1530191 		add	x1, sp, 84
 434 00c0 86208392 		mov	x6, -6405
 435 00c4 C5038992 		mov	x5, -18463
 436 00c8 E4909ED2 		mov	x4, 62599
 437 00cc E10300A9 		stp	x1, x0, [sp]
 438 00d0 E6F1BFF2 		movk	x6, 0xff8f, lsl 16
 439 00d4 05FBBFF2 		movk	x5, 0xffd8, lsl 16
 440 00d8 A412A0F2 		movk	x4, 0x95, lsl 16
 441 00dc 42A28012 		mov	w2, -1299
AARCH64 GAS  obj/Chapter12_2.s 			page 54


 442 00e0 01B48352 		mov	w1, 7584
 443 00e4 C02D8252 		mov	w0, 4462
 444 00e8 00000094 		bl	local_Var_
 445              	.LVL34:
  57:Chapter12_2.cpp ****         cout<<"Asm result: "<<x<<" "<<y<<endl; 	
 446              		.loc 4 57 9 is_stmt 1 view .LVU120
 447              	.LBB128:
 448              	.LBI128:
 606:/usr/include/c++/10/ostream ****     {
 449              		.loc 1 606 5 view .LVU121
 606:/usr/include/c++/10/ostream ****     {
 450              		.loc 1 606 5 is_stmt 0 view .LVU122
 451              	.LBE128:
 452              		.loc 5 364 2 is_stmt 1 view .LVU123
 453              	.LBB130:
 454              	.LBB129:
 611:/usr/include/c++/10/ostream **** 			 static_cast<streamsize>(_Traits::length(__s)));
 455              		.loc 1 611 18 is_stmt 0 view .LVU124
 456 00ec 820180D2 		mov	x2, 12
 457 00f0 E00313AA 		mov	x0, x19
 458 00f4 01000090 		adrp	x1, .LC2
 459 00f8 21000091 		add	x1, x1, :lo12:.LC2
 460 00fc 00000094 		bl	_ZSt16__ostream_insertIcSt11char_traitsIcEERSt13basic_ostreamIT_T0_ES6_PKS3_l
 461              	.LVL35:
 611:/usr/include/c++/10/ostream **** 			 static_cast<streamsize>(_Traits::length(__s)));
 462              		.loc 1 611 18 view .LVU125
 463              	.LBE129:
 464              	.LBE130:
 465              		.loc 4 57 34 view .LVU126
 466 0100 E15740B9 		ldr	w1, [sp, 84]
 467 0104 E00313AA 		mov	x0, x19
 468 0108 00000094 		bl	_ZNSolsEi
 469              	.LVL36:
 470 010c F30300AA 		mov	x19, x0
 471              	.LVL37:
 472              	.LBB131:
 473              	.LBI131:
 606:/usr/include/c++/10/ostream ****     {
 474              		.loc 1 606 5 is_stmt 1 view .LVU127
 606:/usr/include/c++/10/ostream ****     {
 475              		.loc 1 606 5 is_stmt 0 view .LVU128
 476              	.LBE131:
 477              		.loc 5 364 2 is_stmt 1 view .LVU129
 478              	.LBB133:
 479              	.LBB132:
 611:/usr/include/c++/10/ostream **** 			 static_cast<streamsize>(_Traits::length(__s)));
 480              		.loc 1 611 18 is_stmt 0 view .LVU130
 481 0110 220080D2 		mov	x2, 1
 482 0114 E10314AA 		mov	x1, x20
 483 0118 00000094 		bl	_ZSt16__ostream_insertIcSt11char_traitsIcEERSt13basic_ostreamIT_T0_ES6_PKS3_l
 484              	.LVL38:
 611:/usr/include/c++/10/ostream **** 			 static_cast<streamsize>(_Traits::length(__s)));
 485              		.loc 1 611 18 view .LVU131
 486              	.LBE132:
 487              	.LBE133:
 488              	.LBB134:
 489              	.LBI134:
AARCH64 GAS  obj/Chapter12_2.s 			page 55


 166:/usr/include/c++/10/ostream ****       { return _M_insert(__n); }
 490              		.loc 1 166 7 is_stmt 1 view .LVU132
 491              	.LBB135:
 167:/usr/include/c++/10/ostream **** 
 492              		.loc 1 167 25 is_stmt 0 view .LVU133
 493 011c E12F40F9 		ldr	x1, [sp, 88]
 494 0120 E00313AA 		mov	x0, x19
 495 0124 00000094 		bl	_ZNSo9_M_insertIlEERSoT_
 496              	.LVL39:
 167:/usr/include/c++/10/ostream **** 
 497              		.loc 1 167 25 view .LVU134
 498              	.LBE135:
 499              	.LBE134:
 500              	.LBB136:
 501              	.LBI136:
 108:/usr/include/c++/10/ostream ****       {
 502              		.loc 1 108 7 is_stmt 1 view .LVU135
 503              	.LBB137:
 113:/usr/include/c++/10/ostream ****       }
 504              		.loc 1 113 13 is_stmt 0 view .LVU136
 505 0128 00000094 		bl	_ZSt4endlIcSt11char_traitsIcEERSt13basic_ostreamIT_T0_ES6_.isra.0
 506              	.LVL40:
 113:/usr/include/c++/10/ostream ****       }
 507              		.loc 1 113 13 view .LVU137
 508              	.LBE137:
 509              	.LBE136:
  58:Chapter12_2.cpp **** 	return 0;
 510              		.loc 4 58 2 is_stmt 1 view .LVU138
  59:Chapter12_2.cpp **** }
 511              		.loc 4 59 1 is_stmt 0 view .LVU139
 512 012c 00008052 		mov	w0, 0
 513 0130 FD7B41A9 		ldp	x29, x30, [sp, 16]
 514 0134 F35342A9 		ldp	x19, x20, [sp, 32]
 515 0138 F55B43A9 		ldp	x21, x22, [sp, 48]
 516 013c F72340F9 		ldr	x23, [sp, 64]
 517 0140 FF830191 		add	sp, sp, 96
 518              		.cfi_restore 29
 519              		.cfi_restore 30
 520              		.cfi_restore 23
 521              		.cfi_restore 21
 522              		.cfi_restore 22
 523              		.cfi_restore 19
 524              		.cfi_restore 20
 525              		.cfi_def_cfa_offset 0
 526 0144 C0035FD6 		ret
 527              		.cfi_endproc
 528              	.LFE1588:
 529              		.size	main, .-main
 530              		.align	2
 531 0148 1F2003D5 		.p2align 4,,11
 531      1F2003D5 
 532              		.type	_GLOBAL__sub_I_global_var1, %function
 533              	_GLOBAL__sub_I_global_var1:
 534              	.LFB2090:
 535              		.loc 4 59 1 is_stmt 1 view -0
 536              		.cfi_startproc
 537              	.LVL41:
AARCH64 GAS  obj/Chapter12_2.s 			page 56


 538              	.LBB138:
 539              	.LBI138:
 540              		.loc 4 59 1 view .LVU141
 541              	.LBE138:
 542 0150 FD7BBEA9 		stp	x29, x30, [sp, -32]!
 543              		.cfi_def_cfa_offset 32
 544              		.cfi_offset 29, -32
 545              		.cfi_offset 30, -24
 546 0154 FD030091 		mov	x29, sp
 547 0158 F30B00F9 		str	x19, [sp, 16]
 548              		.cfi_offset 19, -16
 549              	.LBB142:
 550              	.LBB139:
 551              		.file 6 "/usr/include/c++/10/iostream"
   1:/usr/include/c++/10/iostream **** // Standard iostream objects -*- C++ -*-
   2:/usr/include/c++/10/iostream **** 
   3:/usr/include/c++/10/iostream **** // Copyright (C) 1997-2020 Free Software Foundation, Inc.
   4:/usr/include/c++/10/iostream **** //
   5:/usr/include/c++/10/iostream **** // This file is part of the GNU ISO C++ Library.  This library is free
   6:/usr/include/c++/10/iostream **** // software; you can redistribute it and/or modify it under the
   7:/usr/include/c++/10/iostream **** // terms of the GNU General Public License as published by the
   8:/usr/include/c++/10/iostream **** // Free Software Foundation; either version 3, or (at your option)
   9:/usr/include/c++/10/iostream **** // any later version.
  10:/usr/include/c++/10/iostream **** 
  11:/usr/include/c++/10/iostream **** // This library is distributed in the hope that it will be useful,
  12:/usr/include/c++/10/iostream **** // but WITHOUT ANY WARRANTY; without even the implied warranty of
  13:/usr/include/c++/10/iostream **** // MERCHANTABILITY or FITNESS FOR A PARTICULAR PURPOSE.  See the
  14:/usr/include/c++/10/iostream **** // GNU General Public License for more details.
  15:/usr/include/c++/10/iostream **** 
  16:/usr/include/c++/10/iostream **** // Under Section 7 of GPL version 3, you are granted additional
  17:/usr/include/c++/10/iostream **** // permissions described in the GCC Runtime Library Exception, version
  18:/usr/include/c++/10/iostream **** // 3.1, as published by the Free Software Foundation.
  19:/usr/include/c++/10/iostream **** 
  20:/usr/include/c++/10/iostream **** // You should have received a copy of the GNU General Public License and
  21:/usr/include/c++/10/iostream **** // a copy of the GCC Runtime Library Exception along with this program;
  22:/usr/include/c++/10/iostream **** // see the files COPYING3 and COPYING.RUNTIME respectively.  If not, see
  23:/usr/include/c++/10/iostream **** // <http://www.gnu.org/licenses/>.
  24:/usr/include/c++/10/iostream **** 
  25:/usr/include/c++/10/iostream **** /** @file include/iostream
  26:/usr/include/c++/10/iostream ****  *  This is a Standard C++ Library header.
  27:/usr/include/c++/10/iostream ****  */
  28:/usr/include/c++/10/iostream **** 
  29:/usr/include/c++/10/iostream **** //
  30:/usr/include/c++/10/iostream **** // ISO C++ 14882: 27.3  Standard iostream objects
  31:/usr/include/c++/10/iostream **** //
  32:/usr/include/c++/10/iostream **** 
  33:/usr/include/c++/10/iostream **** #ifndef _GLIBCXX_IOSTREAM
  34:/usr/include/c++/10/iostream **** #define _GLIBCXX_IOSTREAM 1
  35:/usr/include/c++/10/iostream **** 
  36:/usr/include/c++/10/iostream **** #pragma GCC system_header
  37:/usr/include/c++/10/iostream **** 
  38:/usr/include/c++/10/iostream **** #include <bits/c++config.h>
  39:/usr/include/c++/10/iostream **** #include <ostream>
  40:/usr/include/c++/10/iostream **** #include <istream>
  41:/usr/include/c++/10/iostream **** 
  42:/usr/include/c++/10/iostream **** namespace std _GLIBCXX_VISIBILITY(default)
  43:/usr/include/c++/10/iostream **** {
AARCH64 GAS  obj/Chapter12_2.s 			page 57


  44:/usr/include/c++/10/iostream **** _GLIBCXX_BEGIN_NAMESPACE_VERSION
  45:/usr/include/c++/10/iostream **** 
  46:/usr/include/c++/10/iostream ****   /**
  47:/usr/include/c++/10/iostream ****    *  @name Standard Stream Objects
  48:/usr/include/c++/10/iostream ****    *
  49:/usr/include/c++/10/iostream ****    *  The &lt;iostream&gt; header declares the eight <em>standard stream
  50:/usr/include/c++/10/iostream ****    *  objects</em>.  For other declarations, see
  51:/usr/include/c++/10/iostream ****    *  http://gcc.gnu.org/onlinedocs/libstdc++/manual/io.html
  52:/usr/include/c++/10/iostream ****    *  and the @link iosfwd I/O forward declarations @endlink
  53:/usr/include/c++/10/iostream ****    *
  54:/usr/include/c++/10/iostream ****    *  They are required by default to cooperate with the global C
  55:/usr/include/c++/10/iostream ****    *  library's @c FILE streams, and to be available during program
  56:/usr/include/c++/10/iostream ****    *  startup and termination. For more information, see the section of the
  57:/usr/include/c++/10/iostream ****    *  manual linked to above.
  58:/usr/include/c++/10/iostream ****   */
  59:/usr/include/c++/10/iostream ****   //@{
  60:/usr/include/c++/10/iostream ****   extern istream cin;		/// Linked to standard input
  61:/usr/include/c++/10/iostream ****   extern ostream cout;		/// Linked to standard output
  62:/usr/include/c++/10/iostream ****   extern ostream cerr;		/// Linked to standard error (unbuffered)
  63:/usr/include/c++/10/iostream ****   extern ostream clog;		/// Linked to standard error (buffered)
  64:/usr/include/c++/10/iostream **** 
  65:/usr/include/c++/10/iostream **** #ifdef _GLIBCXX_USE_WCHAR_T
  66:/usr/include/c++/10/iostream ****   extern wistream wcin;		/// Linked to standard input
  67:/usr/include/c++/10/iostream ****   extern wostream wcout;	/// Linked to standard output
  68:/usr/include/c++/10/iostream ****   extern wostream wcerr;	/// Linked to standard error (unbuffered)
  69:/usr/include/c++/10/iostream ****   extern wostream wclog;	/// Linked to standard error (buffered)
  70:/usr/include/c++/10/iostream **** #endif
  71:/usr/include/c++/10/iostream ****   //@}
  72:/usr/include/c++/10/iostream **** 
  73:/usr/include/c++/10/iostream ****   // For construction of filebuffers for cout, cin, cerr, clog et. al.
  74:/usr/include/c++/10/iostream ****   static ios_base::Init __ioinit;
 552              		.loc 6 74 25 is_stmt 0 view .LVU142
 553 015c 13000090 		adrp	x19, .LANCHOR0
 554 0160 73020091 		add	x19, x19, :lo12:.LANCHOR0
 555 0164 73420091 		add	x19, x19, 16
 556 0168 E00313AA 		mov	x0, x19
 557 016c 00000094 		bl	_ZNSt8ios_base4InitC1Ev
 558              	.LVL42:
 559 0170 E10313AA 		mov	x1, x19
 560 0174 00000090 		adrp	x0, :got:_ZNSt8ios_base4InitD1Ev
 561              	.LBE139:
 562              	.LBE142:
 563              		.loc 4 59 1 view .LVU143
 564 0178 F30B40F9 		ldr	x19, [sp, 16]
 565              	.LBB143:
 566              	.LBB140:
 567              		.loc 6 74 25 view .LVU144
 568 017c 02000090 		adrp	x2, __dso_handle
 569              	.LBE140:
 570              	.LBE143:
 571              		.loc 4 59 1 view .LVU145
 572 0180 FD7BC2A8 		ldp	x29, x30, [sp], 32
 573              		.cfi_restore 30
 574              		.cfi_restore 29
 575              		.cfi_restore 19
 576              		.cfi_def_cfa_offset 0
 577              	.LBB144:
AARCH64 GAS  obj/Chapter12_2.s 			page 58


 578              	.LBB141:
 579              		.loc 6 74 25 view .LVU146
 580 0184 42000091 		add	x2, x2, :lo12:__dso_handle
 581 0188 000040F9 		ldr	x0, [x0, #:got_lo12:_ZNSt8ios_base4InitD1Ev]
 582 018c 00000014 		b	__cxa_atexit
 583              	.LVL43:
 584              	.LBE141:
 585              	.LBE144:
 586              		.cfi_endproc
 587              	.LFE2090:
 588              		.size	_GLOBAL__sub_I_global_var1, .-_GLOBAL__sub_I_global_var1
 589              		.section	.init_array,"aw"
 590              		.align	3
 591 0000 00000000 		.xword	_GLOBAL__sub_I_global_var1
 591      00000000 
 592              		.global	global_var2
 593              		.global	global_var1
 594              		.bss
 595              		.align	3
 596              		.set	.LANCHOR0,. + 0
 597              		.type	global_var1, %object
 598              		.size	global_var1, 8
 599              	global_var1:
 600 0000 00000000 		.zero	8
 600      00000000 
 601              		.type	global_var2, %object
 602              		.size	global_var2, 4
 603              	global_var2:
 604 0008 00000000 		.zero	4
 605 000c 00000000 		.zero	4
 606              		.type	_ZStL8__ioinit, %object
 607              		.size	_ZStL8__ioinit, 1
 608              	_ZStL8__ioinit:
 609 0010 00       		.zero	1
 610              		.text
 611              	.Letext0:
 612              		.file 7 "/usr/include/c++/10/cwchar"
 613              		.file 8 "/usr/include/c++/10/bits/exception_ptr.h"
 614              		.file 9 "/usr/include/aarch64-linux-gnu/c++/10/bits/c++config.h"
 615              		.file 10 "/usr/include/c++/10/bits/stl_pair.h"
 616              		.file 11 "/usr/include/c++/10/type_traits"
 617              		.file 12 "/usr/include/c++/10/debug/debug.h"
 618              		.file 13 "/usr/include/c++/10/cstdint"
 619              		.file 14 "/usr/include/c++/10/clocale"
 620              		.file 15 "/usr/include/c++/10/cstdlib"
 621              		.file 16 "/usr/include/c++/10/cstdio"
 622              		.file 17 "/usr/include/c++/10/bits/basic_string.h"
 623              		.file 18 "/usr/include/c++/10/system_error"
 624              		.file 19 "/usr/include/c++/10/bits/ios_base.h"
 625              		.file 20 "/usr/include/c++/10/cwctype"
 626              		.file 21 "/usr/include/c++/10/bits/ostream.tcc"
 627              		.file 22 "/usr/include/c++/10/iosfwd"
 628              		.file 23 "/usr/include/c++/10/bits/ostream_insert.h"
 629              		.file 24 "/usr/include/c++/10/bits/functexcept.h"
 630              		.file 25 "/usr/include/c++/10/bits/predefined_ops.h"
 631              		.file 26 "/usr/lib/gcc/aarch64-linux-gnu/10/include/stddef.h"
 632              		.file 27 "/usr/lib/gcc/aarch64-linux-gnu/10/include/stdarg.h"
AARCH64 GAS  obj/Chapter12_2.s 			page 59


 633              		.file 28 "/usr/include/aarch64-linux-gnu/bits/types/wint_t.h"
 634              		.file 29 "/usr/include/aarch64-linux-gnu/bits/types/__mbstate_t.h"
 635              		.file 30 "/usr/include/aarch64-linux-gnu/bits/types/mbstate_t.h"
 636              		.file 31 "/usr/include/aarch64-linux-gnu/bits/types/__FILE.h"
 637              		.file 32 "/usr/include/aarch64-linux-gnu/bits/types/struct_FILE.h"
 638              		.file 33 "/usr/include/aarch64-linux-gnu/bits/types/FILE.h"
 639              		.file 34 "/usr/include/wchar.h"
 640              		.file 35 "/usr/include/aarch64-linux-gnu/bits/types/struct_tm.h"
 641              		.file 36 "/usr/include/aarch64-linux-gnu/bits/types.h"
 642              		.file 37 "/usr/include/aarch64-linux-gnu/bits/stdint-intn.h"
 643              		.file 38 "/usr/include/aarch64-linux-gnu/bits/stdint-uintn.h"
 644              		.file 39 "/usr/include/stdint.h"
 645              		.file 40 "/usr/include/locale.h"
 646              		.file 41 "/usr/include/aarch64-linux-gnu/c++/10/bits/atomic_word.h"
 647              		.file 42 "/usr/include/stdlib.h"
 648              		.file 43 "/usr/include/aarch64-linux-gnu/bits/stdlib-float.h"
 649              		.file 44 "/usr/include/aarch64-linux-gnu/bits/stdlib-bsearch.h"
 650              		.file 45 "/usr/include/aarch64-linux-gnu/bits/types/__fpos_t.h"
 651              		.file 46 "/usr/include/stdio.h"
 652              		.file 47 "/usr/include/aarch64-linux-gnu/bits/stdio.h"
 653              		.file 48 "/usr/include/aarch64-linux-gnu/bits/wctype-wchar.h"
 654              		.file 49 "/usr/include/wctype.h"
 655              		.file 50 "<built-in>"
 10300              		.section	.note.GNU-stack,"",@progbits
