AARCH64 GAS  obj/Chapter13_1.s 			page 1


 GNU assembler version 2.35.2 (aarch64-linux-gnu)
	 using BFD version (GNU Binutils for Debian) 2.35.2.
 options passed	: -I -I -EL -march=armv8-a+simd -mabi=lp64 -aghl=obj/Chapter13_1.lst 
 input file    	: obj/Chapter13_1.s
 output file   	: obj/Chapter13_1.o
 target        	: aarch64-unknown-linux-gnu
 time stamp    	: 2022-07-22T18:45:43.000-0400

AARCH64 GAS  obj/Chapter13_1.s 			page 2


   1              		.arch armv8-a
   2              		.file	"Chapter13_1.cpp"
   3              		.text
   4              	.Ltext0:
   5              		.section	.rodata.str1.8,"aMS",@progbits,1
   6              		.align	3
   7              	.LC2:
   8 0000 693A00   		.string	"i:"
   9 0003 00000000 		.align	3
   9      00
  10              	.LC3:
  11 0008 463A00   		.string	"F:"
  12 000b 00000000 		.align	3
  12      00
  13              	.LC4:
  14 0010 2000     		.string	" "
  15 0012 00000000 		.align	3
  15      0000
  16              	.LC5:
  17 0018 433A00   		.string	"C:"
  18 001b 00000000 		.align	3
  18      00
  19              	.LC6:
  20 0020 43656C73 		.string	"Celsius to F"
  20      69757320 
  20      746F2046 
  20      00
  21              		.section	.text.startup,"ax",@progbits
  22              		.align	2
  23              		.p2align 4,,11
  24              		.global	main
  25              		.type	main, %function
  26              	main:
  27              	.LVL0:
  28              	.LFB2184:
  29              		.file 1 "Chapter13_1.cpp"
   1:Chapter13_1.cpp **** #include<iostream>
   2:Chapter13_1.cpp **** #include<iomanip>
   3:Chapter13_1.cpp **** 
   4:Chapter13_1.cpp **** using namespace std;
   5:Chapter13_1.cpp **** //extern "C" sumOfSqrs(int64_t n,int64_t* sum_a,int64_t* sum_b);
   6:Chapter13_1.cpp **** extern "C" float cvtFtoC_(float F);
   7:Chapter13_1.cpp **** extern "C" float cvtCtoF_(float C);
   8:Chapter13_1.cpp **** 
   9:Chapter13_1.cpp **** int main(int argc,char** argv)
  10:Chapter13_1.cpp **** {   
  30              		.loc 1 10 1 view -0
  31              		.cfi_startproc
  11:Chapter13_1.cpp ****     const int w = 10;
  32              		.loc 1 11 5 view .LVU1
  12:Chapter13_1.cpp ****     float F_vals[] = {425.06f,-40.0f,0.0f,77.35f,67.05f};
  33              		.loc 1 12 5 view .LVU2
  10:Chapter13_1.cpp ****     const int w = 10;
  34              		.loc 1 10 1 is_stmt 0 view .LVU3
  35 0000 FD7BB5A9 		stp	x29, x30, [sp, -176]!
  36              		.cfi_def_cfa_offset 176
  37              		.cfi_offset 29, -176
AARCH64 GAS  obj/Chapter13_1.s 			page 3


  38              		.cfi_offset 30, -168
  39              	.LBB184:
  40              	.LBB185:
  41              		.file 2 "/usr/include/c++/10/iomanip"
   1:/usr/include/c++/10/iomanip **** // Standard stream manipulators -*- C++ -*-
   2:/usr/include/c++/10/iomanip **** 
   3:/usr/include/c++/10/iomanip **** // Copyright (C) 1997-2020 Free Software Foundation, Inc.
   4:/usr/include/c++/10/iomanip **** //
   5:/usr/include/c++/10/iomanip **** // This file is part of the GNU ISO C++ Library.  This library is free
   6:/usr/include/c++/10/iomanip **** // software; you can redistribute it and/or modify it under the
   7:/usr/include/c++/10/iomanip **** // terms of the GNU General Public License as published by the
   8:/usr/include/c++/10/iomanip **** // Free Software Foundation; either version 3, or (at your option)
   9:/usr/include/c++/10/iomanip **** // any later version.
  10:/usr/include/c++/10/iomanip **** 
  11:/usr/include/c++/10/iomanip **** // This library is distributed in the hope that it will be useful,
  12:/usr/include/c++/10/iomanip **** // but WITHOUT ANY WARRANTY; without even the implied warranty of
  13:/usr/include/c++/10/iomanip **** // MERCHANTABILITY or FITNESS FOR A PARTICULAR PURPOSE.  See the
  14:/usr/include/c++/10/iomanip **** // GNU General Public License for more details.
  15:/usr/include/c++/10/iomanip **** 
  16:/usr/include/c++/10/iomanip **** // Under Section 7 of GPL version 3, you are granted additional
  17:/usr/include/c++/10/iomanip **** // permissions described in the GCC Runtime Library Exception, version
  18:/usr/include/c++/10/iomanip **** // 3.1, as published by the Free Software Foundation.
  19:/usr/include/c++/10/iomanip **** 
  20:/usr/include/c++/10/iomanip **** // You should have received a copy of the GNU General Public License and
  21:/usr/include/c++/10/iomanip **** // a copy of the GCC Runtime Library Exception along with this program;
  22:/usr/include/c++/10/iomanip **** // see the files COPYING3 and COPYING.RUNTIME respectively.  If not, see
  23:/usr/include/c++/10/iomanip **** // <http://www.gnu.org/licenses/>.
  24:/usr/include/c++/10/iomanip **** 
  25:/usr/include/c++/10/iomanip **** /** @file include/iomanip
  26:/usr/include/c++/10/iomanip ****  *  This is a Standard C++ Library header.
  27:/usr/include/c++/10/iomanip ****  */
  28:/usr/include/c++/10/iomanip **** 
  29:/usr/include/c++/10/iomanip **** //
  30:/usr/include/c++/10/iomanip **** // ISO C++ 14882: 27.6.3  Standard manipulators
  31:/usr/include/c++/10/iomanip **** //
  32:/usr/include/c++/10/iomanip **** 
  33:/usr/include/c++/10/iomanip **** #ifndef _GLIBCXX_IOMANIP
  34:/usr/include/c++/10/iomanip **** #define _GLIBCXX_IOMANIP 1
  35:/usr/include/c++/10/iomanip **** 
  36:/usr/include/c++/10/iomanip **** #pragma GCC system_header
  37:/usr/include/c++/10/iomanip **** 
  38:/usr/include/c++/10/iomanip **** #include <bits/c++config.h>
  39:/usr/include/c++/10/iomanip **** #include <iosfwd>
  40:/usr/include/c++/10/iomanip **** #include <bits/ios_base.h>
  41:/usr/include/c++/10/iomanip **** 
  42:/usr/include/c++/10/iomanip **** #if __cplusplus >= 201103L
  43:/usr/include/c++/10/iomanip **** #include <locale>
  44:/usr/include/c++/10/iomanip **** #if __cplusplus > 201103L
  45:/usr/include/c++/10/iomanip **** #include <bits/quoted_string.h>
  46:/usr/include/c++/10/iomanip **** #endif
  47:/usr/include/c++/10/iomanip **** #endif
  48:/usr/include/c++/10/iomanip **** 
  49:/usr/include/c++/10/iomanip **** namespace std _GLIBCXX_VISIBILITY(default)
  50:/usr/include/c++/10/iomanip **** {
  51:/usr/include/c++/10/iomanip **** _GLIBCXX_BEGIN_NAMESPACE_VERSION
  52:/usr/include/c++/10/iomanip **** 
  53:/usr/include/c++/10/iomanip ****   // [27.6.3] standard manipulators
AARCH64 GAS  obj/Chapter13_1.s 			page 4


  54:/usr/include/c++/10/iomanip ****   // Also see DR 183.
  55:/usr/include/c++/10/iomanip **** 
  56:/usr/include/c++/10/iomanip ****   struct _Resetiosflags { ios_base::fmtflags _M_mask; };
  57:/usr/include/c++/10/iomanip **** 
  58:/usr/include/c++/10/iomanip ****   /**
  59:/usr/include/c++/10/iomanip ****    *  @brief  Manipulator for @c setf.
  60:/usr/include/c++/10/iomanip ****    *  @param  __mask  A format flags mask.
  61:/usr/include/c++/10/iomanip ****    *
  62:/usr/include/c++/10/iomanip ****    *  Sent to a stream object, this manipulator resets the specified flags,
  63:/usr/include/c++/10/iomanip ****    *  via @e stream.setf(0,__mask).
  64:/usr/include/c++/10/iomanip ****   */
  65:/usr/include/c++/10/iomanip ****   inline _Resetiosflags
  66:/usr/include/c++/10/iomanip ****   resetiosflags(ios_base::fmtflags __mask)
  67:/usr/include/c++/10/iomanip ****   { return { __mask }; }
  68:/usr/include/c++/10/iomanip **** 
  69:/usr/include/c++/10/iomanip ****   template<typename _CharT, typename _Traits>
  70:/usr/include/c++/10/iomanip ****     inline basic_istream<_CharT, _Traits>&
  71:/usr/include/c++/10/iomanip ****     operator>>(basic_istream<_CharT, _Traits>& __is, _Resetiosflags __f)
  72:/usr/include/c++/10/iomanip ****     {
  73:/usr/include/c++/10/iomanip ****       __is.setf(ios_base::fmtflags(0), __f._M_mask);
  74:/usr/include/c++/10/iomanip ****       return __is;
  75:/usr/include/c++/10/iomanip ****     }
  76:/usr/include/c++/10/iomanip **** 
  77:/usr/include/c++/10/iomanip ****   template<typename _CharT, typename _Traits>
  78:/usr/include/c++/10/iomanip ****     inline basic_ostream<_CharT, _Traits>&
  79:/usr/include/c++/10/iomanip ****     operator<<(basic_ostream<_CharT, _Traits>& __os, _Resetiosflags __f)
  80:/usr/include/c++/10/iomanip ****     {
  81:/usr/include/c++/10/iomanip ****       __os.setf(ios_base::fmtflags(0), __f._M_mask);
  82:/usr/include/c++/10/iomanip ****       return __os;
  83:/usr/include/c++/10/iomanip ****     }
  84:/usr/include/c++/10/iomanip **** 
  85:/usr/include/c++/10/iomanip **** 
  86:/usr/include/c++/10/iomanip ****   struct _Setiosflags { ios_base::fmtflags _M_mask; };
  87:/usr/include/c++/10/iomanip **** 
  88:/usr/include/c++/10/iomanip ****   /**
  89:/usr/include/c++/10/iomanip ****    *  @brief  Manipulator for @c setf.
  90:/usr/include/c++/10/iomanip ****    *  @param  __mask  A format flags mask.
  91:/usr/include/c++/10/iomanip ****    *
  92:/usr/include/c++/10/iomanip ****    *  Sent to a stream object, this manipulator sets the format flags
  93:/usr/include/c++/10/iomanip ****    *  to @a __mask.
  94:/usr/include/c++/10/iomanip ****   */
  95:/usr/include/c++/10/iomanip ****   inline _Setiosflags
  96:/usr/include/c++/10/iomanip ****   setiosflags(ios_base::fmtflags __mask)
  97:/usr/include/c++/10/iomanip ****   { return { __mask }; }
  98:/usr/include/c++/10/iomanip **** 
  99:/usr/include/c++/10/iomanip ****   template<typename _CharT, typename _Traits>
 100:/usr/include/c++/10/iomanip ****     inline basic_istream<_CharT, _Traits>&
 101:/usr/include/c++/10/iomanip ****     operator>>(basic_istream<_CharT, _Traits>& __is, _Setiosflags __f)
 102:/usr/include/c++/10/iomanip ****     {
 103:/usr/include/c++/10/iomanip ****       __is.setf(__f._M_mask);
 104:/usr/include/c++/10/iomanip ****       return __is;
 105:/usr/include/c++/10/iomanip ****     }
 106:/usr/include/c++/10/iomanip **** 
 107:/usr/include/c++/10/iomanip ****   template<typename _CharT, typename _Traits>
 108:/usr/include/c++/10/iomanip ****     inline basic_ostream<_CharT, _Traits>&
 109:/usr/include/c++/10/iomanip ****     operator<<(basic_ostream<_CharT, _Traits>& __os, _Setiosflags __f)
 110:/usr/include/c++/10/iomanip ****     {
AARCH64 GAS  obj/Chapter13_1.s 			page 5


 111:/usr/include/c++/10/iomanip ****       __os.setf(__f._M_mask);
 112:/usr/include/c++/10/iomanip ****       return __os;
 113:/usr/include/c++/10/iomanip ****     }
 114:/usr/include/c++/10/iomanip **** 
 115:/usr/include/c++/10/iomanip **** 
 116:/usr/include/c++/10/iomanip ****   struct _Setbase { int _M_base; };
 117:/usr/include/c++/10/iomanip **** 
 118:/usr/include/c++/10/iomanip ****   /**
 119:/usr/include/c++/10/iomanip ****    *  @brief  Manipulator for @c setf.
 120:/usr/include/c++/10/iomanip ****    *  @param  __base  A numeric base.
 121:/usr/include/c++/10/iomanip ****    *
 122:/usr/include/c++/10/iomanip ****    *  Sent to a stream object, this manipulator changes the
 123:/usr/include/c++/10/iomanip ****    *  @c ios_base::basefield flags to @c oct, @c dec, or @c hex when @a base
 124:/usr/include/c++/10/iomanip ****    *  is 8, 10, or 16, accordingly, and to 0 if @a __base is any other value.
 125:/usr/include/c++/10/iomanip ****   */
 126:/usr/include/c++/10/iomanip ****   inline _Setbase
 127:/usr/include/c++/10/iomanip ****   setbase(int __base)
 128:/usr/include/c++/10/iomanip ****   { return { __base }; }
 129:/usr/include/c++/10/iomanip **** 
 130:/usr/include/c++/10/iomanip ****   template<typename _CharT, typename _Traits>
 131:/usr/include/c++/10/iomanip ****     inline basic_istream<_CharT, _Traits>&
 132:/usr/include/c++/10/iomanip ****     operator>>(basic_istream<_CharT, _Traits>& __is, _Setbase __f)
 133:/usr/include/c++/10/iomanip ****     {
 134:/usr/include/c++/10/iomanip ****       __is.setf(__f._M_base ==  8 ? ios_base::oct :
 135:/usr/include/c++/10/iomanip **** 		__f._M_base == 10 ? ios_base::dec :
 136:/usr/include/c++/10/iomanip **** 		__f._M_base == 16 ? ios_base::hex :
 137:/usr/include/c++/10/iomanip **** 		ios_base::fmtflags(0), ios_base::basefield);
 138:/usr/include/c++/10/iomanip ****       return __is;
 139:/usr/include/c++/10/iomanip ****     }
 140:/usr/include/c++/10/iomanip **** 
 141:/usr/include/c++/10/iomanip ****   template<typename _CharT, typename _Traits>
 142:/usr/include/c++/10/iomanip ****     inline basic_ostream<_CharT, _Traits>&
 143:/usr/include/c++/10/iomanip ****     operator<<(basic_ostream<_CharT, _Traits>& __os, _Setbase __f)
 144:/usr/include/c++/10/iomanip ****     {
 145:/usr/include/c++/10/iomanip ****       __os.setf(__f._M_base ==  8 ? ios_base::oct :
 146:/usr/include/c++/10/iomanip **** 		__f._M_base == 10 ? ios_base::dec :
 147:/usr/include/c++/10/iomanip **** 		__f._M_base == 16 ? ios_base::hex :
 148:/usr/include/c++/10/iomanip **** 		ios_base::fmtflags(0), ios_base::basefield);
 149:/usr/include/c++/10/iomanip ****       return __os;
 150:/usr/include/c++/10/iomanip ****     }
 151:/usr/include/c++/10/iomanip **** 
 152:/usr/include/c++/10/iomanip **** 
 153:/usr/include/c++/10/iomanip ****   template<typename _CharT>
 154:/usr/include/c++/10/iomanip ****     struct _Setfill { _CharT _M_c; };
 155:/usr/include/c++/10/iomanip **** 
 156:/usr/include/c++/10/iomanip ****   /**
 157:/usr/include/c++/10/iomanip ****    *  @brief  Manipulator for @c fill.
 158:/usr/include/c++/10/iomanip ****    *  @param  __c  The new fill character.
 159:/usr/include/c++/10/iomanip ****    *
 160:/usr/include/c++/10/iomanip ****    *  Sent to a stream object, this manipulator calls @c fill(__c) for that
 161:/usr/include/c++/10/iomanip ****    *  object.
 162:/usr/include/c++/10/iomanip ****   */
 163:/usr/include/c++/10/iomanip ****   template<typename _CharT>
 164:/usr/include/c++/10/iomanip ****     inline _Setfill<_CharT>
 165:/usr/include/c++/10/iomanip ****     setfill(_CharT __c)
 166:/usr/include/c++/10/iomanip ****     { return { __c }; }
 167:/usr/include/c++/10/iomanip **** 
AARCH64 GAS  obj/Chapter13_1.s 			page 6


 168:/usr/include/c++/10/iomanip ****   template<typename _CharT, typename _Traits>
 169:/usr/include/c++/10/iomanip ****     inline basic_istream<_CharT, _Traits>&
 170:/usr/include/c++/10/iomanip ****     operator>>(basic_istream<_CharT, _Traits>& __is, _Setfill<_CharT> __f)
 171:/usr/include/c++/10/iomanip ****     {
 172:/usr/include/c++/10/iomanip ****       __is.fill(__f._M_c);
 173:/usr/include/c++/10/iomanip ****       return __is;
 174:/usr/include/c++/10/iomanip ****     }
 175:/usr/include/c++/10/iomanip **** 
 176:/usr/include/c++/10/iomanip ****   template<typename _CharT, typename _Traits>
 177:/usr/include/c++/10/iomanip ****     inline basic_ostream<_CharT, _Traits>&
 178:/usr/include/c++/10/iomanip ****     operator<<(basic_ostream<_CharT, _Traits>& __os, _Setfill<_CharT> __f)
 179:/usr/include/c++/10/iomanip ****     {
 180:/usr/include/c++/10/iomanip ****       __os.fill(__f._M_c);
 181:/usr/include/c++/10/iomanip ****       return __os;
 182:/usr/include/c++/10/iomanip ****     }
 183:/usr/include/c++/10/iomanip **** 
 184:/usr/include/c++/10/iomanip **** 
 185:/usr/include/c++/10/iomanip ****   struct _Setprecision { int _M_n; };
 186:/usr/include/c++/10/iomanip **** 
 187:/usr/include/c++/10/iomanip ****   /**
 188:/usr/include/c++/10/iomanip ****    *  @brief  Manipulator for @c precision.
 189:/usr/include/c++/10/iomanip ****    *  @param  __n  The new precision.
 190:/usr/include/c++/10/iomanip ****    *
 191:/usr/include/c++/10/iomanip ****    *  Sent to a stream object, this manipulator calls @c precision(__n) for
 192:/usr/include/c++/10/iomanip ****    *  that object.
 193:/usr/include/c++/10/iomanip ****   */
 194:/usr/include/c++/10/iomanip ****   inline _Setprecision
 195:/usr/include/c++/10/iomanip ****   setprecision(int __n)
 196:/usr/include/c++/10/iomanip ****   { return { __n }; }
 197:/usr/include/c++/10/iomanip **** 
 198:/usr/include/c++/10/iomanip ****   template<typename _CharT, typename _Traits>
 199:/usr/include/c++/10/iomanip ****     inline basic_istream<_CharT, _Traits>&
 200:/usr/include/c++/10/iomanip ****     operator>>(basic_istream<_CharT, _Traits>& __is, _Setprecision __f)
 201:/usr/include/c++/10/iomanip ****     {
 202:/usr/include/c++/10/iomanip ****       __is.precision(__f._M_n);
 203:/usr/include/c++/10/iomanip ****       return __is;
 204:/usr/include/c++/10/iomanip ****     }
 205:/usr/include/c++/10/iomanip **** 
 206:/usr/include/c++/10/iomanip ****   template<typename _CharT, typename _Traits>
 207:/usr/include/c++/10/iomanip ****     inline basic_ostream<_CharT, _Traits>&
 208:/usr/include/c++/10/iomanip ****     operator<<(basic_ostream<_CharT, _Traits>& __os, _Setprecision __f)
 209:/usr/include/c++/10/iomanip ****     {
 210:/usr/include/c++/10/iomanip ****       __os.precision(__f._M_n);
  42              		.loc 2 210 21 view .LVU4
  43 0004 03000090 		adrp	x3, :got:_ZSt4cout
  44              	.LBE185:
  45              	.LBE184:
  46              		.loc 1 12 11 view .LVU5
  47 0008 00000090 		adrp	x0, .LANCHOR0
  48              	.LVL1:
  10:Chapter13_1.cpp ****     const int w = 10;
  49              		.loc 1 10 1 view .LVU6
  50 000c FD030091 		mov	x29, sp
  51 0010 F96B04A9 		stp	x25, x26, [sp, 64]
  52              		.loc 1 12 11 view .LVU7
  53 0014 02000091 		add	x2, x0, :lo12:.LANCHOR0
  54              	.LBB200:
AARCH64 GAS  obj/Chapter13_1.s 			page 7


  55              	.LBB201:
  56              	.LBB202:
  57              	.LBB203:
  58              		.file 3 "/usr/include/c++/10/ostream"
   1:/usr/include/c++/10/ostream **** // Output streams -*- C++ -*-
   2:/usr/include/c++/10/ostream **** 
   3:/usr/include/c++/10/ostream **** // Copyright (C) 1997-2020 Free Software Foundation, Inc.
   4:/usr/include/c++/10/ostream **** //
   5:/usr/include/c++/10/ostream **** // This file is part of the GNU ISO C++ Library.  This library is free
   6:/usr/include/c++/10/ostream **** // software; you can redistribute it and/or modify it under the
   7:/usr/include/c++/10/ostream **** // terms of the GNU General Public License as published by the
   8:/usr/include/c++/10/ostream **** // Free Software Foundation; either version 3, or (at your option)
   9:/usr/include/c++/10/ostream **** // any later version.
  10:/usr/include/c++/10/ostream **** 
  11:/usr/include/c++/10/ostream **** // This library is distributed in the hope that it will be useful,
  12:/usr/include/c++/10/ostream **** // but WITHOUT ANY WARRANTY; without even the implied warranty of
  13:/usr/include/c++/10/ostream **** // MERCHANTABILITY or FITNESS FOR A PARTICULAR PURPOSE.  See the
  14:/usr/include/c++/10/ostream **** // GNU General Public License for more details.
  15:/usr/include/c++/10/ostream **** 
  16:/usr/include/c++/10/ostream **** // Under Section 7 of GPL version 3, you are granted additional
  17:/usr/include/c++/10/ostream **** // permissions described in the GCC Runtime Library Exception, version
  18:/usr/include/c++/10/ostream **** // 3.1, as published by the Free Software Foundation.
  19:/usr/include/c++/10/ostream **** 
  20:/usr/include/c++/10/ostream **** // You should have received a copy of the GNU General Public License and
  21:/usr/include/c++/10/ostream **** // a copy of the GCC Runtime Library Exception along with this program;
  22:/usr/include/c++/10/ostream **** // see the files COPYING3 and COPYING.RUNTIME respectively.  If not, see
  23:/usr/include/c++/10/ostream **** // <http://www.gnu.org/licenses/>.
  24:/usr/include/c++/10/ostream **** 
  25:/usr/include/c++/10/ostream **** /** @file include/ostream
  26:/usr/include/c++/10/ostream ****  *  This is a Standard C++ Library header.
  27:/usr/include/c++/10/ostream ****  */
  28:/usr/include/c++/10/ostream **** 
  29:/usr/include/c++/10/ostream **** //
  30:/usr/include/c++/10/ostream **** // ISO C++ 14882: 27.6.2  Output streams
  31:/usr/include/c++/10/ostream **** //
  32:/usr/include/c++/10/ostream **** 
  33:/usr/include/c++/10/ostream **** #ifndef _GLIBCXX_OSTREAM
  34:/usr/include/c++/10/ostream **** #define _GLIBCXX_OSTREAM 1
  35:/usr/include/c++/10/ostream **** 
  36:/usr/include/c++/10/ostream **** #pragma GCC system_header
  37:/usr/include/c++/10/ostream **** 
  38:/usr/include/c++/10/ostream **** #include <ios>
  39:/usr/include/c++/10/ostream **** #include <bits/ostream_insert.h>
  40:/usr/include/c++/10/ostream **** 
  41:/usr/include/c++/10/ostream **** namespace std _GLIBCXX_VISIBILITY(default)
  42:/usr/include/c++/10/ostream **** {
  43:/usr/include/c++/10/ostream **** _GLIBCXX_BEGIN_NAMESPACE_VERSION
  44:/usr/include/c++/10/ostream **** 
  45:/usr/include/c++/10/ostream ****   /**
  46:/usr/include/c++/10/ostream ****    *  @brief  Template class basic_ostream.
  47:/usr/include/c++/10/ostream ****    *  @ingroup io
  48:/usr/include/c++/10/ostream ****    *
  49:/usr/include/c++/10/ostream ****    *  @tparam _CharT  Type of character stream.
  50:/usr/include/c++/10/ostream ****    *  @tparam _Traits  Traits for character type, defaults to
  51:/usr/include/c++/10/ostream ****    *                   char_traits<_CharT>.
  52:/usr/include/c++/10/ostream ****    *
  53:/usr/include/c++/10/ostream ****    *  This is the base class for all output streams.  It provides text
AARCH64 GAS  obj/Chapter13_1.s 			page 8


  54:/usr/include/c++/10/ostream ****    *  formatting of all builtin types, and communicates with any class
  55:/usr/include/c++/10/ostream ****    *  derived from basic_streambuf to do the actual output.
  56:/usr/include/c++/10/ostream ****   */
  57:/usr/include/c++/10/ostream ****   template<typename _CharT, typename _Traits>
  58:/usr/include/c++/10/ostream ****     class basic_ostream : virtual public basic_ios<_CharT, _Traits>
  59:/usr/include/c++/10/ostream ****     {
  60:/usr/include/c++/10/ostream ****     public:
  61:/usr/include/c++/10/ostream ****       // Types (inherited from basic_ios):
  62:/usr/include/c++/10/ostream ****       typedef _CharT			 		char_type;
  63:/usr/include/c++/10/ostream ****       typedef typename _Traits::int_type 		int_type;
  64:/usr/include/c++/10/ostream ****       typedef typename _Traits::pos_type 		pos_type;
  65:/usr/include/c++/10/ostream ****       typedef typename _Traits::off_type 		off_type;
  66:/usr/include/c++/10/ostream ****       typedef _Traits			 		traits_type;
  67:/usr/include/c++/10/ostream **** 
  68:/usr/include/c++/10/ostream ****       // Non-standard Types:
  69:/usr/include/c++/10/ostream ****       typedef basic_streambuf<_CharT, _Traits> 		__streambuf_type;
  70:/usr/include/c++/10/ostream ****       typedef basic_ios<_CharT, _Traits>		__ios_type;
  71:/usr/include/c++/10/ostream ****       typedef basic_ostream<_CharT, _Traits>		__ostream_type;
  72:/usr/include/c++/10/ostream ****       typedef num_put<_CharT, ostreambuf_iterator<_CharT, _Traits> >
  73:/usr/include/c++/10/ostream ****       							__num_put_type;
  74:/usr/include/c++/10/ostream ****       typedef ctype<_CharT>	      			__ctype_type;
  75:/usr/include/c++/10/ostream **** 
  76:/usr/include/c++/10/ostream ****       /**
  77:/usr/include/c++/10/ostream ****        *  @brief  Base constructor.
  78:/usr/include/c++/10/ostream ****        *
  79:/usr/include/c++/10/ostream ****        *  This ctor is almost never called by the user directly, rather from
  80:/usr/include/c++/10/ostream ****        *  derived classes' initialization lists, which pass a pointer to
  81:/usr/include/c++/10/ostream ****        *  their own stream buffer.
  82:/usr/include/c++/10/ostream ****       */
  83:/usr/include/c++/10/ostream ****       explicit
  84:/usr/include/c++/10/ostream ****       basic_ostream(__streambuf_type* __sb)
  85:/usr/include/c++/10/ostream ****       { this->init(__sb); }
  86:/usr/include/c++/10/ostream **** 
  87:/usr/include/c++/10/ostream ****       /**
  88:/usr/include/c++/10/ostream ****        *  @brief  Base destructor.
  89:/usr/include/c++/10/ostream ****        *
  90:/usr/include/c++/10/ostream ****        *  This does very little apart from providing a virtual base dtor.
  91:/usr/include/c++/10/ostream ****       */
  92:/usr/include/c++/10/ostream ****       virtual
  93:/usr/include/c++/10/ostream ****       ~basic_ostream() { }
  94:/usr/include/c++/10/ostream **** 
  95:/usr/include/c++/10/ostream ****       /// Safe prefix/suffix operations.
  96:/usr/include/c++/10/ostream ****       class sentry;
  97:/usr/include/c++/10/ostream ****       friend class sentry;
  98:/usr/include/c++/10/ostream **** 
  99:/usr/include/c++/10/ostream ****       //@{
 100:/usr/include/c++/10/ostream ****       /**
 101:/usr/include/c++/10/ostream ****        *  @brief  Interface for manipulators.
 102:/usr/include/c++/10/ostream ****        *
 103:/usr/include/c++/10/ostream ****        *  Manipulators such as @c std::endl and @c std::hex use these
 104:/usr/include/c++/10/ostream ****        *  functions in constructs like "std::cout << std::endl".  For more
 105:/usr/include/c++/10/ostream ****        *  information, see the iomanip header.
 106:/usr/include/c++/10/ostream ****       */
 107:/usr/include/c++/10/ostream ****       __ostream_type&
 108:/usr/include/c++/10/ostream ****       operator<<(__ostream_type& (*__pf)(__ostream_type&))
 109:/usr/include/c++/10/ostream ****       {
 110:/usr/include/c++/10/ostream **** 	// _GLIBCXX_RESOLVE_LIB_DEFECTS
AARCH64 GAS  obj/Chapter13_1.s 			page 9


 111:/usr/include/c++/10/ostream **** 	// DR 60. What is a formatted input function?
 112:/usr/include/c++/10/ostream **** 	// The inserters for manipulators are *not* formatted output functions.
 113:/usr/include/c++/10/ostream **** 	return __pf(*this);
 114:/usr/include/c++/10/ostream ****       }
 115:/usr/include/c++/10/ostream **** 
 116:/usr/include/c++/10/ostream ****       __ostream_type&
 117:/usr/include/c++/10/ostream ****       operator<<(__ios_type& (*__pf)(__ios_type&))
 118:/usr/include/c++/10/ostream ****       {
 119:/usr/include/c++/10/ostream **** 	// _GLIBCXX_RESOLVE_LIB_DEFECTS
 120:/usr/include/c++/10/ostream **** 	// DR 60. What is a formatted input function?
 121:/usr/include/c++/10/ostream **** 	// The inserters for manipulators are *not* formatted output functions.
 122:/usr/include/c++/10/ostream **** 	__pf(*this);
 123:/usr/include/c++/10/ostream **** 	return *this;
 124:/usr/include/c++/10/ostream ****       }
 125:/usr/include/c++/10/ostream **** 
 126:/usr/include/c++/10/ostream ****       __ostream_type&
 127:/usr/include/c++/10/ostream ****       operator<<(ios_base& (*__pf) (ios_base&))
 128:/usr/include/c++/10/ostream ****       {
 129:/usr/include/c++/10/ostream **** 	// _GLIBCXX_RESOLVE_LIB_DEFECTS
 130:/usr/include/c++/10/ostream **** 	// DR 60. What is a formatted input function?
 131:/usr/include/c++/10/ostream **** 	// The inserters for manipulators are *not* formatted output functions.
 132:/usr/include/c++/10/ostream **** 	__pf(*this);
 133:/usr/include/c++/10/ostream **** 	return *this;
 134:/usr/include/c++/10/ostream ****       }
 135:/usr/include/c++/10/ostream ****       //@}
 136:/usr/include/c++/10/ostream **** 
 137:/usr/include/c++/10/ostream ****       //@{
 138:/usr/include/c++/10/ostream ****       /**
 139:/usr/include/c++/10/ostream ****        *  @name Inserters
 140:/usr/include/c++/10/ostream ****        *
 141:/usr/include/c++/10/ostream ****        *  All the @c operator<< functions (aka <em>formatted output
 142:/usr/include/c++/10/ostream ****        *  functions</em>) have some common behavior.  Each starts by
 143:/usr/include/c++/10/ostream ****        *  constructing a temporary object of type std::basic_ostream::sentry.
 144:/usr/include/c++/10/ostream ****        *  This can have several effects, concluding with the setting of a
 145:/usr/include/c++/10/ostream ****        *  status flag; see the sentry documentation for more.
 146:/usr/include/c++/10/ostream ****        *
 147:/usr/include/c++/10/ostream ****        *  If the sentry status is good, the function tries to generate
 148:/usr/include/c++/10/ostream ****        *  whatever data is appropriate for the type of the argument.
 149:/usr/include/c++/10/ostream ****        *
 150:/usr/include/c++/10/ostream ****        *  If an exception is thrown during insertion, ios_base::badbit
 151:/usr/include/c++/10/ostream ****        *  will be turned on in the stream's error state without causing an
 152:/usr/include/c++/10/ostream ****        *  ios_base::failure to be thrown.  The original exception will then
 153:/usr/include/c++/10/ostream ****        *  be rethrown.
 154:/usr/include/c++/10/ostream ****       */
 155:/usr/include/c++/10/ostream **** 
 156:/usr/include/c++/10/ostream ****       //@{
 157:/usr/include/c++/10/ostream ****       /**
 158:/usr/include/c++/10/ostream ****        *  @brief Integer arithmetic inserters
 159:/usr/include/c++/10/ostream ****        *  @param  __n A variable of builtin integral type.
 160:/usr/include/c++/10/ostream ****        *  @return  @c *this if successful
 161:/usr/include/c++/10/ostream ****        *
 162:/usr/include/c++/10/ostream ****        *  These functions use the stream's current locale (specifically, the
 163:/usr/include/c++/10/ostream ****        *  @c num_get facet) to perform numeric formatting.
 164:/usr/include/c++/10/ostream ****       */
 165:/usr/include/c++/10/ostream ****       __ostream_type&
 166:/usr/include/c++/10/ostream ****       operator<<(long __n)
 167:/usr/include/c++/10/ostream ****       { return _M_insert(__n); }
AARCH64 GAS  obj/Chapter13_1.s 			page 10


 168:/usr/include/c++/10/ostream **** 
 169:/usr/include/c++/10/ostream ****       __ostream_type&
 170:/usr/include/c++/10/ostream ****       operator<<(unsigned long __n)
 171:/usr/include/c++/10/ostream ****       { return _M_insert(__n); }
 172:/usr/include/c++/10/ostream **** 
 173:/usr/include/c++/10/ostream ****       __ostream_type&
 174:/usr/include/c++/10/ostream ****       operator<<(bool __n)
 175:/usr/include/c++/10/ostream ****       { return _M_insert(__n); }
 176:/usr/include/c++/10/ostream **** 
 177:/usr/include/c++/10/ostream ****       __ostream_type&
 178:/usr/include/c++/10/ostream ****       operator<<(short __n);
 179:/usr/include/c++/10/ostream **** 
 180:/usr/include/c++/10/ostream ****       __ostream_type&
 181:/usr/include/c++/10/ostream ****       operator<<(unsigned short __n)
 182:/usr/include/c++/10/ostream ****       {
 183:/usr/include/c++/10/ostream **** 	// _GLIBCXX_RESOLVE_LIB_DEFECTS
 184:/usr/include/c++/10/ostream **** 	// 117. basic_ostream uses nonexistent num_put member functions.
 185:/usr/include/c++/10/ostream **** 	return _M_insert(static_cast<unsigned long>(__n));
 186:/usr/include/c++/10/ostream ****       }
 187:/usr/include/c++/10/ostream **** 
 188:/usr/include/c++/10/ostream ****       __ostream_type&
 189:/usr/include/c++/10/ostream ****       operator<<(int __n);
 190:/usr/include/c++/10/ostream **** 
 191:/usr/include/c++/10/ostream ****       __ostream_type&
 192:/usr/include/c++/10/ostream ****       operator<<(unsigned int __n)
 193:/usr/include/c++/10/ostream ****       {
 194:/usr/include/c++/10/ostream **** 	// _GLIBCXX_RESOLVE_LIB_DEFECTS
 195:/usr/include/c++/10/ostream **** 	// 117. basic_ostream uses nonexistent num_put member functions.
 196:/usr/include/c++/10/ostream **** 	return _M_insert(static_cast<unsigned long>(__n));
 197:/usr/include/c++/10/ostream ****       }
 198:/usr/include/c++/10/ostream **** 
 199:/usr/include/c++/10/ostream **** #ifdef _GLIBCXX_USE_LONG_LONG
 200:/usr/include/c++/10/ostream ****       __ostream_type&
 201:/usr/include/c++/10/ostream ****       operator<<(long long __n)
 202:/usr/include/c++/10/ostream ****       { return _M_insert(__n); }
 203:/usr/include/c++/10/ostream **** 
 204:/usr/include/c++/10/ostream ****       __ostream_type&
 205:/usr/include/c++/10/ostream ****       operator<<(unsigned long long __n)
 206:/usr/include/c++/10/ostream ****       { return _M_insert(__n); }
 207:/usr/include/c++/10/ostream **** #endif
 208:/usr/include/c++/10/ostream ****       //@}
 209:/usr/include/c++/10/ostream **** 
 210:/usr/include/c++/10/ostream ****       //@{
 211:/usr/include/c++/10/ostream ****       /**
 212:/usr/include/c++/10/ostream ****        *  @brief  Floating point arithmetic inserters
 213:/usr/include/c++/10/ostream ****        *  @param  __f A variable of builtin floating point type.
 214:/usr/include/c++/10/ostream ****        *  @return  @c *this if successful
 215:/usr/include/c++/10/ostream ****        *
 216:/usr/include/c++/10/ostream ****        *  These functions use the stream's current locale (specifically, the
 217:/usr/include/c++/10/ostream ****        *  @c num_get facet) to perform numeric formatting.
 218:/usr/include/c++/10/ostream ****       */
 219:/usr/include/c++/10/ostream ****       __ostream_type&
 220:/usr/include/c++/10/ostream ****       operator<<(double __f)
 221:/usr/include/c++/10/ostream ****       { return _M_insert(__f); }
 222:/usr/include/c++/10/ostream **** 
 223:/usr/include/c++/10/ostream ****       __ostream_type&
 224:/usr/include/c++/10/ostream ****       operator<<(float __f)
AARCH64 GAS  obj/Chapter13_1.s 			page 11


 225:/usr/include/c++/10/ostream ****       {
 226:/usr/include/c++/10/ostream **** 	// _GLIBCXX_RESOLVE_LIB_DEFECTS
 227:/usr/include/c++/10/ostream **** 	// 117. basic_ostream uses nonexistent num_put member functions.
 228:/usr/include/c++/10/ostream **** 	return _M_insert(static_cast<double>(__f));
 229:/usr/include/c++/10/ostream ****       }
 230:/usr/include/c++/10/ostream **** 
 231:/usr/include/c++/10/ostream ****       __ostream_type&
 232:/usr/include/c++/10/ostream ****       operator<<(long double __f)
 233:/usr/include/c++/10/ostream ****       { return _M_insert(__f); }
 234:/usr/include/c++/10/ostream ****       //@}
 235:/usr/include/c++/10/ostream **** 
 236:/usr/include/c++/10/ostream ****       /**
 237:/usr/include/c++/10/ostream ****        *  @brief  Pointer arithmetic inserters
 238:/usr/include/c++/10/ostream ****        *  @param  __p A variable of pointer type.
 239:/usr/include/c++/10/ostream ****        *  @return  @c *this if successful
 240:/usr/include/c++/10/ostream ****        *
 241:/usr/include/c++/10/ostream ****        *  These functions use the stream's current locale (specifically, the
 242:/usr/include/c++/10/ostream ****        *  @c num_get facet) to perform numeric formatting.
 243:/usr/include/c++/10/ostream ****       */
 244:/usr/include/c++/10/ostream ****       __ostream_type&
 245:/usr/include/c++/10/ostream ****       operator<<(const void* __p)
 246:/usr/include/c++/10/ostream ****       { return _M_insert(__p); }
 247:/usr/include/c++/10/ostream **** 
 248:/usr/include/c++/10/ostream **** #if __cplusplus >= 201703L
 249:/usr/include/c++/10/ostream ****       __ostream_type&
 250:/usr/include/c++/10/ostream ****       operator<<(nullptr_t)
 251:/usr/include/c++/10/ostream ****       { return *this << "nullptr"; }
 252:/usr/include/c++/10/ostream **** #endif
 253:/usr/include/c++/10/ostream **** 
 254:/usr/include/c++/10/ostream ****       /**
 255:/usr/include/c++/10/ostream ****        *  @brief  Extracting from another streambuf.
 256:/usr/include/c++/10/ostream ****        *  @param  __sb  A pointer to a streambuf
 257:/usr/include/c++/10/ostream ****        *
 258:/usr/include/c++/10/ostream ****        *  This function behaves like one of the basic arithmetic extractors,
 259:/usr/include/c++/10/ostream ****        *  in that it also constructs a sentry object and has the same error
 260:/usr/include/c++/10/ostream ****        *  handling behavior.
 261:/usr/include/c++/10/ostream ****        *
 262:/usr/include/c++/10/ostream ****        *  If @p __sb is NULL, the stream will set failbit in its error state.
 263:/usr/include/c++/10/ostream ****        *
 264:/usr/include/c++/10/ostream ****        *  Characters are extracted from @p __sb and inserted into @c *this
 265:/usr/include/c++/10/ostream ****        *  until one of the following occurs:
 266:/usr/include/c++/10/ostream ****        *
 267:/usr/include/c++/10/ostream ****        *  - the input stream reaches end-of-file,
 268:/usr/include/c++/10/ostream ****        *  - insertion into the output sequence fails (in this case, the
 269:/usr/include/c++/10/ostream ****        *    character that would have been inserted is not extracted), or
 270:/usr/include/c++/10/ostream ****        *  - an exception occurs while getting a character from @p __sb, which
 271:/usr/include/c++/10/ostream ****        *    sets failbit in the error state
 272:/usr/include/c++/10/ostream ****        *
 273:/usr/include/c++/10/ostream ****        *  If the function inserts no characters, failbit is set.
 274:/usr/include/c++/10/ostream ****       */
 275:/usr/include/c++/10/ostream ****       __ostream_type&
 276:/usr/include/c++/10/ostream ****       operator<<(__streambuf_type* __sb);
 277:/usr/include/c++/10/ostream ****       //@}
 278:/usr/include/c++/10/ostream **** 
 279:/usr/include/c++/10/ostream ****       //@{
 280:/usr/include/c++/10/ostream ****       /**
 281:/usr/include/c++/10/ostream ****        *  @name Unformatted Output Functions
AARCH64 GAS  obj/Chapter13_1.s 			page 12


 282:/usr/include/c++/10/ostream ****        *
 283:/usr/include/c++/10/ostream ****        *  All the unformatted output functions have some common behavior.
 284:/usr/include/c++/10/ostream ****        *  Each starts by constructing a temporary object of type
 285:/usr/include/c++/10/ostream ****        *  std::basic_ostream::sentry.  This has several effects, concluding
 286:/usr/include/c++/10/ostream ****        *  with the setting of a status flag; see the sentry documentation
 287:/usr/include/c++/10/ostream ****        *  for more.
 288:/usr/include/c++/10/ostream ****        *
 289:/usr/include/c++/10/ostream ****        *  If the sentry status is good, the function tries to generate
 290:/usr/include/c++/10/ostream ****        *  whatever data is appropriate for the type of the argument.
 291:/usr/include/c++/10/ostream ****        *
 292:/usr/include/c++/10/ostream ****        *  If an exception is thrown during insertion, ios_base::badbit
 293:/usr/include/c++/10/ostream ****        *  will be turned on in the stream's error state.  If badbit is on in
 294:/usr/include/c++/10/ostream ****        *  the stream's exceptions mask, the exception will be rethrown
 295:/usr/include/c++/10/ostream ****        *  without completing its actions.
 296:/usr/include/c++/10/ostream ****       */
 297:/usr/include/c++/10/ostream **** 
 298:/usr/include/c++/10/ostream ****       /**
 299:/usr/include/c++/10/ostream ****        *  @brief  Simple insertion.
 300:/usr/include/c++/10/ostream ****        *  @param  __c  The character to insert.
 301:/usr/include/c++/10/ostream ****        *  @return  *this
 302:/usr/include/c++/10/ostream ****        *
 303:/usr/include/c++/10/ostream ****        *  Tries to insert @p __c.
 304:/usr/include/c++/10/ostream ****        *
 305:/usr/include/c++/10/ostream ****        *  @note  This function is not overloaded on signed char and
 306:/usr/include/c++/10/ostream ****        *         unsigned char.
 307:/usr/include/c++/10/ostream ****       */
 308:/usr/include/c++/10/ostream ****       __ostream_type&
 309:/usr/include/c++/10/ostream ****       put(char_type __c);
 310:/usr/include/c++/10/ostream **** 
 311:/usr/include/c++/10/ostream ****       /**
 312:/usr/include/c++/10/ostream ****        *  @brief  Core write functionality, without sentry.
 313:/usr/include/c++/10/ostream ****        *  @param  __s  The array to insert.
 314:/usr/include/c++/10/ostream ****        *  @param  __n  Maximum number of characters to insert.
 315:/usr/include/c++/10/ostream ****       */
 316:/usr/include/c++/10/ostream ****       void
 317:/usr/include/c++/10/ostream ****       _M_write(const char_type* __s, streamsize __n)
 318:/usr/include/c++/10/ostream ****       {
 319:/usr/include/c++/10/ostream **** 	const streamsize __put = this->rdbuf()->sputn(__s, __n);
 320:/usr/include/c++/10/ostream **** 	if (__put != __n)
 321:/usr/include/c++/10/ostream **** 	  this->setstate(ios_base::badbit);
 322:/usr/include/c++/10/ostream ****       }
 323:/usr/include/c++/10/ostream **** 
 324:/usr/include/c++/10/ostream ****       /**
 325:/usr/include/c++/10/ostream ****        *  @brief  Character string insertion.
 326:/usr/include/c++/10/ostream ****        *  @param  __s  The array to insert.
 327:/usr/include/c++/10/ostream ****        *  @param  __n  Maximum number of characters to insert.
 328:/usr/include/c++/10/ostream ****        *  @return  *this
 329:/usr/include/c++/10/ostream ****        *
 330:/usr/include/c++/10/ostream ****        *  Characters are copied from @p __s and inserted into the stream until
 331:/usr/include/c++/10/ostream ****        *  one of the following happens:
 332:/usr/include/c++/10/ostream ****        *
 333:/usr/include/c++/10/ostream ****        *  - @p __n characters are inserted
 334:/usr/include/c++/10/ostream ****        *  - inserting into the output sequence fails (in this case, badbit
 335:/usr/include/c++/10/ostream ****        *    will be set in the stream's error state)
 336:/usr/include/c++/10/ostream ****        *
 337:/usr/include/c++/10/ostream ****        *  @note  This function is not overloaded on signed char and
 338:/usr/include/c++/10/ostream ****        *         unsigned char.
AARCH64 GAS  obj/Chapter13_1.s 			page 13


 339:/usr/include/c++/10/ostream ****       */
 340:/usr/include/c++/10/ostream ****       __ostream_type&
 341:/usr/include/c++/10/ostream ****       write(const char_type* __s, streamsize __n);
 342:/usr/include/c++/10/ostream ****       //@}
 343:/usr/include/c++/10/ostream **** 
 344:/usr/include/c++/10/ostream ****       /**
 345:/usr/include/c++/10/ostream ****        *  @brief  Synchronizing the stream buffer.
 346:/usr/include/c++/10/ostream ****        *  @return  *this
 347:/usr/include/c++/10/ostream ****        *
 348:/usr/include/c++/10/ostream ****        *  If @c rdbuf() is a null pointer, changes nothing.
 349:/usr/include/c++/10/ostream ****        *
 350:/usr/include/c++/10/ostream ****        *  Otherwise, calls @c rdbuf()->pubsync(), and if that returns -1,
 351:/usr/include/c++/10/ostream ****        *  sets badbit.
 352:/usr/include/c++/10/ostream ****       */
 353:/usr/include/c++/10/ostream ****       __ostream_type&
 354:/usr/include/c++/10/ostream ****       flush();
 355:/usr/include/c++/10/ostream **** 
 356:/usr/include/c++/10/ostream ****       /**
 357:/usr/include/c++/10/ostream ****        *  @brief  Getting the current write position.
 358:/usr/include/c++/10/ostream ****        *  @return  A file position object.
 359:/usr/include/c++/10/ostream ****        *
 360:/usr/include/c++/10/ostream ****        *  If @c fail() is not false, returns @c pos_type(-1) to indicate
 361:/usr/include/c++/10/ostream ****        *  failure.  Otherwise returns @c rdbuf()->pubseekoff(0,cur,out).
 362:/usr/include/c++/10/ostream ****       */
 363:/usr/include/c++/10/ostream ****       pos_type
 364:/usr/include/c++/10/ostream ****       tellp();
 365:/usr/include/c++/10/ostream **** 
 366:/usr/include/c++/10/ostream ****       /**
 367:/usr/include/c++/10/ostream ****        *  @brief  Changing the current write position.
 368:/usr/include/c++/10/ostream ****        *  @param  __pos  A file position object.
 369:/usr/include/c++/10/ostream ****        *  @return  *this
 370:/usr/include/c++/10/ostream ****        *
 371:/usr/include/c++/10/ostream ****        *  If @c fail() is not true, calls @c rdbuf()->pubseekpos(pos).  If
 372:/usr/include/c++/10/ostream ****        *  that function fails, sets failbit.
 373:/usr/include/c++/10/ostream ****       */
 374:/usr/include/c++/10/ostream ****       __ostream_type&
 375:/usr/include/c++/10/ostream ****       seekp(pos_type);
 376:/usr/include/c++/10/ostream **** 
 377:/usr/include/c++/10/ostream ****       /**
 378:/usr/include/c++/10/ostream ****        *  @brief  Changing the current write position.
 379:/usr/include/c++/10/ostream ****        *  @param  __off  A file offset object.
 380:/usr/include/c++/10/ostream ****        *  @param  __dir  The direction in which to seek.
 381:/usr/include/c++/10/ostream ****        *  @return  *this
 382:/usr/include/c++/10/ostream ****        *
 383:/usr/include/c++/10/ostream ****        *  If @c fail() is not true, calls @c rdbuf()->pubseekoff(off,dir).
 384:/usr/include/c++/10/ostream ****        *  If that function fails, sets failbit.
 385:/usr/include/c++/10/ostream ****       */
 386:/usr/include/c++/10/ostream ****        __ostream_type&
 387:/usr/include/c++/10/ostream ****       seekp(off_type, ios_base::seekdir);
 388:/usr/include/c++/10/ostream **** 
 389:/usr/include/c++/10/ostream ****     protected:
 390:/usr/include/c++/10/ostream ****       basic_ostream()
 391:/usr/include/c++/10/ostream ****       { this->init(0); }
 392:/usr/include/c++/10/ostream **** 
 393:/usr/include/c++/10/ostream **** #if __cplusplus >= 201103L
 394:/usr/include/c++/10/ostream ****       // Non-standard constructor that does not call init()
 395:/usr/include/c++/10/ostream ****       basic_ostream(basic_iostream<_CharT, _Traits>&) { }
AARCH64 GAS  obj/Chapter13_1.s 			page 14


 396:/usr/include/c++/10/ostream **** 
 397:/usr/include/c++/10/ostream ****       basic_ostream(const basic_ostream&) = delete;
 398:/usr/include/c++/10/ostream **** 
 399:/usr/include/c++/10/ostream ****       basic_ostream(basic_ostream&& __rhs)
 400:/usr/include/c++/10/ostream ****       : __ios_type()
 401:/usr/include/c++/10/ostream ****       { __ios_type::move(__rhs); }
 402:/usr/include/c++/10/ostream **** 
 403:/usr/include/c++/10/ostream ****       // 27.7.3.3 Assign/swap
 404:/usr/include/c++/10/ostream **** 
 405:/usr/include/c++/10/ostream ****       basic_ostream& operator=(const basic_ostream&) = delete;
 406:/usr/include/c++/10/ostream **** 
 407:/usr/include/c++/10/ostream ****       basic_ostream&
 408:/usr/include/c++/10/ostream ****       operator=(basic_ostream&& __rhs)
 409:/usr/include/c++/10/ostream ****       {
 410:/usr/include/c++/10/ostream **** 	swap(__rhs);
 411:/usr/include/c++/10/ostream **** 	return *this;
 412:/usr/include/c++/10/ostream ****       }
 413:/usr/include/c++/10/ostream **** 
 414:/usr/include/c++/10/ostream ****       void
 415:/usr/include/c++/10/ostream ****       swap(basic_ostream& __rhs)
 416:/usr/include/c++/10/ostream ****       { __ios_type::swap(__rhs); }
 417:/usr/include/c++/10/ostream **** #endif
 418:/usr/include/c++/10/ostream **** 
 419:/usr/include/c++/10/ostream ****       template<typename _ValueT>
 420:/usr/include/c++/10/ostream **** 	__ostream_type&
 421:/usr/include/c++/10/ostream **** 	_M_insert(_ValueT __v);
 422:/usr/include/c++/10/ostream ****     };
 423:/usr/include/c++/10/ostream **** 
 424:/usr/include/c++/10/ostream ****   /**
 425:/usr/include/c++/10/ostream ****    *  @brief  Performs setup work for output streams.
 426:/usr/include/c++/10/ostream ****    *
 427:/usr/include/c++/10/ostream ****    *  Objects of this class are created before all of the standard
 428:/usr/include/c++/10/ostream ****    *  inserters are run.  It is responsible for <em>exception-safe prefix and
 429:/usr/include/c++/10/ostream ****    *  suffix operations</em>.
 430:/usr/include/c++/10/ostream ****   */
 431:/usr/include/c++/10/ostream ****   template <typename _CharT, typename _Traits>
 432:/usr/include/c++/10/ostream ****     class basic_ostream<_CharT, _Traits>::sentry
 433:/usr/include/c++/10/ostream ****     {
 434:/usr/include/c++/10/ostream ****       // Data Members.
 435:/usr/include/c++/10/ostream ****       bool 				_M_ok;
 436:/usr/include/c++/10/ostream ****       basic_ostream<_CharT, _Traits>& 	_M_os;
 437:/usr/include/c++/10/ostream **** 
 438:/usr/include/c++/10/ostream ****     public:
 439:/usr/include/c++/10/ostream ****       /**
 440:/usr/include/c++/10/ostream ****        *  @brief  The constructor performs preparatory work.
 441:/usr/include/c++/10/ostream ****        *  @param  __os  The output stream to guard.
 442:/usr/include/c++/10/ostream ****        *
 443:/usr/include/c++/10/ostream ****        *  If the stream state is good (@a __os.good() is true), then if the
 444:/usr/include/c++/10/ostream ****        *  stream is tied to another output stream, @c is.tie()->flush()
 445:/usr/include/c++/10/ostream ****        *  is called to synchronize the output sequences.
 446:/usr/include/c++/10/ostream ****        *
 447:/usr/include/c++/10/ostream ****        *  If the stream state is still good, then the sentry state becomes
 448:/usr/include/c++/10/ostream ****        *  true (@a okay).
 449:/usr/include/c++/10/ostream ****       */
 450:/usr/include/c++/10/ostream ****       explicit
 451:/usr/include/c++/10/ostream ****       sentry(basic_ostream<_CharT, _Traits>& __os);
 452:/usr/include/c++/10/ostream **** 
AARCH64 GAS  obj/Chapter13_1.s 			page 15


 453:/usr/include/c++/10/ostream **** #pragma GCC diagnostic push
 454:/usr/include/c++/10/ostream **** #pragma GCC diagnostic ignored "-Wdeprecated-declarations"
 455:/usr/include/c++/10/ostream ****       /**
 456:/usr/include/c++/10/ostream ****        *  @brief  Possibly flushes the stream.
 457:/usr/include/c++/10/ostream ****        *
 458:/usr/include/c++/10/ostream ****        *  If @c ios_base::unitbuf is set in @c os.flags(), and
 459:/usr/include/c++/10/ostream ****        *  @c std::uncaught_exception() is true, the sentry destructor calls
 460:/usr/include/c++/10/ostream ****        *  @c flush() on the output stream.
 461:/usr/include/c++/10/ostream ****       */
 462:/usr/include/c++/10/ostream ****       ~sentry()
 463:/usr/include/c++/10/ostream ****       {
 464:/usr/include/c++/10/ostream **** 	// XXX MT
 465:/usr/include/c++/10/ostream **** 	if (bool(_M_os.flags() & ios_base::unitbuf) && !uncaught_exception())
 466:/usr/include/c++/10/ostream **** 	  {
 467:/usr/include/c++/10/ostream **** 	    // Can't call flush directly or else will get into recursive lock.
 468:/usr/include/c++/10/ostream **** 	    if (_M_os.rdbuf() && _M_os.rdbuf()->pubsync() == -1)
 469:/usr/include/c++/10/ostream **** 	      _M_os.setstate(ios_base::badbit);
 470:/usr/include/c++/10/ostream **** 	  }
 471:/usr/include/c++/10/ostream ****       }
 472:/usr/include/c++/10/ostream **** #pragma GCC diagnostic pop
 473:/usr/include/c++/10/ostream **** 
 474:/usr/include/c++/10/ostream ****       /**
 475:/usr/include/c++/10/ostream ****        *  @brief  Quick status checking.
 476:/usr/include/c++/10/ostream ****        *  @return  The sentry state.
 477:/usr/include/c++/10/ostream ****        *
 478:/usr/include/c++/10/ostream ****        *  For ease of use, sentries may be converted to booleans.  The
 479:/usr/include/c++/10/ostream ****        *  return value is that of the sentry state (true == okay).
 480:/usr/include/c++/10/ostream ****       */
 481:/usr/include/c++/10/ostream **** #if __cplusplus >= 201103L
 482:/usr/include/c++/10/ostream ****       explicit
 483:/usr/include/c++/10/ostream **** #endif
 484:/usr/include/c++/10/ostream ****       operator bool() const
 485:/usr/include/c++/10/ostream ****       { return _M_ok; }
 486:/usr/include/c++/10/ostream ****     };
 487:/usr/include/c++/10/ostream **** 
 488:/usr/include/c++/10/ostream ****   //@{
 489:/usr/include/c++/10/ostream ****   /**
 490:/usr/include/c++/10/ostream ****    *  @brief  Character inserters
 491:/usr/include/c++/10/ostream ****    *  @param  __out  An output stream.
 492:/usr/include/c++/10/ostream ****    *  @param  __c  A character.
 493:/usr/include/c++/10/ostream ****    *  @return  out
 494:/usr/include/c++/10/ostream ****    *
 495:/usr/include/c++/10/ostream ****    *  Behaves like one of the formatted arithmetic inserters described in
 496:/usr/include/c++/10/ostream ****    *  std::basic_ostream.  After constructing a sentry object with good
 497:/usr/include/c++/10/ostream ****    *  status, this function inserts a single character and any required
 498:/usr/include/c++/10/ostream ****    *  padding (as determined by [22.2.2.2.2]).  @c __out.width(0) is then
 499:/usr/include/c++/10/ostream ****    *  called.
 500:/usr/include/c++/10/ostream ****    *
 501:/usr/include/c++/10/ostream ****    *  If @p __c is of type @c char and the character type of the stream is not
 502:/usr/include/c++/10/ostream ****    *  @c char, the character is widened before insertion.
 503:/usr/include/c++/10/ostream ****   */
 504:/usr/include/c++/10/ostream ****   template<typename _CharT, typename _Traits>
 505:/usr/include/c++/10/ostream ****     inline basic_ostream<_CharT, _Traits>&
 506:/usr/include/c++/10/ostream ****     operator<<(basic_ostream<_CharT, _Traits>& __out, _CharT __c)
 507:/usr/include/c++/10/ostream ****     { return __ostream_insert(__out, &__c, 1); }
 508:/usr/include/c++/10/ostream **** 
 509:/usr/include/c++/10/ostream ****   template<typename _CharT, typename _Traits>
AARCH64 GAS  obj/Chapter13_1.s 			page 16


 510:/usr/include/c++/10/ostream ****     inline basic_ostream<_CharT, _Traits>&
 511:/usr/include/c++/10/ostream ****     operator<<(basic_ostream<_CharT, _Traits>& __out, char __c)
 512:/usr/include/c++/10/ostream ****     { return (__out << __out.widen(__c)); }
 513:/usr/include/c++/10/ostream **** 
 514:/usr/include/c++/10/ostream ****   // Specialization
 515:/usr/include/c++/10/ostream ****   template<typename _Traits>
 516:/usr/include/c++/10/ostream ****     inline basic_ostream<char, _Traits>&
 517:/usr/include/c++/10/ostream ****     operator<<(basic_ostream<char, _Traits>& __out, char __c)
 518:/usr/include/c++/10/ostream ****     { return __ostream_insert(__out, &__c, 1); }
 519:/usr/include/c++/10/ostream **** 
 520:/usr/include/c++/10/ostream ****   // Signed and unsigned
 521:/usr/include/c++/10/ostream ****   template<typename _Traits>
 522:/usr/include/c++/10/ostream ****     inline basic_ostream<char, _Traits>&
 523:/usr/include/c++/10/ostream ****     operator<<(basic_ostream<char, _Traits>& __out, signed char __c)
 524:/usr/include/c++/10/ostream ****     { return (__out << static_cast<char>(__c)); }
 525:/usr/include/c++/10/ostream **** 
 526:/usr/include/c++/10/ostream ****   template<typename _Traits>
 527:/usr/include/c++/10/ostream ****     inline basic_ostream<char, _Traits>&
 528:/usr/include/c++/10/ostream ****     operator<<(basic_ostream<char, _Traits>& __out, unsigned char __c)
 529:/usr/include/c++/10/ostream ****     { return (__out << static_cast<char>(__c)); }
 530:/usr/include/c++/10/ostream **** 
 531:/usr/include/c++/10/ostream **** #if __cplusplus > 201703L
 532:/usr/include/c++/10/ostream ****   // The following deleted overloads prevent formatting character values as
 533:/usr/include/c++/10/ostream ****   // numeric values.
 534:/usr/include/c++/10/ostream **** 
 535:/usr/include/c++/10/ostream **** #ifdef _GLIBCXX_USE_WCHAR_T
 536:/usr/include/c++/10/ostream ****   template<typename _Traits>
 537:/usr/include/c++/10/ostream ****     basic_ostream<char, _Traits>&
 538:/usr/include/c++/10/ostream ****     operator<<(basic_ostream<char, _Traits>&, wchar_t) = delete;
 539:/usr/include/c++/10/ostream **** #endif // _GLIBCXX_USE_WCHAR_T
 540:/usr/include/c++/10/ostream **** 
 541:/usr/include/c++/10/ostream **** #ifdef _GLIBCXX_USE_CHAR8_T
 542:/usr/include/c++/10/ostream ****   template<typename _Traits>
 543:/usr/include/c++/10/ostream ****     basic_ostream<char, _Traits>&
 544:/usr/include/c++/10/ostream ****     operator<<(basic_ostream<char, _Traits>&, char8_t) = delete;
 545:/usr/include/c++/10/ostream **** #endif
 546:/usr/include/c++/10/ostream **** 
 547:/usr/include/c++/10/ostream ****   template<typename _Traits>
 548:/usr/include/c++/10/ostream ****     basic_ostream<char, _Traits>&
 549:/usr/include/c++/10/ostream ****     operator<<(basic_ostream<char, _Traits>&, char16_t) = delete;
 550:/usr/include/c++/10/ostream **** 
 551:/usr/include/c++/10/ostream ****   template<typename _Traits>
 552:/usr/include/c++/10/ostream ****     basic_ostream<char, _Traits>&
 553:/usr/include/c++/10/ostream ****     operator<<(basic_ostream<char, _Traits>&, char32_t) = delete;
 554:/usr/include/c++/10/ostream **** 
 555:/usr/include/c++/10/ostream **** #ifdef _GLIBCXX_USE_WCHAR_T
 556:/usr/include/c++/10/ostream **** #ifdef _GLIBCXX_USE_CHAR8_T
 557:/usr/include/c++/10/ostream ****   template<typename _Traits>
 558:/usr/include/c++/10/ostream ****     basic_ostream<wchar_t, _Traits>&
 559:/usr/include/c++/10/ostream ****     operator<<(basic_ostream<wchar_t, _Traits>&, char8_t) = delete;
 560:/usr/include/c++/10/ostream **** #endif // _GLIBCXX_USE_CHAR8_T
 561:/usr/include/c++/10/ostream **** 
 562:/usr/include/c++/10/ostream ****   template<typename _Traits>
 563:/usr/include/c++/10/ostream ****     basic_ostream<wchar_t, _Traits>&
 564:/usr/include/c++/10/ostream ****     operator<<(basic_ostream<wchar_t, _Traits>&, char16_t) = delete;
 565:/usr/include/c++/10/ostream **** 
 566:/usr/include/c++/10/ostream ****   template<typename _Traits>
AARCH64 GAS  obj/Chapter13_1.s 			page 17


 567:/usr/include/c++/10/ostream ****     basic_ostream<wchar_t, _Traits>&
 568:/usr/include/c++/10/ostream ****     operator<<(basic_ostream<wchar_t, _Traits>&, char32_t) = delete;
 569:/usr/include/c++/10/ostream **** #endif // _GLIBCXX_USE_WCHAR_T
 570:/usr/include/c++/10/ostream **** #endif // C++20
 571:/usr/include/c++/10/ostream ****   //@}
 572:/usr/include/c++/10/ostream **** 
 573:/usr/include/c++/10/ostream ****   //@{
 574:/usr/include/c++/10/ostream ****   /**
 575:/usr/include/c++/10/ostream ****    *  @brief  String inserters
 576:/usr/include/c++/10/ostream ****    *  @param  __out  An output stream.
 577:/usr/include/c++/10/ostream ****    *  @param  __s  A character string.
 578:/usr/include/c++/10/ostream ****    *  @return  out
 579:/usr/include/c++/10/ostream ****    *  @pre  @p __s must be a non-NULL pointer
 580:/usr/include/c++/10/ostream ****    *
 581:/usr/include/c++/10/ostream ****    *  Behaves like one of the formatted arithmetic inserters described in
 582:/usr/include/c++/10/ostream ****    *  std::basic_ostream.  After constructing a sentry object with good
 583:/usr/include/c++/10/ostream ****    *  status, this function inserts @c traits::length(__s) characters starting
 584:/usr/include/c++/10/ostream ****    *  at @p __s, widened if necessary, followed by any required padding (as
 585:/usr/include/c++/10/ostream ****    *  determined by [22.2.2.2.2]).  @c __out.width(0) is then called.
 586:/usr/include/c++/10/ostream ****   */
 587:/usr/include/c++/10/ostream ****   template<typename _CharT, typename _Traits>
 588:/usr/include/c++/10/ostream ****     inline basic_ostream<_CharT, _Traits>&
 589:/usr/include/c++/10/ostream ****     operator<<(basic_ostream<_CharT, _Traits>& __out, const _CharT* __s)
 590:/usr/include/c++/10/ostream ****     {
 591:/usr/include/c++/10/ostream ****       if (!__s)
 592:/usr/include/c++/10/ostream **** 	__out.setstate(ios_base::badbit);
 593:/usr/include/c++/10/ostream ****       else
 594:/usr/include/c++/10/ostream **** 	__ostream_insert(__out, __s,
 595:/usr/include/c++/10/ostream **** 			 static_cast<streamsize>(_Traits::length(__s)));
 596:/usr/include/c++/10/ostream ****       return __out;
 597:/usr/include/c++/10/ostream ****     }
 598:/usr/include/c++/10/ostream **** 
 599:/usr/include/c++/10/ostream ****   template<typename _CharT, typename _Traits>
 600:/usr/include/c++/10/ostream ****     basic_ostream<_CharT, _Traits> &
 601:/usr/include/c++/10/ostream ****     operator<<(basic_ostream<_CharT, _Traits>& __out, const char* __s);
 602:/usr/include/c++/10/ostream **** 
 603:/usr/include/c++/10/ostream ****   // Partial specializations
 604:/usr/include/c++/10/ostream ****   template<typename _Traits>
 605:/usr/include/c++/10/ostream ****     inline basic_ostream<char, _Traits>&
 606:/usr/include/c++/10/ostream ****     operator<<(basic_ostream<char, _Traits>& __out, const char* __s)
 607:/usr/include/c++/10/ostream ****     {
 608:/usr/include/c++/10/ostream ****       if (!__s)
 609:/usr/include/c++/10/ostream **** 	__out.setstate(ios_base::badbit);
 610:/usr/include/c++/10/ostream ****       else
 611:/usr/include/c++/10/ostream **** 	__ostream_insert(__out, __s,
  59              		.loc 3 611 18 view .LVU8
  60 0018 00000090 		adrp	x0, .LC3
  61              		.cfi_offset 25, -112
  62              		.cfi_offset 26, -104
  63              	.LBE203:
  64              	.LBE202:
  65              	.LBE201:
  66              	.LBE200:
  67              	.LBB263:
  68              	.LBB194:
  69              		.loc 2 210 21 view .LVU9
  70 001c 790040F9 		ldr	x25, [x3, #:got_lo12:_ZSt4cout]
AARCH64 GAS  obj/Chapter13_1.s 			page 18


  71              	.LBE194:
  72              	.LBE263:
  10:Chapter13_1.cpp ****     const int w = 10;
  73              		.loc 1 10 1 view .LVU10
  74 0020 FB7305A9 		stp	x27, x28, [sp, 80]
  75              		.cfi_offset 27, -96
  76              		.cfi_offset 28, -88
  77              	.LBB264:
  78              	.LBB254:
  79              	.LBB206:
  80              	.LBB204:
  81              		.loc 3 611 18 view .LVU11
  82 0024 1B000091 		add	x27, x0, :lo12:.LC3
  83              	.LBE204:
  84              	.LBE206:
  85              	.LBE254:
  86              	.LBE264:
  87              		.loc 1 12 11 view .LVU12
  88 0028 E1030291 		add	x1, sp, 128
  89              	.LVL2:
  10:Chapter13_1.cpp ****     const int w = 10;
  90              		.loc 1 10 1 view .LVU13
  91 002c F35301A9 		stp	x19, x20, [sp, 16]
  92 0030 FC0301AA 		mov	x28, x1
  93              	.LBB265:
  94              	.LBB195:
  95              		.loc 2 210 21 view .LVU14
  96 0034 200340F9 		ldr	x0, [x25]
  97              	.LBE195:
  98              	.LBE265:
  10:Chapter13_1.cpp ****     const int w = 10;
  99              		.loc 1 10 1 view .LVU15
 100 0038 F55B02A9 		stp	x21, x22, [sp, 32]
 101              		.cfi_offset 19, -160
 102              		.cfi_offset 20, -152
 103              		.cfi_offset 21, -144
 104              		.cfi_offset 22, -136
 105 003c 16000090 		adrp	x22, .LC2
 106              	.LBB266:
 107              	.LBB255:
 108              	.LBB207:
 109              	.LBB208:
 110              		.loc 3 611 18 view .LVU16
 111 0040 D6020091 		add	x22, x22, :lo12:.LC2
 112              	.LBE208:
 113              	.LBE207:
 114              	.LBE255:
 115              	.LBE266:
  10:Chapter13_1.cpp ****     const int w = 10;
 116              		.loc 1 10 1 view .LVU17
 117 0044 F76303A9 		stp	x23, x24, [sp, 48]
 118              		.cfi_offset 23, -128
 119              		.cfi_offset 24, -120
 120 0048 F8630291 		add	x24, sp, 152
 121              	.LBB267:
 122              	.LBB196:
 123              	.LBB186:
AARCH64 GAS  obj/Chapter13_1.s 			page 19


 124              	.LBB187:
 125              		.file 4 "/usr/include/c++/10/bits/ios_base.h"
   1:/usr/include/c++/10/bits/ios_base.h **** // Iostreams base classes -*- C++ -*-
   2:/usr/include/c++/10/bits/ios_base.h **** 
   3:/usr/include/c++/10/bits/ios_base.h **** // Copyright (C) 1997-2020 Free Software Foundation, Inc.
   4:/usr/include/c++/10/bits/ios_base.h **** //
   5:/usr/include/c++/10/bits/ios_base.h **** // This file is part of the GNU ISO C++ Library.  This library is free
   6:/usr/include/c++/10/bits/ios_base.h **** // software; you can redistribute it and/or modify it under the
   7:/usr/include/c++/10/bits/ios_base.h **** // terms of the GNU General Public License as published by the
   8:/usr/include/c++/10/bits/ios_base.h **** // Free Software Foundation; either version 3, or (at your option)
   9:/usr/include/c++/10/bits/ios_base.h **** // any later version.
  10:/usr/include/c++/10/bits/ios_base.h **** 
  11:/usr/include/c++/10/bits/ios_base.h **** // This library is distributed in the hope that it will be useful,
  12:/usr/include/c++/10/bits/ios_base.h **** // but WITHOUT ANY WARRANTY; without even the implied warranty of
  13:/usr/include/c++/10/bits/ios_base.h **** // MERCHANTABILITY or FITNESS FOR A PARTICULAR PURPOSE.  See the
  14:/usr/include/c++/10/bits/ios_base.h **** // GNU General Public License for more details.
  15:/usr/include/c++/10/bits/ios_base.h **** 
  16:/usr/include/c++/10/bits/ios_base.h **** // Under Section 7 of GPL version 3, you are granted additional
  17:/usr/include/c++/10/bits/ios_base.h **** // permissions described in the GCC Runtime Library Exception, version
  18:/usr/include/c++/10/bits/ios_base.h **** // 3.1, as published by the Free Software Foundation.
  19:/usr/include/c++/10/bits/ios_base.h **** 
  20:/usr/include/c++/10/bits/ios_base.h **** // You should have received a copy of the GNU General Public License and
  21:/usr/include/c++/10/bits/ios_base.h **** // a copy of the GCC Runtime Library Exception along with this program;
  22:/usr/include/c++/10/bits/ios_base.h **** // see the files COPYING3 and COPYING.RUNTIME respectively.  If not, see
  23:/usr/include/c++/10/bits/ios_base.h **** // <http://www.gnu.org/licenses/>.
  24:/usr/include/c++/10/bits/ios_base.h **** 
  25:/usr/include/c++/10/bits/ios_base.h **** /** @file bits/ios_base.h
  26:/usr/include/c++/10/bits/ios_base.h ****  *  This is an internal header file, included by other library headers.
  27:/usr/include/c++/10/bits/ios_base.h ****  *  Do not attempt to use it directly. @headername{ios}
  28:/usr/include/c++/10/bits/ios_base.h ****  */
  29:/usr/include/c++/10/bits/ios_base.h **** 
  30:/usr/include/c++/10/bits/ios_base.h **** //
  31:/usr/include/c++/10/bits/ios_base.h **** // ISO C++ 14882: 27.4  Iostreams base classes
  32:/usr/include/c++/10/bits/ios_base.h **** //
  33:/usr/include/c++/10/bits/ios_base.h **** 
  34:/usr/include/c++/10/bits/ios_base.h **** #ifndef _IOS_BASE_H
  35:/usr/include/c++/10/bits/ios_base.h **** #define _IOS_BASE_H 1
  36:/usr/include/c++/10/bits/ios_base.h **** 
  37:/usr/include/c++/10/bits/ios_base.h **** #pragma GCC system_header
  38:/usr/include/c++/10/bits/ios_base.h **** 
  39:/usr/include/c++/10/bits/ios_base.h **** #include <ext/atomicity.h>
  40:/usr/include/c++/10/bits/ios_base.h **** #include <bits/localefwd.h>
  41:/usr/include/c++/10/bits/ios_base.h **** #include <bits/locale_classes.h>
  42:/usr/include/c++/10/bits/ios_base.h **** 
  43:/usr/include/c++/10/bits/ios_base.h **** #if __cplusplus < 201103L
  44:/usr/include/c++/10/bits/ios_base.h **** # include <stdexcept>
  45:/usr/include/c++/10/bits/ios_base.h **** #else
  46:/usr/include/c++/10/bits/ios_base.h **** # include <system_error>
  47:/usr/include/c++/10/bits/ios_base.h **** #endif
  48:/usr/include/c++/10/bits/ios_base.h **** 
  49:/usr/include/c++/10/bits/ios_base.h **** namespace std _GLIBCXX_VISIBILITY(default)
  50:/usr/include/c++/10/bits/ios_base.h **** {
  51:/usr/include/c++/10/bits/ios_base.h **** _GLIBCXX_BEGIN_NAMESPACE_VERSION
  52:/usr/include/c++/10/bits/ios_base.h **** 
  53:/usr/include/c++/10/bits/ios_base.h ****   // The following definitions of bitmask types are enums, not ints,
  54:/usr/include/c++/10/bits/ios_base.h ****   // as permitted (but not required) in the standard, in order to provide
  55:/usr/include/c++/10/bits/ios_base.h ****   // better type safety in iostream calls.  A side effect is that in C++98
AARCH64 GAS  obj/Chapter13_1.s 			page 20


  56:/usr/include/c++/10/bits/ios_base.h ****   // expressions involving them are not compile-time constants.
  57:/usr/include/c++/10/bits/ios_base.h ****   enum _Ios_Fmtflags 
  58:/usr/include/c++/10/bits/ios_base.h ****     { 
  59:/usr/include/c++/10/bits/ios_base.h ****       _S_boolalpha 	= 1L << 0,
  60:/usr/include/c++/10/bits/ios_base.h ****       _S_dec 		= 1L << 1,
  61:/usr/include/c++/10/bits/ios_base.h ****       _S_fixed 		= 1L << 2,
  62:/usr/include/c++/10/bits/ios_base.h ****       _S_hex 		= 1L << 3,
  63:/usr/include/c++/10/bits/ios_base.h ****       _S_internal 	= 1L << 4,
  64:/usr/include/c++/10/bits/ios_base.h ****       _S_left 		= 1L << 5,
  65:/usr/include/c++/10/bits/ios_base.h ****       _S_oct 		= 1L << 6,
  66:/usr/include/c++/10/bits/ios_base.h ****       _S_right 		= 1L << 7,
  67:/usr/include/c++/10/bits/ios_base.h ****       _S_scientific 	= 1L << 8,
  68:/usr/include/c++/10/bits/ios_base.h ****       _S_showbase 	= 1L << 9,
  69:/usr/include/c++/10/bits/ios_base.h ****       _S_showpoint 	= 1L << 10,
  70:/usr/include/c++/10/bits/ios_base.h ****       _S_showpos 	= 1L << 11,
  71:/usr/include/c++/10/bits/ios_base.h ****       _S_skipws 	= 1L << 12,
  72:/usr/include/c++/10/bits/ios_base.h ****       _S_unitbuf 	= 1L << 13,
  73:/usr/include/c++/10/bits/ios_base.h ****       _S_uppercase 	= 1L << 14,
  74:/usr/include/c++/10/bits/ios_base.h ****       _S_adjustfield 	= _S_left | _S_right | _S_internal,
  75:/usr/include/c++/10/bits/ios_base.h ****       _S_basefield 	= _S_dec | _S_oct | _S_hex,
  76:/usr/include/c++/10/bits/ios_base.h ****       _S_floatfield 	= _S_scientific | _S_fixed,
  77:/usr/include/c++/10/bits/ios_base.h ****       _S_ios_fmtflags_end = 1L << 16,
  78:/usr/include/c++/10/bits/ios_base.h ****       _S_ios_fmtflags_max = __INT_MAX__,
  79:/usr/include/c++/10/bits/ios_base.h ****       _S_ios_fmtflags_min = ~__INT_MAX__
  80:/usr/include/c++/10/bits/ios_base.h ****     };
  81:/usr/include/c++/10/bits/ios_base.h **** 
  82:/usr/include/c++/10/bits/ios_base.h ****   inline _GLIBCXX_CONSTEXPR _Ios_Fmtflags
  83:/usr/include/c++/10/bits/ios_base.h ****   operator&(_Ios_Fmtflags __a, _Ios_Fmtflags __b)
  84:/usr/include/c++/10/bits/ios_base.h ****   { return _Ios_Fmtflags(static_cast<int>(__a) & static_cast<int>(__b)); }
  85:/usr/include/c++/10/bits/ios_base.h **** 
  86:/usr/include/c++/10/bits/ios_base.h ****   inline _GLIBCXX_CONSTEXPR _Ios_Fmtflags
  87:/usr/include/c++/10/bits/ios_base.h ****   operator|(_Ios_Fmtflags __a, _Ios_Fmtflags __b)
  88:/usr/include/c++/10/bits/ios_base.h ****   { return _Ios_Fmtflags(static_cast<int>(__a) | static_cast<int>(__b)); }
  89:/usr/include/c++/10/bits/ios_base.h **** 
  90:/usr/include/c++/10/bits/ios_base.h ****   inline _GLIBCXX_CONSTEXPR _Ios_Fmtflags
  91:/usr/include/c++/10/bits/ios_base.h ****   operator^(_Ios_Fmtflags __a, _Ios_Fmtflags __b)
  92:/usr/include/c++/10/bits/ios_base.h ****   { return _Ios_Fmtflags(static_cast<int>(__a) ^ static_cast<int>(__b)); }
  93:/usr/include/c++/10/bits/ios_base.h **** 
  94:/usr/include/c++/10/bits/ios_base.h ****   inline _GLIBCXX_CONSTEXPR _Ios_Fmtflags
  95:/usr/include/c++/10/bits/ios_base.h ****   operator~(_Ios_Fmtflags __a)
  96:/usr/include/c++/10/bits/ios_base.h ****   { return _Ios_Fmtflags(~static_cast<int>(__a)); }
  97:/usr/include/c++/10/bits/ios_base.h **** 
  98:/usr/include/c++/10/bits/ios_base.h ****   inline const _Ios_Fmtflags&
  99:/usr/include/c++/10/bits/ios_base.h ****   operator|=(_Ios_Fmtflags& __a, _Ios_Fmtflags __b)
 100:/usr/include/c++/10/bits/ios_base.h ****   { return __a = __a | __b; }
 101:/usr/include/c++/10/bits/ios_base.h **** 
 102:/usr/include/c++/10/bits/ios_base.h ****   inline const _Ios_Fmtflags&
 103:/usr/include/c++/10/bits/ios_base.h ****   operator&=(_Ios_Fmtflags& __a, _Ios_Fmtflags __b)
 104:/usr/include/c++/10/bits/ios_base.h ****   { return __a = __a & __b; }
 105:/usr/include/c++/10/bits/ios_base.h **** 
 106:/usr/include/c++/10/bits/ios_base.h ****   inline const _Ios_Fmtflags&
 107:/usr/include/c++/10/bits/ios_base.h ****   operator^=(_Ios_Fmtflags& __a, _Ios_Fmtflags __b)
 108:/usr/include/c++/10/bits/ios_base.h ****   { return __a = __a ^ __b; }
 109:/usr/include/c++/10/bits/ios_base.h **** 
 110:/usr/include/c++/10/bits/ios_base.h **** 
 111:/usr/include/c++/10/bits/ios_base.h ****   enum _Ios_Openmode 
 112:/usr/include/c++/10/bits/ios_base.h ****     { 
AARCH64 GAS  obj/Chapter13_1.s 			page 21


 113:/usr/include/c++/10/bits/ios_base.h ****       _S_app 		= 1L << 0,
 114:/usr/include/c++/10/bits/ios_base.h ****       _S_ate 		= 1L << 1,
 115:/usr/include/c++/10/bits/ios_base.h ****       _S_bin 		= 1L << 2,
 116:/usr/include/c++/10/bits/ios_base.h ****       _S_in 		= 1L << 3,
 117:/usr/include/c++/10/bits/ios_base.h ****       _S_out 		= 1L << 4,
 118:/usr/include/c++/10/bits/ios_base.h ****       _S_trunc 		= 1L << 5,
 119:/usr/include/c++/10/bits/ios_base.h ****       _S_ios_openmode_end = 1L << 16,
 120:/usr/include/c++/10/bits/ios_base.h ****       _S_ios_openmode_max = __INT_MAX__,
 121:/usr/include/c++/10/bits/ios_base.h ****       _S_ios_openmode_min = ~__INT_MAX__
 122:/usr/include/c++/10/bits/ios_base.h ****     };
 123:/usr/include/c++/10/bits/ios_base.h **** 
 124:/usr/include/c++/10/bits/ios_base.h ****   inline _GLIBCXX_CONSTEXPR _Ios_Openmode
 125:/usr/include/c++/10/bits/ios_base.h ****   operator&(_Ios_Openmode __a, _Ios_Openmode __b)
 126:/usr/include/c++/10/bits/ios_base.h ****   { return _Ios_Openmode(static_cast<int>(__a) & static_cast<int>(__b)); }
 127:/usr/include/c++/10/bits/ios_base.h **** 
 128:/usr/include/c++/10/bits/ios_base.h ****   inline _GLIBCXX_CONSTEXPR _Ios_Openmode
 129:/usr/include/c++/10/bits/ios_base.h ****   operator|(_Ios_Openmode __a, _Ios_Openmode __b)
 130:/usr/include/c++/10/bits/ios_base.h ****   { return _Ios_Openmode(static_cast<int>(__a) | static_cast<int>(__b)); }
 131:/usr/include/c++/10/bits/ios_base.h **** 
 132:/usr/include/c++/10/bits/ios_base.h ****   inline _GLIBCXX_CONSTEXPR _Ios_Openmode
 133:/usr/include/c++/10/bits/ios_base.h ****   operator^(_Ios_Openmode __a, _Ios_Openmode __b)
 134:/usr/include/c++/10/bits/ios_base.h ****   { return _Ios_Openmode(static_cast<int>(__a) ^ static_cast<int>(__b)); }
 135:/usr/include/c++/10/bits/ios_base.h **** 
 136:/usr/include/c++/10/bits/ios_base.h ****   inline _GLIBCXX_CONSTEXPR _Ios_Openmode
 137:/usr/include/c++/10/bits/ios_base.h ****   operator~(_Ios_Openmode __a)
 138:/usr/include/c++/10/bits/ios_base.h ****   { return _Ios_Openmode(~static_cast<int>(__a)); }
 139:/usr/include/c++/10/bits/ios_base.h **** 
 140:/usr/include/c++/10/bits/ios_base.h ****   inline const _Ios_Openmode&
 141:/usr/include/c++/10/bits/ios_base.h ****   operator|=(_Ios_Openmode& __a, _Ios_Openmode __b)
 142:/usr/include/c++/10/bits/ios_base.h ****   { return __a = __a | __b; }
 143:/usr/include/c++/10/bits/ios_base.h **** 
 144:/usr/include/c++/10/bits/ios_base.h ****   inline const _Ios_Openmode&
 145:/usr/include/c++/10/bits/ios_base.h ****   operator&=(_Ios_Openmode& __a, _Ios_Openmode __b)
 146:/usr/include/c++/10/bits/ios_base.h ****   { return __a = __a & __b; }
 147:/usr/include/c++/10/bits/ios_base.h **** 
 148:/usr/include/c++/10/bits/ios_base.h ****   inline const _Ios_Openmode&
 149:/usr/include/c++/10/bits/ios_base.h ****   operator^=(_Ios_Openmode& __a, _Ios_Openmode __b)
 150:/usr/include/c++/10/bits/ios_base.h ****   { return __a = __a ^ __b; }
 151:/usr/include/c++/10/bits/ios_base.h **** 
 152:/usr/include/c++/10/bits/ios_base.h **** 
 153:/usr/include/c++/10/bits/ios_base.h ****   enum _Ios_Iostate
 154:/usr/include/c++/10/bits/ios_base.h ****     { 
 155:/usr/include/c++/10/bits/ios_base.h ****       _S_goodbit 		= 0,
 156:/usr/include/c++/10/bits/ios_base.h ****       _S_badbit 		= 1L << 0,
 157:/usr/include/c++/10/bits/ios_base.h ****       _S_eofbit 		= 1L << 1,
 158:/usr/include/c++/10/bits/ios_base.h ****       _S_failbit		= 1L << 2,
 159:/usr/include/c++/10/bits/ios_base.h ****       _S_ios_iostate_end = 1L << 16,
 160:/usr/include/c++/10/bits/ios_base.h ****       _S_ios_iostate_max = __INT_MAX__,
 161:/usr/include/c++/10/bits/ios_base.h ****       _S_ios_iostate_min = ~__INT_MAX__
 162:/usr/include/c++/10/bits/ios_base.h ****     };
 163:/usr/include/c++/10/bits/ios_base.h **** 
 164:/usr/include/c++/10/bits/ios_base.h ****   inline _GLIBCXX_CONSTEXPR _Ios_Iostate
 165:/usr/include/c++/10/bits/ios_base.h ****   operator&(_Ios_Iostate __a, _Ios_Iostate __b)
 166:/usr/include/c++/10/bits/ios_base.h ****   { return _Ios_Iostate(static_cast<int>(__a) & static_cast<int>(__b)); }
 167:/usr/include/c++/10/bits/ios_base.h **** 
 168:/usr/include/c++/10/bits/ios_base.h ****   inline _GLIBCXX_CONSTEXPR _Ios_Iostate
 169:/usr/include/c++/10/bits/ios_base.h ****   operator|(_Ios_Iostate __a, _Ios_Iostate __b)
AARCH64 GAS  obj/Chapter13_1.s 			page 22


 170:/usr/include/c++/10/bits/ios_base.h ****   { return _Ios_Iostate(static_cast<int>(__a) | static_cast<int>(__b)); }
 171:/usr/include/c++/10/bits/ios_base.h **** 
 172:/usr/include/c++/10/bits/ios_base.h ****   inline _GLIBCXX_CONSTEXPR _Ios_Iostate
 173:/usr/include/c++/10/bits/ios_base.h ****   operator^(_Ios_Iostate __a, _Ios_Iostate __b)
 174:/usr/include/c++/10/bits/ios_base.h ****   { return _Ios_Iostate(static_cast<int>(__a) ^ static_cast<int>(__b)); }
 175:/usr/include/c++/10/bits/ios_base.h **** 
 176:/usr/include/c++/10/bits/ios_base.h ****   inline _GLIBCXX_CONSTEXPR _Ios_Iostate
 177:/usr/include/c++/10/bits/ios_base.h ****   operator~(_Ios_Iostate __a)
 178:/usr/include/c++/10/bits/ios_base.h ****   { return _Ios_Iostate(~static_cast<int>(__a)); }
 179:/usr/include/c++/10/bits/ios_base.h **** 
 180:/usr/include/c++/10/bits/ios_base.h ****   inline const _Ios_Iostate&
 181:/usr/include/c++/10/bits/ios_base.h ****   operator|=(_Ios_Iostate& __a, _Ios_Iostate __b)
 182:/usr/include/c++/10/bits/ios_base.h ****   { return __a = __a | __b; }
 183:/usr/include/c++/10/bits/ios_base.h **** 
 184:/usr/include/c++/10/bits/ios_base.h ****   inline const _Ios_Iostate&
 185:/usr/include/c++/10/bits/ios_base.h ****   operator&=(_Ios_Iostate& __a, _Ios_Iostate __b)
 186:/usr/include/c++/10/bits/ios_base.h ****   { return __a = __a & __b; }
 187:/usr/include/c++/10/bits/ios_base.h **** 
 188:/usr/include/c++/10/bits/ios_base.h ****   inline const  _Ios_Iostate&
 189:/usr/include/c++/10/bits/ios_base.h ****   operator^=(_Ios_Iostate& __a, _Ios_Iostate __b)
 190:/usr/include/c++/10/bits/ios_base.h ****   { return __a = __a ^ __b; }
 191:/usr/include/c++/10/bits/ios_base.h **** 
 192:/usr/include/c++/10/bits/ios_base.h **** 
 193:/usr/include/c++/10/bits/ios_base.h ****   enum _Ios_Seekdir 
 194:/usr/include/c++/10/bits/ios_base.h ****     { 
 195:/usr/include/c++/10/bits/ios_base.h ****       _S_beg = 0,
 196:/usr/include/c++/10/bits/ios_base.h ****       _S_cur = _GLIBCXX_STDIO_SEEK_CUR,
 197:/usr/include/c++/10/bits/ios_base.h ****       _S_end = _GLIBCXX_STDIO_SEEK_END,
 198:/usr/include/c++/10/bits/ios_base.h ****       _S_ios_seekdir_end = 1L << 16 
 199:/usr/include/c++/10/bits/ios_base.h ****     };
 200:/usr/include/c++/10/bits/ios_base.h **** 
 201:/usr/include/c++/10/bits/ios_base.h **** #if __cplusplus >= 201103L
 202:/usr/include/c++/10/bits/ios_base.h ****   /// I/O error code
 203:/usr/include/c++/10/bits/ios_base.h ****   enum class io_errc { stream = 1 };
 204:/usr/include/c++/10/bits/ios_base.h **** 
 205:/usr/include/c++/10/bits/ios_base.h ****   template <> struct is_error_code_enum<io_errc> : public true_type { };
 206:/usr/include/c++/10/bits/ios_base.h **** 
 207:/usr/include/c++/10/bits/ios_base.h ****   const error_category& iostream_category() noexcept;
 208:/usr/include/c++/10/bits/ios_base.h **** 
 209:/usr/include/c++/10/bits/ios_base.h ****   inline error_code
 210:/usr/include/c++/10/bits/ios_base.h ****   make_error_code(io_errc __e) noexcept
 211:/usr/include/c++/10/bits/ios_base.h ****   { return error_code(static_cast<int>(__e), iostream_category()); }
 212:/usr/include/c++/10/bits/ios_base.h **** 
 213:/usr/include/c++/10/bits/ios_base.h ****   inline error_condition
 214:/usr/include/c++/10/bits/ios_base.h ****   make_error_condition(io_errc __e) noexcept
 215:/usr/include/c++/10/bits/ios_base.h ****   { return error_condition(static_cast<int>(__e), iostream_category()); }
 216:/usr/include/c++/10/bits/ios_base.h **** #endif
 217:/usr/include/c++/10/bits/ios_base.h **** 
 218:/usr/include/c++/10/bits/ios_base.h ****   // 27.4.2  Class ios_base
 219:/usr/include/c++/10/bits/ios_base.h ****   /**
 220:/usr/include/c++/10/bits/ios_base.h ****    *  @brief  The base of the I/O class hierarchy.
 221:/usr/include/c++/10/bits/ios_base.h ****    *  @ingroup io
 222:/usr/include/c++/10/bits/ios_base.h ****    *
 223:/usr/include/c++/10/bits/ios_base.h ****    *  This class defines everything that can be defined about I/O that does
 224:/usr/include/c++/10/bits/ios_base.h ****    *  not depend on the type of characters being input or output.  Most
 225:/usr/include/c++/10/bits/ios_base.h ****    *  people will only see @c ios_base when they need to specify the full
 226:/usr/include/c++/10/bits/ios_base.h ****    *  name of the various I/O flags (e.g., the openmodes).
AARCH64 GAS  obj/Chapter13_1.s 			page 23


 227:/usr/include/c++/10/bits/ios_base.h ****   */
 228:/usr/include/c++/10/bits/ios_base.h ****   class ios_base
 229:/usr/include/c++/10/bits/ios_base.h ****   {
 230:/usr/include/c++/10/bits/ios_base.h **** #if _GLIBCXX_USE_CXX11_ABI
 231:/usr/include/c++/10/bits/ios_base.h **** #if __cplusplus < 201103L
 232:/usr/include/c++/10/bits/ios_base.h ****     // Type that is layout-compatible with std::system_error
 233:/usr/include/c++/10/bits/ios_base.h ****     struct system_error : std::runtime_error
 234:/usr/include/c++/10/bits/ios_base.h ****     {
 235:/usr/include/c++/10/bits/ios_base.h ****       // Type that is layout-compatible with std::error_code
 236:/usr/include/c++/10/bits/ios_base.h ****       struct error_code
 237:/usr/include/c++/10/bits/ios_base.h ****       {
 238:/usr/include/c++/10/bits/ios_base.h **** 	error_code() { }
 239:/usr/include/c++/10/bits/ios_base.h ****       private:
 240:/usr/include/c++/10/bits/ios_base.h **** 	int		_M_value;
 241:/usr/include/c++/10/bits/ios_base.h **** 	const void*	_M_cat;
 242:/usr/include/c++/10/bits/ios_base.h ****       } _M_code;
 243:/usr/include/c++/10/bits/ios_base.h ****     };
 244:/usr/include/c++/10/bits/ios_base.h **** #endif
 245:/usr/include/c++/10/bits/ios_base.h **** #endif
 246:/usr/include/c++/10/bits/ios_base.h ****   public:
 247:/usr/include/c++/10/bits/ios_base.h **** 
 248:/usr/include/c++/10/bits/ios_base.h ****     /** 
 249:/usr/include/c++/10/bits/ios_base.h ****      *  @brief These are thrown to indicate problems with io.
 250:/usr/include/c++/10/bits/ios_base.h ****      *  @ingroup exceptions
 251:/usr/include/c++/10/bits/ios_base.h ****      *
 252:/usr/include/c++/10/bits/ios_base.h ****      *  27.4.2.1.1  Class ios_base::failure
 253:/usr/include/c++/10/bits/ios_base.h ****      */
 254:/usr/include/c++/10/bits/ios_base.h **** #if _GLIBCXX_USE_CXX11_ABI
 255:/usr/include/c++/10/bits/ios_base.h ****     class _GLIBCXX_ABI_TAG_CXX11 failure : public system_error
 256:/usr/include/c++/10/bits/ios_base.h ****     {
 257:/usr/include/c++/10/bits/ios_base.h ****     public:
 258:/usr/include/c++/10/bits/ios_base.h ****       explicit
 259:/usr/include/c++/10/bits/ios_base.h ****       failure(const string& __str);
 260:/usr/include/c++/10/bits/ios_base.h **** 
 261:/usr/include/c++/10/bits/ios_base.h **** #if __cplusplus >= 201103L
 262:/usr/include/c++/10/bits/ios_base.h ****       explicit
 263:/usr/include/c++/10/bits/ios_base.h ****       failure(const string&, const error_code&);
 264:/usr/include/c++/10/bits/ios_base.h **** 
 265:/usr/include/c++/10/bits/ios_base.h ****       explicit
 266:/usr/include/c++/10/bits/ios_base.h ****       failure(const char*, const error_code& = io_errc::stream);
 267:/usr/include/c++/10/bits/ios_base.h **** #endif
 268:/usr/include/c++/10/bits/ios_base.h **** 
 269:/usr/include/c++/10/bits/ios_base.h ****       virtual
 270:/usr/include/c++/10/bits/ios_base.h ****       ~failure() throw();
 271:/usr/include/c++/10/bits/ios_base.h **** 
 272:/usr/include/c++/10/bits/ios_base.h ****       virtual const char*
 273:/usr/include/c++/10/bits/ios_base.h ****       what() const throw();
 274:/usr/include/c++/10/bits/ios_base.h ****     };
 275:/usr/include/c++/10/bits/ios_base.h **** #else
 276:/usr/include/c++/10/bits/ios_base.h ****     class failure : public exception
 277:/usr/include/c++/10/bits/ios_base.h ****     {
 278:/usr/include/c++/10/bits/ios_base.h ****     public:
 279:/usr/include/c++/10/bits/ios_base.h ****       // _GLIBCXX_RESOLVE_LIB_DEFECTS
 280:/usr/include/c++/10/bits/ios_base.h ****       // 48.  Use of non-existent exception constructor
 281:/usr/include/c++/10/bits/ios_base.h ****       explicit
 282:/usr/include/c++/10/bits/ios_base.h ****       failure(const string& __str) throw();
 283:/usr/include/c++/10/bits/ios_base.h **** 
AARCH64 GAS  obj/Chapter13_1.s 			page 24


 284:/usr/include/c++/10/bits/ios_base.h ****       // This declaration is not useless:
 285:/usr/include/c++/10/bits/ios_base.h ****       // http://gcc.gnu.org/onlinedocs/gcc-4.3.2/gcc/Vague-Linkage.html
 286:/usr/include/c++/10/bits/ios_base.h ****       virtual
 287:/usr/include/c++/10/bits/ios_base.h ****       ~failure() throw();
 288:/usr/include/c++/10/bits/ios_base.h **** 
 289:/usr/include/c++/10/bits/ios_base.h ****       virtual const char*
 290:/usr/include/c++/10/bits/ios_base.h ****       what() const throw();
 291:/usr/include/c++/10/bits/ios_base.h **** 
 292:/usr/include/c++/10/bits/ios_base.h **** #if __cplusplus >= 201103L
 293:/usr/include/c++/10/bits/ios_base.h ****       // Define the new members required by C++11,
 294:/usr/include/c++/10/bits/ios_base.h ****       // even though the error_code cannot be stored.
 295:/usr/include/c++/10/bits/ios_base.h **** 
 296:/usr/include/c++/10/bits/ios_base.h ****       explicit
 297:/usr/include/c++/10/bits/ios_base.h ****       failure(const string& __s, const error_code&) noexcept
 298:/usr/include/c++/10/bits/ios_base.h ****       : failure(__s)
 299:/usr/include/c++/10/bits/ios_base.h ****       { }
 300:/usr/include/c++/10/bits/ios_base.h **** 
 301:/usr/include/c++/10/bits/ios_base.h ****       explicit
 302:/usr/include/c++/10/bits/ios_base.h ****       failure(const char* __s, const error_code& = error_code{})
 303:/usr/include/c++/10/bits/ios_base.h ****       : failure(string(__s))
 304:/usr/include/c++/10/bits/ios_base.h ****       { }
 305:/usr/include/c++/10/bits/ios_base.h **** 
 306:/usr/include/c++/10/bits/ios_base.h ****       // Stand-in for system_error::code() but returning by value.
 307:/usr/include/c++/10/bits/ios_base.h ****       error_code code() const noexcept { return error_code{}; }
 308:/usr/include/c++/10/bits/ios_base.h **** #endif
 309:/usr/include/c++/10/bits/ios_base.h **** 
 310:/usr/include/c++/10/bits/ios_base.h ****     private:
 311:/usr/include/c++/10/bits/ios_base.h ****       string _M_msg;
 312:/usr/include/c++/10/bits/ios_base.h ****     };
 313:/usr/include/c++/10/bits/ios_base.h **** #endif
 314:/usr/include/c++/10/bits/ios_base.h **** 
 315:/usr/include/c++/10/bits/ios_base.h ****     // 27.4.2.1.2  Type ios_base::fmtflags
 316:/usr/include/c++/10/bits/ios_base.h ****     /**
 317:/usr/include/c++/10/bits/ios_base.h ****      *  @brief This is a bitmask type.
 318:/usr/include/c++/10/bits/ios_base.h ****      *
 319:/usr/include/c++/10/bits/ios_base.h ****      *  @c @a _Ios_Fmtflags is implementation-defined, but it is valid to
 320:/usr/include/c++/10/bits/ios_base.h ****      *  perform bitwise operations on these values and expect the Right
 321:/usr/include/c++/10/bits/ios_base.h ****      *  Thing to happen.  Defined objects of type fmtflags are:
 322:/usr/include/c++/10/bits/ios_base.h ****      *  - boolalpha
 323:/usr/include/c++/10/bits/ios_base.h ****      *  - dec
 324:/usr/include/c++/10/bits/ios_base.h ****      *  - fixed
 325:/usr/include/c++/10/bits/ios_base.h ****      *  - hex
 326:/usr/include/c++/10/bits/ios_base.h ****      *  - internal
 327:/usr/include/c++/10/bits/ios_base.h ****      *  - left
 328:/usr/include/c++/10/bits/ios_base.h ****      *  - oct
 329:/usr/include/c++/10/bits/ios_base.h ****      *  - right
 330:/usr/include/c++/10/bits/ios_base.h ****      *  - scientific
 331:/usr/include/c++/10/bits/ios_base.h ****      *  - showbase
 332:/usr/include/c++/10/bits/ios_base.h ****      *  - showpoint
 333:/usr/include/c++/10/bits/ios_base.h ****      *  - showpos
 334:/usr/include/c++/10/bits/ios_base.h ****      *  - skipws
 335:/usr/include/c++/10/bits/ios_base.h ****      *  - unitbuf
 336:/usr/include/c++/10/bits/ios_base.h ****      *  - uppercase
 337:/usr/include/c++/10/bits/ios_base.h ****      *  - adjustfield
 338:/usr/include/c++/10/bits/ios_base.h ****      *  - basefield
 339:/usr/include/c++/10/bits/ios_base.h ****      *  - floatfield
 340:/usr/include/c++/10/bits/ios_base.h ****     */
AARCH64 GAS  obj/Chapter13_1.s 			page 25


 341:/usr/include/c++/10/bits/ios_base.h ****     typedef _Ios_Fmtflags fmtflags;
 342:/usr/include/c++/10/bits/ios_base.h **** 
 343:/usr/include/c++/10/bits/ios_base.h ****     /// Insert/extract @c bool in alphabetic rather than numeric format.
 344:/usr/include/c++/10/bits/ios_base.h ****     static const fmtflags boolalpha =   _S_boolalpha;
 345:/usr/include/c++/10/bits/ios_base.h **** 
 346:/usr/include/c++/10/bits/ios_base.h ****     /// Converts integer input or generates integer output in decimal base.
 347:/usr/include/c++/10/bits/ios_base.h ****     static const fmtflags dec =         _S_dec;
 348:/usr/include/c++/10/bits/ios_base.h **** 
 349:/usr/include/c++/10/bits/ios_base.h ****     /// Generate floating-point output in fixed-point notation.
 350:/usr/include/c++/10/bits/ios_base.h ****     static const fmtflags fixed =       _S_fixed;
 351:/usr/include/c++/10/bits/ios_base.h **** 
 352:/usr/include/c++/10/bits/ios_base.h ****     /// Converts integer input or generates integer output in hexadecimal base.
 353:/usr/include/c++/10/bits/ios_base.h ****     static const fmtflags hex =         _S_hex;
 354:/usr/include/c++/10/bits/ios_base.h **** 
 355:/usr/include/c++/10/bits/ios_base.h ****     /// Adds fill characters at a designated internal point in certain
 356:/usr/include/c++/10/bits/ios_base.h ****     /// generated output, or identical to @c right if no such point is
 357:/usr/include/c++/10/bits/ios_base.h ****     /// designated.
 358:/usr/include/c++/10/bits/ios_base.h ****     static const fmtflags internal =    _S_internal;
 359:/usr/include/c++/10/bits/ios_base.h **** 
 360:/usr/include/c++/10/bits/ios_base.h ****     /// Adds fill characters on the right (final positions) of certain
 361:/usr/include/c++/10/bits/ios_base.h ****     /// generated output.  (I.e., the thing you print is flush left.)
 362:/usr/include/c++/10/bits/ios_base.h ****     static const fmtflags left =        _S_left;
 363:/usr/include/c++/10/bits/ios_base.h **** 
 364:/usr/include/c++/10/bits/ios_base.h ****     /// Converts integer input or generates integer output in octal base.
 365:/usr/include/c++/10/bits/ios_base.h ****     static const fmtflags oct =         _S_oct;
 366:/usr/include/c++/10/bits/ios_base.h **** 
 367:/usr/include/c++/10/bits/ios_base.h ****     /// Adds fill characters on the left (initial positions) of certain
 368:/usr/include/c++/10/bits/ios_base.h ****     /// generated output.  (I.e., the thing you print is flush right.)
 369:/usr/include/c++/10/bits/ios_base.h ****     static const fmtflags right =       _S_right;
 370:/usr/include/c++/10/bits/ios_base.h **** 
 371:/usr/include/c++/10/bits/ios_base.h ****     /// Generates floating-point output in scientific notation.
 372:/usr/include/c++/10/bits/ios_base.h ****     static const fmtflags scientific =  _S_scientific;
 373:/usr/include/c++/10/bits/ios_base.h **** 
 374:/usr/include/c++/10/bits/ios_base.h ****     /// Generates a prefix indicating the numeric base of generated integer
 375:/usr/include/c++/10/bits/ios_base.h ****     /// output.
 376:/usr/include/c++/10/bits/ios_base.h ****     static const fmtflags showbase =    _S_showbase;
 377:/usr/include/c++/10/bits/ios_base.h **** 
 378:/usr/include/c++/10/bits/ios_base.h ****     /// Generates a decimal-point character unconditionally in generated
 379:/usr/include/c++/10/bits/ios_base.h ****     /// floating-point output.
 380:/usr/include/c++/10/bits/ios_base.h ****     static const fmtflags showpoint =   _S_showpoint;
 381:/usr/include/c++/10/bits/ios_base.h **** 
 382:/usr/include/c++/10/bits/ios_base.h ****     /// Generates a + sign in non-negative generated numeric output.
 383:/usr/include/c++/10/bits/ios_base.h ****     static const fmtflags showpos =     _S_showpos;
 384:/usr/include/c++/10/bits/ios_base.h **** 
 385:/usr/include/c++/10/bits/ios_base.h ****     /// Skips leading white space before certain input operations.
 386:/usr/include/c++/10/bits/ios_base.h ****     static const fmtflags skipws =      _S_skipws;
 387:/usr/include/c++/10/bits/ios_base.h **** 
 388:/usr/include/c++/10/bits/ios_base.h ****     /// Flushes output after each output operation.
 389:/usr/include/c++/10/bits/ios_base.h ****     static const fmtflags unitbuf =     _S_unitbuf;
 390:/usr/include/c++/10/bits/ios_base.h **** 
 391:/usr/include/c++/10/bits/ios_base.h ****     /// Replaces certain lowercase letters with their uppercase equivalents
 392:/usr/include/c++/10/bits/ios_base.h ****     /// in generated output.
 393:/usr/include/c++/10/bits/ios_base.h ****     static const fmtflags uppercase =   _S_uppercase;
 394:/usr/include/c++/10/bits/ios_base.h **** 
 395:/usr/include/c++/10/bits/ios_base.h ****     /// A mask of left|right|internal.  Useful for the 2-arg form of @c setf.
 396:/usr/include/c++/10/bits/ios_base.h ****     static const fmtflags adjustfield = _S_adjustfield;
 397:/usr/include/c++/10/bits/ios_base.h **** 
AARCH64 GAS  obj/Chapter13_1.s 			page 26


 398:/usr/include/c++/10/bits/ios_base.h ****     /// A mask of dec|oct|hex.  Useful for the 2-arg form of @c setf.
 399:/usr/include/c++/10/bits/ios_base.h ****     static const fmtflags basefield =   _S_basefield;
 400:/usr/include/c++/10/bits/ios_base.h **** 
 401:/usr/include/c++/10/bits/ios_base.h ****     /// A mask of scientific|fixed.  Useful for the 2-arg form of @c setf.
 402:/usr/include/c++/10/bits/ios_base.h ****     static const fmtflags floatfield =  _S_floatfield;
 403:/usr/include/c++/10/bits/ios_base.h **** 
 404:/usr/include/c++/10/bits/ios_base.h ****     // 27.4.2.1.3  Type ios_base::iostate
 405:/usr/include/c++/10/bits/ios_base.h ****     /**
 406:/usr/include/c++/10/bits/ios_base.h ****      *  @brief This is a bitmask type.
 407:/usr/include/c++/10/bits/ios_base.h ****      *
 408:/usr/include/c++/10/bits/ios_base.h ****      *  @c @a _Ios_Iostate is implementation-defined, but it is valid to
 409:/usr/include/c++/10/bits/ios_base.h ****      *  perform bitwise operations on these values and expect the Right
 410:/usr/include/c++/10/bits/ios_base.h ****      *  Thing to happen.  Defined objects of type iostate are:
 411:/usr/include/c++/10/bits/ios_base.h ****      *  - badbit
 412:/usr/include/c++/10/bits/ios_base.h ****      *  - eofbit
 413:/usr/include/c++/10/bits/ios_base.h ****      *  - failbit
 414:/usr/include/c++/10/bits/ios_base.h ****      *  - goodbit
 415:/usr/include/c++/10/bits/ios_base.h ****     */
 416:/usr/include/c++/10/bits/ios_base.h ****     typedef _Ios_Iostate iostate;
 417:/usr/include/c++/10/bits/ios_base.h **** 
 418:/usr/include/c++/10/bits/ios_base.h ****     /// Indicates a loss of integrity in an input or output sequence (such
 419:/usr/include/c++/10/bits/ios_base.h ****     /// as an irrecoverable read error from a file).
 420:/usr/include/c++/10/bits/ios_base.h ****     static const iostate badbit =	_S_badbit;
 421:/usr/include/c++/10/bits/ios_base.h **** 
 422:/usr/include/c++/10/bits/ios_base.h ****     /// Indicates that an input operation reached the end of an input sequence.
 423:/usr/include/c++/10/bits/ios_base.h ****     static const iostate eofbit =	_S_eofbit;
 424:/usr/include/c++/10/bits/ios_base.h **** 
 425:/usr/include/c++/10/bits/ios_base.h ****     /// Indicates that an input operation failed to read the expected
 426:/usr/include/c++/10/bits/ios_base.h ****     /// characters, or that an output operation failed to generate the
 427:/usr/include/c++/10/bits/ios_base.h ****     /// desired characters.
 428:/usr/include/c++/10/bits/ios_base.h ****     static const iostate failbit =	_S_failbit;
 429:/usr/include/c++/10/bits/ios_base.h **** 
 430:/usr/include/c++/10/bits/ios_base.h ****     /// Indicates all is well.
 431:/usr/include/c++/10/bits/ios_base.h ****     static const iostate goodbit =	_S_goodbit;
 432:/usr/include/c++/10/bits/ios_base.h **** 
 433:/usr/include/c++/10/bits/ios_base.h ****     // 27.4.2.1.4  Type ios_base::openmode
 434:/usr/include/c++/10/bits/ios_base.h ****     /**
 435:/usr/include/c++/10/bits/ios_base.h ****      *  @brief This is a bitmask type.
 436:/usr/include/c++/10/bits/ios_base.h ****      *
 437:/usr/include/c++/10/bits/ios_base.h ****      *  @c @a _Ios_Openmode is implementation-defined, but it is valid to
 438:/usr/include/c++/10/bits/ios_base.h ****      *  perform bitwise operations on these values and expect the Right
 439:/usr/include/c++/10/bits/ios_base.h ****      *  Thing to happen.  Defined objects of type openmode are:
 440:/usr/include/c++/10/bits/ios_base.h ****      *  - app
 441:/usr/include/c++/10/bits/ios_base.h ****      *  - ate
 442:/usr/include/c++/10/bits/ios_base.h ****      *  - binary
 443:/usr/include/c++/10/bits/ios_base.h ****      *  - in
 444:/usr/include/c++/10/bits/ios_base.h ****      *  - out
 445:/usr/include/c++/10/bits/ios_base.h ****      *  - trunc
 446:/usr/include/c++/10/bits/ios_base.h ****     */
 447:/usr/include/c++/10/bits/ios_base.h ****     typedef _Ios_Openmode openmode;
 448:/usr/include/c++/10/bits/ios_base.h **** 
 449:/usr/include/c++/10/bits/ios_base.h ****     /// Seek to end before each write.
 450:/usr/include/c++/10/bits/ios_base.h ****     static const openmode app =		_S_app;
 451:/usr/include/c++/10/bits/ios_base.h **** 
 452:/usr/include/c++/10/bits/ios_base.h ****     /// Open and seek to end immediately after opening.
 453:/usr/include/c++/10/bits/ios_base.h ****     static const openmode ate =		_S_ate;
 454:/usr/include/c++/10/bits/ios_base.h **** 
AARCH64 GAS  obj/Chapter13_1.s 			page 27


 455:/usr/include/c++/10/bits/ios_base.h ****     /// Perform input and output in binary mode (as opposed to text mode).
 456:/usr/include/c++/10/bits/ios_base.h ****     /// This is probably not what you think it is; see
 457:/usr/include/c++/10/bits/ios_base.h ****     /// https://gcc.gnu.org/onlinedocs/libstdc++/manual/fstreams.html#std.io.filestreams.binary
 458:/usr/include/c++/10/bits/ios_base.h ****     static const openmode binary =	_S_bin;
 459:/usr/include/c++/10/bits/ios_base.h **** 
 460:/usr/include/c++/10/bits/ios_base.h ****     /// Open for input.  Default for @c ifstream and fstream.
 461:/usr/include/c++/10/bits/ios_base.h ****     static const openmode in =		_S_in;
 462:/usr/include/c++/10/bits/ios_base.h **** 
 463:/usr/include/c++/10/bits/ios_base.h ****     /// Open for output.  Default for @c ofstream and fstream.
 464:/usr/include/c++/10/bits/ios_base.h ****     static const openmode out =		_S_out;
 465:/usr/include/c++/10/bits/ios_base.h **** 
 466:/usr/include/c++/10/bits/ios_base.h ****     /// Truncate an existing stream when opening.  Default for @c ofstream.
 467:/usr/include/c++/10/bits/ios_base.h ****     static const openmode trunc =	_S_trunc;
 468:/usr/include/c++/10/bits/ios_base.h **** 
 469:/usr/include/c++/10/bits/ios_base.h ****     // 27.4.2.1.5  Type ios_base::seekdir
 470:/usr/include/c++/10/bits/ios_base.h ****     /**
 471:/usr/include/c++/10/bits/ios_base.h ****      *  @brief This is an enumerated type.
 472:/usr/include/c++/10/bits/ios_base.h ****      *
 473:/usr/include/c++/10/bits/ios_base.h ****      *  @c @a _Ios_Seekdir is implementation-defined.  Defined values
 474:/usr/include/c++/10/bits/ios_base.h ****      *  of type seekdir are:
 475:/usr/include/c++/10/bits/ios_base.h ****      *  - beg
 476:/usr/include/c++/10/bits/ios_base.h ****      *  - cur, equivalent to @c SEEK_CUR in the C standard library.
 477:/usr/include/c++/10/bits/ios_base.h ****      *  - end, equivalent to @c SEEK_END in the C standard library.
 478:/usr/include/c++/10/bits/ios_base.h ****     */
 479:/usr/include/c++/10/bits/ios_base.h ****     typedef _Ios_Seekdir seekdir;
 480:/usr/include/c++/10/bits/ios_base.h **** 
 481:/usr/include/c++/10/bits/ios_base.h ****     /// Request a seek relative to the beginning of the stream.
 482:/usr/include/c++/10/bits/ios_base.h ****     static const seekdir beg =		_S_beg;
 483:/usr/include/c++/10/bits/ios_base.h **** 
 484:/usr/include/c++/10/bits/ios_base.h ****     /// Request a seek relative to the current position within the sequence.
 485:/usr/include/c++/10/bits/ios_base.h ****     static const seekdir cur =		_S_cur;
 486:/usr/include/c++/10/bits/ios_base.h **** 
 487:/usr/include/c++/10/bits/ios_base.h ****     /// Request a seek relative to the current end of the sequence.
 488:/usr/include/c++/10/bits/ios_base.h ****     static const seekdir end =		_S_end;
 489:/usr/include/c++/10/bits/ios_base.h **** 
 490:/usr/include/c++/10/bits/ios_base.h **** #if __cplusplus <= 201402L
 491:/usr/include/c++/10/bits/ios_base.h ****     // Annex D.6 (removed in C++17)
 492:/usr/include/c++/10/bits/ios_base.h ****     typedef int io_state
 493:/usr/include/c++/10/bits/ios_base.h ****       _GLIBCXX_DEPRECATED_SUGGEST("std::iostate");
 494:/usr/include/c++/10/bits/ios_base.h ****     typedef int open_mode
 495:/usr/include/c++/10/bits/ios_base.h ****       _GLIBCXX_DEPRECATED_SUGGEST("std::openmode");
 496:/usr/include/c++/10/bits/ios_base.h ****     typedef int seek_dir
 497:/usr/include/c++/10/bits/ios_base.h ****       _GLIBCXX_DEPRECATED_SUGGEST("std::seekdir");
 498:/usr/include/c++/10/bits/ios_base.h **** 
 499:/usr/include/c++/10/bits/ios_base.h ****     typedef std::streampos streampos
 500:/usr/include/c++/10/bits/ios_base.h ****       _GLIBCXX_DEPRECATED_SUGGEST("std::streampos");
 501:/usr/include/c++/10/bits/ios_base.h ****     typedef std::streamoff streamoff
 502:/usr/include/c++/10/bits/ios_base.h ****       _GLIBCXX_DEPRECATED_SUGGEST("std::streamoff");
 503:/usr/include/c++/10/bits/ios_base.h **** #endif
 504:/usr/include/c++/10/bits/ios_base.h **** 
 505:/usr/include/c++/10/bits/ios_base.h ****     // Callbacks;
 506:/usr/include/c++/10/bits/ios_base.h ****     /**
 507:/usr/include/c++/10/bits/ios_base.h ****      *  @brief  The set of events that may be passed to an event callback.
 508:/usr/include/c++/10/bits/ios_base.h ****      *
 509:/usr/include/c++/10/bits/ios_base.h ****      *  erase_event is used during ~ios() and copyfmt().  imbue_event is used
 510:/usr/include/c++/10/bits/ios_base.h ****      *  during imbue().  copyfmt_event is used during copyfmt().
 511:/usr/include/c++/10/bits/ios_base.h ****     */
AARCH64 GAS  obj/Chapter13_1.s 			page 28


 512:/usr/include/c++/10/bits/ios_base.h ****     enum event
 513:/usr/include/c++/10/bits/ios_base.h ****     {
 514:/usr/include/c++/10/bits/ios_base.h ****       erase_event,
 515:/usr/include/c++/10/bits/ios_base.h ****       imbue_event,
 516:/usr/include/c++/10/bits/ios_base.h ****       copyfmt_event
 517:/usr/include/c++/10/bits/ios_base.h ****     };
 518:/usr/include/c++/10/bits/ios_base.h **** 
 519:/usr/include/c++/10/bits/ios_base.h ****     /**
 520:/usr/include/c++/10/bits/ios_base.h ****      *  @brief  The type of an event callback function.
 521:/usr/include/c++/10/bits/ios_base.h ****      *  @param  __e  One of the members of the event enum.
 522:/usr/include/c++/10/bits/ios_base.h ****      *  @param  __b  Reference to the ios_base object.
 523:/usr/include/c++/10/bits/ios_base.h ****      *  @param  __i  The integer provided when the callback was registered.
 524:/usr/include/c++/10/bits/ios_base.h ****      *
 525:/usr/include/c++/10/bits/ios_base.h ****      *  Event callbacks are user defined functions that get called during
 526:/usr/include/c++/10/bits/ios_base.h ****      *  several ios_base and basic_ios functions, specifically imbue(),
 527:/usr/include/c++/10/bits/ios_base.h ****      *  copyfmt(), and ~ios().
 528:/usr/include/c++/10/bits/ios_base.h ****     */
 529:/usr/include/c++/10/bits/ios_base.h ****     typedef void (*event_callback) (event __e, ios_base& __b, int __i);
 530:/usr/include/c++/10/bits/ios_base.h **** 
 531:/usr/include/c++/10/bits/ios_base.h ****     /**
 532:/usr/include/c++/10/bits/ios_base.h ****      *  @brief  Add the callback __fn with parameter __index.
 533:/usr/include/c++/10/bits/ios_base.h ****      *  @param  __fn  The function to add.
 534:/usr/include/c++/10/bits/ios_base.h ****      *  @param  __index  The integer to pass to the function when invoked.
 535:/usr/include/c++/10/bits/ios_base.h ****      *
 536:/usr/include/c++/10/bits/ios_base.h ****      *  Registers a function as an event callback with an integer parameter to
 537:/usr/include/c++/10/bits/ios_base.h ****      *  be passed to the function when invoked.  Multiple copies of the
 538:/usr/include/c++/10/bits/ios_base.h ****      *  function are allowed.  If there are multiple callbacks, they are
 539:/usr/include/c++/10/bits/ios_base.h ****      *  invoked in the order they were registered.
 540:/usr/include/c++/10/bits/ios_base.h ****     */
 541:/usr/include/c++/10/bits/ios_base.h ****     void
 542:/usr/include/c++/10/bits/ios_base.h ****     register_callback(event_callback __fn, int __index);
 543:/usr/include/c++/10/bits/ios_base.h **** 
 544:/usr/include/c++/10/bits/ios_base.h ****   protected:
 545:/usr/include/c++/10/bits/ios_base.h ****     streamsize		_M_precision;
 546:/usr/include/c++/10/bits/ios_base.h ****     streamsize		_M_width;
 547:/usr/include/c++/10/bits/ios_base.h ****     fmtflags		_M_flags;
 548:/usr/include/c++/10/bits/ios_base.h ****     iostate		_M_exception;
 549:/usr/include/c++/10/bits/ios_base.h ****     iostate		_M_streambuf_state;
 550:/usr/include/c++/10/bits/ios_base.h **** 
 551:/usr/include/c++/10/bits/ios_base.h ****     // 27.4.2.6  Members for callbacks
 552:/usr/include/c++/10/bits/ios_base.h ****     // 27.4.2.6  ios_base callbacks
 553:/usr/include/c++/10/bits/ios_base.h ****     struct _Callback_list
 554:/usr/include/c++/10/bits/ios_base.h ****     {
 555:/usr/include/c++/10/bits/ios_base.h ****       // Data Members
 556:/usr/include/c++/10/bits/ios_base.h ****       _Callback_list*		_M_next;
 557:/usr/include/c++/10/bits/ios_base.h ****       ios_base::event_callback	_M_fn;
 558:/usr/include/c++/10/bits/ios_base.h ****       int			_M_index;
 559:/usr/include/c++/10/bits/ios_base.h ****       _Atomic_word		_M_refcount;  // 0 means one reference.
 560:/usr/include/c++/10/bits/ios_base.h **** 
 561:/usr/include/c++/10/bits/ios_base.h ****       _Callback_list(ios_base::event_callback __fn, int __index,
 562:/usr/include/c++/10/bits/ios_base.h **** 		     _Callback_list* __cb)
 563:/usr/include/c++/10/bits/ios_base.h ****       : _M_next(__cb), _M_fn(__fn), _M_index(__index), _M_refcount(0) { }
 564:/usr/include/c++/10/bits/ios_base.h **** 
 565:/usr/include/c++/10/bits/ios_base.h ****       void
 566:/usr/include/c++/10/bits/ios_base.h ****       _M_add_reference() { __gnu_cxx::__atomic_add_dispatch(&_M_refcount, 1); }
 567:/usr/include/c++/10/bits/ios_base.h **** 
 568:/usr/include/c++/10/bits/ios_base.h ****       // 0 => OK to delete.
AARCH64 GAS  obj/Chapter13_1.s 			page 29


 569:/usr/include/c++/10/bits/ios_base.h ****       int
 570:/usr/include/c++/10/bits/ios_base.h ****       _M_remove_reference() 
 571:/usr/include/c++/10/bits/ios_base.h ****       {
 572:/usr/include/c++/10/bits/ios_base.h ****         // Be race-detector-friendly.  For more info see bits/c++config.
 573:/usr/include/c++/10/bits/ios_base.h ****         _GLIBCXX_SYNCHRONIZATION_HAPPENS_BEFORE(&_M_refcount);
 574:/usr/include/c++/10/bits/ios_base.h ****         int __res = __gnu_cxx::__exchange_and_add_dispatch(&_M_refcount, -1);
 575:/usr/include/c++/10/bits/ios_base.h ****         if (__res == 0)
 576:/usr/include/c++/10/bits/ios_base.h ****           {
 577:/usr/include/c++/10/bits/ios_base.h ****             _GLIBCXX_SYNCHRONIZATION_HAPPENS_AFTER(&_M_refcount);
 578:/usr/include/c++/10/bits/ios_base.h ****           }
 579:/usr/include/c++/10/bits/ios_base.h ****         return __res;
 580:/usr/include/c++/10/bits/ios_base.h ****       }
 581:/usr/include/c++/10/bits/ios_base.h ****     };
 582:/usr/include/c++/10/bits/ios_base.h **** 
 583:/usr/include/c++/10/bits/ios_base.h ****      _Callback_list*	_M_callbacks;
 584:/usr/include/c++/10/bits/ios_base.h **** 
 585:/usr/include/c++/10/bits/ios_base.h ****     void
 586:/usr/include/c++/10/bits/ios_base.h ****     _M_call_callbacks(event __ev) throw();
 587:/usr/include/c++/10/bits/ios_base.h **** 
 588:/usr/include/c++/10/bits/ios_base.h ****     void
 589:/usr/include/c++/10/bits/ios_base.h ****     _M_dispose_callbacks(void) throw();
 590:/usr/include/c++/10/bits/ios_base.h **** 
 591:/usr/include/c++/10/bits/ios_base.h ****     // 27.4.2.5  Members for iword/pword storage
 592:/usr/include/c++/10/bits/ios_base.h ****     struct _Words
 593:/usr/include/c++/10/bits/ios_base.h ****     {
 594:/usr/include/c++/10/bits/ios_base.h ****       void*	_M_pword;
 595:/usr/include/c++/10/bits/ios_base.h ****       long	_M_iword;
 596:/usr/include/c++/10/bits/ios_base.h ****       _Words() : _M_pword(0), _M_iword(0) { }
 597:/usr/include/c++/10/bits/ios_base.h ****     };
 598:/usr/include/c++/10/bits/ios_base.h **** 
 599:/usr/include/c++/10/bits/ios_base.h ****     // Only for failed iword/pword calls.
 600:/usr/include/c++/10/bits/ios_base.h ****     _Words		_M_word_zero;
 601:/usr/include/c++/10/bits/ios_base.h **** 
 602:/usr/include/c++/10/bits/ios_base.h ****     // Guaranteed storage.
 603:/usr/include/c++/10/bits/ios_base.h ****     // The first 5 iword and pword slots are reserved for internal use.
 604:/usr/include/c++/10/bits/ios_base.h ****     enum { _S_local_word_size = 8 };
 605:/usr/include/c++/10/bits/ios_base.h ****     _Words		_M_local_word[_S_local_word_size];
 606:/usr/include/c++/10/bits/ios_base.h **** 
 607:/usr/include/c++/10/bits/ios_base.h ****     // Allocated storage.
 608:/usr/include/c++/10/bits/ios_base.h ****     int			_M_word_size;
 609:/usr/include/c++/10/bits/ios_base.h ****     _Words*		_M_word;
 610:/usr/include/c++/10/bits/ios_base.h **** 
 611:/usr/include/c++/10/bits/ios_base.h ****     _Words&
 612:/usr/include/c++/10/bits/ios_base.h ****     _M_grow_words(int __index, bool __iword);
 613:/usr/include/c++/10/bits/ios_base.h **** 
 614:/usr/include/c++/10/bits/ios_base.h ****     // Members for locale and locale caching.
 615:/usr/include/c++/10/bits/ios_base.h ****     locale		_M_ios_locale;
 616:/usr/include/c++/10/bits/ios_base.h **** 
 617:/usr/include/c++/10/bits/ios_base.h ****     void
 618:/usr/include/c++/10/bits/ios_base.h ****     _M_init() throw();
 619:/usr/include/c++/10/bits/ios_base.h **** 
 620:/usr/include/c++/10/bits/ios_base.h ****   public:
 621:/usr/include/c++/10/bits/ios_base.h **** 
 622:/usr/include/c++/10/bits/ios_base.h ****     // 27.4.2.1.6  Class ios_base::Init
 623:/usr/include/c++/10/bits/ios_base.h ****     // Used to initialize standard streams. In theory, g++ could use
 624:/usr/include/c++/10/bits/ios_base.h ****     // -finit-priority to order this stuff correctly without going
 625:/usr/include/c++/10/bits/ios_base.h ****     // through these machinations.
AARCH64 GAS  obj/Chapter13_1.s 			page 30


 626:/usr/include/c++/10/bits/ios_base.h ****     class Init
 627:/usr/include/c++/10/bits/ios_base.h ****     {
 628:/usr/include/c++/10/bits/ios_base.h ****       friend class ios_base;
 629:/usr/include/c++/10/bits/ios_base.h ****     public:
 630:/usr/include/c++/10/bits/ios_base.h ****       Init();
 631:/usr/include/c++/10/bits/ios_base.h ****       ~Init();
 632:/usr/include/c++/10/bits/ios_base.h **** 
 633:/usr/include/c++/10/bits/ios_base.h **** #if __cplusplus >= 201103L
 634:/usr/include/c++/10/bits/ios_base.h ****       Init(const Init&) = default;
 635:/usr/include/c++/10/bits/ios_base.h ****       Init& operator=(const Init&) = default;
 636:/usr/include/c++/10/bits/ios_base.h **** #endif
 637:/usr/include/c++/10/bits/ios_base.h **** 
 638:/usr/include/c++/10/bits/ios_base.h ****     private:
 639:/usr/include/c++/10/bits/ios_base.h ****       static _Atomic_word	_S_refcount;
 640:/usr/include/c++/10/bits/ios_base.h ****       static bool		_S_synced_with_stdio;
 641:/usr/include/c++/10/bits/ios_base.h ****     };
 642:/usr/include/c++/10/bits/ios_base.h **** 
 643:/usr/include/c++/10/bits/ios_base.h ****     // [27.4.2.2] fmtflags state functions
 644:/usr/include/c++/10/bits/ios_base.h ****     /**
 645:/usr/include/c++/10/bits/ios_base.h ****      *  @brief  Access to format flags.
 646:/usr/include/c++/10/bits/ios_base.h ****      *  @return  The format control flags for both input and output.
 647:/usr/include/c++/10/bits/ios_base.h ****     */
 648:/usr/include/c++/10/bits/ios_base.h ****     fmtflags
 649:/usr/include/c++/10/bits/ios_base.h ****     flags() const
 650:/usr/include/c++/10/bits/ios_base.h ****     { return _M_flags; }
 651:/usr/include/c++/10/bits/ios_base.h **** 
 652:/usr/include/c++/10/bits/ios_base.h ****     /**
 653:/usr/include/c++/10/bits/ios_base.h ****      *  @brief  Setting new format flags all at once.
 654:/usr/include/c++/10/bits/ios_base.h ****      *  @param  __fmtfl  The new flags to set.
 655:/usr/include/c++/10/bits/ios_base.h ****      *  @return  The previous format control flags.
 656:/usr/include/c++/10/bits/ios_base.h ****      *
 657:/usr/include/c++/10/bits/ios_base.h ****      *  This function overwrites all the format flags with @a __fmtfl.
 658:/usr/include/c++/10/bits/ios_base.h ****     */
 659:/usr/include/c++/10/bits/ios_base.h ****     fmtflags
 660:/usr/include/c++/10/bits/ios_base.h ****     flags(fmtflags __fmtfl)
 661:/usr/include/c++/10/bits/ios_base.h ****     {
 662:/usr/include/c++/10/bits/ios_base.h ****       fmtflags __old = _M_flags;
 663:/usr/include/c++/10/bits/ios_base.h ****       _M_flags = __fmtfl;
 664:/usr/include/c++/10/bits/ios_base.h ****       return __old;
 665:/usr/include/c++/10/bits/ios_base.h ****     }
 666:/usr/include/c++/10/bits/ios_base.h **** 
 667:/usr/include/c++/10/bits/ios_base.h ****     /**
 668:/usr/include/c++/10/bits/ios_base.h ****      *  @brief  Setting new format flags.
 669:/usr/include/c++/10/bits/ios_base.h ****      *  @param  __fmtfl  Additional flags to set.
 670:/usr/include/c++/10/bits/ios_base.h ****      *  @return  The previous format control flags.
 671:/usr/include/c++/10/bits/ios_base.h ****      *
 672:/usr/include/c++/10/bits/ios_base.h ****      *  This function sets additional flags in format control.  Flags that
 673:/usr/include/c++/10/bits/ios_base.h ****      *  were previously set remain set.
 674:/usr/include/c++/10/bits/ios_base.h ****     */
 675:/usr/include/c++/10/bits/ios_base.h ****     fmtflags
 676:/usr/include/c++/10/bits/ios_base.h ****     setf(fmtflags __fmtfl)
 677:/usr/include/c++/10/bits/ios_base.h ****     {
 678:/usr/include/c++/10/bits/ios_base.h ****       fmtflags __old = _M_flags;
 679:/usr/include/c++/10/bits/ios_base.h ****       _M_flags |= __fmtfl;
 680:/usr/include/c++/10/bits/ios_base.h ****       return __old;
 681:/usr/include/c++/10/bits/ios_base.h ****     }
 682:/usr/include/c++/10/bits/ios_base.h **** 
AARCH64 GAS  obj/Chapter13_1.s 			page 31


 683:/usr/include/c++/10/bits/ios_base.h ****     /**
 684:/usr/include/c++/10/bits/ios_base.h ****      *  @brief  Setting new format flags.
 685:/usr/include/c++/10/bits/ios_base.h ****      *  @param  __fmtfl  Additional flags to set.
 686:/usr/include/c++/10/bits/ios_base.h ****      *  @param  __mask  The flags mask for @a fmtfl.
 687:/usr/include/c++/10/bits/ios_base.h ****      *  @return  The previous format control flags.
 688:/usr/include/c++/10/bits/ios_base.h ****      *
 689:/usr/include/c++/10/bits/ios_base.h ****      *  This function clears @a mask in the format flags, then sets
 690:/usr/include/c++/10/bits/ios_base.h ****      *  @a fmtfl @c & @a mask.  An example mask is @c ios_base::adjustfield.
 691:/usr/include/c++/10/bits/ios_base.h ****     */
 692:/usr/include/c++/10/bits/ios_base.h ****     fmtflags
 693:/usr/include/c++/10/bits/ios_base.h ****     setf(fmtflags __fmtfl, fmtflags __mask)
 694:/usr/include/c++/10/bits/ios_base.h ****     {
 695:/usr/include/c++/10/bits/ios_base.h ****       fmtflags __old = _M_flags;
 696:/usr/include/c++/10/bits/ios_base.h ****       _M_flags &= ~__mask;
 697:/usr/include/c++/10/bits/ios_base.h ****       _M_flags |= (__fmtfl & __mask);
 698:/usr/include/c++/10/bits/ios_base.h ****       return __old;
 699:/usr/include/c++/10/bits/ios_base.h ****     }
 700:/usr/include/c++/10/bits/ios_base.h **** 
 701:/usr/include/c++/10/bits/ios_base.h ****     /**
 702:/usr/include/c++/10/bits/ios_base.h ****      *  @brief  Clearing format flags.
 703:/usr/include/c++/10/bits/ios_base.h ****      *  @param  __mask  The flags to unset.
 704:/usr/include/c++/10/bits/ios_base.h ****      *
 705:/usr/include/c++/10/bits/ios_base.h ****      *  This function clears @a __mask in the format flags.
 706:/usr/include/c++/10/bits/ios_base.h ****     */
 707:/usr/include/c++/10/bits/ios_base.h ****     void
 708:/usr/include/c++/10/bits/ios_base.h ****     unsetf(fmtflags __mask)
 709:/usr/include/c++/10/bits/ios_base.h ****     { _M_flags &= ~__mask; }
 710:/usr/include/c++/10/bits/ios_base.h **** 
 711:/usr/include/c++/10/bits/ios_base.h ****     /**
 712:/usr/include/c++/10/bits/ios_base.h ****      *  @brief  Flags access.
 713:/usr/include/c++/10/bits/ios_base.h ****      *  @return  The precision to generate on certain output operations.
 714:/usr/include/c++/10/bits/ios_base.h ****      *
 715:/usr/include/c++/10/bits/ios_base.h ****      *  Be careful if you try to give a definition of @a precision here; see
 716:/usr/include/c++/10/bits/ios_base.h ****      *  DR 189.
 717:/usr/include/c++/10/bits/ios_base.h ****     */
 718:/usr/include/c++/10/bits/ios_base.h ****     streamsize
 719:/usr/include/c++/10/bits/ios_base.h ****     precision() const
 720:/usr/include/c++/10/bits/ios_base.h ****     { return _M_precision; }
 721:/usr/include/c++/10/bits/ios_base.h **** 
 722:/usr/include/c++/10/bits/ios_base.h ****     /**
 723:/usr/include/c++/10/bits/ios_base.h ****      *  @brief  Changing flags.
 724:/usr/include/c++/10/bits/ios_base.h ****      *  @param  __prec  The new precision value.
 725:/usr/include/c++/10/bits/ios_base.h ****      *  @return  The previous value of precision().
 726:/usr/include/c++/10/bits/ios_base.h ****     */
 727:/usr/include/c++/10/bits/ios_base.h ****     streamsize
 728:/usr/include/c++/10/bits/ios_base.h ****     precision(streamsize __prec)
 729:/usr/include/c++/10/bits/ios_base.h ****     {
 730:/usr/include/c++/10/bits/ios_base.h ****       streamsize __old = _M_precision;
 731:/usr/include/c++/10/bits/ios_base.h ****       _M_precision = __prec;
 126              		.loc 4 731 20 view .LVU18
 127 004c 00805EF8 		ldr	x0, [x0, -24]
 128              	.LBE187:
 129              	.LBE186:
 130              	.LBE196:
 131              	.LBE267:
  10:Chapter13_1.cpp ****     const int w = 10;
 132              		.loc 1 10 1 view .LVU19
AARCH64 GAS  obj/Chapter13_1.s 			page 32


 133 0050 E827066D 		stp	d8, d9, [sp, 96]
 134              		.cfi_offset 72, -80
 135              		.cfi_offset 73, -72
 136              	.LBB268:
 137              	.LBB197:
 138              	.LBB191:
 139              	.LBB188:
 140              		.loc 4 731 20 view .LVU20
 141 0054 C50080D2 		mov	x5, 6
 142 0058 0000198B 		add	x0, x0, x25
 143              	.LBE188:
 144              	.LBE191:
 145              	.LBE197:
 146              	.LBE268:
 147              	.LBB269:
  13:Chapter13_1.cpp ****     size_t n_F = sizeof(F_vals)/sizeof(float);
  14:Chapter13_1.cpp ****     cout<<setprecision(6); 	
  15:Chapter13_1.cpp **** 	for(size_t i=0;i<n_F;i++){
 148              		.loc 1 15 13 view .LVU21
 149 005c 140080D2 		mov	x20, 0
 150              	.LBE269:
  12:Chapter13_1.cpp ****     size_t n_F = sizeof(F_vals)/sizeof(float);
 151              		.loc 1 12 11 view .LVU22
 152 0060 461C40A9 		ldp	x6, x7, [x2]
 153 0064 17000090 		adrp	x23, .LC4
 154 0068 421040B9 		ldr	w2, [x2, 16]
 155 006c 1A000090 		adrp	x26, .LC5
 156              	.LBB270:
 157              	.LBB198:
 158              	.LBB192:
 159              	.LBB189:
 160              		.loc 4 731 20 view .LVU23
 161 0070 050400F9 		str	x5, [x0, 8]
 162              	.LBE189:
 163              	.LBE192:
 164              	.LBE198:
 165              	.LBE270:
  12:Chapter13_1.cpp ****     size_t n_F = sizeof(F_vals)/sizeof(float);
 166              		.loc 1 12 11 view .LVU24
 167 0074 E61F08A9 		stp	x6, x7, [sp, 128]
 168 0078 E29300B9 		str	w2, [sp, 144]
  13:Chapter13_1.cpp ****     size_t n_F = sizeof(F_vals)/sizeof(float);
 169              		.loc 1 13 5 is_stmt 1 view .LVU25
 170              	.LVL3:
  14:Chapter13_1.cpp **** 	for(size_t i=0;i<n_F;i++){
 171              		.loc 1 14 5 view .LVU26
 196:/usr/include/c++/10/iomanip **** 
 172              		.loc 2 196 5 view .LVU27
 173              	.LBB271:
 174              	.LBI184:
 208:/usr/include/c++/10/iomanip ****     {
 175              		.loc 2 208 5 view .LVU28
 176              	.LBB199:
 177              	.LBB193:
 178              	.LBI186:
 728:/usr/include/c++/10/bits/ios_base.h ****     {
 179              		.loc 4 728 5 view .LVU29
AARCH64 GAS  obj/Chapter13_1.s 			page 33


 180              	.LBB190:
 730:/usr/include/c++/10/bits/ios_base.h ****       _M_precision = __prec;
 181              		.loc 4 730 7 view .LVU30
 182              		.loc 4 731 7 view .LVU31
 732:/usr/include/c++/10/bits/ios_base.h ****       return __old;
 183              		.loc 4 732 7 view .LVU32
 184              		.loc 4 732 7 is_stmt 0 view .LVU33
 185              	.LBE190:
 186              	.LBE193:
 187              	.LBE199:
 188              	.LBE271:
 189              		.loc 1 15 2 is_stmt 1 view .LVU34
 190              	.LBB272:
 191              		.loc 1 15 18 view .LVU35
 192              	.L2:
 193              	.LBB256:
  16:Chapter13_1.cpp **** 		float C = cvtFtoC_(F_vals[i]);
 194              		.loc 1 16 3 view .LVU36
 195              		.loc 1 16 21 is_stmt 0 view .LVU37
 196 007c 894740BC 		ldr	s9, [x28], 4
 197              	.LBB210:
 198              	.LBB211:
 199              	.LBB212:
 200              	.LBB213:
 733:/usr/include/c++/10/bits/ios_base.h ****     }
 734:/usr/include/c++/10/bits/ios_base.h **** 
 735:/usr/include/c++/10/bits/ios_base.h ****     /**
 736:/usr/include/c++/10/bits/ios_base.h ****      *  @brief  Flags access.
 737:/usr/include/c++/10/bits/ios_base.h ****      *  @return  The minimum field width to generate on output operations.
 738:/usr/include/c++/10/bits/ios_base.h ****      *
 739:/usr/include/c++/10/bits/ios_base.h ****      *  <em>Minimum field width</em> refers to the number of characters.
 740:/usr/include/c++/10/bits/ios_base.h ****     */
 741:/usr/include/c++/10/bits/ios_base.h ****     streamsize
 742:/usr/include/c++/10/bits/ios_base.h ****     width() const
 743:/usr/include/c++/10/bits/ios_base.h ****     { return _M_width; }
 744:/usr/include/c++/10/bits/ios_base.h **** 
 745:/usr/include/c++/10/bits/ios_base.h ****     /**
 746:/usr/include/c++/10/bits/ios_base.h ****      *  @brief  Changing flags.
 747:/usr/include/c++/10/bits/ios_base.h ****      *  @param  __wide  The new width value.
 748:/usr/include/c++/10/bits/ios_base.h ****      *  @return  The previous value of width().
 749:/usr/include/c++/10/bits/ios_base.h ****     */
 750:/usr/include/c++/10/bits/ios_base.h ****     streamsize
 751:/usr/include/c++/10/bits/ios_base.h ****     width(streamsize __wide)
 752:/usr/include/c++/10/bits/ios_base.h ****     {
 753:/usr/include/c++/10/bits/ios_base.h ****       streamsize __old = _M_width;
 754:/usr/include/c++/10/bits/ios_base.h ****       _M_width = __wide;
 201              		.loc 4 754 16 view .LVU38
 202 0080 530180D2 		mov	x19, 10
 203              	.LBE213:
 204              	.LBE212:
 205              	.LBE211:
 206              	.LBE210:
 207              	.LBB220:
 208              	.LBB221:
 209              		.loc 3 611 18 view .LVU39
 210 0084 55030091 		add	x21, x26, :lo12:.LC5
 211              	.LBE221:
AARCH64 GAS  obj/Chapter13_1.s 			page 34


 212              	.LBE220:
 213              		.loc 1 16 21 view .LVU40
 214 0088 2041201E 		fmov	s0, s9
 215 008c 00000094 		bl	cvtFtoC_
 216              	.LVL4:
 217 0090 0840201E 		fmov	s8, s0
 218              	.LVL5:
  17:Chapter13_1.cpp **** 		cout<<"i:"<<i;
 219              		.loc 1 17 3 is_stmt 1 view .LVU41
 220              	.LBB223:
 221              	.LBI207:
 606:/usr/include/c++/10/ostream ****     {
 222              		.loc 3 606 5 view .LVU42
 606:/usr/include/c++/10/ostream ****     {
 223              		.loc 3 606 5 is_stmt 0 view .LVU43
 224              	.LBE223:
 225              	.LBE256:
 226              	.LBE272:
 227              		.file 5 "/usr/include/c++/10/bits/char_traits.h"
   1:/usr/include/c++/10/bits/char_traits.h **** // Character Traits for use by standard string and iostream -*- C++ -*-
   2:/usr/include/c++/10/bits/char_traits.h **** 
   3:/usr/include/c++/10/bits/char_traits.h **** // Copyright (C) 1997-2020 Free Software Foundation, Inc.
   4:/usr/include/c++/10/bits/char_traits.h **** //
   5:/usr/include/c++/10/bits/char_traits.h **** // This file is part of the GNU ISO C++ Library.  This library is free
   6:/usr/include/c++/10/bits/char_traits.h **** // software; you can redistribute it and/or modify it under the
   7:/usr/include/c++/10/bits/char_traits.h **** // terms of the GNU General Public License as published by the
   8:/usr/include/c++/10/bits/char_traits.h **** // Free Software Foundation; either version 3, or (at your option)
   9:/usr/include/c++/10/bits/char_traits.h **** // any later version.
  10:/usr/include/c++/10/bits/char_traits.h **** 
  11:/usr/include/c++/10/bits/char_traits.h **** // This library is distributed in the hope that it will be useful,
  12:/usr/include/c++/10/bits/char_traits.h **** // but WITHOUT ANY WARRANTY; without even the implied warranty of
  13:/usr/include/c++/10/bits/char_traits.h **** // MERCHANTABILITY or FITNESS FOR A PARTICULAR PURPOSE.  See the
  14:/usr/include/c++/10/bits/char_traits.h **** // GNU General Public License for more details.
  15:/usr/include/c++/10/bits/char_traits.h **** 
  16:/usr/include/c++/10/bits/char_traits.h **** // Under Section 7 of GPL version 3, you are granted additional
  17:/usr/include/c++/10/bits/char_traits.h **** // permissions described in the GCC Runtime Library Exception, version
  18:/usr/include/c++/10/bits/char_traits.h **** // 3.1, as published by the Free Software Foundation.
  19:/usr/include/c++/10/bits/char_traits.h **** 
  20:/usr/include/c++/10/bits/char_traits.h **** // You should have received a copy of the GNU General Public License and
  21:/usr/include/c++/10/bits/char_traits.h **** // a copy of the GCC Runtime Library Exception along with this program;
  22:/usr/include/c++/10/bits/char_traits.h **** // see the files COPYING3 and COPYING.RUNTIME respectively.  If not, see
  23:/usr/include/c++/10/bits/char_traits.h **** // <http://www.gnu.org/licenses/>.
  24:/usr/include/c++/10/bits/char_traits.h **** 
  25:/usr/include/c++/10/bits/char_traits.h **** /** @file bits/char_traits.h
  26:/usr/include/c++/10/bits/char_traits.h ****  *  This is an internal header file, included by other library headers.
  27:/usr/include/c++/10/bits/char_traits.h ****  *  Do not attempt to use it directly. @headername{string}
  28:/usr/include/c++/10/bits/char_traits.h ****  */
  29:/usr/include/c++/10/bits/char_traits.h **** 
  30:/usr/include/c++/10/bits/char_traits.h **** //
  31:/usr/include/c++/10/bits/char_traits.h **** // ISO C++ 14882: 21  Strings library
  32:/usr/include/c++/10/bits/char_traits.h **** //
  33:/usr/include/c++/10/bits/char_traits.h **** 
  34:/usr/include/c++/10/bits/char_traits.h **** #ifndef _CHAR_TRAITS_H
  35:/usr/include/c++/10/bits/char_traits.h **** #define _CHAR_TRAITS_H 1
  36:/usr/include/c++/10/bits/char_traits.h **** 
  37:/usr/include/c++/10/bits/char_traits.h **** #pragma GCC system_header
  38:/usr/include/c++/10/bits/char_traits.h **** 
AARCH64 GAS  obj/Chapter13_1.s 			page 35


  39:/usr/include/c++/10/bits/char_traits.h **** #include <bits/stl_algobase.h>  // std::copy, std::fill_n
  40:/usr/include/c++/10/bits/char_traits.h **** #include <bits/postypes.h>      // For streampos
  41:/usr/include/c++/10/bits/char_traits.h **** #include <cwchar>               // For WEOF, wmemmove, wmemset, etc.
  42:/usr/include/c++/10/bits/char_traits.h **** #if __cplusplus > 201703L
  43:/usr/include/c++/10/bits/char_traits.h **** # include <compare>
  44:/usr/include/c++/10/bits/char_traits.h **** #endif
  45:/usr/include/c++/10/bits/char_traits.h **** 
  46:/usr/include/c++/10/bits/char_traits.h **** #ifndef _GLIBCXX_ALWAYS_INLINE
  47:/usr/include/c++/10/bits/char_traits.h **** # define _GLIBCXX_ALWAYS_INLINE inline __attribute__((__always_inline__))
  48:/usr/include/c++/10/bits/char_traits.h **** #endif
  49:/usr/include/c++/10/bits/char_traits.h **** 
  50:/usr/include/c++/10/bits/char_traits.h **** namespace __gnu_cxx _GLIBCXX_VISIBILITY(default)
  51:/usr/include/c++/10/bits/char_traits.h **** {
  52:/usr/include/c++/10/bits/char_traits.h **** _GLIBCXX_BEGIN_NAMESPACE_VERSION
  53:/usr/include/c++/10/bits/char_traits.h **** 
  54:/usr/include/c++/10/bits/char_traits.h ****   /**
  55:/usr/include/c++/10/bits/char_traits.h ****    *  @brief  Mapping from character type to associated types.
  56:/usr/include/c++/10/bits/char_traits.h ****    *
  57:/usr/include/c++/10/bits/char_traits.h ****    *  @note This is an implementation class for the generic version
  58:/usr/include/c++/10/bits/char_traits.h ****    *  of char_traits.  It defines int_type, off_type, pos_type, and
  59:/usr/include/c++/10/bits/char_traits.h ****    *  state_type.  By default these are unsigned long, streamoff,
  60:/usr/include/c++/10/bits/char_traits.h ****    *  streampos, and mbstate_t.  Users who need a different set of
  61:/usr/include/c++/10/bits/char_traits.h ****    *  types, but who don't need to change the definitions of any function
  62:/usr/include/c++/10/bits/char_traits.h ****    *  defined in char_traits, can specialize __gnu_cxx::_Char_types
  63:/usr/include/c++/10/bits/char_traits.h ****    *  while leaving __gnu_cxx::char_traits alone. */
  64:/usr/include/c++/10/bits/char_traits.h ****   template<typename _CharT>
  65:/usr/include/c++/10/bits/char_traits.h ****     struct _Char_types
  66:/usr/include/c++/10/bits/char_traits.h ****     {
  67:/usr/include/c++/10/bits/char_traits.h ****       typedef unsigned long   int_type;
  68:/usr/include/c++/10/bits/char_traits.h ****       typedef std::streampos  pos_type;
  69:/usr/include/c++/10/bits/char_traits.h ****       typedef std::streamoff  off_type;
  70:/usr/include/c++/10/bits/char_traits.h ****       typedef std::mbstate_t  state_type;
  71:/usr/include/c++/10/bits/char_traits.h ****     };
  72:/usr/include/c++/10/bits/char_traits.h **** 
  73:/usr/include/c++/10/bits/char_traits.h **** 
  74:/usr/include/c++/10/bits/char_traits.h ****   /**
  75:/usr/include/c++/10/bits/char_traits.h ****    *  @brief  Base class used to implement std::char_traits.
  76:/usr/include/c++/10/bits/char_traits.h ****    *
  77:/usr/include/c++/10/bits/char_traits.h ****    *  @note For any given actual character type, this definition is
  78:/usr/include/c++/10/bits/char_traits.h ****    *  probably wrong.  (Most of the member functions are likely to be
  79:/usr/include/c++/10/bits/char_traits.h ****    *  right, but the int_type and state_type typedefs, and the eof()
  80:/usr/include/c++/10/bits/char_traits.h ****    *  member function, are likely to be wrong.)  The reason this class
  81:/usr/include/c++/10/bits/char_traits.h ****    *  exists is so users can specialize it.  Classes in namespace std
  82:/usr/include/c++/10/bits/char_traits.h ****    *  may not be specialized for fundamental types, but classes in
  83:/usr/include/c++/10/bits/char_traits.h ****    *  namespace __gnu_cxx may be.
  84:/usr/include/c++/10/bits/char_traits.h ****    *
  85:/usr/include/c++/10/bits/char_traits.h ****    *  See https://gcc.gnu.org/onlinedocs/libstdc++/manual/strings.html#strings.string.character_typ
  86:/usr/include/c++/10/bits/char_traits.h ****    *  for advice on how to make use of this class for @a unusual character
  87:/usr/include/c++/10/bits/char_traits.h ****    *  types. Also, check out include/ext/pod_char_traits.h.  
  88:/usr/include/c++/10/bits/char_traits.h ****    */
  89:/usr/include/c++/10/bits/char_traits.h ****   template<typename _CharT>
  90:/usr/include/c++/10/bits/char_traits.h ****     struct char_traits
  91:/usr/include/c++/10/bits/char_traits.h ****     {
  92:/usr/include/c++/10/bits/char_traits.h ****       typedef _CharT                                    char_type;
  93:/usr/include/c++/10/bits/char_traits.h ****       typedef typename _Char_types<_CharT>::int_type    int_type;
  94:/usr/include/c++/10/bits/char_traits.h ****       typedef typename _Char_types<_CharT>::pos_type    pos_type;
  95:/usr/include/c++/10/bits/char_traits.h ****       typedef typename _Char_types<_CharT>::off_type    off_type;
AARCH64 GAS  obj/Chapter13_1.s 			page 36


  96:/usr/include/c++/10/bits/char_traits.h ****       typedef typename _Char_types<_CharT>::state_type  state_type;
  97:/usr/include/c++/10/bits/char_traits.h **** #if __cpp_lib_three_way_comparison
  98:/usr/include/c++/10/bits/char_traits.h ****       using comparison_category = std::strong_ordering;
  99:/usr/include/c++/10/bits/char_traits.h **** #endif
 100:/usr/include/c++/10/bits/char_traits.h **** 
 101:/usr/include/c++/10/bits/char_traits.h ****       static _GLIBCXX14_CONSTEXPR void
 102:/usr/include/c++/10/bits/char_traits.h ****       assign(char_type& __c1, const char_type& __c2)
 103:/usr/include/c++/10/bits/char_traits.h ****       { __c1 = __c2; }
 104:/usr/include/c++/10/bits/char_traits.h **** 
 105:/usr/include/c++/10/bits/char_traits.h ****       static _GLIBCXX_CONSTEXPR bool
 106:/usr/include/c++/10/bits/char_traits.h ****       eq(const char_type& __c1, const char_type& __c2)
 107:/usr/include/c++/10/bits/char_traits.h ****       { return __c1 == __c2; }
 108:/usr/include/c++/10/bits/char_traits.h **** 
 109:/usr/include/c++/10/bits/char_traits.h ****       static _GLIBCXX_CONSTEXPR bool
 110:/usr/include/c++/10/bits/char_traits.h ****       lt(const char_type& __c1, const char_type& __c2)
 111:/usr/include/c++/10/bits/char_traits.h ****       { return __c1 < __c2; }
 112:/usr/include/c++/10/bits/char_traits.h **** 
 113:/usr/include/c++/10/bits/char_traits.h ****       static _GLIBCXX14_CONSTEXPR int
 114:/usr/include/c++/10/bits/char_traits.h ****       compare(const char_type* __s1, const char_type* __s2, std::size_t __n);
 115:/usr/include/c++/10/bits/char_traits.h **** 
 116:/usr/include/c++/10/bits/char_traits.h ****       static _GLIBCXX14_CONSTEXPR std::size_t
 117:/usr/include/c++/10/bits/char_traits.h ****       length(const char_type* __s);
 118:/usr/include/c++/10/bits/char_traits.h **** 
 119:/usr/include/c++/10/bits/char_traits.h ****       static _GLIBCXX14_CONSTEXPR const char_type*
 120:/usr/include/c++/10/bits/char_traits.h ****       find(const char_type* __s, std::size_t __n, const char_type& __a);
 121:/usr/include/c++/10/bits/char_traits.h **** 
 122:/usr/include/c++/10/bits/char_traits.h ****       static _GLIBCXX20_CONSTEXPR char_type*
 123:/usr/include/c++/10/bits/char_traits.h ****       move(char_type* __s1, const char_type* __s2, std::size_t __n);
 124:/usr/include/c++/10/bits/char_traits.h **** 
 125:/usr/include/c++/10/bits/char_traits.h ****       static _GLIBCXX20_CONSTEXPR char_type*
 126:/usr/include/c++/10/bits/char_traits.h ****       copy(char_type* __s1, const char_type* __s2, std::size_t __n);
 127:/usr/include/c++/10/bits/char_traits.h **** 
 128:/usr/include/c++/10/bits/char_traits.h ****       static _GLIBCXX20_CONSTEXPR char_type*
 129:/usr/include/c++/10/bits/char_traits.h ****       assign(char_type* __s, std::size_t __n, char_type __a);
 130:/usr/include/c++/10/bits/char_traits.h **** 
 131:/usr/include/c++/10/bits/char_traits.h ****       static _GLIBCXX_CONSTEXPR char_type
 132:/usr/include/c++/10/bits/char_traits.h ****       to_char_type(const int_type& __c)
 133:/usr/include/c++/10/bits/char_traits.h ****       { return static_cast<char_type>(__c); }
 134:/usr/include/c++/10/bits/char_traits.h **** 
 135:/usr/include/c++/10/bits/char_traits.h ****       static _GLIBCXX_CONSTEXPR int_type
 136:/usr/include/c++/10/bits/char_traits.h ****       to_int_type(const char_type& __c)
 137:/usr/include/c++/10/bits/char_traits.h ****       { return static_cast<int_type>(__c); }
 138:/usr/include/c++/10/bits/char_traits.h **** 
 139:/usr/include/c++/10/bits/char_traits.h ****       static _GLIBCXX_CONSTEXPR bool
 140:/usr/include/c++/10/bits/char_traits.h ****       eq_int_type(const int_type& __c1, const int_type& __c2)
 141:/usr/include/c++/10/bits/char_traits.h ****       { return __c1 == __c2; }
 142:/usr/include/c++/10/bits/char_traits.h **** 
 143:/usr/include/c++/10/bits/char_traits.h ****       static _GLIBCXX_CONSTEXPR int_type
 144:/usr/include/c++/10/bits/char_traits.h ****       eof()
 145:/usr/include/c++/10/bits/char_traits.h ****       { return static_cast<int_type>(_GLIBCXX_STDIO_EOF); }
 146:/usr/include/c++/10/bits/char_traits.h **** 
 147:/usr/include/c++/10/bits/char_traits.h ****       static _GLIBCXX_CONSTEXPR int_type
 148:/usr/include/c++/10/bits/char_traits.h ****       not_eof(const int_type& __c)
 149:/usr/include/c++/10/bits/char_traits.h ****       { return !eq_int_type(__c, eof()) ? __c : to_int_type(char_type()); }
 150:/usr/include/c++/10/bits/char_traits.h ****     };
 151:/usr/include/c++/10/bits/char_traits.h **** 
 152:/usr/include/c++/10/bits/char_traits.h ****   template<typename _CharT>
AARCH64 GAS  obj/Chapter13_1.s 			page 37


 153:/usr/include/c++/10/bits/char_traits.h ****     _GLIBCXX14_CONSTEXPR int
 154:/usr/include/c++/10/bits/char_traits.h ****     char_traits<_CharT>::
 155:/usr/include/c++/10/bits/char_traits.h ****     compare(const char_type* __s1, const char_type* __s2, std::size_t __n)
 156:/usr/include/c++/10/bits/char_traits.h ****     {
 157:/usr/include/c++/10/bits/char_traits.h ****       for (std::size_t __i = 0; __i < __n; ++__i)
 158:/usr/include/c++/10/bits/char_traits.h **** 	if (lt(__s1[__i], __s2[__i]))
 159:/usr/include/c++/10/bits/char_traits.h **** 	  return -1;
 160:/usr/include/c++/10/bits/char_traits.h **** 	else if (lt(__s2[__i], __s1[__i]))
 161:/usr/include/c++/10/bits/char_traits.h **** 	  return 1;
 162:/usr/include/c++/10/bits/char_traits.h ****       return 0;
 163:/usr/include/c++/10/bits/char_traits.h ****     }
 164:/usr/include/c++/10/bits/char_traits.h **** 
 165:/usr/include/c++/10/bits/char_traits.h ****   template<typename _CharT>
 166:/usr/include/c++/10/bits/char_traits.h ****     _GLIBCXX14_CONSTEXPR std::size_t
 167:/usr/include/c++/10/bits/char_traits.h ****     char_traits<_CharT>::
 168:/usr/include/c++/10/bits/char_traits.h ****     length(const char_type* __p)
 169:/usr/include/c++/10/bits/char_traits.h ****     {
 170:/usr/include/c++/10/bits/char_traits.h ****       std::size_t __i = 0;
 171:/usr/include/c++/10/bits/char_traits.h ****       while (!eq(__p[__i], char_type()))
 172:/usr/include/c++/10/bits/char_traits.h ****         ++__i;
 173:/usr/include/c++/10/bits/char_traits.h ****       return __i;
 174:/usr/include/c++/10/bits/char_traits.h ****     }
 175:/usr/include/c++/10/bits/char_traits.h **** 
 176:/usr/include/c++/10/bits/char_traits.h ****   template<typename _CharT>
 177:/usr/include/c++/10/bits/char_traits.h ****     _GLIBCXX14_CONSTEXPR const typename char_traits<_CharT>::char_type*
 178:/usr/include/c++/10/bits/char_traits.h ****     char_traits<_CharT>::
 179:/usr/include/c++/10/bits/char_traits.h ****     find(const char_type* __s, std::size_t __n, const char_type& __a)
 180:/usr/include/c++/10/bits/char_traits.h ****     {
 181:/usr/include/c++/10/bits/char_traits.h ****       for (std::size_t __i = 0; __i < __n; ++__i)
 182:/usr/include/c++/10/bits/char_traits.h ****         if (eq(__s[__i], __a))
 183:/usr/include/c++/10/bits/char_traits.h ****           return __s + __i;
 184:/usr/include/c++/10/bits/char_traits.h ****       return 0;
 185:/usr/include/c++/10/bits/char_traits.h ****     }
 186:/usr/include/c++/10/bits/char_traits.h **** 
 187:/usr/include/c++/10/bits/char_traits.h ****   template<typename _CharT>
 188:/usr/include/c++/10/bits/char_traits.h ****     _GLIBCXX20_CONSTEXPR
 189:/usr/include/c++/10/bits/char_traits.h ****     typename char_traits<_CharT>::char_type*
 190:/usr/include/c++/10/bits/char_traits.h ****     char_traits<_CharT>::
 191:/usr/include/c++/10/bits/char_traits.h ****     move(char_type* __s1, const char_type* __s2, std::size_t __n)
 192:/usr/include/c++/10/bits/char_traits.h ****     {
 193:/usr/include/c++/10/bits/char_traits.h ****       if (__n == 0)
 194:/usr/include/c++/10/bits/char_traits.h **** 	return __s1;
 195:/usr/include/c++/10/bits/char_traits.h **** #ifdef __cpp_lib_is_constant_evaluated
 196:/usr/include/c++/10/bits/char_traits.h ****       if (std::is_constant_evaluated())
 197:/usr/include/c++/10/bits/char_traits.h **** 	{
 198:/usr/include/c++/10/bits/char_traits.h **** 	  if (__s1 > __s2 && __s1 < __s2 + __n)
 199:/usr/include/c++/10/bits/char_traits.h **** 	    std::copy_backward(__s2, __s2 + __n, __s1);
 200:/usr/include/c++/10/bits/char_traits.h **** 	  else
 201:/usr/include/c++/10/bits/char_traits.h **** 	    std::copy(__s2, __s2 + __n, __s1);
 202:/usr/include/c++/10/bits/char_traits.h **** 	  return __s1;
 203:/usr/include/c++/10/bits/char_traits.h **** 	}
 204:/usr/include/c++/10/bits/char_traits.h **** #endif
 205:/usr/include/c++/10/bits/char_traits.h ****       return static_cast<_CharT*>(__builtin_memmove(__s1, __s2,
 206:/usr/include/c++/10/bits/char_traits.h **** 						    __n * sizeof(char_type)));
 207:/usr/include/c++/10/bits/char_traits.h ****     }
 208:/usr/include/c++/10/bits/char_traits.h **** 
 209:/usr/include/c++/10/bits/char_traits.h ****   template<typename _CharT>
AARCH64 GAS  obj/Chapter13_1.s 			page 38


 210:/usr/include/c++/10/bits/char_traits.h ****     _GLIBCXX20_CONSTEXPR
 211:/usr/include/c++/10/bits/char_traits.h ****     typename char_traits<_CharT>::char_type*
 212:/usr/include/c++/10/bits/char_traits.h ****     char_traits<_CharT>::
 213:/usr/include/c++/10/bits/char_traits.h ****     copy(char_type* __s1, const char_type* __s2, std::size_t __n)
 214:/usr/include/c++/10/bits/char_traits.h ****     {
 215:/usr/include/c++/10/bits/char_traits.h ****       // NB: Inline std::copy so no recursive dependencies.
 216:/usr/include/c++/10/bits/char_traits.h ****       std::copy(__s2, __s2 + __n, __s1);
 217:/usr/include/c++/10/bits/char_traits.h ****       return __s1;
 218:/usr/include/c++/10/bits/char_traits.h ****     }
 219:/usr/include/c++/10/bits/char_traits.h **** 
 220:/usr/include/c++/10/bits/char_traits.h ****   template<typename _CharT>
 221:/usr/include/c++/10/bits/char_traits.h ****     _GLIBCXX20_CONSTEXPR
 222:/usr/include/c++/10/bits/char_traits.h ****     typename char_traits<_CharT>::char_type*
 223:/usr/include/c++/10/bits/char_traits.h ****     char_traits<_CharT>::
 224:/usr/include/c++/10/bits/char_traits.h ****     assign(char_type* __s, std::size_t __n, char_type __a)
 225:/usr/include/c++/10/bits/char_traits.h ****     {
 226:/usr/include/c++/10/bits/char_traits.h ****       // NB: Inline std::fill_n so no recursive dependencies.
 227:/usr/include/c++/10/bits/char_traits.h ****       std::fill_n(__s, __n, __a);
 228:/usr/include/c++/10/bits/char_traits.h ****       return __s;
 229:/usr/include/c++/10/bits/char_traits.h ****     }
 230:/usr/include/c++/10/bits/char_traits.h **** 
 231:/usr/include/c++/10/bits/char_traits.h **** _GLIBCXX_END_NAMESPACE_VERSION
 232:/usr/include/c++/10/bits/char_traits.h **** } // namespace
 233:/usr/include/c++/10/bits/char_traits.h **** 
 234:/usr/include/c++/10/bits/char_traits.h **** namespace std _GLIBCXX_VISIBILITY(default)
 235:/usr/include/c++/10/bits/char_traits.h **** {
 236:/usr/include/c++/10/bits/char_traits.h **** _GLIBCXX_BEGIN_NAMESPACE_VERSION
 237:/usr/include/c++/10/bits/char_traits.h **** 
 238:/usr/include/c++/10/bits/char_traits.h **** #if __cplusplus >= 201703L
 239:/usr/include/c++/10/bits/char_traits.h **** 
 240:/usr/include/c++/10/bits/char_traits.h **** #if __cplusplus == 201703L
 241:/usr/include/c++/10/bits/char_traits.h **** // Unofficial macro indicating P0426R1 support
 242:/usr/include/c++/10/bits/char_traits.h **** # define __cpp_lib_constexpr_char_traits 201611L
 243:/usr/include/c++/10/bits/char_traits.h **** #else
 244:/usr/include/c++/10/bits/char_traits.h **** // Also support P1032R1 in C++20
 245:/usr/include/c++/10/bits/char_traits.h **** # define __cpp_lib_constexpr_char_traits 201811L
 246:/usr/include/c++/10/bits/char_traits.h **** #endif
 247:/usr/include/c++/10/bits/char_traits.h **** 
 248:/usr/include/c++/10/bits/char_traits.h ****   /**
 249:/usr/include/c++/10/bits/char_traits.h ****    *  @brief Determine whether the characters of a NULL-terminated
 250:/usr/include/c++/10/bits/char_traits.h ****    *  string are known at compile time.
 251:/usr/include/c++/10/bits/char_traits.h ****    *  @param  __s  The string.
 252:/usr/include/c++/10/bits/char_traits.h ****    *
 253:/usr/include/c++/10/bits/char_traits.h ****    *  Assumes that _CharT is a built-in character type.
 254:/usr/include/c++/10/bits/char_traits.h ****    */
 255:/usr/include/c++/10/bits/char_traits.h ****   template<typename _CharT>
 256:/usr/include/c++/10/bits/char_traits.h ****     static _GLIBCXX_ALWAYS_INLINE constexpr bool
 257:/usr/include/c++/10/bits/char_traits.h ****     __constant_string_p(const _CharT* __s)
 258:/usr/include/c++/10/bits/char_traits.h ****     {
 259:/usr/include/c++/10/bits/char_traits.h **** #ifdef _GLIBCXX_HAVE_BUILTIN_IS_CONSTANT_EVALUATED
 260:/usr/include/c++/10/bits/char_traits.h ****       (void) __s;
 261:/usr/include/c++/10/bits/char_traits.h ****       // In constexpr contexts all strings should be constant.
 262:/usr/include/c++/10/bits/char_traits.h ****       return __builtin_is_constant_evaluated();
 263:/usr/include/c++/10/bits/char_traits.h **** #else
 264:/usr/include/c++/10/bits/char_traits.h ****       while (__builtin_constant_p(*__s) && *__s)
 265:/usr/include/c++/10/bits/char_traits.h **** 	__s++;
 266:/usr/include/c++/10/bits/char_traits.h ****       return __builtin_constant_p(*__s);
AARCH64 GAS  obj/Chapter13_1.s 			page 39


 267:/usr/include/c++/10/bits/char_traits.h **** #endif
 268:/usr/include/c++/10/bits/char_traits.h ****     }
 269:/usr/include/c++/10/bits/char_traits.h **** 
 270:/usr/include/c++/10/bits/char_traits.h ****   /**
 271:/usr/include/c++/10/bits/char_traits.h ****    *  @brief Determine whether the characters of a character array are
 272:/usr/include/c++/10/bits/char_traits.h ****    *  known at compile time.
 273:/usr/include/c++/10/bits/char_traits.h ****    *  @param  __a  The character array.
 274:/usr/include/c++/10/bits/char_traits.h ****    *  @param  __n  Number of characters.
 275:/usr/include/c++/10/bits/char_traits.h ****    *
 276:/usr/include/c++/10/bits/char_traits.h ****    *  Assumes that _CharT is a built-in character type.
 277:/usr/include/c++/10/bits/char_traits.h ****    */
 278:/usr/include/c++/10/bits/char_traits.h ****   template<typename _CharT>
 279:/usr/include/c++/10/bits/char_traits.h ****     static _GLIBCXX_ALWAYS_INLINE constexpr bool
 280:/usr/include/c++/10/bits/char_traits.h ****     __constant_char_array_p(const _CharT* __a, size_t __n)
 281:/usr/include/c++/10/bits/char_traits.h ****     {
 282:/usr/include/c++/10/bits/char_traits.h **** #ifdef _GLIBCXX_HAVE_BUILTIN_IS_CONSTANT_EVALUATED
 283:/usr/include/c++/10/bits/char_traits.h ****       (void) __a;
 284:/usr/include/c++/10/bits/char_traits.h ****       (void) __n;
 285:/usr/include/c++/10/bits/char_traits.h ****       // In constexpr contexts all character arrays should be constant.
 286:/usr/include/c++/10/bits/char_traits.h ****       return __builtin_is_constant_evaluated();
 287:/usr/include/c++/10/bits/char_traits.h **** #else
 288:/usr/include/c++/10/bits/char_traits.h ****       size_t __i = 0;
 289:/usr/include/c++/10/bits/char_traits.h ****       while (__i < __n && __builtin_constant_p(__a[__i]))
 290:/usr/include/c++/10/bits/char_traits.h **** 	__i++;
 291:/usr/include/c++/10/bits/char_traits.h ****       return __i == __n;
 292:/usr/include/c++/10/bits/char_traits.h **** #endif
 293:/usr/include/c++/10/bits/char_traits.h ****     }
 294:/usr/include/c++/10/bits/char_traits.h **** #endif
 295:/usr/include/c++/10/bits/char_traits.h **** 
 296:/usr/include/c++/10/bits/char_traits.h ****   // 21.1
 297:/usr/include/c++/10/bits/char_traits.h ****   /**
 298:/usr/include/c++/10/bits/char_traits.h ****    *  @brief  Basis for explicit traits specializations.
 299:/usr/include/c++/10/bits/char_traits.h ****    *
 300:/usr/include/c++/10/bits/char_traits.h ****    *  @note  For any given actual character type, this definition is
 301:/usr/include/c++/10/bits/char_traits.h ****    *  probably wrong.  Since this is just a thin wrapper around
 302:/usr/include/c++/10/bits/char_traits.h ****    *  __gnu_cxx::char_traits, it is possible to achieve a more
 303:/usr/include/c++/10/bits/char_traits.h ****    *  appropriate definition by specializing __gnu_cxx::char_traits.
 304:/usr/include/c++/10/bits/char_traits.h ****    *
 305:/usr/include/c++/10/bits/char_traits.h ****    *  See https://gcc.gnu.org/onlinedocs/libstdc++/manual/strings.html#strings.string.character_typ
 306:/usr/include/c++/10/bits/char_traits.h ****    *  for advice on how to make use of this class for @a unusual character
 307:/usr/include/c++/10/bits/char_traits.h ****    *  types. Also, check out include/ext/pod_char_traits.h.
 308:/usr/include/c++/10/bits/char_traits.h ****   */
 309:/usr/include/c++/10/bits/char_traits.h ****   template<class _CharT>
 310:/usr/include/c++/10/bits/char_traits.h ****     struct char_traits : public __gnu_cxx::char_traits<_CharT>
 311:/usr/include/c++/10/bits/char_traits.h ****     { };
 312:/usr/include/c++/10/bits/char_traits.h **** 
 313:/usr/include/c++/10/bits/char_traits.h **** 
 314:/usr/include/c++/10/bits/char_traits.h ****   /// 21.1.3.1  char_traits specializations
 315:/usr/include/c++/10/bits/char_traits.h ****   template<>
 316:/usr/include/c++/10/bits/char_traits.h ****     struct char_traits<char>
 317:/usr/include/c++/10/bits/char_traits.h ****     {
 318:/usr/include/c++/10/bits/char_traits.h ****       typedef char              char_type;
 319:/usr/include/c++/10/bits/char_traits.h ****       typedef int               int_type;
 320:/usr/include/c++/10/bits/char_traits.h ****       typedef streampos         pos_type;
 321:/usr/include/c++/10/bits/char_traits.h ****       typedef streamoff         off_type;
 322:/usr/include/c++/10/bits/char_traits.h ****       typedef mbstate_t         state_type;
 323:/usr/include/c++/10/bits/char_traits.h **** #if __cpp_lib_three_way_comparison
AARCH64 GAS  obj/Chapter13_1.s 			page 40


 324:/usr/include/c++/10/bits/char_traits.h ****       using comparison_category = strong_ordering;
 325:/usr/include/c++/10/bits/char_traits.h **** #endif
 326:/usr/include/c++/10/bits/char_traits.h **** 
 327:/usr/include/c++/10/bits/char_traits.h ****       static _GLIBCXX17_CONSTEXPR void
 328:/usr/include/c++/10/bits/char_traits.h ****       assign(char_type& __c1, const char_type& __c2) _GLIBCXX_NOEXCEPT
 329:/usr/include/c++/10/bits/char_traits.h ****       { __c1 = __c2; }
 330:/usr/include/c++/10/bits/char_traits.h **** 
 331:/usr/include/c++/10/bits/char_traits.h ****       static _GLIBCXX_CONSTEXPR bool
 332:/usr/include/c++/10/bits/char_traits.h ****       eq(const char_type& __c1, const char_type& __c2) _GLIBCXX_NOEXCEPT
 333:/usr/include/c++/10/bits/char_traits.h ****       { return __c1 == __c2; }
 334:/usr/include/c++/10/bits/char_traits.h **** 
 335:/usr/include/c++/10/bits/char_traits.h ****       static _GLIBCXX_CONSTEXPR bool
 336:/usr/include/c++/10/bits/char_traits.h ****       lt(const char_type& __c1, const char_type& __c2) _GLIBCXX_NOEXCEPT
 337:/usr/include/c++/10/bits/char_traits.h ****       {
 338:/usr/include/c++/10/bits/char_traits.h **** 	// LWG 467.
 339:/usr/include/c++/10/bits/char_traits.h **** 	return (static_cast<unsigned char>(__c1)
 340:/usr/include/c++/10/bits/char_traits.h **** 		< static_cast<unsigned char>(__c2));
 341:/usr/include/c++/10/bits/char_traits.h ****       }
 342:/usr/include/c++/10/bits/char_traits.h **** 
 343:/usr/include/c++/10/bits/char_traits.h ****       static _GLIBCXX17_CONSTEXPR int
 344:/usr/include/c++/10/bits/char_traits.h ****       compare(const char_type* __s1, const char_type* __s2, size_t __n)
 345:/usr/include/c++/10/bits/char_traits.h ****       {
 346:/usr/include/c++/10/bits/char_traits.h **** 	if (__n == 0)
 347:/usr/include/c++/10/bits/char_traits.h **** 	  return 0;
 348:/usr/include/c++/10/bits/char_traits.h **** #if __cplusplus >= 201703L
 349:/usr/include/c++/10/bits/char_traits.h **** 	if (__builtin_constant_p(__n)
 350:/usr/include/c++/10/bits/char_traits.h **** 	    && __constant_char_array_p(__s1, __n)
 351:/usr/include/c++/10/bits/char_traits.h **** 	    && __constant_char_array_p(__s2, __n))
 352:/usr/include/c++/10/bits/char_traits.h **** 	  return __gnu_cxx::char_traits<char_type>::compare(__s1, __s2, __n);
 353:/usr/include/c++/10/bits/char_traits.h **** #endif
 354:/usr/include/c++/10/bits/char_traits.h **** 	return __builtin_memcmp(__s1, __s2, __n);
 355:/usr/include/c++/10/bits/char_traits.h ****       }
 356:/usr/include/c++/10/bits/char_traits.h **** 
 357:/usr/include/c++/10/bits/char_traits.h ****       static _GLIBCXX17_CONSTEXPR size_t
 358:/usr/include/c++/10/bits/char_traits.h ****       length(const char_type* __s)
 359:/usr/include/c++/10/bits/char_traits.h ****       {
 360:/usr/include/c++/10/bits/char_traits.h **** #if __cplusplus >= 201703L
 361:/usr/include/c++/10/bits/char_traits.h **** 	if (__constant_string_p(__s))
 362:/usr/include/c++/10/bits/char_traits.h **** 	  return __gnu_cxx::char_traits<char_type>::length(__s);
 363:/usr/include/c++/10/bits/char_traits.h **** #endif
 364:/usr/include/c++/10/bits/char_traits.h **** 	return __builtin_strlen(__s);
 228              		.loc 5 364 2 is_stmt 1 view .LVU44
 229              	.LBB273:
 230              	.LBB257:
 231              	.LBB224:
 232              	.LBB209:
 233              		.loc 3 611 18 is_stmt 0 view .LVU45
 234 0094 420080D2 		mov	x2, 2
 235 0098 E10316AA 		mov	x1, x22
 236 009c E00319AA 		mov	x0, x25
 237 00a0 00000094 		bl	_ZSt16__ostream_insertIcSt11char_traitsIcEERSt13basic_ostreamIT_T0_ES6_PKS3_l
 238              	.LVL6:
 239              		.loc 3 611 18 view .LVU46
 240              	.LBE209:
 241              	.LBE224:
 242              	.LBB225:
 243              	.LBI225:
AARCH64 GAS  obj/Chapter13_1.s 			page 41


 170:/usr/include/c++/10/ostream ****       { return _M_insert(__n); }
 244              		.loc 3 170 7 is_stmt 1 view .LVU47
 245              	.LBB226:
 171:/usr/include/c++/10/ostream **** 
 246              		.loc 3 171 25 is_stmt 0 view .LVU48
 247 00a4 E10314AA 		mov	x1, x20
 248 00a8 E00319AA 		mov	x0, x25
 249 00ac 00000094 		bl	_ZNSo9_M_insertImEERSoT_
 250              	.LVL7:
 171:/usr/include/c++/10/ostream **** 
 251              		.loc 3 171 25 view .LVU49
 252              	.LBE226:
 253              	.LBE225:
  18:Chapter13_1.cpp **** 		cout<<"F:"<<setw(w)<<F_vals[i]<<" ";
 254              		.loc 1 18 3 is_stmt 1 view .LVU50
 255              	.LBB227:
 256              	.LBI202:
 606:/usr/include/c++/10/ostream ****     {
 257              		.loc 3 606 5 view .LVU51
 606:/usr/include/c++/10/ostream ****     {
 258              		.loc 3 606 5 is_stmt 0 view .LVU52
 259              	.LBE227:
 260              	.LBE257:
 261              	.LBE273:
 262              		.loc 5 364 2 is_stmt 1 view .LVU53
 263              	.LBB274:
  15:Chapter13_1.cpp **** 		float C = cvtFtoC_(F_vals[i]);
 264              		.loc 1 15 2 is_stmt 0 view .LVU54
 265 00b0 94060091 		add	x20, x20, 1
 266              	.LVL8:
 267              	.LBB258:
 268              	.LBB228:
 269              	.LBB205:
 270              		.loc 3 611 18 view .LVU55
 271 00b4 420080D2 		mov	x2, 2
 272 00b8 E1031BAA 		mov	x1, x27
 273 00bc E00319AA 		mov	x0, x25
 274 00c0 00000094 		bl	_ZSt16__ostream_insertIcSt11char_traitsIcEERSt13basic_ostreamIT_T0_ES6_PKS3_l
 275              	.LVL9:
 276              		.loc 3 611 18 view .LVU56
 277              	.LBE205:
 278              	.LBE228:
 279              	.LBE258:
 280              	.LBE274:
 211:/usr/include/c++/10/iomanip ****       return __os;
 212:/usr/include/c++/10/iomanip ****     }
 213:/usr/include/c++/10/iomanip **** 
 214:/usr/include/c++/10/iomanip **** 
 215:/usr/include/c++/10/iomanip ****   struct _Setw { int _M_n; };
 216:/usr/include/c++/10/iomanip **** 
 217:/usr/include/c++/10/iomanip ****   /**
 218:/usr/include/c++/10/iomanip ****    *  @brief  Manipulator for @c width.
 219:/usr/include/c++/10/iomanip ****    *  @param  __n  The new width.
 220:/usr/include/c++/10/iomanip ****    *
 221:/usr/include/c++/10/iomanip ****    *  Sent to a stream object, this manipulator calls @c width(__n) for
 222:/usr/include/c++/10/iomanip ****    *  that object.
 223:/usr/include/c++/10/iomanip ****   */
AARCH64 GAS  obj/Chapter13_1.s 			page 42


 224:/usr/include/c++/10/iomanip ****   inline _Setw
 225:/usr/include/c++/10/iomanip ****   setw(int __n)
 226:/usr/include/c++/10/iomanip ****   { return { __n }; }
 281              		.loc 2 226 5 is_stmt 1 view .LVU57
 282              	.LBB275:
 283              	.LBB259:
 284              	.LBB229:
 285              	.LBI210:
 227:/usr/include/c++/10/iomanip **** 
 228:/usr/include/c++/10/iomanip ****   template<typename _CharT, typename _Traits>
 229:/usr/include/c++/10/iomanip ****     inline basic_istream<_CharT, _Traits>&
 230:/usr/include/c++/10/iomanip ****     operator>>(basic_istream<_CharT, _Traits>& __is, _Setw __f)
 231:/usr/include/c++/10/iomanip ****     {
 232:/usr/include/c++/10/iomanip ****       __is.width(__f._M_n);
 233:/usr/include/c++/10/iomanip ****       return __is;
 234:/usr/include/c++/10/iomanip ****     }
 235:/usr/include/c++/10/iomanip **** 
 236:/usr/include/c++/10/iomanip ****   template<typename _CharT, typename _Traits>
 237:/usr/include/c++/10/iomanip ****     inline basic_ostream<_CharT, _Traits>&
 238:/usr/include/c++/10/iomanip ****     operator<<(basic_ostream<_CharT, _Traits>& __os, _Setw __f)
 286              		.loc 2 238 5 view .LVU58
 287              	.LBB218:
 288              	.LBB216:
 289              	.LBI212:
 751:/usr/include/c++/10/bits/ios_base.h ****     {
 290              		.loc 4 751 5 view .LVU59
 291              	.LBB214:
 753:/usr/include/c++/10/bits/ios_base.h ****       _M_width = __wide;
 292              		.loc 4 753 7 view .LVU60
 293              		.loc 4 754 7 view .LVU61
 294              	.LBE214:
 295              	.LBE216:
 239:/usr/include/c++/10/iomanip ****     {
 240:/usr/include/c++/10/iomanip ****       __os.width(__f._M_n);
 296              		.loc 2 240 17 is_stmt 0 view .LVU62
 297 00c4 210340F9 		ldr	x1, [x25]
 298              	.LBE218:
 299              	.LBE229:
 300              	.LBB230:
 301              	.LBB231:
 228:/usr/include/c++/10/ostream ****       }
 302              		.loc 3 228 18 view .LVU63
 303 00c8 20C1221E 		fcvt	d0, s9
 304 00cc E00319AA 		mov	x0, x25
 305              	.LBE231:
 306              	.LBE230:
 307              	.LBB233:
 308              	.LBB219:
 309              	.LBB217:
 310              	.LBB215:
 311              		.loc 4 754 16 view .LVU64
 312 00d0 21805EF8 		ldr	x1, [x1, -24]
 313 00d4 2103018B 		add	x1, x25, x1
 314 00d8 330800F9 		str	x19, [x1, 16]
 315              	.LVL10:
 755:/usr/include/c++/10/bits/ios_base.h ****       return __old;
 316              		.loc 4 755 7 is_stmt 1 view .LVU65
AARCH64 GAS  obj/Chapter13_1.s 			page 43


 317              		.loc 4 755 7 is_stmt 0 view .LVU66
 318              	.LBE215:
 319              	.LBE217:
 320              	.LBE219:
 321              	.LBE233:
 322              	.LBB234:
 323              	.LBI230:
 224:/usr/include/c++/10/ostream ****       {
 324              		.loc 3 224 7 is_stmt 1 view .LVU67
 325              	.LBB232:
 228:/usr/include/c++/10/ostream ****       }
 326              		.loc 3 228 18 is_stmt 0 view .LVU68
 327 00dc 00000094 		bl	_ZNSo9_M_insertIdEERSoT_
 328              	.LVL11:
 228:/usr/include/c++/10/ostream ****       }
 329              		.loc 3 228 18 view .LVU69
 330              	.LBE232:
 331              	.LBE234:
 332              	.LBB235:
 333              	.LBI235:
 606:/usr/include/c++/10/ostream ****     {
 334              		.loc 3 606 5 is_stmt 1 view .LVU70
 606:/usr/include/c++/10/ostream ****     {
 335              		.loc 3 606 5 is_stmt 0 view .LVU71
 336              	.LBE235:
 337              	.LBE259:
 338              	.LBE275:
 339              		.loc 5 364 2 is_stmt 1 view .LVU72
 340              	.LBB276:
 341              	.LBB260:
 342              	.LBB237:
 343              	.LBB236:
 344              		.loc 3 611 18 is_stmt 0 view .LVU73
 345 00e0 E1020091 		add	x1, x23, :lo12:.LC4
 346 00e4 220080D2 		mov	x2, 1
 347 00e8 00000094 		bl	_ZSt16__ostream_insertIcSt11char_traitsIcEERSt13basic_ostreamIT_T0_ES6_PKS3_l
 348              	.LVL12:
 349              		.loc 3 611 18 view .LVU74
 350              	.LBE236:
 351              	.LBE237:
  19:Chapter13_1.cpp **** 		cout<<"C:"<<setw(w)<<C<<'\n';
 352              		.loc 1 19 3 is_stmt 1 view .LVU75
 353              	.LBB238:
 354              	.LBI220:
 606:/usr/include/c++/10/ostream ****     {
 355              		.loc 3 606 5 view .LVU76
 606:/usr/include/c++/10/ostream ****     {
 356              		.loc 3 606 5 is_stmt 0 view .LVU77
 357              	.LBE238:
 358              	.LBE260:
 359              	.LBE276:
 360              		.loc 5 364 2 is_stmt 1 view .LVU78
 361              	.LBB277:
 362              	.LBB261:
 363              	.LBB239:
 364              	.LBB222:
 365              		.loc 3 611 18 is_stmt 0 view .LVU79
AARCH64 GAS  obj/Chapter13_1.s 			page 44


 366 00ec 420080D2 		mov	x2, 2
 367 00f0 E10315AA 		mov	x1, x21
 368 00f4 E00319AA 		mov	x0, x25
 369 00f8 00000094 		bl	_ZSt16__ostream_insertIcSt11char_traitsIcEERSt13basic_ostreamIT_T0_ES6_PKS3_l
 370              	.LVL13:
 371              		.loc 3 611 18 view .LVU80
 372              	.LBE222:
 373              	.LBE239:
 374              	.LBE261:
 375              	.LBE277:
 226:/usr/include/c++/10/iomanip **** 
 376              		.loc 2 226 5 is_stmt 1 view .LVU81
 377              	.LBB278:
 378              	.LBB262:
 379              	.LBB240:
 380              	.LBI240:
 238:/usr/include/c++/10/iomanip ****     {
 381              		.loc 2 238 5 view .LVU82
 382              	.LBB241:
 383              	.LBB242:
 384              	.LBI242:
 751:/usr/include/c++/10/bits/ios_base.h ****     {
 385              		.loc 4 751 5 view .LVU83
 386              	.LBB243:
 753:/usr/include/c++/10/bits/ios_base.h ****       _M_width = __wide;
 387              		.loc 4 753 7 view .LVU84
 754:/usr/include/c++/10/bits/ios_base.h ****       return __old;
 388              		.loc 4 754 7 view .LVU85
 389              	.LBE243:
 390              	.LBE242:
 391              		.loc 2 240 17 is_stmt 0 view .LVU86
 392 00fc 210340F9 		ldr	x1, [x25]
 393              	.LBE241:
 394              	.LBE240:
 395              	.LBB247:
 396              	.LBB248:
 228:/usr/include/c++/10/ostream ****       }
 397              		.loc 3 228 18 view .LVU87
 398 0100 00C1221E 		fcvt	d0, s8
 399 0104 E00319AA 		mov	x0, x25
 400              	.LBE248:
 401              	.LBE247:
 402              	.LBB250:
 403              	.LBB246:
 404              	.LBB245:
 405              	.LBB244:
 754:/usr/include/c++/10/bits/ios_base.h ****       return __old;
 406              		.loc 4 754 16 view .LVU88
 407 0108 21805EF8 		ldr	x1, [x1, -24]
 408 010c 2103018B 		add	x1, x25, x1
 409 0110 330800F9 		str	x19, [x1, 16]
 410              	.LVL14:
 411              		.loc 4 755 7 is_stmt 1 view .LVU89
 412              		.loc 4 755 7 is_stmt 0 view .LVU90
 413              	.LBE244:
 414              	.LBE245:
 415              	.LBE246:
AARCH64 GAS  obj/Chapter13_1.s 			page 45


 416              	.LBE250:
 417              	.LBB251:
 418              	.LBI247:
 224:/usr/include/c++/10/ostream ****       {
 419              		.loc 3 224 7 is_stmt 1 view .LVU91
 420              	.LBB249:
 228:/usr/include/c++/10/ostream ****       }
 421              		.loc 3 228 18 is_stmt 0 view .LVU92
 422 0114 00000094 		bl	_ZNSo9_M_insertIdEERSoT_
 423              	.LVL15:
 228:/usr/include/c++/10/ostream ****       }
 424              		.loc 3 228 18 view .LVU93
 425 0118 F3630239 		strb	w19, [sp, 152]
 426              	.LVL16:
 228:/usr/include/c++/10/ostream ****       }
 427              		.loc 3 228 18 view .LVU94
 428              	.LBE249:
 429              	.LBE251:
 430              	.LBB252:
 431              	.LBI252:
 517:/usr/include/c++/10/ostream ****     { return __ostream_insert(__out, &__c, 1); }
 432              		.loc 3 517 5 is_stmt 1 view .LVU95
 433              	.LBB253:
 518:/usr/include/c++/10/ostream **** 
 434              		.loc 3 518 30 is_stmt 0 view .LVU96
 435 011c E10318AA 		mov	x1, x24
 436 0120 220080D2 		mov	x2, 1
 437 0124 00000094 		bl	_ZSt16__ostream_insertIcSt11char_traitsIcEERSt13basic_ostreamIT_T0_ES6_PKS3_l
 438              	.LVL17:
 518:/usr/include/c++/10/ostream **** 
 439              		.loc 3 518 30 view .LVU97
 440              	.LBE253:
 441              	.LBE252:
 442              	.LBE262:
  15:Chapter13_1.cpp **** 		float C = cvtFtoC_(F_vals[i]);
 443              		.loc 1 15 2 is_stmt 1 view .LVU98
  15:Chapter13_1.cpp **** 		float C = cvtFtoC_(F_vals[i]);
 444              		.loc 1 15 18 view .LVU99
 445 0128 9F1600F1 		cmp	x20, 5
 446 012c 81FAFF54 		bne	.L2
 447              	.LBE278:
  20:Chapter13_1.cpp **** 	}
  21:Chapter13_1.cpp **** 	float C_vals[] = {100.0f,-10.0f,37.5f,4.05f,0.0f};
 448              		.loc 1 21 2 view .LVU100
 449              	.LBB279:
 450              	.LBB280:
 210:/usr/include/c++/10/iomanip ****       return __os;
 451              		.loc 2 210 21 is_stmt 0 view .LVU101
 452 0130 200340F9 		ldr	x0, [x25]
 453              	.LBE280:
 454              	.LBE279:
 455              		.loc 1 21 8 view .LVU102
 456 0134 01000090 		adrp	x1, .LANCHOR0
 457 0138 3C000091 		add	x28, x1, :lo12:.LANCHOR0
 458              	.LBB296:
 459              	.LBB291:
 460              	.LBB281:
AARCH64 GAS  obj/Chapter13_1.s 			page 46


 461              	.LBB282:
 731:/usr/include/c++/10/bits/ios_base.h ****       return __old;
 462              		.loc 4 731 20 view .LVU103
 463 013c C80080D2 		mov	x8, 6
 464              	.LBE282:
 465              	.LBE281:
 466              	.LBE291:
 467              	.LBE296:
 468              	.LBB297:
 469              	.LBB298:
 470              		.loc 3 611 18 view .LVU104
 471 0140 820180D2 		mov	x2, 12
 472              	.LBE298:
 473              	.LBE297:
 474              	.LBB302:
 475              	.LBB303:
 518:/usr/include/c++/10/ostream **** 
 476              		.loc 3 518 30 view .LVU105
 477 0144 FBFF0191 		add	x27, sp, 127
 478              	.LBE303:
 479              	.LBE302:
 480              	.LBB305:
 481              	.LBB292:
 482              	.LBB287:
 483              	.LBB283:
 731:/usr/include/c++/10/bits/ios_base.h ****       return __old;
 484              		.loc 4 731 20 view .LVU106
 485 0148 04805EF8 		ldr	x4, [x0, -24]
 486              	.LBE283:
 487              	.LBE287:
 488              	.LBE292:
 489              	.LBE305:
 490              	.LBB306:
 491              	.LBB299:
 492              		.loc 3 611 18 view .LVU107
 493 014c 01000090 		adrp	x1, .LC6
 494              	.LBE299:
 495              	.LBE306:
 496              		.loc 1 21 8 view .LVU108
 497 0150 869F41A9 		ldp	x6, x7, [x28, 24]
 498              	.LBB307:
 499              	.LBB293:
 500              	.LBB288:
 501              	.LBB284:
 731:/usr/include/c++/10/bits/ios_base.h ****       return __old;
 502              		.loc 4 731 20 view .LVU109
 503 0154 2403048B 		add	x4, x25, x4
 504              	.LBE284:
 505              	.LBE288:
 506              	.LBE293:
 507              	.LBE307:
 508              		.loc 1 21 8 view .LVU110
 509 0158 852B40B9 		ldr	w5, [x28, 40]
 510              	.LBB308:
 511              	.LBB300:
 512              		.loc 3 611 18 view .LVU111
 513 015c 21000091 		add	x1, x1, :lo12:.LC6
AARCH64 GAS  obj/Chapter13_1.s 			page 47


 514 0160 E00319AA 		mov	x0, x25
 515              	.LBE300:
 516              	.LBE308:
 517              		.loc 1 21 8 view .LVU112
 518 0164 061F00A9 		stp	x6, x7, [x24]
 519 0168 FA0318AA 		mov	x26, x24
 520              	.LBB309:
 521              	.LBB294:
 522              	.LBB289:
 523              	.LBB285:
 731:/usr/include/c++/10/bits/ios_base.h ****       return __old;
 524              		.loc 4 731 20 view .LVU113
 525 016c 880400F9 		str	x8, [x4, 8]
 526              	.LBE285:
 527              	.LBE289:
 528              	.LBE294:
 529              	.LBE309:
 530              	.LBB310:
  22:Chapter13_1.cpp ****     size_t n_C = sizeof(C_vals)/sizeof(float);
  23:Chapter13_1.cpp ****     cout<<setprecision(6); 	
  24:Chapter13_1.cpp **** 	cout<<"Celsius to F"<<'\n';
  25:Chapter13_1.cpp **** 	for(size_t i=0;i < n_C;i++){
 531              		.loc 1 25 13 view .LVU114
 532 0170 140080D2 		mov	x20, 0
 533              	.LVL18:
 534              		.loc 1 25 13 view .LVU115
 535              	.LBE310:
  21:Chapter13_1.cpp ****     size_t n_C = sizeof(C_vals)/sizeof(float);
 536              		.loc 1 21 8 view .LVU116
 537 0174 051300B9 		str	w5, [x24, 16]
  22:Chapter13_1.cpp ****     size_t n_C = sizeof(C_vals)/sizeof(float);
 538              		.loc 1 22 5 is_stmt 1 view .LVU117
 539              	.LVL19:
  23:Chapter13_1.cpp **** 	cout<<"Celsius to F"<<'\n';
 540              		.loc 1 23 5 view .LVU118
 196:/usr/include/c++/10/iomanip **** 
 541              		.loc 2 196 5 view .LVU119
 542              	.LBB366:
 543              	.LBI279:
 208:/usr/include/c++/10/iomanip ****     {
 544              		.loc 2 208 5 view .LVU120
 545              	.LBB295:
 546              	.LBB290:
 547              	.LBI281:
 728:/usr/include/c++/10/bits/ios_base.h ****     {
 548              		.loc 4 728 5 view .LVU121
 549              	.LBB286:
 730:/usr/include/c++/10/bits/ios_base.h ****       _M_precision = __prec;
 550              		.loc 4 730 7 view .LVU122
 731:/usr/include/c++/10/bits/ios_base.h ****       return __old;
 551              		.loc 4 731 7 view .LVU123
 732:/usr/include/c++/10/bits/ios_base.h ****     }
 552              		.loc 4 732 7 view .LVU124
 732:/usr/include/c++/10/bits/ios_base.h ****     }
 553              		.loc 4 732 7 is_stmt 0 view .LVU125
 554              	.LBE286:
 555              	.LBE290:
AARCH64 GAS  obj/Chapter13_1.s 			page 48


 556              	.LBE295:
 557              	.LBE366:
  24:Chapter13_1.cpp **** 	for(size_t i=0;i < n_C;i++){
 558              		.loc 1 24 2 is_stmt 1 view .LVU126
 559              	.LBB367:
 560              	.LBI297:
 606:/usr/include/c++/10/ostream ****     {
 561              		.loc 3 606 5 view .LVU127
 606:/usr/include/c++/10/ostream ****     {
 562              		.loc 3 606 5 is_stmt 0 view .LVU128
 563              	.LBE367:
 564              		.loc 5 364 2 is_stmt 1 view .LVU129
 565              	.LBB368:
 566              	.LBB301:
 567              		.loc 3 611 18 is_stmt 0 view .LVU130
 568 0178 00000094 		bl	_ZSt16__ostream_insertIcSt11char_traitsIcEERSt13basic_ostreamIT_T0_ES6_PKS3_l
 569              	.LVL20:
 570              		.loc 3 611 18 view .LVU131
 571 017c F3FF0139 		strb	w19, [sp, 127]
 572              	.LVL21:
 573              		.loc 3 611 18 view .LVU132
 574              	.LBE301:
 575              	.LBE368:
 576              	.LBB369:
 577              	.LBI302:
 517:/usr/include/c++/10/ostream ****     { return __ostream_insert(__out, &__c, 1); }
 578              		.loc 3 517 5 is_stmt 1 view .LVU133
 579              	.LBB304:
 518:/usr/include/c++/10/ostream **** 
 580              		.loc 3 518 30 is_stmt 0 view .LVU134
 581 0180 E1031BAA 		mov	x1, x27
 582 0184 E00319AA 		mov	x0, x25
 583 0188 220080D2 		mov	x2, 1
 584 018c 00000094 		bl	_ZSt16__ostream_insertIcSt11char_traitsIcEERSt13basic_ostreamIT_T0_ES6_PKS3_l
 585              	.LVL22:
 518:/usr/include/c++/10/ostream **** 
 586              		.loc 3 518 30 view .LVU135
 587              	.LBE304:
 588              	.LBE369:
 589              		.loc 1 25 2 is_stmt 1 view .LVU136
 590              	.LBB370:
 591              		.loc 1 25 19 view .LVU137
 592              	.L3:
 593              	.LBB311:
  26:Chapter13_1.cpp **** 		float F = cvtCtoF_(C_vals[i]);
 594              		.loc 1 26 3 view .LVU138
 595              		.loc 1 26 21 is_stmt 0 view .LVU139
 596 0190 494740BC 		ldr	s9, [x26], 4
 597              	.LBB312:
 598              	.LBB313:
 599              	.LBB314:
 600              	.LBB315:
 754:/usr/include/c++/10/bits/ios_base.h ****       return __old;
 601              		.loc 4 754 16 view .LVU140
 602 0194 530180D2 		mov	x19, 10
 603              	.LBE315:
 604              	.LBE314:
AARCH64 GAS  obj/Chapter13_1.s 			page 49


 605              	.LBE313:
 606              	.LBE312:
 607              		.loc 1 26 21 view .LVU141
 608 0198 2041201E 		fmov	s0, s9
 609 019c 00000094 		bl	cvtCtoF_
 610              	.LVL23:
 611 01a0 0840201E 		fmov	s8, s0
 612              	.LVL24:
  27:Chapter13_1.cpp **** 		cout<<"i:"<<i;
 613              		.loc 1 27 3 is_stmt 1 view .LVU142
 614              	.LBB322:
 615              	.LBI322:
 606:/usr/include/c++/10/ostream ****     {
 616              		.loc 3 606 5 view .LVU143
 606:/usr/include/c++/10/ostream ****     {
 617              		.loc 3 606 5 is_stmt 0 view .LVU144
 618              	.LBE322:
 619              	.LBE311:
 620              	.LBE370:
 621              		.loc 5 364 2 is_stmt 1 view .LVU145
 622              	.LBB371:
 623              	.LBB360:
 624              	.LBB324:
 625              	.LBB323:
 626              		.loc 3 611 18 is_stmt 0 view .LVU146
 627 01a4 420080D2 		mov	x2, 2
 628 01a8 E10316AA 		mov	x1, x22
 629 01ac E00319AA 		mov	x0, x25
 630 01b0 00000094 		bl	_ZSt16__ostream_insertIcSt11char_traitsIcEERSt13basic_ostreamIT_T0_ES6_PKS3_l
 631              	.LVL25:
 632              		.loc 3 611 18 view .LVU147
 633              	.LBE323:
 634              	.LBE324:
 635              	.LBB325:
 636              	.LBI325:
 170:/usr/include/c++/10/ostream ****       { return _M_insert(__n); }
 637              		.loc 3 170 7 is_stmt 1 view .LVU148
 638              	.LBB326:
 171:/usr/include/c++/10/ostream **** 
 639              		.loc 3 171 25 is_stmt 0 view .LVU149
 640 01b4 E10314AA 		mov	x1, x20
 641 01b8 E00319AA 		mov	x0, x25
 642 01bc 00000094 		bl	_ZNSo9_M_insertImEERSoT_
 643              	.LVL26:
 171:/usr/include/c++/10/ostream **** 
 644              		.loc 3 171 25 view .LVU150
 645              	.LBE326:
 646              	.LBE325:
  28:Chapter13_1.cpp **** 		cout<<"C:"<<setw(w)<<C_vals[i]<<" ";
 647              		.loc 1 28 3 is_stmt 1 view .LVU151
 648              	.LBB327:
 649              	.LBI327:
 606:/usr/include/c++/10/ostream ****     {
 650              		.loc 3 606 5 view .LVU152
 606:/usr/include/c++/10/ostream ****     {
 651              		.loc 3 606 5 is_stmt 0 view .LVU153
 652              	.LBE327:
AARCH64 GAS  obj/Chapter13_1.s 			page 50


 653              	.LBE360:
 654              	.LBE371:
 655              		.loc 5 364 2 is_stmt 1 view .LVU154
 656              	.LBB372:
  25:Chapter13_1.cpp **** 		float F = cvtCtoF_(C_vals[i]);
 657              		.loc 1 25 2 is_stmt 0 view .LVU155
 658 01c0 94060091 		add	x20, x20, 1
 659              	.LVL27:
 660              	.LBB361:
 661              	.LBB329:
 662              	.LBB328:
 663              		.loc 3 611 18 view .LVU156
 664 01c4 420080D2 		mov	x2, 2
 665 01c8 E10315AA 		mov	x1, x21
 666 01cc E00319AA 		mov	x0, x25
 667 01d0 00000094 		bl	_ZSt16__ostream_insertIcSt11char_traitsIcEERSt13basic_ostreamIT_T0_ES6_PKS3_l
 668              	.LVL28:
 669              		.loc 3 611 18 view .LVU157
 670              	.LBE328:
 671              	.LBE329:
 672              	.LBE361:
 673              	.LBE372:
 226:/usr/include/c++/10/iomanip **** 
 674              		.loc 2 226 5 is_stmt 1 view .LVU158
 675              	.LBB373:
 676              	.LBB362:
 677              	.LBB330:
 678              	.LBI312:
 238:/usr/include/c++/10/iomanip ****     {
 679              		.loc 2 238 5 view .LVU159
 680              	.LBB320:
 681              	.LBB318:
 682              	.LBI314:
 751:/usr/include/c++/10/bits/ios_base.h ****     {
 683              		.loc 4 751 5 view .LVU160
 684              	.LBB316:
 753:/usr/include/c++/10/bits/ios_base.h ****       _M_width = __wide;
 685              		.loc 4 753 7 view .LVU161
 754:/usr/include/c++/10/bits/ios_base.h ****       return __old;
 686              		.loc 4 754 7 view .LVU162
 687              	.LBE316:
 688              	.LBE318:
 689              		.loc 2 240 17 is_stmt 0 view .LVU163
 690 01d4 210340F9 		ldr	x1, [x25]
 691              	.LBE320:
 692              	.LBE330:
 693              	.LBB331:
 694              	.LBB332:
 228:/usr/include/c++/10/ostream ****       }
 695              		.loc 3 228 18 view .LVU164
 696 01d8 20C1221E 		fcvt	d0, s9
 697 01dc E00319AA 		mov	x0, x25
 698              	.LBE332:
 699              	.LBE331:
 700              	.LBB334:
 701              	.LBB321:
 702              	.LBB319:
AARCH64 GAS  obj/Chapter13_1.s 			page 51


 703              	.LBB317:
 754:/usr/include/c++/10/bits/ios_base.h ****       return __old;
 704              		.loc 4 754 16 view .LVU165
 705 01e0 21805EF8 		ldr	x1, [x1, -24]
 706 01e4 2103018B 		add	x1, x25, x1
 707 01e8 330800F9 		str	x19, [x1, 16]
 708              	.LVL29:
 709              		.loc 4 755 7 is_stmt 1 view .LVU166
 710              		.loc 4 755 7 is_stmt 0 view .LVU167
 711              	.LBE317:
 712              	.LBE319:
 713              	.LBE321:
 714              	.LBE334:
 715              	.LBB335:
 716              	.LBI331:
 224:/usr/include/c++/10/ostream ****       {
 717              		.loc 3 224 7 is_stmt 1 view .LVU168
 718              	.LBB333:
 228:/usr/include/c++/10/ostream ****       }
 719              		.loc 3 228 18 is_stmt 0 view .LVU169
 720 01ec 00000094 		bl	_ZNSo9_M_insertIdEERSoT_
 721              	.LVL30:
 228:/usr/include/c++/10/ostream ****       }
 722              		.loc 3 228 18 view .LVU170
 723              	.LBE333:
 724              	.LBE335:
 725              	.LBB336:
 726              	.LBI336:
 606:/usr/include/c++/10/ostream ****     {
 727              		.loc 3 606 5 is_stmt 1 view .LVU171
 606:/usr/include/c++/10/ostream ****     {
 728              		.loc 3 606 5 is_stmt 0 view .LVU172
 729              	.LBE336:
 730              	.LBE362:
 731              	.LBE373:
 732              		.loc 5 364 2 is_stmt 1 view .LVU173
 733              	.LBB374:
 734              	.LBB363:
 735              	.LBB338:
 736              	.LBB337:
 737              		.loc 3 611 18 is_stmt 0 view .LVU174
 738 01f0 E1020091 		add	x1, x23, :lo12:.LC4
 739 01f4 220080D2 		mov	x2, 1
 740 01f8 00000094 		bl	_ZSt16__ostream_insertIcSt11char_traitsIcEERSt13basic_ostreamIT_T0_ES6_PKS3_l
 741              	.LVL31:
 742              		.loc 3 611 18 view .LVU175
 743              	.LBE337:
 744              	.LBE338:
  29:Chapter13_1.cpp **** 		cout<<"F:"<<setw(w)<<F<<'\n';
 745              		.loc 1 29 3 is_stmt 1 view .LVU176
 746              	.LBB339:
 747              	.LBI339:
 606:/usr/include/c++/10/ostream ****     {
 748              		.loc 3 606 5 view .LVU177
 606:/usr/include/c++/10/ostream ****     {
 749              		.loc 3 606 5 is_stmt 0 view .LVU178
 750              	.LBE339:
AARCH64 GAS  obj/Chapter13_1.s 			page 52


 751              	.LBE363:
 752              	.LBE374:
 753              		.loc 5 364 2 is_stmt 1 view .LVU179
 754              	.LBB375:
 755              	.LBB364:
 756              	.LBB341:
 757              	.LBB340:
 758              		.loc 3 611 18 is_stmt 0 view .LVU180
 759 01fc 00000090 		adrp	x0, .LC3
 760 0200 420080D2 		mov	x2, 2
 761 0204 01000091 		add	x1, x0, :lo12:.LC3
 762 0208 E00319AA 		mov	x0, x25
 763 020c 00000094 		bl	_ZSt16__ostream_insertIcSt11char_traitsIcEERSt13basic_ostreamIT_T0_ES6_PKS3_l
 764              	.LVL32:
 765              		.loc 3 611 18 view .LVU181
 766              	.LBE340:
 767              	.LBE341:
 768              	.LBE364:
 769              	.LBE375:
 226:/usr/include/c++/10/iomanip **** 
 770              		.loc 2 226 5 is_stmt 1 view .LVU182
 771              	.LBB376:
 772              	.LBB365:
 773              	.LBB342:
 774              	.LBI342:
 238:/usr/include/c++/10/iomanip ****     {
 775              		.loc 2 238 5 view .LVU183
 776              	.LBB343:
 777              	.LBB344:
 778              	.LBI344:
 751:/usr/include/c++/10/bits/ios_base.h ****     {
 779              		.loc 4 751 5 view .LVU184
 780              	.LBB345:
 753:/usr/include/c++/10/bits/ios_base.h ****       _M_width = __wide;
 781              		.loc 4 753 7 view .LVU185
 754:/usr/include/c++/10/bits/ios_base.h ****       return __old;
 782              		.loc 4 754 7 view .LVU186
 783              	.LBE345:
 784              	.LBE344:
 785              	.LBE343:
 786              	.LBE342:
 787              	.LBB350:
 788              	.LBB351:
 228:/usr/include/c++/10/ostream ****       }
 789              		.loc 3 228 18 is_stmt 0 view .LVU187
 790 0210 00C1221E 		fcvt	d0, s8
 791              	.LBE351:
 792              	.LBE350:
 793              	.LBB354:
 794              	.LBB348:
 795              		.loc 2 240 17 view .LVU188
 796 0214 210340F9 		ldr	x1, [x25]
 797              	.LBE348:
 798              	.LBE354:
 799              	.LBB355:
 800              	.LBB352:
 228:/usr/include/c++/10/ostream ****       }
AARCH64 GAS  obj/Chapter13_1.s 			page 53


 801              		.loc 3 228 18 view .LVU189
 802 0218 E00319AA 		mov	x0, x25
 803              	.LBE352:
 804              	.LBE355:
 805              	.LBB356:
 806              	.LBB349:
 807              	.LBB347:
 808              	.LBB346:
 754:/usr/include/c++/10/bits/ios_base.h ****       return __old;
 809              		.loc 4 754 16 view .LVU190
 810 021c 21805EF8 		ldr	x1, [x1, -24]
 811 0220 2103018B 		add	x1, x25, x1
 812 0224 330800F9 		str	x19, [x1, 16]
 813              	.LVL33:
 814              		.loc 4 755 7 is_stmt 1 view .LVU191
 815              		.loc 4 755 7 is_stmt 0 view .LVU192
 816              	.LBE346:
 817              	.LBE347:
 818              	.LBE349:
 819              	.LBE356:
 820              	.LBB357:
 821              	.LBI350:
 224:/usr/include/c++/10/ostream ****       {
 822              		.loc 3 224 7 is_stmt 1 view .LVU193
 823              	.LBB353:
 228:/usr/include/c++/10/ostream ****       }
 824              		.loc 3 228 18 is_stmt 0 view .LVU194
 825 0228 00000094 		bl	_ZNSo9_M_insertIdEERSoT_
 826              	.LVL34:
 228:/usr/include/c++/10/ostream ****       }
 827              		.loc 3 228 18 view .LVU195
 828 022c F3FF0139 		strb	w19, [sp, 127]
 829              	.LVL35:
 228:/usr/include/c++/10/ostream ****       }
 830              		.loc 3 228 18 view .LVU196
 831              	.LBE353:
 832              	.LBE357:
 833              	.LBB358:
 834              	.LBI358:
 517:/usr/include/c++/10/ostream ****     { return __ostream_insert(__out, &__c, 1); }
 835              		.loc 3 517 5 is_stmt 1 view .LVU197
 836              	.LBB359:
 518:/usr/include/c++/10/ostream **** 
 837              		.loc 3 518 30 is_stmt 0 view .LVU198
 838 0230 E1031BAA 		mov	x1, x27
 839 0234 220080D2 		mov	x2, 1
 840 0238 00000094 		bl	_ZSt16__ostream_insertIcSt11char_traitsIcEERSt13basic_ostreamIT_T0_ES6_PKS3_l
 841              	.LVL36:
 518:/usr/include/c++/10/ostream **** 
 842              		.loc 3 518 30 view .LVU199
 843              	.LBE359:
 844              	.LBE358:
 845              	.LBE365:
  25:Chapter13_1.cpp **** 		float F = cvtCtoF_(C_vals[i]);
 846              		.loc 1 25 2 is_stmt 1 view .LVU200
  25:Chapter13_1.cpp **** 		float F = cvtCtoF_(C_vals[i]);
 847              		.loc 1 25 19 view .LVU201
AARCH64 GAS  obj/Chapter13_1.s 			page 54


 848 023c 9F1600F1 		cmp	x20, 5
 849 0240 81FAFF54 		bne	.L3
 850              	.LBE376:
  30:Chapter13_1.cpp **** 	}
  31:Chapter13_1.cpp **** 	return 0;
 851              		.loc 1 31 2 view .LVU202
  32:Chapter13_1.cpp **** }
 852              		.loc 1 32 1 is_stmt 0 view .LVU203
 853 0244 00008052 		mov	w0, 0
 854 0248 F35341A9 		ldp	x19, x20, [sp, 16]
 855              	.LVL37:
 856              		.loc 1 32 1 view .LVU204
 857 024c F55B42A9 		ldp	x21, x22, [sp, 32]
 858 0250 F76343A9 		ldp	x23, x24, [sp, 48]
 859 0254 F96B44A9 		ldp	x25, x26, [sp, 64]
 860 0258 FB7345A9 		ldp	x27, x28, [sp, 80]
 861 025c E827466D 		ldp	d8, d9, [sp, 96]
 862              	.LVL38:
 863              		.loc 1 32 1 view .LVU205
 864 0260 FD7BCBA8 		ldp	x29, x30, [sp], 176
 865              		.cfi_restore 30
 866              		.cfi_restore 29
 867              		.cfi_restore 27
 868              		.cfi_restore 28
 869              		.cfi_restore 25
 870              		.cfi_restore 26
 871              		.cfi_restore 23
 872              		.cfi_restore 24
 873              		.cfi_restore 21
 874              		.cfi_restore 22
 875              		.cfi_restore 19
 876              		.cfi_restore 20
 877              		.cfi_restore 72
 878              		.cfi_restore 73
 879              		.cfi_def_cfa_offset 0
 880 0264 C0035FD6 		ret
 881              		.cfi_endproc
 882              	.LFE2184:
 883              		.size	main, .-main
 884              		.align	2
 885 0268 1F2003D5 		.p2align 4,,11
 885      1F2003D5 
 886              		.type	_GLOBAL__sub_I_main, %function
 887              	_GLOBAL__sub_I_main:
 888              	.LFB2699:
 889              		.loc 1 32 1 is_stmt 1 view -0
 890              		.cfi_startproc
 891              	.LVL39:
 892              	.LBB377:
 893              	.LBI377:
 894              		.loc 1 32 1 view .LVU207
 895              	.LBE377:
 896 0270 FD7BBEA9 		stp	x29, x30, [sp, -32]!
 897              		.cfi_def_cfa_offset 32
 898              		.cfi_offset 29, -32
 899              		.cfi_offset 30, -24
 900 0274 FD030091 		mov	x29, sp
AARCH64 GAS  obj/Chapter13_1.s 			page 55


 901 0278 F30B00F9 		str	x19, [sp, 16]
 902              		.cfi_offset 19, -16
 903              	.LBB381:
 904              	.LBB378:
 905              		.file 6 "/usr/include/c++/10/iostream"
   1:/usr/include/c++/10/iostream **** // Standard iostream objects -*- C++ -*-
   2:/usr/include/c++/10/iostream **** 
   3:/usr/include/c++/10/iostream **** // Copyright (C) 1997-2020 Free Software Foundation, Inc.
   4:/usr/include/c++/10/iostream **** //
   5:/usr/include/c++/10/iostream **** // This file is part of the GNU ISO C++ Library.  This library is free
   6:/usr/include/c++/10/iostream **** // software; you can redistribute it and/or modify it under the
   7:/usr/include/c++/10/iostream **** // terms of the GNU General Public License as published by the
   8:/usr/include/c++/10/iostream **** // Free Software Foundation; either version 3, or (at your option)
   9:/usr/include/c++/10/iostream **** // any later version.
  10:/usr/include/c++/10/iostream **** 
  11:/usr/include/c++/10/iostream **** // This library is distributed in the hope that it will be useful,
  12:/usr/include/c++/10/iostream **** // but WITHOUT ANY WARRANTY; without even the implied warranty of
  13:/usr/include/c++/10/iostream **** // MERCHANTABILITY or FITNESS FOR A PARTICULAR PURPOSE.  See the
  14:/usr/include/c++/10/iostream **** // GNU General Public License for more details.
  15:/usr/include/c++/10/iostream **** 
  16:/usr/include/c++/10/iostream **** // Under Section 7 of GPL version 3, you are granted additional
  17:/usr/include/c++/10/iostream **** // permissions described in the GCC Runtime Library Exception, version
  18:/usr/include/c++/10/iostream **** // 3.1, as published by the Free Software Foundation.
  19:/usr/include/c++/10/iostream **** 
  20:/usr/include/c++/10/iostream **** // You should have received a copy of the GNU General Public License and
  21:/usr/include/c++/10/iostream **** // a copy of the GCC Runtime Library Exception along with this program;
  22:/usr/include/c++/10/iostream **** // see the files COPYING3 and COPYING.RUNTIME respectively.  If not, see
  23:/usr/include/c++/10/iostream **** // <http://www.gnu.org/licenses/>.
  24:/usr/include/c++/10/iostream **** 
  25:/usr/include/c++/10/iostream **** /** @file include/iostream
  26:/usr/include/c++/10/iostream ****  *  This is a Standard C++ Library header.
  27:/usr/include/c++/10/iostream ****  */
  28:/usr/include/c++/10/iostream **** 
  29:/usr/include/c++/10/iostream **** //
  30:/usr/include/c++/10/iostream **** // ISO C++ 14882: 27.3  Standard iostream objects
  31:/usr/include/c++/10/iostream **** //
  32:/usr/include/c++/10/iostream **** 
  33:/usr/include/c++/10/iostream **** #ifndef _GLIBCXX_IOSTREAM
  34:/usr/include/c++/10/iostream **** #define _GLIBCXX_IOSTREAM 1
  35:/usr/include/c++/10/iostream **** 
  36:/usr/include/c++/10/iostream **** #pragma GCC system_header
  37:/usr/include/c++/10/iostream **** 
  38:/usr/include/c++/10/iostream **** #include <bits/c++config.h>
  39:/usr/include/c++/10/iostream **** #include <ostream>
  40:/usr/include/c++/10/iostream **** #include <istream>
  41:/usr/include/c++/10/iostream **** 
  42:/usr/include/c++/10/iostream **** namespace std _GLIBCXX_VISIBILITY(default)
  43:/usr/include/c++/10/iostream **** {
  44:/usr/include/c++/10/iostream **** _GLIBCXX_BEGIN_NAMESPACE_VERSION
  45:/usr/include/c++/10/iostream **** 
  46:/usr/include/c++/10/iostream ****   /**
  47:/usr/include/c++/10/iostream ****    *  @name Standard Stream Objects
  48:/usr/include/c++/10/iostream ****    *
  49:/usr/include/c++/10/iostream ****    *  The &lt;iostream&gt; header declares the eight <em>standard stream
  50:/usr/include/c++/10/iostream ****    *  objects</em>.  For other declarations, see
  51:/usr/include/c++/10/iostream ****    *  http://gcc.gnu.org/onlinedocs/libstdc++/manual/io.html
  52:/usr/include/c++/10/iostream ****    *  and the @link iosfwd I/O forward declarations @endlink
AARCH64 GAS  obj/Chapter13_1.s 			page 56


  53:/usr/include/c++/10/iostream ****    *
  54:/usr/include/c++/10/iostream ****    *  They are required by default to cooperate with the global C
  55:/usr/include/c++/10/iostream ****    *  library's @c FILE streams, and to be available during program
  56:/usr/include/c++/10/iostream ****    *  startup and termination. For more information, see the section of the
  57:/usr/include/c++/10/iostream ****    *  manual linked to above.
  58:/usr/include/c++/10/iostream ****   */
  59:/usr/include/c++/10/iostream ****   //@{
  60:/usr/include/c++/10/iostream ****   extern istream cin;		/// Linked to standard input
  61:/usr/include/c++/10/iostream ****   extern ostream cout;		/// Linked to standard output
  62:/usr/include/c++/10/iostream ****   extern ostream cerr;		/// Linked to standard error (unbuffered)
  63:/usr/include/c++/10/iostream ****   extern ostream clog;		/// Linked to standard error (buffered)
  64:/usr/include/c++/10/iostream **** 
  65:/usr/include/c++/10/iostream **** #ifdef _GLIBCXX_USE_WCHAR_T
  66:/usr/include/c++/10/iostream ****   extern wistream wcin;		/// Linked to standard input
  67:/usr/include/c++/10/iostream ****   extern wostream wcout;	/// Linked to standard output
  68:/usr/include/c++/10/iostream ****   extern wostream wcerr;	/// Linked to standard error (unbuffered)
  69:/usr/include/c++/10/iostream ****   extern wostream wclog;	/// Linked to standard error (buffered)
  70:/usr/include/c++/10/iostream **** #endif
  71:/usr/include/c++/10/iostream ****   //@}
  72:/usr/include/c++/10/iostream **** 
  73:/usr/include/c++/10/iostream ****   // For construction of filebuffers for cout, cin, cerr, clog et. al.
  74:/usr/include/c++/10/iostream ****   static ios_base::Init __ioinit;
 906              		.loc 6 74 25 is_stmt 0 view .LVU208
 907 027c 13000090 		adrp	x19, .LANCHOR1
 908 0280 73020091 		add	x19, x19, :lo12:.LANCHOR1
 909 0284 E00313AA 		mov	x0, x19
 910 0288 00000094 		bl	_ZNSt8ios_base4InitC1Ev
 911              	.LVL40:
 912 028c E10313AA 		mov	x1, x19
 913 0290 00000090 		adrp	x0, :got:_ZNSt8ios_base4InitD1Ev
 914              	.LBE378:
 915              	.LBE381:
 916              		.loc 1 32 1 view .LVU209
 917 0294 F30B40F9 		ldr	x19, [sp, 16]
 918              	.LBB382:
 919              	.LBB379:
 920              		.loc 6 74 25 view .LVU210
 921 0298 02000090 		adrp	x2, __dso_handle
 922              	.LBE379:
 923              	.LBE382:
 924              		.loc 1 32 1 view .LVU211
 925 029c FD7BC2A8 		ldp	x29, x30, [sp], 32
 926              		.cfi_restore 30
 927              		.cfi_restore 29
 928              		.cfi_restore 19
 929              		.cfi_def_cfa_offset 0
 930              	.LBB383:
 931              	.LBB380:
 932              		.loc 6 74 25 view .LVU212
 933 02a0 42000091 		add	x2, x2, :lo12:__dso_handle
 934 02a4 000040F9 		ldr	x0, [x0, #:got_lo12:_ZNSt8ios_base4InitD1Ev]
 935 02a8 00000014 		b	__cxa_atexit
 936              	.LVL41:
 937              	.LBE380:
 938              	.LBE383:
 939              		.cfi_endproc
 940              	.LFE2699:
AARCH64 GAS  obj/Chapter13_1.s 			page 57


 941              		.size	_GLOBAL__sub_I_main, .-_GLOBAL__sub_I_main
 942              		.section	.init_array,"aw"
 943              		.align	3
 944 0000 00000000 		.xword	_GLOBAL__sub_I_main
 944      00000000 
 945              		.section	.rodata
 946              		.align	3
 947              		.set	.LANCHOR0,. + 0
 948              	.LC0:
 949 0000 AE87D443 		.word	1138001838
 950 0004 000020C2 		.word	-1038090240
 951 0008 00000000 		.word	0
 952 000c 33B39A42 		.word	1117434675
 953 0010 9A198642 		.word	1116084634
 954 0014 00000000 		.zero	4
 955              	.LC1:
 956 0018 0000C842 		.word	1120403456
 957 001c 000020C1 		.word	-1054867456
 958 0020 00001642 		.word	1108738048
 959 0024 9A998140 		.word	1082235290
 960 0028 00000000 		.word	0
 961              		.bss
 962              		.align	3
 963              		.set	.LANCHOR1,. + 0
 964              		.type	_ZStL8__ioinit, %object
 965              		.size	_ZStL8__ioinit, 1
 966              	_ZStL8__ioinit:
 967 0000 00       		.zero	1
 968              		.text
 969              	.Letext0:
 970              		.file 7 "/usr/include/c++/10/cwchar"
 971              		.file 8 "/usr/include/c++/10/bits/exception_ptr.h"
 972              		.file 9 "/usr/include/aarch64-linux-gnu/c++/10/bits/c++config.h"
 973              		.file 10 "/usr/include/c++/10/bits/stl_pair.h"
 974              		.file 11 "/usr/include/c++/10/type_traits"
 975              		.file 12 "/usr/include/c++/10/debug/debug.h"
 976              		.file 13 "/usr/include/c++/10/cstdint"
 977              		.file 14 "/usr/include/c++/10/clocale"
 978              		.file 15 "/usr/include/c++/10/cstdlib"
 979              		.file 16 "/usr/include/c++/10/cstdio"
 980              		.file 17 "/usr/include/c++/10/bits/basic_string.h"
 981              		.file 18 "/usr/include/c++/10/system_error"
 982              		.file 19 "/usr/include/c++/10/cwctype"
 983              		.file 20 "/usr/include/c++/10/bits/ostream.tcc"
 984              		.file 21 "/usr/include/c++/10/iosfwd"
 985              		.file 22 "/usr/include/c++/10/ctime"
 986              		.file 23 "/usr/include/c++/10/bits/uses_allocator.h"
 987              		.file 24 "/usr/include/c++/10/tuple"
 988              		.file 25 "/usr/include/c++/10/bits/basic_ios.h"
 989              		.file 26 "/usr/include/c++/10/bits/postypes.h"
 990              		.file 27 "/usr/include/c++/10/bits/ostream_insert.h"
 991              		.file 28 "/usr/include/c++/10/bits/predefined_ops.h"
 992              		.file 29 "/usr/lib/gcc/aarch64-linux-gnu/10/include/stddef.h"
 993              		.file 30 "/usr/lib/gcc/aarch64-linux-gnu/10/include/stdarg.h"
 994              		.file 31 "/usr/include/aarch64-linux-gnu/bits/types/wint_t.h"
 995              		.file 32 "/usr/include/aarch64-linux-gnu/bits/types/__mbstate_t.h"
 996              		.file 33 "/usr/include/aarch64-linux-gnu/bits/types/mbstate_t.h"
AARCH64 GAS  obj/Chapter13_1.s 			page 58


 997              		.file 34 "/usr/include/aarch64-linux-gnu/bits/types/__FILE.h"
 998              		.file 35 "/usr/include/aarch64-linux-gnu/bits/types/struct_FILE.h"
 999              		.file 36 "/usr/include/aarch64-linux-gnu/bits/types/FILE.h"
 1000              		.file 37 "/usr/include/wchar.h"
 1001              		.file 38 "/usr/include/aarch64-linux-gnu/bits/types/struct_tm.h"
 1002              		.file 39 "/usr/include/aarch64-linux-gnu/bits/types.h"
 1003              		.file 40 "/usr/include/aarch64-linux-gnu/bits/stdint-intn.h"
 1004              		.file 41 "/usr/include/aarch64-linux-gnu/bits/stdint-uintn.h"
 1005              		.file 42 "/usr/include/stdint.h"
 1006              		.file 43 "/usr/include/locale.h"
 1007              		.file 44 "/usr/include/aarch64-linux-gnu/bits/types/time_t.h"
 1008              		.file 45 "/usr/include/aarch64-linux-gnu/bits/types/clock_t.h"
 1009              		.file 46 "/usr/include/aarch64-linux-gnu/c++/10/bits/atomic_word.h"
 1010              		.file 47 "/usr/include/stdlib.h"
 1011              		.file 48 "/usr/include/aarch64-linux-gnu/bits/stdlib-float.h"
 1012              		.file 49 "/usr/include/aarch64-linux-gnu/bits/stdlib-bsearch.h"
 1013              		.file 50 "/usr/include/aarch64-linux-gnu/bits/types/__fpos_t.h"
 1014              		.file 51 "/usr/include/stdio.h"
 1015              		.file 52 "/usr/include/aarch64-linux-gnu/bits/stdio.h"
 1016              		.file 53 "/usr/include/aarch64-linux-gnu/bits/wctype-wchar.h"
 1017              		.file 54 "/usr/include/wctype.h"
 1018              		.file 55 "/usr/include/time.h"
 1019              		.file 56 "<built-in>"
 10998              		.section	.note.GNU-stack,"",@progbits
