	.arch armv8-a
	.file	"Chapter13_1.cpp"
	.text
.Ltext0:
	.section	.rodata.str1.8,"aMS",@progbits,1
	.align	3
.LC2:
	.string	"i:"
	.align	3
.LC3:
	.string	"F:"
	.align	3
.LC4:
	.string	" "
	.align	3
.LC5:
	.string	"C:"
	.align	3
.LC6:
	.string	"Celsius to F"
	.section	.text.startup,"ax",@progbits
	.align	2
	.p2align 4,,11
	.global	main
	.type	main, %function
main:
.LVL0:
.LFB2184:
	.file 1 "Chapter13_1.cpp"
	.loc 1 10 1 view -0
	.cfi_startproc
	.loc 1 11 5 view .LVU1
	.loc 1 12 5 view .LVU2
	.loc 1 10 1 is_stmt 0 view .LVU3
	stp	x29, x30, [sp, -176]!
	.cfi_def_cfa_offset 176
	.cfi_offset 29, -176
	.cfi_offset 30, -168
.LBB184:
.LBB185:
	.file 2 "/usr/include/c++/10/iomanip"
	.loc 2 210 21 view .LVU4
	adrp	x3, :got:_ZSt4cout
.LBE185:
.LBE184:
	.loc 1 12 11 view .LVU5
	adrp	x0, .LANCHOR0
.LVL1:
	.loc 1 10 1 view .LVU6
	mov	x29, sp
	stp	x25, x26, [sp, 64]
	.loc 1 12 11 view .LVU7
	add	x2, x0, :lo12:.LANCHOR0
.LBB200:
.LBB201:
.LBB202:
.LBB203:
	.file 3 "/usr/include/c++/10/ostream"
	.loc 3 611 18 view .LVU8
	adrp	x0, .LC3
	.cfi_offset 25, -112
	.cfi_offset 26, -104
.LBE203:
.LBE202:
.LBE201:
.LBE200:
.LBB263:
.LBB194:
	.loc 2 210 21 view .LVU9
	ldr	x25, [x3, #:got_lo12:_ZSt4cout]
.LBE194:
.LBE263:
	.loc 1 10 1 view .LVU10
	stp	x27, x28, [sp, 80]
	.cfi_offset 27, -96
	.cfi_offset 28, -88
.LBB264:
.LBB254:
.LBB206:
.LBB204:
	.loc 3 611 18 view .LVU11
	add	x27, x0, :lo12:.LC3
.LBE204:
.LBE206:
.LBE254:
.LBE264:
	.loc 1 12 11 view .LVU12
	add	x1, sp, 128
.LVL2:
	.loc 1 10 1 view .LVU13
	stp	x19, x20, [sp, 16]
	mov	x28, x1
.LBB265:
.LBB195:
	.loc 2 210 21 view .LVU14
	ldr	x0, [x25]
.LBE195:
.LBE265:
	.loc 1 10 1 view .LVU15
	stp	x21, x22, [sp, 32]
	.cfi_offset 19, -160
	.cfi_offset 20, -152
	.cfi_offset 21, -144
	.cfi_offset 22, -136
	adrp	x22, .LC2
.LBB266:
.LBB255:
.LBB207:
.LBB208:
	.loc 3 611 18 view .LVU16
	add	x22, x22, :lo12:.LC2
.LBE208:
.LBE207:
.LBE255:
.LBE266:
	.loc 1 10 1 view .LVU17
	stp	x23, x24, [sp, 48]
	.cfi_offset 23, -128
	.cfi_offset 24, -120
	add	x24, sp, 152
.LBB267:
.LBB196:
.LBB186:
.LBB187:
	.file 4 "/usr/include/c++/10/bits/ios_base.h"
	.loc 4 731 20 view .LVU18
	ldr	x0, [x0, -24]
.LBE187:
.LBE186:
.LBE196:
.LBE267:
	.loc 1 10 1 view .LVU19
	stp	d8, d9, [sp, 96]
	.cfi_offset 72, -80
	.cfi_offset 73, -72
.LBB268:
.LBB197:
.LBB191:
.LBB188:
	.loc 4 731 20 view .LVU20
	mov	x5, 6
	add	x0, x0, x25
.LBE188:
.LBE191:
.LBE197:
.LBE268:
.LBB269:
	.loc 1 15 13 view .LVU21
	mov	x20, 0
.LBE269:
	.loc 1 12 11 view .LVU22
	ldp	x6, x7, [x2]
	adrp	x23, .LC4
	ldr	w2, [x2, 16]
	adrp	x26, .LC5
.LBB270:
.LBB198:
.LBB192:
.LBB189:
	.loc 4 731 20 view .LVU23
	str	x5, [x0, 8]
.LBE189:
.LBE192:
.LBE198:
.LBE270:
	.loc 1 12 11 view .LVU24
	stp	x6, x7, [sp, 128]
	str	w2, [sp, 144]
	.loc 1 13 5 is_stmt 1 view .LVU25
.LVL3:
	.loc 1 14 5 view .LVU26
	.loc 2 196 5 view .LVU27
.LBB271:
.LBI184:
	.loc 2 208 5 view .LVU28
.LBB199:
.LBB193:
.LBI186:
	.loc 4 728 5 view .LVU29
.LBB190:
	.loc 4 730 7 view .LVU30
	.loc 4 731 7 view .LVU31
	.loc 4 732 7 view .LVU32
	.loc 4 732 7 is_stmt 0 view .LVU33
.LBE190:
.LBE193:
.LBE199:
.LBE271:
	.loc 1 15 2 is_stmt 1 view .LVU34
.LBB272:
	.loc 1 15 18 view .LVU35
.L2:
.LBB256:
	.loc 1 16 3 view .LVU36
	.loc 1 16 21 is_stmt 0 view .LVU37
	ldr	s9, [x28], 4
.LBB210:
.LBB211:
.LBB212:
.LBB213:
	.loc 4 754 16 view .LVU38
	mov	x19, 10
.LBE213:
.LBE212:
.LBE211:
.LBE210:
.LBB220:
.LBB221:
	.loc 3 611 18 view .LVU39
	add	x21, x26, :lo12:.LC5
.LBE221:
.LBE220:
	.loc 1 16 21 view .LVU40
	fmov	s0, s9
	bl	cvtFtoC_
.LVL4:
	fmov	s8, s0
.LVL5:
	.loc 1 17 3 is_stmt 1 view .LVU41
.LBB223:
.LBI207:
	.loc 3 606 5 view .LVU42
	.loc 3 606 5 is_stmt 0 view .LVU43
.LBE223:
.LBE256:
.LBE272:
	.file 5 "/usr/include/c++/10/bits/char_traits.h"
	.loc 5 364 2 is_stmt 1 view .LVU44
.LBB273:
.LBB257:
.LBB224:
.LBB209:
	.loc 3 611 18 is_stmt 0 view .LVU45
	mov	x2, 2
	mov	x1, x22
	mov	x0, x25
	bl	_ZSt16__ostream_insertIcSt11char_traitsIcEERSt13basic_ostreamIT_T0_ES6_PKS3_l
.LVL6:
	.loc 3 611 18 view .LVU46
.LBE209:
.LBE224:
.LBB225:
.LBI225:
	.loc 3 170 7 is_stmt 1 view .LVU47
.LBB226:
	.loc 3 171 25 is_stmt 0 view .LVU48
	mov	x1, x20
	mov	x0, x25
	bl	_ZNSo9_M_insertImEERSoT_
.LVL7:
	.loc 3 171 25 view .LVU49
.LBE226:
.LBE225:
	.loc 1 18 3 is_stmt 1 view .LVU50
.LBB227:
.LBI202:
	.loc 3 606 5 view .LVU51
	.loc 3 606 5 is_stmt 0 view .LVU52
.LBE227:
.LBE257:
.LBE273:
	.loc 5 364 2 is_stmt 1 view .LVU53
.LBB274:
	.loc 1 15 2 is_stmt 0 view .LVU54
	add	x20, x20, 1
.LVL8:
.LBB258:
.LBB228:
.LBB205:
	.loc 3 611 18 view .LVU55
	mov	x2, 2
	mov	x1, x27
	mov	x0, x25
	bl	_ZSt16__ostream_insertIcSt11char_traitsIcEERSt13basic_ostreamIT_T0_ES6_PKS3_l
.LVL9:
	.loc 3 611 18 view .LVU56
.LBE205:
.LBE228:
.LBE258:
.LBE274:
	.loc 2 226 5 is_stmt 1 view .LVU57
.LBB275:
.LBB259:
.LBB229:
.LBI210:
	.loc 2 238 5 view .LVU58
.LBB218:
.LBB216:
.LBI212:
	.loc 4 751 5 view .LVU59
.LBB214:
	.loc 4 753 7 view .LVU60
	.loc 4 754 7 view .LVU61
.LBE214:
.LBE216:
	.loc 2 240 17 is_stmt 0 view .LVU62
	ldr	x1, [x25]
.LBE218:
.LBE229:
.LBB230:
.LBB231:
	.loc 3 228 18 view .LVU63
	fcvt	d0, s9
	mov	x0, x25
.LBE231:
.LBE230:
.LBB233:
.LBB219:
.LBB217:
.LBB215:
	.loc 4 754 16 view .LVU64
	ldr	x1, [x1, -24]
	add	x1, x25, x1
	str	x19, [x1, 16]
.LVL10:
	.loc 4 755 7 is_stmt 1 view .LVU65
	.loc 4 755 7 is_stmt 0 view .LVU66
.LBE215:
.LBE217:
.LBE219:
.LBE233:
.LBB234:
.LBI230:
	.loc 3 224 7 is_stmt 1 view .LVU67
.LBB232:
	.loc 3 228 18 is_stmt 0 view .LVU68
	bl	_ZNSo9_M_insertIdEERSoT_
.LVL11:
	.loc 3 228 18 view .LVU69
.LBE232:
.LBE234:
.LBB235:
.LBI235:
	.loc 3 606 5 is_stmt 1 view .LVU70
	.loc 3 606 5 is_stmt 0 view .LVU71
.LBE235:
.LBE259:
.LBE275:
	.loc 5 364 2 is_stmt 1 view .LVU72
.LBB276:
.LBB260:
.LBB237:
.LBB236:
	.loc 3 611 18 is_stmt 0 view .LVU73
	add	x1, x23, :lo12:.LC4
	mov	x2, 1
	bl	_ZSt16__ostream_insertIcSt11char_traitsIcEERSt13basic_ostreamIT_T0_ES6_PKS3_l
.LVL12:
	.loc 3 611 18 view .LVU74
.LBE236:
.LBE237:
	.loc 1 19 3 is_stmt 1 view .LVU75
.LBB238:
.LBI220:
	.loc 3 606 5 view .LVU76
	.loc 3 606 5 is_stmt 0 view .LVU77
.LBE238:
.LBE260:
.LBE276:
	.loc 5 364 2 is_stmt 1 view .LVU78
.LBB277:
.LBB261:
.LBB239:
.LBB222:
	.loc 3 611 18 is_stmt 0 view .LVU79
	mov	x2, 2
	mov	x1, x21
	mov	x0, x25
	bl	_ZSt16__ostream_insertIcSt11char_traitsIcEERSt13basic_ostreamIT_T0_ES6_PKS3_l
.LVL13:
	.loc 3 611 18 view .LVU80
.LBE222:
.LBE239:
.LBE261:
.LBE277:
	.loc 2 226 5 is_stmt 1 view .LVU81
.LBB278:
.LBB262:
.LBB240:
.LBI240:
	.loc 2 238 5 view .LVU82
.LBB241:
.LBB242:
.LBI242:
	.loc 4 751 5 view .LVU83
.LBB243:
	.loc 4 753 7 view .LVU84
	.loc 4 754 7 view .LVU85
.LBE243:
.LBE242:
	.loc 2 240 17 is_stmt 0 view .LVU86
	ldr	x1, [x25]
.LBE241:
.LBE240:
.LBB247:
.LBB248:
	.loc 3 228 18 view .LVU87
	fcvt	d0, s8
	mov	x0, x25
.LBE248:
.LBE247:
.LBB250:
.LBB246:
.LBB245:
.LBB244:
	.loc 4 754 16 view .LVU88
	ldr	x1, [x1, -24]
	add	x1, x25, x1
	str	x19, [x1, 16]
.LVL14:
	.loc 4 755 7 is_stmt 1 view .LVU89
	.loc 4 755 7 is_stmt 0 view .LVU90
.LBE244:
.LBE245:
.LBE246:
.LBE250:
.LBB251:
.LBI247:
	.loc 3 224 7 is_stmt 1 view .LVU91
.LBB249:
	.loc 3 228 18 is_stmt 0 view .LVU92
	bl	_ZNSo9_M_insertIdEERSoT_
.LVL15:
	.loc 3 228 18 view .LVU93
	strb	w19, [sp, 152]
.LVL16:
	.loc 3 228 18 view .LVU94
.LBE249:
.LBE251:
.LBB252:
.LBI252:
	.loc 3 517 5 is_stmt 1 view .LVU95
.LBB253:
	.loc 3 518 30 is_stmt 0 view .LVU96
	mov	x1, x24
	mov	x2, 1
	bl	_ZSt16__ostream_insertIcSt11char_traitsIcEERSt13basic_ostreamIT_T0_ES6_PKS3_l
.LVL17:
	.loc 3 518 30 view .LVU97
.LBE253:
.LBE252:
.LBE262:
	.loc 1 15 2 is_stmt 1 view .LVU98
	.loc 1 15 18 view .LVU99
	cmp	x20, 5
	bne	.L2
.LBE278:
	.loc 1 21 2 view .LVU100
.LBB279:
.LBB280:
	.loc 2 210 21 is_stmt 0 view .LVU101
	ldr	x0, [x25]
.LBE280:
.LBE279:
	.loc 1 21 8 view .LVU102
	adrp	x1, .LANCHOR0
	add	x28, x1, :lo12:.LANCHOR0
.LBB296:
.LBB291:
.LBB281:
.LBB282:
	.loc 4 731 20 view .LVU103
	mov	x8, 6
.LBE282:
.LBE281:
.LBE291:
.LBE296:
.LBB297:
.LBB298:
	.loc 3 611 18 view .LVU104
	mov	x2, 12
.LBE298:
.LBE297:
.LBB302:
.LBB303:
	.loc 3 518 30 view .LVU105
	add	x27, sp, 127
.LBE303:
.LBE302:
.LBB305:
.LBB292:
.LBB287:
.LBB283:
	.loc 4 731 20 view .LVU106
	ldr	x4, [x0, -24]
.LBE283:
.LBE287:
.LBE292:
.LBE305:
.LBB306:
.LBB299:
	.loc 3 611 18 view .LVU107
	adrp	x1, .LC6
.LBE299:
.LBE306:
	.loc 1 21 8 view .LVU108
	ldp	x6, x7, [x28, 24]
.LBB307:
.LBB293:
.LBB288:
.LBB284:
	.loc 4 731 20 view .LVU109
	add	x4, x25, x4
.LBE284:
.LBE288:
.LBE293:
.LBE307:
	.loc 1 21 8 view .LVU110
	ldr	w5, [x28, 40]
.LBB308:
.LBB300:
	.loc 3 611 18 view .LVU111
	add	x1, x1, :lo12:.LC6
	mov	x0, x25
.LBE300:
.LBE308:
	.loc 1 21 8 view .LVU112
	stp	x6, x7, [x24]
	mov	x26, x24
.LBB309:
.LBB294:
.LBB289:
.LBB285:
	.loc 4 731 20 view .LVU113
	str	x8, [x4, 8]
.LBE285:
.LBE289:
.LBE294:
.LBE309:
.LBB310:
	.loc 1 25 13 view .LVU114
	mov	x20, 0
.LVL18:
	.loc 1 25 13 view .LVU115
.LBE310:
	.loc 1 21 8 view .LVU116
	str	w5, [x24, 16]
	.loc 1 22 5 is_stmt 1 view .LVU117
.LVL19:
	.loc 1 23 5 view .LVU118
	.loc 2 196 5 view .LVU119
.LBB366:
.LBI279:
	.loc 2 208 5 view .LVU120
.LBB295:
.LBB290:
.LBI281:
	.loc 4 728 5 view .LVU121
.LBB286:
	.loc 4 730 7 view .LVU122
	.loc 4 731 7 view .LVU123
	.loc 4 732 7 view .LVU124
	.loc 4 732 7 is_stmt 0 view .LVU125
.LBE286:
.LBE290:
.LBE295:
.LBE366:
	.loc 1 24 2 is_stmt 1 view .LVU126
.LBB367:
.LBI297:
	.loc 3 606 5 view .LVU127
	.loc 3 606 5 is_stmt 0 view .LVU128
.LBE367:
	.loc 5 364 2 is_stmt 1 view .LVU129
.LBB368:
.LBB301:
	.loc 3 611 18 is_stmt 0 view .LVU130
	bl	_ZSt16__ostream_insertIcSt11char_traitsIcEERSt13basic_ostreamIT_T0_ES6_PKS3_l
.LVL20:
	.loc 3 611 18 view .LVU131
	strb	w19, [sp, 127]
.LVL21:
	.loc 3 611 18 view .LVU132
.LBE301:
.LBE368:
.LBB369:
.LBI302:
	.loc 3 517 5 is_stmt 1 view .LVU133
.LBB304:
	.loc 3 518 30 is_stmt 0 view .LVU134
	mov	x1, x27
	mov	x0, x25
	mov	x2, 1
	bl	_ZSt16__ostream_insertIcSt11char_traitsIcEERSt13basic_ostreamIT_T0_ES6_PKS3_l
.LVL22:
	.loc 3 518 30 view .LVU135
.LBE304:
.LBE369:
	.loc 1 25 2 is_stmt 1 view .LVU136
.LBB370:
	.loc 1 25 19 view .LVU137
.L3:
.LBB311:
	.loc 1 26 3 view .LVU138
	.loc 1 26 21 is_stmt 0 view .LVU139
	ldr	s9, [x26], 4
.LBB312:
.LBB313:
.LBB314:
.LBB315:
	.loc 4 754 16 view .LVU140
	mov	x19, 10
.LBE315:
.LBE314:
.LBE313:
.LBE312:
	.loc 1 26 21 view .LVU141
	fmov	s0, s9
	bl	cvtCtoF_
.LVL23:
	fmov	s8, s0
.LVL24:
	.loc 1 27 3 is_stmt 1 view .LVU142
.LBB322:
.LBI322:
	.loc 3 606 5 view .LVU143
	.loc 3 606 5 is_stmt 0 view .LVU144
.LBE322:
.LBE311:
.LBE370:
	.loc 5 364 2 is_stmt 1 view .LVU145
.LBB371:
.LBB360:
.LBB324:
.LBB323:
	.loc 3 611 18 is_stmt 0 view .LVU146
	mov	x2, 2
	mov	x1, x22
	mov	x0, x25
	bl	_ZSt16__ostream_insertIcSt11char_traitsIcEERSt13basic_ostreamIT_T0_ES6_PKS3_l
.LVL25:
	.loc 3 611 18 view .LVU147
.LBE323:
.LBE324:
.LBB325:
.LBI325:
	.loc 3 170 7 is_stmt 1 view .LVU148
.LBB326:
	.loc 3 171 25 is_stmt 0 view .LVU149
	mov	x1, x20
	mov	x0, x25
	bl	_ZNSo9_M_insertImEERSoT_
.LVL26:
	.loc 3 171 25 view .LVU150
.LBE326:
.LBE325:
	.loc 1 28 3 is_stmt 1 view .LVU151
.LBB327:
.LBI327:
	.loc 3 606 5 view .LVU152
	.loc 3 606 5 is_stmt 0 view .LVU153
.LBE327:
.LBE360:
.LBE371:
	.loc 5 364 2 is_stmt 1 view .LVU154
.LBB372:
	.loc 1 25 2 is_stmt 0 view .LVU155
	add	x20, x20, 1
.LVL27:
.LBB361:
.LBB329:
.LBB328:
	.loc 3 611 18 view .LVU156
	mov	x2, 2
	mov	x1, x21
	mov	x0, x25
	bl	_ZSt16__ostream_insertIcSt11char_traitsIcEERSt13basic_ostreamIT_T0_ES6_PKS3_l
.LVL28:
	.loc 3 611 18 view .LVU157
.LBE328:
.LBE329:
.LBE361:
.LBE372:
	.loc 2 226 5 is_stmt 1 view .LVU158
.LBB373:
.LBB362:
.LBB330:
.LBI312:
	.loc 2 238 5 view .LVU159
.LBB320:
.LBB318:
.LBI314:
	.loc 4 751 5 view .LVU160
.LBB316:
	.loc 4 753 7 view .LVU161
	.loc 4 754 7 view .LVU162
.LBE316:
.LBE318:
	.loc 2 240 17 is_stmt 0 view .LVU163
	ldr	x1, [x25]
.LBE320:
.LBE330:
.LBB331:
.LBB332:
	.loc 3 228 18 view .LVU164
	fcvt	d0, s9
	mov	x0, x25
.LBE332:
.LBE331:
.LBB334:
.LBB321:
.LBB319:
.LBB317:
	.loc 4 754 16 view .LVU165
	ldr	x1, [x1, -24]
	add	x1, x25, x1
	str	x19, [x1, 16]
.LVL29:
	.loc 4 755 7 is_stmt 1 view .LVU166
	.loc 4 755 7 is_stmt 0 view .LVU167
.LBE317:
.LBE319:
.LBE321:
.LBE334:
.LBB335:
.LBI331:
	.loc 3 224 7 is_stmt 1 view .LVU168
.LBB333:
	.loc 3 228 18 is_stmt 0 view .LVU169
	bl	_ZNSo9_M_insertIdEERSoT_
.LVL30:
	.loc 3 228 18 view .LVU170
.LBE333:
.LBE335:
.LBB336:
.LBI336:
	.loc 3 606 5 is_stmt 1 view .LVU171
	.loc 3 606 5 is_stmt 0 view .LVU172
.LBE336:
.LBE362:
.LBE373:
	.loc 5 364 2 is_stmt 1 view .LVU173
.LBB374:
.LBB363:
.LBB338:
.LBB337:
	.loc 3 611 18 is_stmt 0 view .LVU174
	add	x1, x23, :lo12:.LC4
	mov	x2, 1
	bl	_ZSt16__ostream_insertIcSt11char_traitsIcEERSt13basic_ostreamIT_T0_ES6_PKS3_l
.LVL31:
	.loc 3 611 18 view .LVU175
.LBE337:
.LBE338:
	.loc 1 29 3 is_stmt 1 view .LVU176
.LBB339:
.LBI339:
	.loc 3 606 5 view .LVU177
	.loc 3 606 5 is_stmt 0 view .LVU178
.LBE339:
.LBE363:
.LBE374:
	.loc 5 364 2 is_stmt 1 view .LVU179
.LBB375:
.LBB364:
.LBB341:
.LBB340:
	.loc 3 611 18 is_stmt 0 view .LVU180
	adrp	x0, .LC3
	mov	x2, 2
	add	x1, x0, :lo12:.LC3
	mov	x0, x25
	bl	_ZSt16__ostream_insertIcSt11char_traitsIcEERSt13basic_ostreamIT_T0_ES6_PKS3_l
.LVL32:
	.loc 3 611 18 view .LVU181
.LBE340:
.LBE341:
.LBE364:
.LBE375:
	.loc 2 226 5 is_stmt 1 view .LVU182
.LBB376:
.LBB365:
.LBB342:
.LBI342:
	.loc 2 238 5 view .LVU183
.LBB343:
.LBB344:
.LBI344:
	.loc 4 751 5 view .LVU184
.LBB345:
	.loc 4 753 7 view .LVU185
	.loc 4 754 7 view .LVU186
.LBE345:
.LBE344:
.LBE343:
.LBE342:
.LBB350:
.LBB351:
	.loc 3 228 18 is_stmt 0 view .LVU187
	fcvt	d0, s8
.LBE351:
.LBE350:
.LBB354:
.LBB348:
	.loc 2 240 17 view .LVU188
	ldr	x1, [x25]
.LBE348:
.LBE354:
.LBB355:
.LBB352:
	.loc 3 228 18 view .LVU189
	mov	x0, x25
.LBE352:
.LBE355:
.LBB356:
.LBB349:
.LBB347:
.LBB346:
	.loc 4 754 16 view .LVU190
	ldr	x1, [x1, -24]
	add	x1, x25, x1
	str	x19, [x1, 16]
.LVL33:
	.loc 4 755 7 is_stmt 1 view .LVU191
	.loc 4 755 7 is_stmt 0 view .LVU192
.LBE346:
.LBE347:
.LBE349:
.LBE356:
.LBB357:
.LBI350:
	.loc 3 224 7 is_stmt 1 view .LVU193
.LBB353:
	.loc 3 228 18 is_stmt 0 view .LVU194
	bl	_ZNSo9_M_insertIdEERSoT_
.LVL34:
	.loc 3 228 18 view .LVU195
	strb	w19, [sp, 127]
.LVL35:
	.loc 3 228 18 view .LVU196
.LBE353:
.LBE357:
.LBB358:
.LBI358:
	.loc 3 517 5 is_stmt 1 view .LVU197
.LBB359:
	.loc 3 518 30 is_stmt 0 view .LVU198
	mov	x1, x27
	mov	x2, 1
	bl	_ZSt16__ostream_insertIcSt11char_traitsIcEERSt13basic_ostreamIT_T0_ES6_PKS3_l
.LVL36:
	.loc 3 518 30 view .LVU199
.LBE359:
.LBE358:
.LBE365:
	.loc 1 25 2 is_stmt 1 view .LVU200
	.loc 1 25 19 view .LVU201
	cmp	x20, 5
	bne	.L3
.LBE376:
	.loc 1 31 2 view .LVU202
	.loc 1 32 1 is_stmt 0 view .LVU203
	mov	w0, 0
	ldp	x19, x20, [sp, 16]
.LVL37:
	.loc 1 32 1 view .LVU204
	ldp	x21, x22, [sp, 32]
	ldp	x23, x24, [sp, 48]
	ldp	x25, x26, [sp, 64]
	ldp	x27, x28, [sp, 80]
	ldp	d8, d9, [sp, 96]
.LVL38:
	.loc 1 32 1 view .LVU205
	ldp	x29, x30, [sp], 176
	.cfi_restore 30
	.cfi_restore 29
	.cfi_restore 27
	.cfi_restore 28
	.cfi_restore 25
	.cfi_restore 26
	.cfi_restore 23
	.cfi_restore 24
	.cfi_restore 21
	.cfi_restore 22
	.cfi_restore 19
	.cfi_restore 20
	.cfi_restore 72
	.cfi_restore 73
	.cfi_def_cfa_offset 0
	ret
	.cfi_endproc
.LFE2184:
	.size	main, .-main
	.align	2
	.p2align 4,,11
	.type	_GLOBAL__sub_I_main, %function
_GLOBAL__sub_I_main:
.LFB2699:
	.loc 1 32 1 is_stmt 1 view -0
	.cfi_startproc
.LVL39:
.LBB377:
.LBI377:
	.loc 1 32 1 view .LVU207
.LBE377:
	stp	x29, x30, [sp, -32]!
	.cfi_def_cfa_offset 32
	.cfi_offset 29, -32
	.cfi_offset 30, -24
	mov	x29, sp
	str	x19, [sp, 16]
	.cfi_offset 19, -16
.LBB381:
.LBB378:
	.file 6 "/usr/include/c++/10/iostream"
	.loc 6 74 25 is_stmt 0 view .LVU208
	adrp	x19, .LANCHOR1
	add	x19, x19, :lo12:.LANCHOR1
	mov	x0, x19
	bl	_ZNSt8ios_base4InitC1Ev
.LVL40:
	mov	x1, x19
	adrp	x0, :got:_ZNSt8ios_base4InitD1Ev
.LBE378:
.LBE381:
	.loc 1 32 1 view .LVU209
	ldr	x19, [sp, 16]
.LBB382:
.LBB379:
	.loc 6 74 25 view .LVU210
	adrp	x2, __dso_handle
.LBE379:
.LBE382:
	.loc 1 32 1 view .LVU211
	ldp	x29, x30, [sp], 32
	.cfi_restore 30
	.cfi_restore 29
	.cfi_restore 19
	.cfi_def_cfa_offset 0
.LBB383:
.LBB380:
	.loc 6 74 25 view .LVU212
	add	x2, x2, :lo12:__dso_handle
	ldr	x0, [x0, #:got_lo12:_ZNSt8ios_base4InitD1Ev]
	b	__cxa_atexit
.LVL41:
.LBE380:
.LBE383:
	.cfi_endproc
.LFE2699:
	.size	_GLOBAL__sub_I_main, .-_GLOBAL__sub_I_main
	.section	.init_array,"aw"
	.align	3
	.xword	_GLOBAL__sub_I_main
	.section	.rodata
	.align	3
	.set	.LANCHOR0,. + 0
.LC0:
	.word	1138001838
	.word	-1038090240
	.word	0
	.word	1117434675
	.word	1116084634
	.zero	4
.LC1:
	.word	1120403456
	.word	-1054867456
	.word	1108738048
	.word	1082235290
	.word	0
	.bss
	.align	3
	.set	.LANCHOR1,. + 0
	.type	_ZStL8__ioinit, %object
	.size	_ZStL8__ioinit, 1
_ZStL8__ioinit:
	.zero	1
	.text
.Letext0:
	.file 7 "/usr/include/c++/10/cwchar"
	.file 8 "/usr/include/c++/10/bits/exception_ptr.h"
	.file 9 "/usr/include/aarch64-linux-gnu/c++/10/bits/c++config.h"
	.file 10 "/usr/include/c++/10/bits/stl_pair.h"
	.file 11 "/usr/include/c++/10/type_traits"
	.file 12 "/usr/include/c++/10/debug/debug.h"
	.file 13 "/usr/include/c++/10/cstdint"
	.file 14 "/usr/include/c++/10/clocale"
	.file 15 "/usr/include/c++/10/cstdlib"
	.file 16 "/usr/include/c++/10/cstdio"
	.file 17 "/usr/include/c++/10/bits/basic_string.h"
	.file 18 "/usr/include/c++/10/system_error"
	.file 19 "/usr/include/c++/10/cwctype"
	.file 20 "/usr/include/c++/10/bits/ostream.tcc"
	.file 21 "/usr/include/c++/10/iosfwd"
	.file 22 "/usr/include/c++/10/ctime"
	.file 23 "/usr/include/c++/10/bits/uses_allocator.h"
	.file 24 "/usr/include/c++/10/tuple"
	.file 25 "/usr/include/c++/10/bits/basic_ios.h"
	.file 26 "/usr/include/c++/10/bits/postypes.h"
	.file 27 "/usr/include/c++/10/bits/ostream_insert.h"
	.file 28 "/usr/include/c++/10/bits/predefined_ops.h"
	.file 29 "/usr/lib/gcc/aarch64-linux-gnu/10/include/stddef.h"
	.file 30 "/usr/lib/gcc/aarch64-linux-gnu/10/include/stdarg.h"
	.file 31 "/usr/include/aarch64-linux-gnu/bits/types/wint_t.h"
	.file 32 "/usr/include/aarch64-linux-gnu/bits/types/__mbstate_t.h"
	.file 33 "/usr/include/aarch64-linux-gnu/bits/types/mbstate_t.h"
	.file 34 "/usr/include/aarch64-linux-gnu/bits/types/__FILE.h"
	.file 35 "/usr/include/aarch64-linux-gnu/bits/types/struct_FILE.h"
	.file 36 "/usr/include/aarch64-linux-gnu/bits/types/FILE.h"
	.file 37 "/usr/include/wchar.h"
	.file 38 "/usr/include/aarch64-linux-gnu/bits/types/struct_tm.h"
	.file 39 "/usr/include/aarch64-linux-gnu/bits/types.h"
	.file 40 "/usr/include/aarch64-linux-gnu/bits/stdint-intn.h"
	.file 41 "/usr/include/aarch64-linux-gnu/bits/stdint-uintn.h"
	.file 42 "/usr/include/stdint.h"
	.file 43 "/usr/include/locale.h"
	.file 44 "/usr/include/aarch64-linux-gnu/bits/types/time_t.h"
	.file 45 "/usr/include/aarch64-linux-gnu/bits/types/clock_t.h"
	.file 46 "/usr/include/aarch64-linux-gnu/c++/10/bits/atomic_word.h"
	.file 47 "/usr/include/stdlib.h"
	.file 48 "/usr/include/aarch64-linux-gnu/bits/stdlib-float.h"
	.file 49 "/usr/include/aarch64-linux-gnu/bits/stdlib-bsearch.h"
	.file 50 "/usr/include/aarch64-linux-gnu/bits/types/__fpos_t.h"
	.file 51 "/usr/include/stdio.h"
	.file 52 "/usr/include/aarch64-linux-gnu/bits/stdio.h"
	.file 53 "/usr/include/aarch64-linux-gnu/bits/wctype-wchar.h"
	.file 54 "/usr/include/wctype.h"
	.file 55 "/usr/include/time.h"
	.file 56 "<built-in>"
	.section	.note.GNU-stack,"",@progbits
