AARCH64 GAS  obj/Chapter11_4.s 			page 1


 GNU assembler version 2.35.2 (aarch64-linux-gnu)
	 using BFD version (GNU Binutils for Debian) 2.35.2.
 options passed	: -I -I -EL -march=armv8-a+simd -mabi=lp64 -aghl=obj/Chapter11_4.lst 
 input file    	: obj/Chapter11_4.s
 output file   	: obj/Chapter11_4.o
 target        	: aarch64-unknown-linux-gnu
 time stamp    	: 2022-07-20T19:38:56.000-0400

AARCH64 GAS  obj/Chapter11_4.s 			page 2


   1              		.arch armv8-a
   2              		.file	"Chapter11_4.cpp"
   3              		.text
   4              	.Ltext0:
   5              		.section	.text._ZNKSt5ctypeIcE8do_widenEc,"axG",@progbits,_ZNKSt5ctypeIcE8do_widenEc,comdat
   6              		.align	2
   7              		.p2align 4,,11
   8              		.weak	_ZNKSt5ctypeIcE8do_widenEc
   9              		.type	_ZNKSt5ctypeIcE8do_widenEc, %function
  10              	_ZNKSt5ctypeIcE8do_widenEc:
  11              	.LVL0:
  12              	.LFB1342:
  13              		.file 1 "/usr/include/c++/10/bits/locale_facets.h"
   1:/usr/include/c++/10/bits/locale_facets.h **** // Locale support -*- C++ -*-
   2:/usr/include/c++/10/bits/locale_facets.h **** 
   3:/usr/include/c++/10/bits/locale_facets.h **** // Copyright (C) 1997-2020 Free Software Foundation, Inc.
   4:/usr/include/c++/10/bits/locale_facets.h **** //
   5:/usr/include/c++/10/bits/locale_facets.h **** // This file is part of the GNU ISO C++ Library.  This library is free
   6:/usr/include/c++/10/bits/locale_facets.h **** // software; you can redistribute it and/or modify it under the
   7:/usr/include/c++/10/bits/locale_facets.h **** // terms of the GNU General Public License as published by the
   8:/usr/include/c++/10/bits/locale_facets.h **** // Free Software Foundation; either version 3, or (at your option)
   9:/usr/include/c++/10/bits/locale_facets.h **** // any later version.
  10:/usr/include/c++/10/bits/locale_facets.h **** 
  11:/usr/include/c++/10/bits/locale_facets.h **** // This library is distributed in the hope that it will be useful,
  12:/usr/include/c++/10/bits/locale_facets.h **** // but WITHOUT ANY WARRANTY; without even the implied warranty of
  13:/usr/include/c++/10/bits/locale_facets.h **** // MERCHANTABILITY or FITNESS FOR A PARTICULAR PURPOSE.  See the
  14:/usr/include/c++/10/bits/locale_facets.h **** // GNU General Public License for more details.
  15:/usr/include/c++/10/bits/locale_facets.h **** 
  16:/usr/include/c++/10/bits/locale_facets.h **** // Under Section 7 of GPL version 3, you are granted additional
  17:/usr/include/c++/10/bits/locale_facets.h **** // permissions described in the GCC Runtime Library Exception, version
  18:/usr/include/c++/10/bits/locale_facets.h **** // 3.1, as published by the Free Software Foundation.
  19:/usr/include/c++/10/bits/locale_facets.h **** 
  20:/usr/include/c++/10/bits/locale_facets.h **** // You should have received a copy of the GNU General Public License and
  21:/usr/include/c++/10/bits/locale_facets.h **** // a copy of the GCC Runtime Library Exception along with this program;
  22:/usr/include/c++/10/bits/locale_facets.h **** // see the files COPYING3 and COPYING.RUNTIME respectively.  If not, see
  23:/usr/include/c++/10/bits/locale_facets.h **** // <http://www.gnu.org/licenses/>.
  24:/usr/include/c++/10/bits/locale_facets.h **** 
  25:/usr/include/c++/10/bits/locale_facets.h **** /** @file bits/locale_facets.h
  26:/usr/include/c++/10/bits/locale_facets.h ****  *  This is an internal header file, included by other library headers.
  27:/usr/include/c++/10/bits/locale_facets.h ****  *  Do not attempt to use it directly. @headername{locale}
  28:/usr/include/c++/10/bits/locale_facets.h ****  */
  29:/usr/include/c++/10/bits/locale_facets.h **** 
  30:/usr/include/c++/10/bits/locale_facets.h **** //
  31:/usr/include/c++/10/bits/locale_facets.h **** // ISO C++ 14882: 22.1  Locales
  32:/usr/include/c++/10/bits/locale_facets.h **** //
  33:/usr/include/c++/10/bits/locale_facets.h **** 
  34:/usr/include/c++/10/bits/locale_facets.h **** #ifndef _LOCALE_FACETS_H
  35:/usr/include/c++/10/bits/locale_facets.h **** #define _LOCALE_FACETS_H 1
  36:/usr/include/c++/10/bits/locale_facets.h **** 
  37:/usr/include/c++/10/bits/locale_facets.h **** #pragma GCC system_header
  38:/usr/include/c++/10/bits/locale_facets.h **** 
  39:/usr/include/c++/10/bits/locale_facets.h **** #include <cwctype>	// For wctype_t
  40:/usr/include/c++/10/bits/locale_facets.h **** #include <cctype>
  41:/usr/include/c++/10/bits/locale_facets.h **** #include <bits/ctype_base.h>
  42:/usr/include/c++/10/bits/locale_facets.h **** #include <iosfwd>
  43:/usr/include/c++/10/bits/locale_facets.h **** #include <bits/ios_base.h>  // For ios_base, ios_base::iostate
  44:/usr/include/c++/10/bits/locale_facets.h **** #include <streambuf>
AARCH64 GAS  obj/Chapter11_4.s 			page 3


  45:/usr/include/c++/10/bits/locale_facets.h **** #include <bits/cpp_type_traits.h>
  46:/usr/include/c++/10/bits/locale_facets.h **** #include <ext/type_traits.h>
  47:/usr/include/c++/10/bits/locale_facets.h **** #include <ext/numeric_traits.h>
  48:/usr/include/c++/10/bits/locale_facets.h **** #include <bits/streambuf_iterator.h>
  49:/usr/include/c++/10/bits/locale_facets.h **** 
  50:/usr/include/c++/10/bits/locale_facets.h **** namespace std _GLIBCXX_VISIBILITY(default)
  51:/usr/include/c++/10/bits/locale_facets.h **** {
  52:/usr/include/c++/10/bits/locale_facets.h **** _GLIBCXX_BEGIN_NAMESPACE_VERSION
  53:/usr/include/c++/10/bits/locale_facets.h **** 
  54:/usr/include/c++/10/bits/locale_facets.h ****   // NB: Don't instantiate required wchar_t facets if no wchar_t support.
  55:/usr/include/c++/10/bits/locale_facets.h **** #ifdef _GLIBCXX_USE_WCHAR_T
  56:/usr/include/c++/10/bits/locale_facets.h **** # define  _GLIBCXX_NUM_FACETS 28
  57:/usr/include/c++/10/bits/locale_facets.h **** # define  _GLIBCXX_NUM_CXX11_FACETS 16
  58:/usr/include/c++/10/bits/locale_facets.h **** #else
  59:/usr/include/c++/10/bits/locale_facets.h **** # define  _GLIBCXX_NUM_FACETS 14
  60:/usr/include/c++/10/bits/locale_facets.h **** # define  _GLIBCXX_NUM_CXX11_FACETS 8
  61:/usr/include/c++/10/bits/locale_facets.h **** #endif
  62:/usr/include/c++/10/bits/locale_facets.h **** #ifdef _GLIBCXX_USE_CHAR8_T
  63:/usr/include/c++/10/bits/locale_facets.h **** # define _GLIBCXX_NUM_UNICODE_FACETS 4
  64:/usr/include/c++/10/bits/locale_facets.h **** #else
  65:/usr/include/c++/10/bits/locale_facets.h **** # define _GLIBCXX_NUM_UNICODE_FACETS 2
  66:/usr/include/c++/10/bits/locale_facets.h **** #endif
  67:/usr/include/c++/10/bits/locale_facets.h **** 
  68:/usr/include/c++/10/bits/locale_facets.h ****   // Convert string to numeric value of type _Tp and store results.
  69:/usr/include/c++/10/bits/locale_facets.h ****   // NB: This is specialized for all required types, there is no
  70:/usr/include/c++/10/bits/locale_facets.h ****   // generic definition.
  71:/usr/include/c++/10/bits/locale_facets.h ****   template<typename _Tp>
  72:/usr/include/c++/10/bits/locale_facets.h ****     void
  73:/usr/include/c++/10/bits/locale_facets.h ****     __convert_to_v(const char*, _Tp&, ios_base::iostate&,
  74:/usr/include/c++/10/bits/locale_facets.h **** 		   const __c_locale&) throw();
  75:/usr/include/c++/10/bits/locale_facets.h **** 
  76:/usr/include/c++/10/bits/locale_facets.h ****   // Explicit specializations for required types.
  77:/usr/include/c++/10/bits/locale_facets.h ****   template<>
  78:/usr/include/c++/10/bits/locale_facets.h ****     void
  79:/usr/include/c++/10/bits/locale_facets.h ****     __convert_to_v(const char*, float&, ios_base::iostate&,
  80:/usr/include/c++/10/bits/locale_facets.h **** 		   const __c_locale&) throw();
  81:/usr/include/c++/10/bits/locale_facets.h **** 
  82:/usr/include/c++/10/bits/locale_facets.h ****   template<>
  83:/usr/include/c++/10/bits/locale_facets.h ****     void
  84:/usr/include/c++/10/bits/locale_facets.h ****     __convert_to_v(const char*, double&, ios_base::iostate&,
  85:/usr/include/c++/10/bits/locale_facets.h **** 		   const __c_locale&) throw();
  86:/usr/include/c++/10/bits/locale_facets.h **** 
  87:/usr/include/c++/10/bits/locale_facets.h ****   template<>
  88:/usr/include/c++/10/bits/locale_facets.h ****     void
  89:/usr/include/c++/10/bits/locale_facets.h ****     __convert_to_v(const char*, long double&, ios_base::iostate&,
  90:/usr/include/c++/10/bits/locale_facets.h **** 		   const __c_locale&) throw();
  91:/usr/include/c++/10/bits/locale_facets.h **** 
  92:/usr/include/c++/10/bits/locale_facets.h ****   // NB: __pad is a struct, rather than a function, so it can be
  93:/usr/include/c++/10/bits/locale_facets.h ****   // partially-specialized.
  94:/usr/include/c++/10/bits/locale_facets.h ****   template<typename _CharT, typename _Traits>
  95:/usr/include/c++/10/bits/locale_facets.h ****     struct __pad
  96:/usr/include/c++/10/bits/locale_facets.h ****     {
  97:/usr/include/c++/10/bits/locale_facets.h ****       static void
  98:/usr/include/c++/10/bits/locale_facets.h ****       _S_pad(ios_base& __io, _CharT __fill, _CharT* __news,
  99:/usr/include/c++/10/bits/locale_facets.h **** 	     const _CharT* __olds, streamsize __newlen, streamsize __oldlen);
 100:/usr/include/c++/10/bits/locale_facets.h ****     };
 101:/usr/include/c++/10/bits/locale_facets.h **** 
AARCH64 GAS  obj/Chapter11_4.s 			page 4


 102:/usr/include/c++/10/bits/locale_facets.h ****   // Used by both numeric and monetary facets.
 103:/usr/include/c++/10/bits/locale_facets.h ****   // Inserts "group separator" characters into an array of characters.
 104:/usr/include/c++/10/bits/locale_facets.h ****   // It's recursive, one iteration per group.  It moves the characters
 105:/usr/include/c++/10/bits/locale_facets.h ****   // in the buffer this way: "xxxx12345" -> "12,345xxx".  Call this
 106:/usr/include/c++/10/bits/locale_facets.h ****   // only with __gsize != 0.
 107:/usr/include/c++/10/bits/locale_facets.h ****   template<typename _CharT>
 108:/usr/include/c++/10/bits/locale_facets.h ****     _CharT*
 109:/usr/include/c++/10/bits/locale_facets.h ****     __add_grouping(_CharT* __s, _CharT __sep,
 110:/usr/include/c++/10/bits/locale_facets.h **** 		   const char* __gbeg, size_t __gsize,
 111:/usr/include/c++/10/bits/locale_facets.h **** 		   const _CharT* __first, const _CharT* __last);
 112:/usr/include/c++/10/bits/locale_facets.h **** 
 113:/usr/include/c++/10/bits/locale_facets.h ****   // This template permits specializing facet output code for
 114:/usr/include/c++/10/bits/locale_facets.h ****   // ostreambuf_iterator.  For ostreambuf_iterator, sputn is
 115:/usr/include/c++/10/bits/locale_facets.h ****   // significantly more efficient than incrementing iterators.
 116:/usr/include/c++/10/bits/locale_facets.h ****   template<typename _CharT>
 117:/usr/include/c++/10/bits/locale_facets.h ****     inline
 118:/usr/include/c++/10/bits/locale_facets.h ****     ostreambuf_iterator<_CharT>
 119:/usr/include/c++/10/bits/locale_facets.h ****     __write(ostreambuf_iterator<_CharT> __s, const _CharT* __ws, int __len)
 120:/usr/include/c++/10/bits/locale_facets.h ****     {
 121:/usr/include/c++/10/bits/locale_facets.h ****       __s._M_put(__ws, __len);
 122:/usr/include/c++/10/bits/locale_facets.h ****       return __s;
 123:/usr/include/c++/10/bits/locale_facets.h ****     }
 124:/usr/include/c++/10/bits/locale_facets.h **** 
 125:/usr/include/c++/10/bits/locale_facets.h ****   // This is the unspecialized form of the template.
 126:/usr/include/c++/10/bits/locale_facets.h ****   template<typename _CharT, typename _OutIter>
 127:/usr/include/c++/10/bits/locale_facets.h ****     inline
 128:/usr/include/c++/10/bits/locale_facets.h ****     _OutIter
 129:/usr/include/c++/10/bits/locale_facets.h ****     __write(_OutIter __s, const _CharT* __ws, int __len)
 130:/usr/include/c++/10/bits/locale_facets.h ****     {
 131:/usr/include/c++/10/bits/locale_facets.h ****       for (int __j = 0; __j < __len; __j++, ++__s)
 132:/usr/include/c++/10/bits/locale_facets.h **** 	*__s = __ws[__j];
 133:/usr/include/c++/10/bits/locale_facets.h ****       return __s;
 134:/usr/include/c++/10/bits/locale_facets.h ****     }
 135:/usr/include/c++/10/bits/locale_facets.h **** 
 136:/usr/include/c++/10/bits/locale_facets.h **** 
 137:/usr/include/c++/10/bits/locale_facets.h ****   // 22.2.1.1  Template class ctype
 138:/usr/include/c++/10/bits/locale_facets.h ****   // Include host and configuration specific ctype enums for ctype_base.
 139:/usr/include/c++/10/bits/locale_facets.h **** 
 140:/usr/include/c++/10/bits/locale_facets.h ****   /**
 141:/usr/include/c++/10/bits/locale_facets.h ****    *  @brief  Common base for ctype facet
 142:/usr/include/c++/10/bits/locale_facets.h ****    *
 143:/usr/include/c++/10/bits/locale_facets.h ****    *  This template class provides implementations of the public functions
 144:/usr/include/c++/10/bits/locale_facets.h ****    *  that forward to the protected virtual functions.
 145:/usr/include/c++/10/bits/locale_facets.h ****    *
 146:/usr/include/c++/10/bits/locale_facets.h ****    *  This template also provides abstract stubs for the protected virtual
 147:/usr/include/c++/10/bits/locale_facets.h ****    *  functions.
 148:/usr/include/c++/10/bits/locale_facets.h ****   */
 149:/usr/include/c++/10/bits/locale_facets.h ****   template<typename _CharT>
 150:/usr/include/c++/10/bits/locale_facets.h ****     class __ctype_abstract_base : public locale::facet, public ctype_base
 151:/usr/include/c++/10/bits/locale_facets.h ****     {
 152:/usr/include/c++/10/bits/locale_facets.h ****     public:
 153:/usr/include/c++/10/bits/locale_facets.h ****       // Types:
 154:/usr/include/c++/10/bits/locale_facets.h ****       /// Typedef for the template parameter
 155:/usr/include/c++/10/bits/locale_facets.h ****       typedef _CharT char_type;
 156:/usr/include/c++/10/bits/locale_facets.h **** 
 157:/usr/include/c++/10/bits/locale_facets.h ****       /**
 158:/usr/include/c++/10/bits/locale_facets.h ****        *  @brief  Test char_type classification.
AARCH64 GAS  obj/Chapter11_4.s 			page 5


 159:/usr/include/c++/10/bits/locale_facets.h ****        *
 160:/usr/include/c++/10/bits/locale_facets.h ****        *  This function finds a mask M for @a __c and compares it to
 161:/usr/include/c++/10/bits/locale_facets.h ****        *  mask @a __m.  It does so by returning the value of
 162:/usr/include/c++/10/bits/locale_facets.h ****        *  ctype<char_type>::do_is().
 163:/usr/include/c++/10/bits/locale_facets.h ****        *
 164:/usr/include/c++/10/bits/locale_facets.h ****        *  @param __c  The char_type to compare the mask of.
 165:/usr/include/c++/10/bits/locale_facets.h ****        *  @param __m  The mask to compare against.
 166:/usr/include/c++/10/bits/locale_facets.h ****        *  @return  (M & __m) != 0.
 167:/usr/include/c++/10/bits/locale_facets.h ****       */
 168:/usr/include/c++/10/bits/locale_facets.h ****       bool
 169:/usr/include/c++/10/bits/locale_facets.h ****       is(mask __m, char_type __c) const
 170:/usr/include/c++/10/bits/locale_facets.h ****       { return this->do_is(__m, __c); }
 171:/usr/include/c++/10/bits/locale_facets.h **** 
 172:/usr/include/c++/10/bits/locale_facets.h ****       /**
 173:/usr/include/c++/10/bits/locale_facets.h ****        *  @brief  Return a mask array.
 174:/usr/include/c++/10/bits/locale_facets.h ****        *
 175:/usr/include/c++/10/bits/locale_facets.h ****        *  This function finds the mask for each char_type in the range [lo,hi)
 176:/usr/include/c++/10/bits/locale_facets.h ****        *  and successively writes it to vec.  vec must have as many elements
 177:/usr/include/c++/10/bits/locale_facets.h ****        *  as the char array.  It does so by returning the value of
 178:/usr/include/c++/10/bits/locale_facets.h ****        *  ctype<char_type>::do_is().
 179:/usr/include/c++/10/bits/locale_facets.h ****        *
 180:/usr/include/c++/10/bits/locale_facets.h ****        *  @param __lo  Pointer to start of range.
 181:/usr/include/c++/10/bits/locale_facets.h ****        *  @param __hi  Pointer to end of range.
 182:/usr/include/c++/10/bits/locale_facets.h ****        *  @param __vec  Pointer to an array of mask storage.
 183:/usr/include/c++/10/bits/locale_facets.h ****        *  @return  @a __hi.
 184:/usr/include/c++/10/bits/locale_facets.h ****       */
 185:/usr/include/c++/10/bits/locale_facets.h ****       const char_type*
 186:/usr/include/c++/10/bits/locale_facets.h ****       is(const char_type *__lo, const char_type *__hi, mask *__vec) const
 187:/usr/include/c++/10/bits/locale_facets.h ****       { return this->do_is(__lo, __hi, __vec); }
 188:/usr/include/c++/10/bits/locale_facets.h **** 
 189:/usr/include/c++/10/bits/locale_facets.h ****       /**
 190:/usr/include/c++/10/bits/locale_facets.h ****        *  @brief  Find char_type matching a mask
 191:/usr/include/c++/10/bits/locale_facets.h ****        *
 192:/usr/include/c++/10/bits/locale_facets.h ****        *  This function searches for and returns the first char_type c in
 193:/usr/include/c++/10/bits/locale_facets.h ****        *  [lo,hi) for which is(m,c) is true.  It does so by returning
 194:/usr/include/c++/10/bits/locale_facets.h ****        *  ctype<char_type>::do_scan_is().
 195:/usr/include/c++/10/bits/locale_facets.h ****        *
 196:/usr/include/c++/10/bits/locale_facets.h ****        *  @param __m  The mask to compare against.
 197:/usr/include/c++/10/bits/locale_facets.h ****        *  @param __lo  Pointer to start of range.
 198:/usr/include/c++/10/bits/locale_facets.h ****        *  @param __hi  Pointer to end of range.
 199:/usr/include/c++/10/bits/locale_facets.h ****        *  @return  Pointer to matching char_type if found, else @a __hi.
 200:/usr/include/c++/10/bits/locale_facets.h ****       */
 201:/usr/include/c++/10/bits/locale_facets.h ****       const char_type*
 202:/usr/include/c++/10/bits/locale_facets.h ****       scan_is(mask __m, const char_type* __lo, const char_type* __hi) const
 203:/usr/include/c++/10/bits/locale_facets.h ****       { return this->do_scan_is(__m, __lo, __hi); }
 204:/usr/include/c++/10/bits/locale_facets.h **** 
 205:/usr/include/c++/10/bits/locale_facets.h ****       /**
 206:/usr/include/c++/10/bits/locale_facets.h ****        *  @brief  Find char_type not matching a mask
 207:/usr/include/c++/10/bits/locale_facets.h ****        *
 208:/usr/include/c++/10/bits/locale_facets.h ****        *  This function searches for and returns the first char_type c in
 209:/usr/include/c++/10/bits/locale_facets.h ****        *  [lo,hi) for which is(m,c) is false.  It does so by returning
 210:/usr/include/c++/10/bits/locale_facets.h ****        *  ctype<char_type>::do_scan_not().
 211:/usr/include/c++/10/bits/locale_facets.h ****        *
 212:/usr/include/c++/10/bits/locale_facets.h ****        *  @param __m  The mask to compare against.
 213:/usr/include/c++/10/bits/locale_facets.h ****        *  @param __lo  Pointer to first char in range.
 214:/usr/include/c++/10/bits/locale_facets.h ****        *  @param __hi  Pointer to end of range.
 215:/usr/include/c++/10/bits/locale_facets.h ****        *  @return  Pointer to non-matching char if found, else @a __hi.
AARCH64 GAS  obj/Chapter11_4.s 			page 6


 216:/usr/include/c++/10/bits/locale_facets.h ****       */
 217:/usr/include/c++/10/bits/locale_facets.h ****       const char_type*
 218:/usr/include/c++/10/bits/locale_facets.h ****       scan_not(mask __m, const char_type* __lo, const char_type* __hi) const
 219:/usr/include/c++/10/bits/locale_facets.h ****       { return this->do_scan_not(__m, __lo, __hi); }
 220:/usr/include/c++/10/bits/locale_facets.h **** 
 221:/usr/include/c++/10/bits/locale_facets.h ****       /**
 222:/usr/include/c++/10/bits/locale_facets.h ****        *  @brief  Convert to uppercase.
 223:/usr/include/c++/10/bits/locale_facets.h ****        *
 224:/usr/include/c++/10/bits/locale_facets.h ****        *  This function converts the argument to uppercase if possible.
 225:/usr/include/c++/10/bits/locale_facets.h ****        *  If not possible (for example, '2'), returns the argument.  It does
 226:/usr/include/c++/10/bits/locale_facets.h ****        *  so by returning ctype<char_type>::do_toupper().
 227:/usr/include/c++/10/bits/locale_facets.h ****        *
 228:/usr/include/c++/10/bits/locale_facets.h ****        *  @param __c  The char_type to convert.
 229:/usr/include/c++/10/bits/locale_facets.h ****        *  @return  The uppercase char_type if convertible, else @a __c.
 230:/usr/include/c++/10/bits/locale_facets.h ****       */
 231:/usr/include/c++/10/bits/locale_facets.h ****       char_type
 232:/usr/include/c++/10/bits/locale_facets.h ****       toupper(char_type __c) const
 233:/usr/include/c++/10/bits/locale_facets.h ****       { return this->do_toupper(__c); }
 234:/usr/include/c++/10/bits/locale_facets.h **** 
 235:/usr/include/c++/10/bits/locale_facets.h ****       /**
 236:/usr/include/c++/10/bits/locale_facets.h ****        *  @brief  Convert array to uppercase.
 237:/usr/include/c++/10/bits/locale_facets.h ****        *
 238:/usr/include/c++/10/bits/locale_facets.h ****        *  This function converts each char_type in the range [lo,hi) to
 239:/usr/include/c++/10/bits/locale_facets.h ****        *  uppercase if possible.  Other elements remain untouched.  It does so
 240:/usr/include/c++/10/bits/locale_facets.h ****        *  by returning ctype<char_type>:: do_toupper(lo, hi).
 241:/usr/include/c++/10/bits/locale_facets.h ****        *
 242:/usr/include/c++/10/bits/locale_facets.h ****        *  @param __lo  Pointer to start of range.
 243:/usr/include/c++/10/bits/locale_facets.h ****        *  @param __hi  Pointer to end of range.
 244:/usr/include/c++/10/bits/locale_facets.h ****        *  @return  @a __hi.
 245:/usr/include/c++/10/bits/locale_facets.h ****       */
 246:/usr/include/c++/10/bits/locale_facets.h ****       const char_type*
 247:/usr/include/c++/10/bits/locale_facets.h ****       toupper(char_type *__lo, const char_type* __hi) const
 248:/usr/include/c++/10/bits/locale_facets.h ****       { return this->do_toupper(__lo, __hi); }
 249:/usr/include/c++/10/bits/locale_facets.h **** 
 250:/usr/include/c++/10/bits/locale_facets.h ****       /**
 251:/usr/include/c++/10/bits/locale_facets.h ****        *  @brief  Convert to lowercase.
 252:/usr/include/c++/10/bits/locale_facets.h ****        *
 253:/usr/include/c++/10/bits/locale_facets.h ****        *  This function converts the argument to lowercase if possible.  If
 254:/usr/include/c++/10/bits/locale_facets.h ****        *  not possible (for example, '2'), returns the argument.  It does so
 255:/usr/include/c++/10/bits/locale_facets.h ****        *  by returning ctype<char_type>::do_tolower(c).
 256:/usr/include/c++/10/bits/locale_facets.h ****        *
 257:/usr/include/c++/10/bits/locale_facets.h ****        *  @param __c  The char_type to convert.
 258:/usr/include/c++/10/bits/locale_facets.h ****        *  @return  The lowercase char_type if convertible, else @a __c.
 259:/usr/include/c++/10/bits/locale_facets.h ****       */
 260:/usr/include/c++/10/bits/locale_facets.h ****       char_type
 261:/usr/include/c++/10/bits/locale_facets.h ****       tolower(char_type __c) const
 262:/usr/include/c++/10/bits/locale_facets.h ****       { return this->do_tolower(__c); }
 263:/usr/include/c++/10/bits/locale_facets.h **** 
 264:/usr/include/c++/10/bits/locale_facets.h ****       /**
 265:/usr/include/c++/10/bits/locale_facets.h ****        *  @brief  Convert array to lowercase.
 266:/usr/include/c++/10/bits/locale_facets.h ****        *
 267:/usr/include/c++/10/bits/locale_facets.h ****        *  This function converts each char_type in the range [__lo,__hi) to
 268:/usr/include/c++/10/bits/locale_facets.h ****        *  lowercase if possible.  Other elements remain untouched.  It does so
 269:/usr/include/c++/10/bits/locale_facets.h ****        *  by returning ctype<char_type>:: do_tolower(__lo, __hi).
 270:/usr/include/c++/10/bits/locale_facets.h ****        *
 271:/usr/include/c++/10/bits/locale_facets.h ****        *  @param __lo  Pointer to start of range.
 272:/usr/include/c++/10/bits/locale_facets.h ****        *  @param __hi  Pointer to end of range.
AARCH64 GAS  obj/Chapter11_4.s 			page 7


 273:/usr/include/c++/10/bits/locale_facets.h ****        *  @return  @a __hi.
 274:/usr/include/c++/10/bits/locale_facets.h ****       */
 275:/usr/include/c++/10/bits/locale_facets.h ****       const char_type*
 276:/usr/include/c++/10/bits/locale_facets.h ****       tolower(char_type* __lo, const char_type* __hi) const
 277:/usr/include/c++/10/bits/locale_facets.h ****       { return this->do_tolower(__lo, __hi); }
 278:/usr/include/c++/10/bits/locale_facets.h **** 
 279:/usr/include/c++/10/bits/locale_facets.h ****       /**
 280:/usr/include/c++/10/bits/locale_facets.h ****        *  @brief  Widen char to char_type
 281:/usr/include/c++/10/bits/locale_facets.h ****        *
 282:/usr/include/c++/10/bits/locale_facets.h ****        *  This function converts the char argument to char_type using the
 283:/usr/include/c++/10/bits/locale_facets.h ****        *  simplest reasonable transformation.  It does so by returning
 284:/usr/include/c++/10/bits/locale_facets.h ****        *  ctype<char_type>::do_widen(c).
 285:/usr/include/c++/10/bits/locale_facets.h ****        *
 286:/usr/include/c++/10/bits/locale_facets.h ****        *  Note: this is not what you want for codepage conversions.  See
 287:/usr/include/c++/10/bits/locale_facets.h ****        *  codecvt for that.
 288:/usr/include/c++/10/bits/locale_facets.h ****        *
 289:/usr/include/c++/10/bits/locale_facets.h ****        *  @param __c  The char to convert.
 290:/usr/include/c++/10/bits/locale_facets.h ****        *  @return  The converted char_type.
 291:/usr/include/c++/10/bits/locale_facets.h ****       */
 292:/usr/include/c++/10/bits/locale_facets.h ****       char_type
 293:/usr/include/c++/10/bits/locale_facets.h ****       widen(char __c) const
 294:/usr/include/c++/10/bits/locale_facets.h ****       { return this->do_widen(__c); }
 295:/usr/include/c++/10/bits/locale_facets.h **** 
 296:/usr/include/c++/10/bits/locale_facets.h ****       /**
 297:/usr/include/c++/10/bits/locale_facets.h ****        *  @brief  Widen array to char_type
 298:/usr/include/c++/10/bits/locale_facets.h ****        *
 299:/usr/include/c++/10/bits/locale_facets.h ****        *  This function converts each char in the input to char_type using the
 300:/usr/include/c++/10/bits/locale_facets.h ****        *  simplest reasonable transformation.  It does so by returning
 301:/usr/include/c++/10/bits/locale_facets.h ****        *  ctype<char_type>::do_widen(c).
 302:/usr/include/c++/10/bits/locale_facets.h ****        *
 303:/usr/include/c++/10/bits/locale_facets.h ****        *  Note: this is not what you want for codepage conversions.  See
 304:/usr/include/c++/10/bits/locale_facets.h ****        *  codecvt for that.
 305:/usr/include/c++/10/bits/locale_facets.h ****        *
 306:/usr/include/c++/10/bits/locale_facets.h ****        *  @param __lo  Pointer to start of range.
 307:/usr/include/c++/10/bits/locale_facets.h ****        *  @param __hi  Pointer to end of range.
 308:/usr/include/c++/10/bits/locale_facets.h ****        *  @param __to  Pointer to the destination array.
 309:/usr/include/c++/10/bits/locale_facets.h ****        *  @return  @a __hi.
 310:/usr/include/c++/10/bits/locale_facets.h ****       */
 311:/usr/include/c++/10/bits/locale_facets.h ****       const char*
 312:/usr/include/c++/10/bits/locale_facets.h ****       widen(const char* __lo, const char* __hi, char_type* __to) const
 313:/usr/include/c++/10/bits/locale_facets.h ****       { return this->do_widen(__lo, __hi, __to); }
 314:/usr/include/c++/10/bits/locale_facets.h **** 
 315:/usr/include/c++/10/bits/locale_facets.h ****       /**
 316:/usr/include/c++/10/bits/locale_facets.h ****        *  @brief  Narrow char_type to char
 317:/usr/include/c++/10/bits/locale_facets.h ****        *
 318:/usr/include/c++/10/bits/locale_facets.h ****        *  This function converts the char_type to char using the simplest
 319:/usr/include/c++/10/bits/locale_facets.h ****        *  reasonable transformation.  If the conversion fails, dfault is
 320:/usr/include/c++/10/bits/locale_facets.h ****        *  returned instead.  It does so by returning
 321:/usr/include/c++/10/bits/locale_facets.h ****        *  ctype<char_type>::do_narrow(__c).
 322:/usr/include/c++/10/bits/locale_facets.h ****        *
 323:/usr/include/c++/10/bits/locale_facets.h ****        *  Note: this is not what you want for codepage conversions.  See
 324:/usr/include/c++/10/bits/locale_facets.h ****        *  codecvt for that.
 325:/usr/include/c++/10/bits/locale_facets.h ****        *
 326:/usr/include/c++/10/bits/locale_facets.h ****        *  @param __c  The char_type to convert.
 327:/usr/include/c++/10/bits/locale_facets.h ****        *  @param __dfault  Char to return if conversion fails.
 328:/usr/include/c++/10/bits/locale_facets.h ****        *  @return  The converted char.
 329:/usr/include/c++/10/bits/locale_facets.h ****       */
AARCH64 GAS  obj/Chapter11_4.s 			page 8


 330:/usr/include/c++/10/bits/locale_facets.h ****       char
 331:/usr/include/c++/10/bits/locale_facets.h ****       narrow(char_type __c, char __dfault) const
 332:/usr/include/c++/10/bits/locale_facets.h ****       { return this->do_narrow(__c, __dfault); }
 333:/usr/include/c++/10/bits/locale_facets.h **** 
 334:/usr/include/c++/10/bits/locale_facets.h ****       /**
 335:/usr/include/c++/10/bits/locale_facets.h ****        *  @brief  Narrow array to char array
 336:/usr/include/c++/10/bits/locale_facets.h ****        *
 337:/usr/include/c++/10/bits/locale_facets.h ****        *  This function converts each char_type in the input to char using the
 338:/usr/include/c++/10/bits/locale_facets.h ****        *  simplest reasonable transformation and writes the results to the
 339:/usr/include/c++/10/bits/locale_facets.h ****        *  destination array.  For any char_type in the input that cannot be
 340:/usr/include/c++/10/bits/locale_facets.h ****        *  converted, @a dfault is used instead.  It does so by returning
 341:/usr/include/c++/10/bits/locale_facets.h ****        *  ctype<char_type>::do_narrow(__lo, __hi, __dfault, __to).
 342:/usr/include/c++/10/bits/locale_facets.h ****        *
 343:/usr/include/c++/10/bits/locale_facets.h ****        *  Note: this is not what you want for codepage conversions.  See
 344:/usr/include/c++/10/bits/locale_facets.h ****        *  codecvt for that.
 345:/usr/include/c++/10/bits/locale_facets.h ****        *
 346:/usr/include/c++/10/bits/locale_facets.h ****        *  @param __lo  Pointer to start of range.
 347:/usr/include/c++/10/bits/locale_facets.h ****        *  @param __hi  Pointer to end of range.
 348:/usr/include/c++/10/bits/locale_facets.h ****        *  @param __dfault  Char to use if conversion fails.
 349:/usr/include/c++/10/bits/locale_facets.h ****        *  @param __to  Pointer to the destination array.
 350:/usr/include/c++/10/bits/locale_facets.h ****        *  @return  @a __hi.
 351:/usr/include/c++/10/bits/locale_facets.h ****       */
 352:/usr/include/c++/10/bits/locale_facets.h ****       const char_type*
 353:/usr/include/c++/10/bits/locale_facets.h ****       narrow(const char_type* __lo, const char_type* __hi,
 354:/usr/include/c++/10/bits/locale_facets.h **** 	      char __dfault, char* __to) const
 355:/usr/include/c++/10/bits/locale_facets.h ****       { return this->do_narrow(__lo, __hi, __dfault, __to); }
 356:/usr/include/c++/10/bits/locale_facets.h **** 
 357:/usr/include/c++/10/bits/locale_facets.h ****     protected:
 358:/usr/include/c++/10/bits/locale_facets.h ****       explicit
 359:/usr/include/c++/10/bits/locale_facets.h ****       __ctype_abstract_base(size_t __refs = 0): facet(__refs) { }
 360:/usr/include/c++/10/bits/locale_facets.h **** 
 361:/usr/include/c++/10/bits/locale_facets.h ****       virtual
 362:/usr/include/c++/10/bits/locale_facets.h ****       ~__ctype_abstract_base() { }
 363:/usr/include/c++/10/bits/locale_facets.h **** 
 364:/usr/include/c++/10/bits/locale_facets.h ****       /**
 365:/usr/include/c++/10/bits/locale_facets.h ****        *  @brief  Test char_type classification.
 366:/usr/include/c++/10/bits/locale_facets.h ****        *
 367:/usr/include/c++/10/bits/locale_facets.h ****        *  This function finds a mask M for @a c and compares it to mask @a m.
 368:/usr/include/c++/10/bits/locale_facets.h ****        *
 369:/usr/include/c++/10/bits/locale_facets.h ****        *  do_is() is a hook for a derived facet to change the behavior of
 370:/usr/include/c++/10/bits/locale_facets.h ****        *  classifying.  do_is() must always return the same result for the
 371:/usr/include/c++/10/bits/locale_facets.h ****        *  same input.
 372:/usr/include/c++/10/bits/locale_facets.h ****        *
 373:/usr/include/c++/10/bits/locale_facets.h ****        *  @param __c  The char_type to find the mask of.
 374:/usr/include/c++/10/bits/locale_facets.h ****        *  @param __m  The mask to compare against.
 375:/usr/include/c++/10/bits/locale_facets.h ****        *  @return  (M & __m) != 0.
 376:/usr/include/c++/10/bits/locale_facets.h ****       */
 377:/usr/include/c++/10/bits/locale_facets.h ****       virtual bool
 378:/usr/include/c++/10/bits/locale_facets.h ****       do_is(mask __m, char_type __c) const = 0;
 379:/usr/include/c++/10/bits/locale_facets.h **** 
 380:/usr/include/c++/10/bits/locale_facets.h ****       /**
 381:/usr/include/c++/10/bits/locale_facets.h ****        *  @brief  Return a mask array.
 382:/usr/include/c++/10/bits/locale_facets.h ****        *
 383:/usr/include/c++/10/bits/locale_facets.h ****        *  This function finds the mask for each char_type in the range [lo,hi)
 384:/usr/include/c++/10/bits/locale_facets.h ****        *  and successively writes it to vec.  vec must have as many elements
 385:/usr/include/c++/10/bits/locale_facets.h ****        *  as the input.
 386:/usr/include/c++/10/bits/locale_facets.h ****        *
AARCH64 GAS  obj/Chapter11_4.s 			page 9


 387:/usr/include/c++/10/bits/locale_facets.h ****        *  do_is() is a hook for a derived facet to change the behavior of
 388:/usr/include/c++/10/bits/locale_facets.h ****        *  classifying.  do_is() must always return the same result for the
 389:/usr/include/c++/10/bits/locale_facets.h ****        *  same input.
 390:/usr/include/c++/10/bits/locale_facets.h ****        *
 391:/usr/include/c++/10/bits/locale_facets.h ****        *  @param __lo  Pointer to start of range.
 392:/usr/include/c++/10/bits/locale_facets.h ****        *  @param __hi  Pointer to end of range.
 393:/usr/include/c++/10/bits/locale_facets.h ****        *  @param __vec  Pointer to an array of mask storage.
 394:/usr/include/c++/10/bits/locale_facets.h ****        *  @return  @a __hi.
 395:/usr/include/c++/10/bits/locale_facets.h ****       */
 396:/usr/include/c++/10/bits/locale_facets.h ****       virtual const char_type*
 397:/usr/include/c++/10/bits/locale_facets.h ****       do_is(const char_type* __lo, const char_type* __hi,
 398:/usr/include/c++/10/bits/locale_facets.h **** 	    mask* __vec) const = 0;
 399:/usr/include/c++/10/bits/locale_facets.h **** 
 400:/usr/include/c++/10/bits/locale_facets.h ****       /**
 401:/usr/include/c++/10/bits/locale_facets.h ****        *  @brief  Find char_type matching mask
 402:/usr/include/c++/10/bits/locale_facets.h ****        *
 403:/usr/include/c++/10/bits/locale_facets.h ****        *  This function searches for and returns the first char_type c in
 404:/usr/include/c++/10/bits/locale_facets.h ****        *  [__lo,__hi) for which is(__m,c) is true.
 405:/usr/include/c++/10/bits/locale_facets.h ****        *
 406:/usr/include/c++/10/bits/locale_facets.h ****        *  do_scan_is() is a hook for a derived facet to change the behavior of
 407:/usr/include/c++/10/bits/locale_facets.h ****        *  match searching.  do_is() must always return the same result for the
 408:/usr/include/c++/10/bits/locale_facets.h ****        *  same input.
 409:/usr/include/c++/10/bits/locale_facets.h ****        *
 410:/usr/include/c++/10/bits/locale_facets.h ****        *  @param __m  The mask to compare against.
 411:/usr/include/c++/10/bits/locale_facets.h ****        *  @param __lo  Pointer to start of range.
 412:/usr/include/c++/10/bits/locale_facets.h ****        *  @param __hi  Pointer to end of range.
 413:/usr/include/c++/10/bits/locale_facets.h ****        *  @return  Pointer to a matching char_type if found, else @a __hi.
 414:/usr/include/c++/10/bits/locale_facets.h ****       */
 415:/usr/include/c++/10/bits/locale_facets.h ****       virtual const char_type*
 416:/usr/include/c++/10/bits/locale_facets.h ****       do_scan_is(mask __m, const char_type* __lo,
 417:/usr/include/c++/10/bits/locale_facets.h **** 		 const char_type* __hi) const = 0;
 418:/usr/include/c++/10/bits/locale_facets.h **** 
 419:/usr/include/c++/10/bits/locale_facets.h ****       /**
 420:/usr/include/c++/10/bits/locale_facets.h ****        *  @brief  Find char_type not matching mask
 421:/usr/include/c++/10/bits/locale_facets.h ****        *
 422:/usr/include/c++/10/bits/locale_facets.h ****        *  This function searches for and returns a pointer to the first
 423:/usr/include/c++/10/bits/locale_facets.h ****        *  char_type c of [lo,hi) for which is(m,c) is false.
 424:/usr/include/c++/10/bits/locale_facets.h ****        *
 425:/usr/include/c++/10/bits/locale_facets.h ****        *  do_scan_is() is a hook for a derived facet to change the behavior of
 426:/usr/include/c++/10/bits/locale_facets.h ****        *  match searching.  do_is() must always return the same result for the
 427:/usr/include/c++/10/bits/locale_facets.h ****        *  same input.
 428:/usr/include/c++/10/bits/locale_facets.h ****        *
 429:/usr/include/c++/10/bits/locale_facets.h ****        *  @param __m  The mask to compare against.
 430:/usr/include/c++/10/bits/locale_facets.h ****        *  @param __lo  Pointer to start of range.
 431:/usr/include/c++/10/bits/locale_facets.h ****        *  @param __hi  Pointer to end of range.
 432:/usr/include/c++/10/bits/locale_facets.h ****        *  @return  Pointer to a non-matching char_type if found, else @a __hi.
 433:/usr/include/c++/10/bits/locale_facets.h ****       */
 434:/usr/include/c++/10/bits/locale_facets.h ****       virtual const char_type*
 435:/usr/include/c++/10/bits/locale_facets.h ****       do_scan_not(mask __m, const char_type* __lo,
 436:/usr/include/c++/10/bits/locale_facets.h **** 		  const char_type* __hi) const = 0;
 437:/usr/include/c++/10/bits/locale_facets.h **** 
 438:/usr/include/c++/10/bits/locale_facets.h ****       /**
 439:/usr/include/c++/10/bits/locale_facets.h ****        *  @brief  Convert to uppercase.
 440:/usr/include/c++/10/bits/locale_facets.h ****        *
 441:/usr/include/c++/10/bits/locale_facets.h ****        *  This virtual function converts the char_type argument to uppercase
 442:/usr/include/c++/10/bits/locale_facets.h ****        *  if possible.  If not possible (for example, '2'), returns the
 443:/usr/include/c++/10/bits/locale_facets.h ****        *  argument.
AARCH64 GAS  obj/Chapter11_4.s 			page 10


 444:/usr/include/c++/10/bits/locale_facets.h ****        *
 445:/usr/include/c++/10/bits/locale_facets.h ****        *  do_toupper() is a hook for a derived facet to change the behavior of
 446:/usr/include/c++/10/bits/locale_facets.h ****        *  uppercasing.  do_toupper() must always return the same result for
 447:/usr/include/c++/10/bits/locale_facets.h ****        *  the same input.
 448:/usr/include/c++/10/bits/locale_facets.h ****        *
 449:/usr/include/c++/10/bits/locale_facets.h ****        *  @param __c  The char_type to convert.
 450:/usr/include/c++/10/bits/locale_facets.h ****        *  @return  The uppercase char_type if convertible, else @a __c.
 451:/usr/include/c++/10/bits/locale_facets.h ****       */
 452:/usr/include/c++/10/bits/locale_facets.h ****       virtual char_type
 453:/usr/include/c++/10/bits/locale_facets.h ****       do_toupper(char_type __c) const = 0;
 454:/usr/include/c++/10/bits/locale_facets.h **** 
 455:/usr/include/c++/10/bits/locale_facets.h ****       /**
 456:/usr/include/c++/10/bits/locale_facets.h ****        *  @brief  Convert array to uppercase.
 457:/usr/include/c++/10/bits/locale_facets.h ****        *
 458:/usr/include/c++/10/bits/locale_facets.h ****        *  This virtual function converts each char_type in the range [__lo,__hi)
 459:/usr/include/c++/10/bits/locale_facets.h ****        *  to uppercase if possible.  Other elements remain untouched.
 460:/usr/include/c++/10/bits/locale_facets.h ****        *
 461:/usr/include/c++/10/bits/locale_facets.h ****        *  do_toupper() is a hook for a derived facet to change the behavior of
 462:/usr/include/c++/10/bits/locale_facets.h ****        *  uppercasing.  do_toupper() must always return the same result for
 463:/usr/include/c++/10/bits/locale_facets.h ****        *  the same input.
 464:/usr/include/c++/10/bits/locale_facets.h ****        *
 465:/usr/include/c++/10/bits/locale_facets.h ****        *  @param __lo  Pointer to start of range.
 466:/usr/include/c++/10/bits/locale_facets.h ****        *  @param __hi  Pointer to end of range.
 467:/usr/include/c++/10/bits/locale_facets.h ****        *  @return  @a __hi.
 468:/usr/include/c++/10/bits/locale_facets.h ****       */
 469:/usr/include/c++/10/bits/locale_facets.h ****       virtual const char_type*
 470:/usr/include/c++/10/bits/locale_facets.h ****       do_toupper(char_type* __lo, const char_type* __hi) const = 0;
 471:/usr/include/c++/10/bits/locale_facets.h **** 
 472:/usr/include/c++/10/bits/locale_facets.h ****       /**
 473:/usr/include/c++/10/bits/locale_facets.h ****        *  @brief  Convert to lowercase.
 474:/usr/include/c++/10/bits/locale_facets.h ****        *
 475:/usr/include/c++/10/bits/locale_facets.h ****        *  This virtual function converts the argument to lowercase if
 476:/usr/include/c++/10/bits/locale_facets.h ****        *  possible.  If not possible (for example, '2'), returns the argument.
 477:/usr/include/c++/10/bits/locale_facets.h ****        *
 478:/usr/include/c++/10/bits/locale_facets.h ****        *  do_tolower() is a hook for a derived facet to change the behavior of
 479:/usr/include/c++/10/bits/locale_facets.h ****        *  lowercasing.  do_tolower() must always return the same result for
 480:/usr/include/c++/10/bits/locale_facets.h ****        *  the same input.
 481:/usr/include/c++/10/bits/locale_facets.h ****        *
 482:/usr/include/c++/10/bits/locale_facets.h ****        *  @param __c  The char_type to convert.
 483:/usr/include/c++/10/bits/locale_facets.h ****        *  @return  The lowercase char_type if convertible, else @a __c.
 484:/usr/include/c++/10/bits/locale_facets.h ****       */
 485:/usr/include/c++/10/bits/locale_facets.h ****       virtual char_type
 486:/usr/include/c++/10/bits/locale_facets.h ****       do_tolower(char_type __c) const = 0;
 487:/usr/include/c++/10/bits/locale_facets.h **** 
 488:/usr/include/c++/10/bits/locale_facets.h ****       /**
 489:/usr/include/c++/10/bits/locale_facets.h ****        *  @brief  Convert array to lowercase.
 490:/usr/include/c++/10/bits/locale_facets.h ****        *
 491:/usr/include/c++/10/bits/locale_facets.h ****        *  This virtual function converts each char_type in the range [__lo,__hi)
 492:/usr/include/c++/10/bits/locale_facets.h ****        *  to lowercase if possible.  Other elements remain untouched.
 493:/usr/include/c++/10/bits/locale_facets.h ****        *
 494:/usr/include/c++/10/bits/locale_facets.h ****        *  do_tolower() is a hook for a derived facet to change the behavior of
 495:/usr/include/c++/10/bits/locale_facets.h ****        *  lowercasing.  do_tolower() must always return the same result for
 496:/usr/include/c++/10/bits/locale_facets.h ****        *  the same input.
 497:/usr/include/c++/10/bits/locale_facets.h ****        *
 498:/usr/include/c++/10/bits/locale_facets.h ****        *  @param __lo  Pointer to start of range.
 499:/usr/include/c++/10/bits/locale_facets.h ****        *  @param __hi  Pointer to end of range.
 500:/usr/include/c++/10/bits/locale_facets.h ****        *  @return  @a __hi.
AARCH64 GAS  obj/Chapter11_4.s 			page 11


 501:/usr/include/c++/10/bits/locale_facets.h ****       */
 502:/usr/include/c++/10/bits/locale_facets.h ****       virtual const char_type*
 503:/usr/include/c++/10/bits/locale_facets.h ****       do_tolower(char_type* __lo, const char_type* __hi) const = 0;
 504:/usr/include/c++/10/bits/locale_facets.h **** 
 505:/usr/include/c++/10/bits/locale_facets.h ****       /**
 506:/usr/include/c++/10/bits/locale_facets.h ****        *  @brief  Widen char
 507:/usr/include/c++/10/bits/locale_facets.h ****        *
 508:/usr/include/c++/10/bits/locale_facets.h ****        *  This virtual function converts the char to char_type using the
 509:/usr/include/c++/10/bits/locale_facets.h ****        *  simplest reasonable transformation.
 510:/usr/include/c++/10/bits/locale_facets.h ****        *
 511:/usr/include/c++/10/bits/locale_facets.h ****        *  do_widen() is a hook for a derived facet to change the behavior of
 512:/usr/include/c++/10/bits/locale_facets.h ****        *  widening.  do_widen() must always return the same result for the
 513:/usr/include/c++/10/bits/locale_facets.h ****        *  same input.
 514:/usr/include/c++/10/bits/locale_facets.h ****        *
 515:/usr/include/c++/10/bits/locale_facets.h ****        *  Note: this is not what you want for codepage conversions.  See
 516:/usr/include/c++/10/bits/locale_facets.h ****        *  codecvt for that.
 517:/usr/include/c++/10/bits/locale_facets.h ****        *
 518:/usr/include/c++/10/bits/locale_facets.h ****        *  @param __c  The char to convert.
 519:/usr/include/c++/10/bits/locale_facets.h ****        *  @return  The converted char_type
 520:/usr/include/c++/10/bits/locale_facets.h ****       */
 521:/usr/include/c++/10/bits/locale_facets.h ****       virtual char_type
 522:/usr/include/c++/10/bits/locale_facets.h ****       do_widen(char __c) const = 0;
 523:/usr/include/c++/10/bits/locale_facets.h **** 
 524:/usr/include/c++/10/bits/locale_facets.h ****       /**
 525:/usr/include/c++/10/bits/locale_facets.h ****        *  @brief  Widen char array
 526:/usr/include/c++/10/bits/locale_facets.h ****        *
 527:/usr/include/c++/10/bits/locale_facets.h ****        *  This function converts each char in the input to char_type using the
 528:/usr/include/c++/10/bits/locale_facets.h ****        *  simplest reasonable transformation.
 529:/usr/include/c++/10/bits/locale_facets.h ****        *
 530:/usr/include/c++/10/bits/locale_facets.h ****        *  do_widen() is a hook for a derived facet to change the behavior of
 531:/usr/include/c++/10/bits/locale_facets.h ****        *  widening.  do_widen() must always return the same result for the
 532:/usr/include/c++/10/bits/locale_facets.h ****        *  same input.
 533:/usr/include/c++/10/bits/locale_facets.h ****        *
 534:/usr/include/c++/10/bits/locale_facets.h ****        *  Note: this is not what you want for codepage conversions.  See
 535:/usr/include/c++/10/bits/locale_facets.h ****        *  codecvt for that.
 536:/usr/include/c++/10/bits/locale_facets.h ****        *
 537:/usr/include/c++/10/bits/locale_facets.h ****        *  @param __lo  Pointer to start range.
 538:/usr/include/c++/10/bits/locale_facets.h ****        *  @param __hi  Pointer to end of range.
 539:/usr/include/c++/10/bits/locale_facets.h ****        *  @param __to  Pointer to the destination array.
 540:/usr/include/c++/10/bits/locale_facets.h ****        *  @return  @a __hi.
 541:/usr/include/c++/10/bits/locale_facets.h ****       */
 542:/usr/include/c++/10/bits/locale_facets.h ****       virtual const char*
 543:/usr/include/c++/10/bits/locale_facets.h ****       do_widen(const char* __lo, const char* __hi, char_type* __to) const = 0;
 544:/usr/include/c++/10/bits/locale_facets.h **** 
 545:/usr/include/c++/10/bits/locale_facets.h ****       /**
 546:/usr/include/c++/10/bits/locale_facets.h ****        *  @brief  Narrow char_type to char
 547:/usr/include/c++/10/bits/locale_facets.h ****        *
 548:/usr/include/c++/10/bits/locale_facets.h ****        *  This virtual function converts the argument to char using the
 549:/usr/include/c++/10/bits/locale_facets.h ****        *  simplest reasonable transformation.  If the conversion fails, dfault
 550:/usr/include/c++/10/bits/locale_facets.h ****        *  is returned instead.
 551:/usr/include/c++/10/bits/locale_facets.h ****        *
 552:/usr/include/c++/10/bits/locale_facets.h ****        *  do_narrow() is a hook for a derived facet to change the behavior of
 553:/usr/include/c++/10/bits/locale_facets.h ****        *  narrowing.  do_narrow() must always return the same result for the
 554:/usr/include/c++/10/bits/locale_facets.h ****        *  same input.
 555:/usr/include/c++/10/bits/locale_facets.h ****        *
 556:/usr/include/c++/10/bits/locale_facets.h ****        *  Note: this is not what you want for codepage conversions.  See
 557:/usr/include/c++/10/bits/locale_facets.h ****        *  codecvt for that.
AARCH64 GAS  obj/Chapter11_4.s 			page 12


 558:/usr/include/c++/10/bits/locale_facets.h ****        *
 559:/usr/include/c++/10/bits/locale_facets.h ****        *  @param __c  The char_type to convert.
 560:/usr/include/c++/10/bits/locale_facets.h ****        *  @param __dfault  Char to return if conversion fails.
 561:/usr/include/c++/10/bits/locale_facets.h ****        *  @return  The converted char.
 562:/usr/include/c++/10/bits/locale_facets.h ****       */
 563:/usr/include/c++/10/bits/locale_facets.h ****       virtual char
 564:/usr/include/c++/10/bits/locale_facets.h ****       do_narrow(char_type __c, char __dfault) const = 0;
 565:/usr/include/c++/10/bits/locale_facets.h **** 
 566:/usr/include/c++/10/bits/locale_facets.h ****       /**
 567:/usr/include/c++/10/bits/locale_facets.h ****        *  @brief  Narrow char_type array to char
 568:/usr/include/c++/10/bits/locale_facets.h ****        *
 569:/usr/include/c++/10/bits/locale_facets.h ****        *  This virtual function converts each char_type in the range
 570:/usr/include/c++/10/bits/locale_facets.h ****        *  [__lo,__hi) to char using the simplest reasonable
 571:/usr/include/c++/10/bits/locale_facets.h ****        *  transformation and writes the results to the destination
 572:/usr/include/c++/10/bits/locale_facets.h ****        *  array.  For any element in the input that cannot be
 573:/usr/include/c++/10/bits/locale_facets.h ****        *  converted, @a __dfault is used instead.
 574:/usr/include/c++/10/bits/locale_facets.h ****        *
 575:/usr/include/c++/10/bits/locale_facets.h ****        *  do_narrow() is a hook for a derived facet to change the behavior of
 576:/usr/include/c++/10/bits/locale_facets.h ****        *  narrowing.  do_narrow() must always return the same result for the
 577:/usr/include/c++/10/bits/locale_facets.h ****        *  same input.
 578:/usr/include/c++/10/bits/locale_facets.h ****        *
 579:/usr/include/c++/10/bits/locale_facets.h ****        *  Note: this is not what you want for codepage conversions.  See
 580:/usr/include/c++/10/bits/locale_facets.h ****        *  codecvt for that.
 581:/usr/include/c++/10/bits/locale_facets.h ****        *
 582:/usr/include/c++/10/bits/locale_facets.h ****        *  @param __lo  Pointer to start of range.
 583:/usr/include/c++/10/bits/locale_facets.h ****        *  @param __hi  Pointer to end of range.
 584:/usr/include/c++/10/bits/locale_facets.h ****        *  @param __dfault  Char to use if conversion fails.
 585:/usr/include/c++/10/bits/locale_facets.h ****        *  @param __to  Pointer to the destination array.
 586:/usr/include/c++/10/bits/locale_facets.h ****        *  @return  @a __hi.
 587:/usr/include/c++/10/bits/locale_facets.h ****       */
 588:/usr/include/c++/10/bits/locale_facets.h ****       virtual const char_type*
 589:/usr/include/c++/10/bits/locale_facets.h ****       do_narrow(const char_type* __lo, const char_type* __hi,
 590:/usr/include/c++/10/bits/locale_facets.h **** 		char __dfault, char* __to) const = 0;
 591:/usr/include/c++/10/bits/locale_facets.h ****     };
 592:/usr/include/c++/10/bits/locale_facets.h **** 
 593:/usr/include/c++/10/bits/locale_facets.h ****   /**
 594:/usr/include/c++/10/bits/locale_facets.h ****    *  @brief  Primary class template ctype facet.
 595:/usr/include/c++/10/bits/locale_facets.h ****    *  @ingroup locales
 596:/usr/include/c++/10/bits/locale_facets.h ****    *
 597:/usr/include/c++/10/bits/locale_facets.h ****    *  This template class defines classification and conversion functions for
 598:/usr/include/c++/10/bits/locale_facets.h ****    *  character sets.  It wraps cctype functionality.  Ctype gets used by
 599:/usr/include/c++/10/bits/locale_facets.h ****    *  streams for many I/O operations.
 600:/usr/include/c++/10/bits/locale_facets.h ****    *
 601:/usr/include/c++/10/bits/locale_facets.h ****    *  This template provides the protected virtual functions the developer
 602:/usr/include/c++/10/bits/locale_facets.h ****    *  will have to replace in a derived class or specialization to make a
 603:/usr/include/c++/10/bits/locale_facets.h ****    *  working facet.  The public functions that access them are defined in
 604:/usr/include/c++/10/bits/locale_facets.h ****    *  __ctype_abstract_base, to allow for implementation flexibility.  See
 605:/usr/include/c++/10/bits/locale_facets.h ****    *  ctype<wchar_t> for an example.  The functions are documented in
 606:/usr/include/c++/10/bits/locale_facets.h ****    *  __ctype_abstract_base.
 607:/usr/include/c++/10/bits/locale_facets.h ****    *
 608:/usr/include/c++/10/bits/locale_facets.h ****    *  Note: implementations are provided for all the protected virtual
 609:/usr/include/c++/10/bits/locale_facets.h ****    *  functions, but will likely not be useful.
 610:/usr/include/c++/10/bits/locale_facets.h ****   */
 611:/usr/include/c++/10/bits/locale_facets.h ****   template<typename _CharT>
 612:/usr/include/c++/10/bits/locale_facets.h ****     class ctype : public __ctype_abstract_base<_CharT>
 613:/usr/include/c++/10/bits/locale_facets.h ****     {
 614:/usr/include/c++/10/bits/locale_facets.h ****     public:
AARCH64 GAS  obj/Chapter11_4.s 			page 13


 615:/usr/include/c++/10/bits/locale_facets.h ****       // Types:
 616:/usr/include/c++/10/bits/locale_facets.h ****       typedef _CharT			char_type;
 617:/usr/include/c++/10/bits/locale_facets.h ****       typedef typename __ctype_abstract_base<_CharT>::mask mask;
 618:/usr/include/c++/10/bits/locale_facets.h **** 
 619:/usr/include/c++/10/bits/locale_facets.h ****       /// The facet id for ctype<char_type>
 620:/usr/include/c++/10/bits/locale_facets.h ****       static locale::id			id;
 621:/usr/include/c++/10/bits/locale_facets.h **** 
 622:/usr/include/c++/10/bits/locale_facets.h ****       explicit
 623:/usr/include/c++/10/bits/locale_facets.h ****       ctype(size_t __refs = 0) : __ctype_abstract_base<_CharT>(__refs) { }
 624:/usr/include/c++/10/bits/locale_facets.h **** 
 625:/usr/include/c++/10/bits/locale_facets.h ****    protected:
 626:/usr/include/c++/10/bits/locale_facets.h ****       virtual
 627:/usr/include/c++/10/bits/locale_facets.h ****       ~ctype();
 628:/usr/include/c++/10/bits/locale_facets.h **** 
 629:/usr/include/c++/10/bits/locale_facets.h ****       virtual bool
 630:/usr/include/c++/10/bits/locale_facets.h ****       do_is(mask __m, char_type __c) const;
 631:/usr/include/c++/10/bits/locale_facets.h **** 
 632:/usr/include/c++/10/bits/locale_facets.h ****       virtual const char_type*
 633:/usr/include/c++/10/bits/locale_facets.h ****       do_is(const char_type* __lo, const char_type* __hi, mask* __vec) const;
 634:/usr/include/c++/10/bits/locale_facets.h **** 
 635:/usr/include/c++/10/bits/locale_facets.h ****       virtual const char_type*
 636:/usr/include/c++/10/bits/locale_facets.h ****       do_scan_is(mask __m, const char_type* __lo, const char_type* __hi) const;
 637:/usr/include/c++/10/bits/locale_facets.h **** 
 638:/usr/include/c++/10/bits/locale_facets.h ****       virtual const char_type*
 639:/usr/include/c++/10/bits/locale_facets.h ****       do_scan_not(mask __m, const char_type* __lo,
 640:/usr/include/c++/10/bits/locale_facets.h **** 		  const char_type* __hi) const;
 641:/usr/include/c++/10/bits/locale_facets.h **** 
 642:/usr/include/c++/10/bits/locale_facets.h ****       virtual char_type
 643:/usr/include/c++/10/bits/locale_facets.h ****       do_toupper(char_type __c) const;
 644:/usr/include/c++/10/bits/locale_facets.h **** 
 645:/usr/include/c++/10/bits/locale_facets.h ****       virtual const char_type*
 646:/usr/include/c++/10/bits/locale_facets.h ****       do_toupper(char_type* __lo, const char_type* __hi) const;
 647:/usr/include/c++/10/bits/locale_facets.h **** 
 648:/usr/include/c++/10/bits/locale_facets.h ****       virtual char_type
 649:/usr/include/c++/10/bits/locale_facets.h ****       do_tolower(char_type __c) const;
 650:/usr/include/c++/10/bits/locale_facets.h **** 
 651:/usr/include/c++/10/bits/locale_facets.h ****       virtual const char_type*
 652:/usr/include/c++/10/bits/locale_facets.h ****       do_tolower(char_type* __lo, const char_type* __hi) const;
 653:/usr/include/c++/10/bits/locale_facets.h **** 
 654:/usr/include/c++/10/bits/locale_facets.h ****       virtual char_type
 655:/usr/include/c++/10/bits/locale_facets.h ****       do_widen(char __c) const;
 656:/usr/include/c++/10/bits/locale_facets.h **** 
 657:/usr/include/c++/10/bits/locale_facets.h ****       virtual const char*
 658:/usr/include/c++/10/bits/locale_facets.h ****       do_widen(const char* __lo, const char* __hi, char_type* __dest) const;
 659:/usr/include/c++/10/bits/locale_facets.h **** 
 660:/usr/include/c++/10/bits/locale_facets.h ****       virtual char
 661:/usr/include/c++/10/bits/locale_facets.h ****       do_narrow(char_type, char __dfault) const;
 662:/usr/include/c++/10/bits/locale_facets.h **** 
 663:/usr/include/c++/10/bits/locale_facets.h ****       virtual const char_type*
 664:/usr/include/c++/10/bits/locale_facets.h ****       do_narrow(const char_type* __lo, const char_type* __hi,
 665:/usr/include/c++/10/bits/locale_facets.h **** 		char __dfault, char* __to) const;
 666:/usr/include/c++/10/bits/locale_facets.h ****     };
 667:/usr/include/c++/10/bits/locale_facets.h **** 
 668:/usr/include/c++/10/bits/locale_facets.h ****   template<typename _CharT>
 669:/usr/include/c++/10/bits/locale_facets.h ****     locale::id ctype<_CharT>::id;
 670:/usr/include/c++/10/bits/locale_facets.h **** 
 671:/usr/include/c++/10/bits/locale_facets.h ****   /**
AARCH64 GAS  obj/Chapter11_4.s 			page 14


 672:/usr/include/c++/10/bits/locale_facets.h ****    *  @brief  The ctype<char> specialization.
 673:/usr/include/c++/10/bits/locale_facets.h ****    *  @ingroup locales
 674:/usr/include/c++/10/bits/locale_facets.h ****    *
 675:/usr/include/c++/10/bits/locale_facets.h ****    *  This class defines classification and conversion functions for
 676:/usr/include/c++/10/bits/locale_facets.h ****    *  the char type.  It gets used by char streams for many I/O
 677:/usr/include/c++/10/bits/locale_facets.h ****    *  operations.  The char specialization provides a number of
 678:/usr/include/c++/10/bits/locale_facets.h ****    *  optimizations as well.
 679:/usr/include/c++/10/bits/locale_facets.h ****   */
 680:/usr/include/c++/10/bits/locale_facets.h ****   template<>
 681:/usr/include/c++/10/bits/locale_facets.h ****     class ctype<char> : public locale::facet, public ctype_base
 682:/usr/include/c++/10/bits/locale_facets.h ****     {
 683:/usr/include/c++/10/bits/locale_facets.h ****     public:
 684:/usr/include/c++/10/bits/locale_facets.h ****       // Types:
 685:/usr/include/c++/10/bits/locale_facets.h ****       /// Typedef for the template parameter char.
 686:/usr/include/c++/10/bits/locale_facets.h ****       typedef char		char_type;
 687:/usr/include/c++/10/bits/locale_facets.h **** 
 688:/usr/include/c++/10/bits/locale_facets.h ****     protected:
 689:/usr/include/c++/10/bits/locale_facets.h ****       // Data Members:
 690:/usr/include/c++/10/bits/locale_facets.h ****       __c_locale		_M_c_locale_ctype;
 691:/usr/include/c++/10/bits/locale_facets.h ****       bool			_M_del;
 692:/usr/include/c++/10/bits/locale_facets.h ****       __to_type			_M_toupper;
 693:/usr/include/c++/10/bits/locale_facets.h ****       __to_type			_M_tolower;
 694:/usr/include/c++/10/bits/locale_facets.h ****       const mask*		_M_table;
 695:/usr/include/c++/10/bits/locale_facets.h ****       mutable char		_M_widen_ok;
 696:/usr/include/c++/10/bits/locale_facets.h ****       mutable char		_M_widen[1 + static_cast<unsigned char>(-1)];
 697:/usr/include/c++/10/bits/locale_facets.h ****       mutable char		_M_narrow[1 + static_cast<unsigned char>(-1)];
 698:/usr/include/c++/10/bits/locale_facets.h ****       mutable char		_M_narrow_ok;	// 0 uninitialized, 1 init,
 699:/usr/include/c++/10/bits/locale_facets.h **** 						// 2 memcpy can't be used
 700:/usr/include/c++/10/bits/locale_facets.h **** 
 701:/usr/include/c++/10/bits/locale_facets.h ****     public:
 702:/usr/include/c++/10/bits/locale_facets.h ****       /// The facet id for ctype<char>
 703:/usr/include/c++/10/bits/locale_facets.h ****       static locale::id        id;
 704:/usr/include/c++/10/bits/locale_facets.h ****       /// The size of the mask table.  It is SCHAR_MAX + 1.
 705:/usr/include/c++/10/bits/locale_facets.h ****       static const size_t      table_size = 1 + static_cast<unsigned char>(-1);
 706:/usr/include/c++/10/bits/locale_facets.h **** 
 707:/usr/include/c++/10/bits/locale_facets.h ****       /**
 708:/usr/include/c++/10/bits/locale_facets.h ****        *  @brief  Constructor performs initialization.
 709:/usr/include/c++/10/bits/locale_facets.h ****        *
 710:/usr/include/c++/10/bits/locale_facets.h ****        *  This is the constructor provided by the standard.
 711:/usr/include/c++/10/bits/locale_facets.h ****        *
 712:/usr/include/c++/10/bits/locale_facets.h ****        *  @param __table If non-zero, table is used as the per-char mask.
 713:/usr/include/c++/10/bits/locale_facets.h ****        *               Else classic_table() is used.
 714:/usr/include/c++/10/bits/locale_facets.h ****        *  @param __del   If true, passes ownership of table to this facet.
 715:/usr/include/c++/10/bits/locale_facets.h ****        *  @param __refs  Passed to the base facet class.
 716:/usr/include/c++/10/bits/locale_facets.h ****       */
 717:/usr/include/c++/10/bits/locale_facets.h ****       explicit
 718:/usr/include/c++/10/bits/locale_facets.h ****       ctype(const mask* __table = 0, bool __del = false, size_t __refs = 0);
 719:/usr/include/c++/10/bits/locale_facets.h **** 
 720:/usr/include/c++/10/bits/locale_facets.h ****       /**
 721:/usr/include/c++/10/bits/locale_facets.h ****        *  @brief  Constructor performs static initialization.
 722:/usr/include/c++/10/bits/locale_facets.h ****        *
 723:/usr/include/c++/10/bits/locale_facets.h ****        *  This constructor is used to construct the initial C locale facet.
 724:/usr/include/c++/10/bits/locale_facets.h ****        *
 725:/usr/include/c++/10/bits/locale_facets.h ****        *  @param __cloc  Handle to C locale data.
 726:/usr/include/c++/10/bits/locale_facets.h ****        *  @param __table If non-zero, table is used as the per-char mask.
 727:/usr/include/c++/10/bits/locale_facets.h ****        *  @param __del   If true, passes ownership of table to this facet.
 728:/usr/include/c++/10/bits/locale_facets.h ****        *  @param __refs  Passed to the base facet class.
AARCH64 GAS  obj/Chapter11_4.s 			page 15


 729:/usr/include/c++/10/bits/locale_facets.h ****       */
 730:/usr/include/c++/10/bits/locale_facets.h ****       explicit
 731:/usr/include/c++/10/bits/locale_facets.h ****       ctype(__c_locale __cloc, const mask* __table = 0, bool __del = false,
 732:/usr/include/c++/10/bits/locale_facets.h **** 	    size_t __refs = 0);
 733:/usr/include/c++/10/bits/locale_facets.h **** 
 734:/usr/include/c++/10/bits/locale_facets.h ****       /**
 735:/usr/include/c++/10/bits/locale_facets.h ****        *  @brief  Test char classification.
 736:/usr/include/c++/10/bits/locale_facets.h ****        *
 737:/usr/include/c++/10/bits/locale_facets.h ****        *  This function compares the mask table[c] to @a __m.
 738:/usr/include/c++/10/bits/locale_facets.h ****        *
 739:/usr/include/c++/10/bits/locale_facets.h ****        *  @param __c  The char to compare the mask of.
 740:/usr/include/c++/10/bits/locale_facets.h ****        *  @param __m  The mask to compare against.
 741:/usr/include/c++/10/bits/locale_facets.h ****        *  @return  True if __m & table[__c] is true, false otherwise.
 742:/usr/include/c++/10/bits/locale_facets.h ****       */
 743:/usr/include/c++/10/bits/locale_facets.h ****       inline bool
 744:/usr/include/c++/10/bits/locale_facets.h ****       is(mask __m, char __c) const;
 745:/usr/include/c++/10/bits/locale_facets.h **** 
 746:/usr/include/c++/10/bits/locale_facets.h ****       /**
 747:/usr/include/c++/10/bits/locale_facets.h ****        *  @brief  Return a mask array.
 748:/usr/include/c++/10/bits/locale_facets.h ****        *
 749:/usr/include/c++/10/bits/locale_facets.h ****        *  This function finds the mask for each char in the range [lo, hi) and
 750:/usr/include/c++/10/bits/locale_facets.h ****        *  successively writes it to vec.  vec must have as many elements as
 751:/usr/include/c++/10/bits/locale_facets.h ****        *  the char array.
 752:/usr/include/c++/10/bits/locale_facets.h ****        *
 753:/usr/include/c++/10/bits/locale_facets.h ****        *  @param __lo  Pointer to start of range.
 754:/usr/include/c++/10/bits/locale_facets.h ****        *  @param __hi  Pointer to end of range.
 755:/usr/include/c++/10/bits/locale_facets.h ****        *  @param __vec  Pointer to an array of mask storage.
 756:/usr/include/c++/10/bits/locale_facets.h ****        *  @return  @a __hi.
 757:/usr/include/c++/10/bits/locale_facets.h ****       */
 758:/usr/include/c++/10/bits/locale_facets.h ****       inline const char*
 759:/usr/include/c++/10/bits/locale_facets.h ****       is(const char* __lo, const char* __hi, mask* __vec) const;
 760:/usr/include/c++/10/bits/locale_facets.h **** 
 761:/usr/include/c++/10/bits/locale_facets.h ****       /**
 762:/usr/include/c++/10/bits/locale_facets.h ****        *  @brief  Find char matching a mask
 763:/usr/include/c++/10/bits/locale_facets.h ****        *
 764:/usr/include/c++/10/bits/locale_facets.h ****        *  This function searches for and returns the first char in [lo,hi) for
 765:/usr/include/c++/10/bits/locale_facets.h ****        *  which is(m,char) is true.
 766:/usr/include/c++/10/bits/locale_facets.h ****        *
 767:/usr/include/c++/10/bits/locale_facets.h ****        *  @param __m  The mask to compare against.
 768:/usr/include/c++/10/bits/locale_facets.h ****        *  @param __lo  Pointer to start of range.
 769:/usr/include/c++/10/bits/locale_facets.h ****        *  @param __hi  Pointer to end of range.
 770:/usr/include/c++/10/bits/locale_facets.h ****        *  @return  Pointer to a matching char if found, else @a __hi.
 771:/usr/include/c++/10/bits/locale_facets.h ****       */
 772:/usr/include/c++/10/bits/locale_facets.h ****       inline const char*
 773:/usr/include/c++/10/bits/locale_facets.h ****       scan_is(mask __m, const char* __lo, const char* __hi) const;
 774:/usr/include/c++/10/bits/locale_facets.h **** 
 775:/usr/include/c++/10/bits/locale_facets.h ****       /**
 776:/usr/include/c++/10/bits/locale_facets.h ****        *  @brief  Find char not matching a mask
 777:/usr/include/c++/10/bits/locale_facets.h ****        *
 778:/usr/include/c++/10/bits/locale_facets.h ****        *  This function searches for and returns a pointer to the first char
 779:/usr/include/c++/10/bits/locale_facets.h ****        *  in [__lo,__hi) for which is(m,char) is false.
 780:/usr/include/c++/10/bits/locale_facets.h ****        *
 781:/usr/include/c++/10/bits/locale_facets.h ****        *  @param __m  The mask to compare against.
 782:/usr/include/c++/10/bits/locale_facets.h ****        *  @param __lo  Pointer to start of range.
 783:/usr/include/c++/10/bits/locale_facets.h ****        *  @param __hi  Pointer to end of range.
 784:/usr/include/c++/10/bits/locale_facets.h ****        *  @return  Pointer to a non-matching char if found, else @a __hi.
 785:/usr/include/c++/10/bits/locale_facets.h ****       */
AARCH64 GAS  obj/Chapter11_4.s 			page 16


 786:/usr/include/c++/10/bits/locale_facets.h ****       inline const char*
 787:/usr/include/c++/10/bits/locale_facets.h ****       scan_not(mask __m, const char* __lo, const char* __hi) const;
 788:/usr/include/c++/10/bits/locale_facets.h **** 
 789:/usr/include/c++/10/bits/locale_facets.h ****       /**
 790:/usr/include/c++/10/bits/locale_facets.h ****        *  @brief  Convert to uppercase.
 791:/usr/include/c++/10/bits/locale_facets.h ****        *
 792:/usr/include/c++/10/bits/locale_facets.h ****        *  This function converts the char argument to uppercase if possible.
 793:/usr/include/c++/10/bits/locale_facets.h ****        *  If not possible (for example, '2'), returns the argument.
 794:/usr/include/c++/10/bits/locale_facets.h ****        *
 795:/usr/include/c++/10/bits/locale_facets.h ****        *  toupper() acts as if it returns ctype<char>::do_toupper(c).
 796:/usr/include/c++/10/bits/locale_facets.h ****        *  do_toupper() must always return the same result for the same input.
 797:/usr/include/c++/10/bits/locale_facets.h ****        *
 798:/usr/include/c++/10/bits/locale_facets.h ****        *  @param __c  The char to convert.
 799:/usr/include/c++/10/bits/locale_facets.h ****        *  @return  The uppercase char if convertible, else @a __c.
 800:/usr/include/c++/10/bits/locale_facets.h ****       */
 801:/usr/include/c++/10/bits/locale_facets.h ****       char_type
 802:/usr/include/c++/10/bits/locale_facets.h ****       toupper(char_type __c) const
 803:/usr/include/c++/10/bits/locale_facets.h ****       { return this->do_toupper(__c); }
 804:/usr/include/c++/10/bits/locale_facets.h **** 
 805:/usr/include/c++/10/bits/locale_facets.h ****       /**
 806:/usr/include/c++/10/bits/locale_facets.h ****        *  @brief  Convert array to uppercase.
 807:/usr/include/c++/10/bits/locale_facets.h ****        *
 808:/usr/include/c++/10/bits/locale_facets.h ****        *  This function converts each char in the range [__lo,__hi) to uppercase
 809:/usr/include/c++/10/bits/locale_facets.h ****        *  if possible.  Other chars remain untouched.
 810:/usr/include/c++/10/bits/locale_facets.h ****        *
 811:/usr/include/c++/10/bits/locale_facets.h ****        *  toupper() acts as if it returns ctype<char>:: do_toupper(__lo, __hi).
 812:/usr/include/c++/10/bits/locale_facets.h ****        *  do_toupper() must always return the same result for the same input.
 813:/usr/include/c++/10/bits/locale_facets.h ****        *
 814:/usr/include/c++/10/bits/locale_facets.h ****        *  @param __lo  Pointer to first char in range.
 815:/usr/include/c++/10/bits/locale_facets.h ****        *  @param __hi  Pointer to end of range.
 816:/usr/include/c++/10/bits/locale_facets.h ****        *  @return  @a __hi.
 817:/usr/include/c++/10/bits/locale_facets.h ****       */
 818:/usr/include/c++/10/bits/locale_facets.h ****       const char_type*
 819:/usr/include/c++/10/bits/locale_facets.h ****       toupper(char_type *__lo, const char_type* __hi) const
 820:/usr/include/c++/10/bits/locale_facets.h ****       { return this->do_toupper(__lo, __hi); }
 821:/usr/include/c++/10/bits/locale_facets.h **** 
 822:/usr/include/c++/10/bits/locale_facets.h ****       /**
 823:/usr/include/c++/10/bits/locale_facets.h ****        *  @brief  Convert to lowercase.
 824:/usr/include/c++/10/bits/locale_facets.h ****        *
 825:/usr/include/c++/10/bits/locale_facets.h ****        *  This function converts the char argument to lowercase if possible.
 826:/usr/include/c++/10/bits/locale_facets.h ****        *  If not possible (for example, '2'), returns the argument.
 827:/usr/include/c++/10/bits/locale_facets.h ****        *
 828:/usr/include/c++/10/bits/locale_facets.h ****        *  tolower() acts as if it returns ctype<char>::do_tolower(__c).
 829:/usr/include/c++/10/bits/locale_facets.h ****        *  do_tolower() must always return the same result for the same input.
 830:/usr/include/c++/10/bits/locale_facets.h ****        *
 831:/usr/include/c++/10/bits/locale_facets.h ****        *  @param __c  The char to convert.
 832:/usr/include/c++/10/bits/locale_facets.h ****        *  @return  The lowercase char if convertible, else @a __c.
 833:/usr/include/c++/10/bits/locale_facets.h ****       */
 834:/usr/include/c++/10/bits/locale_facets.h ****       char_type
 835:/usr/include/c++/10/bits/locale_facets.h ****       tolower(char_type __c) const
 836:/usr/include/c++/10/bits/locale_facets.h ****       { return this->do_tolower(__c); }
 837:/usr/include/c++/10/bits/locale_facets.h **** 
 838:/usr/include/c++/10/bits/locale_facets.h ****       /**
 839:/usr/include/c++/10/bits/locale_facets.h ****        *  @brief  Convert array to lowercase.
 840:/usr/include/c++/10/bits/locale_facets.h ****        *
 841:/usr/include/c++/10/bits/locale_facets.h ****        *  This function converts each char in the range [lo,hi) to lowercase
 842:/usr/include/c++/10/bits/locale_facets.h ****        *  if possible.  Other chars remain untouched.
AARCH64 GAS  obj/Chapter11_4.s 			page 17


 843:/usr/include/c++/10/bits/locale_facets.h ****        *
 844:/usr/include/c++/10/bits/locale_facets.h ****        *  tolower() acts as if it returns ctype<char>:: do_tolower(__lo, __hi).
 845:/usr/include/c++/10/bits/locale_facets.h ****        *  do_tolower() must always return the same result for the same input.
 846:/usr/include/c++/10/bits/locale_facets.h ****        *
 847:/usr/include/c++/10/bits/locale_facets.h ****        *  @param __lo  Pointer to first char in range.
 848:/usr/include/c++/10/bits/locale_facets.h ****        *  @param __hi  Pointer to end of range.
 849:/usr/include/c++/10/bits/locale_facets.h ****        *  @return  @a __hi.
 850:/usr/include/c++/10/bits/locale_facets.h ****       */
 851:/usr/include/c++/10/bits/locale_facets.h ****       const char_type*
 852:/usr/include/c++/10/bits/locale_facets.h ****       tolower(char_type* __lo, const char_type* __hi) const
 853:/usr/include/c++/10/bits/locale_facets.h ****       { return this->do_tolower(__lo, __hi); }
 854:/usr/include/c++/10/bits/locale_facets.h **** 
 855:/usr/include/c++/10/bits/locale_facets.h ****       /**
 856:/usr/include/c++/10/bits/locale_facets.h ****        *  @brief  Widen char
 857:/usr/include/c++/10/bits/locale_facets.h ****        *
 858:/usr/include/c++/10/bits/locale_facets.h ****        *  This function converts the char to char_type using the simplest
 859:/usr/include/c++/10/bits/locale_facets.h ****        *  reasonable transformation.  For an underived ctype<char> facet, the
 860:/usr/include/c++/10/bits/locale_facets.h ****        *  argument will be returned unchanged.
 861:/usr/include/c++/10/bits/locale_facets.h ****        *
 862:/usr/include/c++/10/bits/locale_facets.h ****        *  This function works as if it returns ctype<char>::do_widen(c).
 863:/usr/include/c++/10/bits/locale_facets.h ****        *  do_widen() must always return the same result for the same input.
 864:/usr/include/c++/10/bits/locale_facets.h ****        *
 865:/usr/include/c++/10/bits/locale_facets.h ****        *  Note: this is not what you want for codepage conversions.  See
 866:/usr/include/c++/10/bits/locale_facets.h ****        *  codecvt for that.
 867:/usr/include/c++/10/bits/locale_facets.h ****        *
 868:/usr/include/c++/10/bits/locale_facets.h ****        *  @param __c  The char to convert.
 869:/usr/include/c++/10/bits/locale_facets.h ****        *  @return  The converted character.
 870:/usr/include/c++/10/bits/locale_facets.h ****       */
 871:/usr/include/c++/10/bits/locale_facets.h ****       char_type
 872:/usr/include/c++/10/bits/locale_facets.h ****       widen(char __c) const
 873:/usr/include/c++/10/bits/locale_facets.h ****       {
 874:/usr/include/c++/10/bits/locale_facets.h **** 	if (_M_widen_ok)
 875:/usr/include/c++/10/bits/locale_facets.h **** 	  return _M_widen[static_cast<unsigned char>(__c)];
 876:/usr/include/c++/10/bits/locale_facets.h **** 	this->_M_widen_init();
 877:/usr/include/c++/10/bits/locale_facets.h **** 	return this->do_widen(__c);
 878:/usr/include/c++/10/bits/locale_facets.h ****       }
 879:/usr/include/c++/10/bits/locale_facets.h **** 
 880:/usr/include/c++/10/bits/locale_facets.h ****       /**
 881:/usr/include/c++/10/bits/locale_facets.h ****        *  @brief  Widen char array
 882:/usr/include/c++/10/bits/locale_facets.h ****        *
 883:/usr/include/c++/10/bits/locale_facets.h ****        *  This function converts each char in the input to char using the
 884:/usr/include/c++/10/bits/locale_facets.h ****        *  simplest reasonable transformation.  For an underived ctype<char>
 885:/usr/include/c++/10/bits/locale_facets.h ****        *  facet, the argument will be copied unchanged.
 886:/usr/include/c++/10/bits/locale_facets.h ****        *
 887:/usr/include/c++/10/bits/locale_facets.h ****        *  This function works as if it returns ctype<char>::do_widen(c).
 888:/usr/include/c++/10/bits/locale_facets.h ****        *  do_widen() must always return the same result for the same input.
 889:/usr/include/c++/10/bits/locale_facets.h ****        *
 890:/usr/include/c++/10/bits/locale_facets.h ****        *  Note: this is not what you want for codepage conversions.  See
 891:/usr/include/c++/10/bits/locale_facets.h ****        *  codecvt for that.
 892:/usr/include/c++/10/bits/locale_facets.h ****        *
 893:/usr/include/c++/10/bits/locale_facets.h ****        *  @param __lo  Pointer to first char in range.
 894:/usr/include/c++/10/bits/locale_facets.h ****        *  @param __hi  Pointer to end of range.
 895:/usr/include/c++/10/bits/locale_facets.h ****        *  @param __to  Pointer to the destination array.
 896:/usr/include/c++/10/bits/locale_facets.h ****        *  @return  @a __hi.
 897:/usr/include/c++/10/bits/locale_facets.h ****       */
 898:/usr/include/c++/10/bits/locale_facets.h ****       const char*
 899:/usr/include/c++/10/bits/locale_facets.h ****       widen(const char* __lo, const char* __hi, char_type* __to) const
AARCH64 GAS  obj/Chapter11_4.s 			page 18


 900:/usr/include/c++/10/bits/locale_facets.h ****       {
 901:/usr/include/c++/10/bits/locale_facets.h **** 	if (_M_widen_ok == 1)
 902:/usr/include/c++/10/bits/locale_facets.h **** 	  {
 903:/usr/include/c++/10/bits/locale_facets.h **** 	    if (__builtin_expect(__hi != __lo, true))
 904:/usr/include/c++/10/bits/locale_facets.h **** 	      __builtin_memcpy(__to, __lo, __hi - __lo);
 905:/usr/include/c++/10/bits/locale_facets.h **** 	    return __hi;
 906:/usr/include/c++/10/bits/locale_facets.h **** 	  }
 907:/usr/include/c++/10/bits/locale_facets.h **** 	if (!_M_widen_ok)
 908:/usr/include/c++/10/bits/locale_facets.h **** 	  _M_widen_init();
 909:/usr/include/c++/10/bits/locale_facets.h **** 	return this->do_widen(__lo, __hi, __to);
 910:/usr/include/c++/10/bits/locale_facets.h ****       }
 911:/usr/include/c++/10/bits/locale_facets.h **** 
 912:/usr/include/c++/10/bits/locale_facets.h ****       /**
 913:/usr/include/c++/10/bits/locale_facets.h ****        *  @brief  Narrow char
 914:/usr/include/c++/10/bits/locale_facets.h ****        *
 915:/usr/include/c++/10/bits/locale_facets.h ****        *  This function converts the char to char using the simplest
 916:/usr/include/c++/10/bits/locale_facets.h ****        *  reasonable transformation.  If the conversion fails, dfault is
 917:/usr/include/c++/10/bits/locale_facets.h ****        *  returned instead.  For an underived ctype<char> facet, @a c
 918:/usr/include/c++/10/bits/locale_facets.h ****        *  will be returned unchanged.
 919:/usr/include/c++/10/bits/locale_facets.h ****        *
 920:/usr/include/c++/10/bits/locale_facets.h ****        *  This function works as if it returns ctype<char>::do_narrow(c).
 921:/usr/include/c++/10/bits/locale_facets.h ****        *  do_narrow() must always return the same result for the same input.
 922:/usr/include/c++/10/bits/locale_facets.h ****        *
 923:/usr/include/c++/10/bits/locale_facets.h ****        *  Note: this is not what you want for codepage conversions.  See
 924:/usr/include/c++/10/bits/locale_facets.h ****        *  codecvt for that.
 925:/usr/include/c++/10/bits/locale_facets.h ****        *
 926:/usr/include/c++/10/bits/locale_facets.h ****        *  @param __c  The char to convert.
 927:/usr/include/c++/10/bits/locale_facets.h ****        *  @param __dfault  Char to return if conversion fails.
 928:/usr/include/c++/10/bits/locale_facets.h ****        *  @return  The converted character.
 929:/usr/include/c++/10/bits/locale_facets.h ****       */
 930:/usr/include/c++/10/bits/locale_facets.h ****       char
 931:/usr/include/c++/10/bits/locale_facets.h ****       narrow(char_type __c, char __dfault) const
 932:/usr/include/c++/10/bits/locale_facets.h ****       {
 933:/usr/include/c++/10/bits/locale_facets.h **** 	if (_M_narrow[static_cast<unsigned char>(__c)])
 934:/usr/include/c++/10/bits/locale_facets.h **** 	  return _M_narrow[static_cast<unsigned char>(__c)];
 935:/usr/include/c++/10/bits/locale_facets.h **** 	const char __t = do_narrow(__c, __dfault);
 936:/usr/include/c++/10/bits/locale_facets.h **** 	if (__t != __dfault)
 937:/usr/include/c++/10/bits/locale_facets.h **** 	  _M_narrow[static_cast<unsigned char>(__c)] = __t;
 938:/usr/include/c++/10/bits/locale_facets.h **** 	return __t;
 939:/usr/include/c++/10/bits/locale_facets.h ****       }
 940:/usr/include/c++/10/bits/locale_facets.h **** 
 941:/usr/include/c++/10/bits/locale_facets.h ****       /**
 942:/usr/include/c++/10/bits/locale_facets.h ****        *  @brief  Narrow char array
 943:/usr/include/c++/10/bits/locale_facets.h ****        *
 944:/usr/include/c++/10/bits/locale_facets.h ****        *  This function converts each char in the input to char using the
 945:/usr/include/c++/10/bits/locale_facets.h ****        *  simplest reasonable transformation and writes the results to the
 946:/usr/include/c++/10/bits/locale_facets.h ****        *  destination array.  For any char in the input that cannot be
 947:/usr/include/c++/10/bits/locale_facets.h ****        *  converted, @a dfault is used instead.  For an underived ctype<char>
 948:/usr/include/c++/10/bits/locale_facets.h ****        *  facet, the argument will be copied unchanged.
 949:/usr/include/c++/10/bits/locale_facets.h ****        *
 950:/usr/include/c++/10/bits/locale_facets.h ****        *  This function works as if it returns ctype<char>::do_narrow(lo, hi,
 951:/usr/include/c++/10/bits/locale_facets.h ****        *  dfault, to).  do_narrow() must always return the same result for the
 952:/usr/include/c++/10/bits/locale_facets.h ****        *  same input.
 953:/usr/include/c++/10/bits/locale_facets.h ****        *
 954:/usr/include/c++/10/bits/locale_facets.h ****        *  Note: this is not what you want for codepage conversions.  See
 955:/usr/include/c++/10/bits/locale_facets.h ****        *  codecvt for that.
 956:/usr/include/c++/10/bits/locale_facets.h ****        *
AARCH64 GAS  obj/Chapter11_4.s 			page 19


 957:/usr/include/c++/10/bits/locale_facets.h ****        *  @param __lo  Pointer to start of range.
 958:/usr/include/c++/10/bits/locale_facets.h ****        *  @param __hi  Pointer to end of range.
 959:/usr/include/c++/10/bits/locale_facets.h ****        *  @param __dfault  Char to use if conversion fails.
 960:/usr/include/c++/10/bits/locale_facets.h ****        *  @param __to  Pointer to the destination array.
 961:/usr/include/c++/10/bits/locale_facets.h ****        *  @return  @a __hi.
 962:/usr/include/c++/10/bits/locale_facets.h ****       */
 963:/usr/include/c++/10/bits/locale_facets.h ****       const char_type*
 964:/usr/include/c++/10/bits/locale_facets.h ****       narrow(const char_type* __lo, const char_type* __hi,
 965:/usr/include/c++/10/bits/locale_facets.h **** 	     char __dfault, char* __to) const
 966:/usr/include/c++/10/bits/locale_facets.h ****       {
 967:/usr/include/c++/10/bits/locale_facets.h **** 	if (__builtin_expect(_M_narrow_ok == 1, true))
 968:/usr/include/c++/10/bits/locale_facets.h **** 	  {
 969:/usr/include/c++/10/bits/locale_facets.h **** 	    if (__builtin_expect(__hi != __lo, true))
 970:/usr/include/c++/10/bits/locale_facets.h **** 	      __builtin_memcpy(__to, __lo, __hi - __lo);
 971:/usr/include/c++/10/bits/locale_facets.h **** 	    return __hi;
 972:/usr/include/c++/10/bits/locale_facets.h **** 	  }
 973:/usr/include/c++/10/bits/locale_facets.h **** 	if (!_M_narrow_ok)
 974:/usr/include/c++/10/bits/locale_facets.h **** 	  _M_narrow_init();
 975:/usr/include/c++/10/bits/locale_facets.h **** 	return this->do_narrow(__lo, __hi, __dfault, __to);
 976:/usr/include/c++/10/bits/locale_facets.h ****       }
 977:/usr/include/c++/10/bits/locale_facets.h **** 
 978:/usr/include/c++/10/bits/locale_facets.h ****       // _GLIBCXX_RESOLVE_LIB_DEFECTS
 979:/usr/include/c++/10/bits/locale_facets.h ****       // DR 695. ctype<char>::classic_table() not accessible.
 980:/usr/include/c++/10/bits/locale_facets.h ****       /// Returns a pointer to the mask table provided to the constructor, or
 981:/usr/include/c++/10/bits/locale_facets.h ****       /// the default from classic_table() if none was provided.
 982:/usr/include/c++/10/bits/locale_facets.h ****       const mask*
 983:/usr/include/c++/10/bits/locale_facets.h ****       table() const throw()
 984:/usr/include/c++/10/bits/locale_facets.h ****       { return _M_table; }
 985:/usr/include/c++/10/bits/locale_facets.h **** 
 986:/usr/include/c++/10/bits/locale_facets.h ****       /// Returns a pointer to the C locale mask table.
 987:/usr/include/c++/10/bits/locale_facets.h ****       static const mask*
 988:/usr/include/c++/10/bits/locale_facets.h ****       classic_table() throw();
 989:/usr/include/c++/10/bits/locale_facets.h ****     protected:
 990:/usr/include/c++/10/bits/locale_facets.h **** 
 991:/usr/include/c++/10/bits/locale_facets.h ****       /**
 992:/usr/include/c++/10/bits/locale_facets.h ****        *  @brief  Destructor.
 993:/usr/include/c++/10/bits/locale_facets.h ****        *
 994:/usr/include/c++/10/bits/locale_facets.h ****        *  This function deletes table() if @a del was true in the
 995:/usr/include/c++/10/bits/locale_facets.h ****        *  constructor.
 996:/usr/include/c++/10/bits/locale_facets.h ****       */
 997:/usr/include/c++/10/bits/locale_facets.h ****       virtual
 998:/usr/include/c++/10/bits/locale_facets.h ****       ~ctype();
 999:/usr/include/c++/10/bits/locale_facets.h **** 
1000:/usr/include/c++/10/bits/locale_facets.h ****       /**
1001:/usr/include/c++/10/bits/locale_facets.h ****        *  @brief  Convert to uppercase.
1002:/usr/include/c++/10/bits/locale_facets.h ****        *
1003:/usr/include/c++/10/bits/locale_facets.h ****        *  This virtual function converts the char argument to uppercase if
1004:/usr/include/c++/10/bits/locale_facets.h ****        *  possible.  If not possible (for example, '2'), returns the argument.
1005:/usr/include/c++/10/bits/locale_facets.h ****        *
1006:/usr/include/c++/10/bits/locale_facets.h ****        *  do_toupper() is a hook for a derived facet to change the behavior of
1007:/usr/include/c++/10/bits/locale_facets.h ****        *  uppercasing.  do_toupper() must always return the same result for
1008:/usr/include/c++/10/bits/locale_facets.h ****        *  the same input.
1009:/usr/include/c++/10/bits/locale_facets.h ****        *
1010:/usr/include/c++/10/bits/locale_facets.h ****        *  @param __c  The char to convert.
1011:/usr/include/c++/10/bits/locale_facets.h ****        *  @return  The uppercase char if convertible, else @a __c.
1012:/usr/include/c++/10/bits/locale_facets.h ****       */
1013:/usr/include/c++/10/bits/locale_facets.h ****       virtual char_type
AARCH64 GAS  obj/Chapter11_4.s 			page 20


1014:/usr/include/c++/10/bits/locale_facets.h ****       do_toupper(char_type __c) const;
1015:/usr/include/c++/10/bits/locale_facets.h **** 
1016:/usr/include/c++/10/bits/locale_facets.h ****       /**
1017:/usr/include/c++/10/bits/locale_facets.h ****        *  @brief  Convert array to uppercase.
1018:/usr/include/c++/10/bits/locale_facets.h ****        *
1019:/usr/include/c++/10/bits/locale_facets.h ****        *  This virtual function converts each char in the range [lo,hi) to
1020:/usr/include/c++/10/bits/locale_facets.h ****        *  uppercase if possible.  Other chars remain untouched.
1021:/usr/include/c++/10/bits/locale_facets.h ****        *
1022:/usr/include/c++/10/bits/locale_facets.h ****        *  do_toupper() is a hook for a derived facet to change the behavior of
1023:/usr/include/c++/10/bits/locale_facets.h ****        *  uppercasing.  do_toupper() must always return the same result for
1024:/usr/include/c++/10/bits/locale_facets.h ****        *  the same input.
1025:/usr/include/c++/10/bits/locale_facets.h ****        *
1026:/usr/include/c++/10/bits/locale_facets.h ****        *  @param __lo  Pointer to start of range.
1027:/usr/include/c++/10/bits/locale_facets.h ****        *  @param __hi  Pointer to end of range.
1028:/usr/include/c++/10/bits/locale_facets.h ****        *  @return  @a __hi.
1029:/usr/include/c++/10/bits/locale_facets.h ****       */
1030:/usr/include/c++/10/bits/locale_facets.h ****       virtual const char_type*
1031:/usr/include/c++/10/bits/locale_facets.h ****       do_toupper(char_type* __lo, const char_type* __hi) const;
1032:/usr/include/c++/10/bits/locale_facets.h **** 
1033:/usr/include/c++/10/bits/locale_facets.h ****       /**
1034:/usr/include/c++/10/bits/locale_facets.h ****        *  @brief  Convert to lowercase.
1035:/usr/include/c++/10/bits/locale_facets.h ****        *
1036:/usr/include/c++/10/bits/locale_facets.h ****        *  This virtual function converts the char argument to lowercase if
1037:/usr/include/c++/10/bits/locale_facets.h ****        *  possible.  If not possible (for example, '2'), returns the argument.
1038:/usr/include/c++/10/bits/locale_facets.h ****        *
1039:/usr/include/c++/10/bits/locale_facets.h ****        *  do_tolower() is a hook for a derived facet to change the behavior of
1040:/usr/include/c++/10/bits/locale_facets.h ****        *  lowercasing.  do_tolower() must always return the same result for
1041:/usr/include/c++/10/bits/locale_facets.h ****        *  the same input.
1042:/usr/include/c++/10/bits/locale_facets.h ****        *
1043:/usr/include/c++/10/bits/locale_facets.h ****        *  @param __c  The char to convert.
1044:/usr/include/c++/10/bits/locale_facets.h ****        *  @return  The lowercase char if convertible, else @a __c.
1045:/usr/include/c++/10/bits/locale_facets.h ****       */
1046:/usr/include/c++/10/bits/locale_facets.h ****       virtual char_type
1047:/usr/include/c++/10/bits/locale_facets.h ****       do_tolower(char_type __c) const;
1048:/usr/include/c++/10/bits/locale_facets.h **** 
1049:/usr/include/c++/10/bits/locale_facets.h ****       /**
1050:/usr/include/c++/10/bits/locale_facets.h ****        *  @brief  Convert array to lowercase.
1051:/usr/include/c++/10/bits/locale_facets.h ****        *
1052:/usr/include/c++/10/bits/locale_facets.h ****        *  This virtual function converts each char in the range [lo,hi) to
1053:/usr/include/c++/10/bits/locale_facets.h ****        *  lowercase if possible.  Other chars remain untouched.
1054:/usr/include/c++/10/bits/locale_facets.h ****        *
1055:/usr/include/c++/10/bits/locale_facets.h ****        *  do_tolower() is a hook for a derived facet to change the behavior of
1056:/usr/include/c++/10/bits/locale_facets.h ****        *  lowercasing.  do_tolower() must always return the same result for
1057:/usr/include/c++/10/bits/locale_facets.h ****        *  the same input.
1058:/usr/include/c++/10/bits/locale_facets.h ****        *
1059:/usr/include/c++/10/bits/locale_facets.h ****        *  @param __lo  Pointer to first char in range.
1060:/usr/include/c++/10/bits/locale_facets.h ****        *  @param __hi  Pointer to end of range.
1061:/usr/include/c++/10/bits/locale_facets.h ****        *  @return  @a __hi.
1062:/usr/include/c++/10/bits/locale_facets.h ****       */
1063:/usr/include/c++/10/bits/locale_facets.h ****       virtual const char_type*
1064:/usr/include/c++/10/bits/locale_facets.h ****       do_tolower(char_type* __lo, const char_type* __hi) const;
1065:/usr/include/c++/10/bits/locale_facets.h **** 
1066:/usr/include/c++/10/bits/locale_facets.h ****       /**
1067:/usr/include/c++/10/bits/locale_facets.h ****        *  @brief  Widen char
1068:/usr/include/c++/10/bits/locale_facets.h ****        *
1069:/usr/include/c++/10/bits/locale_facets.h ****        *  This virtual function converts the char to char using the simplest
1070:/usr/include/c++/10/bits/locale_facets.h ****        *  reasonable transformation.  For an underived ctype<char> facet, the
AARCH64 GAS  obj/Chapter11_4.s 			page 21


1071:/usr/include/c++/10/bits/locale_facets.h ****        *  argument will be returned unchanged.
1072:/usr/include/c++/10/bits/locale_facets.h ****        *
1073:/usr/include/c++/10/bits/locale_facets.h ****        *  do_widen() is a hook for a derived facet to change the behavior of
1074:/usr/include/c++/10/bits/locale_facets.h ****        *  widening.  do_widen() must always return the same result for the
1075:/usr/include/c++/10/bits/locale_facets.h ****        *  same input.
1076:/usr/include/c++/10/bits/locale_facets.h ****        *
1077:/usr/include/c++/10/bits/locale_facets.h ****        *  Note: this is not what you want for codepage conversions.  See
1078:/usr/include/c++/10/bits/locale_facets.h ****        *  codecvt for that.
1079:/usr/include/c++/10/bits/locale_facets.h ****        *
1080:/usr/include/c++/10/bits/locale_facets.h ****        *  @param __c  The char to convert.
1081:/usr/include/c++/10/bits/locale_facets.h ****        *  @return  The converted character.
1082:/usr/include/c++/10/bits/locale_facets.h ****       */
1083:/usr/include/c++/10/bits/locale_facets.h ****       virtual char_type
1084:/usr/include/c++/10/bits/locale_facets.h ****       do_widen(char __c) const
  14              		.loc 1 1084 7 view -0
  15              		.cfi_startproc
1085:/usr/include/c++/10/bits/locale_facets.h ****       { return __c; }
  16              		.loc 1 1085 9 view .LVU1
  17              		.loc 1 1085 21 is_stmt 0 view .LVU2
  18 0000 E003012A 		mov	w0, w1
  19              	.LVL1:
  20              		.loc 1 1085 21 view .LVU3
  21 0004 C0035FD6 		ret
  22              		.cfi_endproc
  23              	.LFE1342:
  24              		.size	_ZNKSt5ctypeIcE8do_widenEc, .-_ZNKSt5ctypeIcE8do_widenEc
  25              		.section	.rodata.str1.8,"aMS",@progbits,1
  26              		.align	3
  27              	.LC0:
  28 0000 6C647249 		.string	"ldrInstrTest1() "
  28      6E737472 
  28      54657374 
  28      31282920 
  28      00
  29              		.text
  30              		.align	2
  31              		.p2align 4,,11
  32              		.global	_Z13ldrInstrTest1v
  33              		.type	_Z13ldrInstrTest1v, %function
  34              	_Z13ldrInstrTest1v:
  35              	.LFB1587:
  36              		.file 2 "Chapter11_4.cpp"
   1:Chapter11_4.cpp **** #include<iostream>
   2:Chapter11_4.cpp **** using namespace std;
   3:Chapter11_4.cpp **** 
   4:Chapter11_4.cpp **** extern "C" int ldrInstrTest1_(unsigned int i,unsigned long j);
   5:Chapter11_4.cpp **** extern "C" long ldrInstrTest2_(unsigned int i,unsigned long j);
   6:Chapter11_4.cpp **** extern "C" short ldrInstrTest3_(unsigned int i,unsigned long j);
   7:Chapter11_4.cpp **** 
   8:Chapter11_4.cpp **** void ldrInstrTest1()
   9:Chapter11_4.cpp **** {
  37              		.loc 2 9 1 is_stmt 1 view -0
  38              		.cfi_startproc
  10:Chapter11_4.cpp ****  unsigned int i = 5;
  39              		.loc 2 10 2 view .LVU5
  40              	.LVL2:
  11:Chapter11_4.cpp ****  unsigned long j = 8;
AARCH64 GAS  obj/Chapter11_4.s 			page 22


  41              		.loc 2 11 2 view .LVU6
  12:Chapter11_4.cpp ****  int result1 = ldrInstrTest1_(i,j);
  42              		.loc 2 12 2 view .LVU7
   9:Chapter11_4.cpp ****  unsigned int i = 5;
  43              		.loc 2 9 1 is_stmt 0 view .LVU8
  44 0000 FD7BBEA9 		stp	x29, x30, [sp, -32]!
  45              		.cfi_def_cfa_offset 32
  46              		.cfi_offset 29, -32
  47              		.cfi_offset 30, -24
  48              		.loc 2 12 30 view .LVU9
  49 0004 010180D2 		mov	x1, 8
  50 0008 A0008052 		mov	w0, 5
   9:Chapter11_4.cpp ****  unsigned int i = 5;
  51              		.loc 2 9 1 view .LVU10
  52 000c FD030091 		mov	x29, sp
  53 0010 F35301A9 		stp	x19, x20, [sp, 16]
  54              		.cfi_offset 19, -16
  55              		.cfi_offset 20, -8
  56              	.LBB74:
  57              	.LBB75:
  58              		.file 3 "/usr/include/c++/10/ostream"
   1:/usr/include/c++/10/ostream **** // Output streams -*- C++ -*-
   2:/usr/include/c++/10/ostream **** 
   3:/usr/include/c++/10/ostream **** // Copyright (C) 1997-2020 Free Software Foundation, Inc.
   4:/usr/include/c++/10/ostream **** //
   5:/usr/include/c++/10/ostream **** // This file is part of the GNU ISO C++ Library.  This library is free
   6:/usr/include/c++/10/ostream **** // software; you can redistribute it and/or modify it under the
   7:/usr/include/c++/10/ostream **** // terms of the GNU General Public License as published by the
   8:/usr/include/c++/10/ostream **** // Free Software Foundation; either version 3, or (at your option)
   9:/usr/include/c++/10/ostream **** // any later version.
  10:/usr/include/c++/10/ostream **** 
  11:/usr/include/c++/10/ostream **** // This library is distributed in the hope that it will be useful,
  12:/usr/include/c++/10/ostream **** // but WITHOUT ANY WARRANTY; without even the implied warranty of
  13:/usr/include/c++/10/ostream **** // MERCHANTABILITY or FITNESS FOR A PARTICULAR PURPOSE.  See the
  14:/usr/include/c++/10/ostream **** // GNU General Public License for more details.
  15:/usr/include/c++/10/ostream **** 
  16:/usr/include/c++/10/ostream **** // Under Section 7 of GPL version 3, you are granted additional
  17:/usr/include/c++/10/ostream **** // permissions described in the GCC Runtime Library Exception, version
  18:/usr/include/c++/10/ostream **** // 3.1, as published by the Free Software Foundation.
  19:/usr/include/c++/10/ostream **** 
  20:/usr/include/c++/10/ostream **** // You should have received a copy of the GNU General Public License and
  21:/usr/include/c++/10/ostream **** // a copy of the GCC Runtime Library Exception along with this program;
  22:/usr/include/c++/10/ostream **** // see the files COPYING3 and COPYING.RUNTIME respectively.  If not, see
  23:/usr/include/c++/10/ostream **** // <http://www.gnu.org/licenses/>.
  24:/usr/include/c++/10/ostream **** 
  25:/usr/include/c++/10/ostream **** /** @file include/ostream
  26:/usr/include/c++/10/ostream ****  *  This is a Standard C++ Library header.
  27:/usr/include/c++/10/ostream ****  */
  28:/usr/include/c++/10/ostream **** 
  29:/usr/include/c++/10/ostream **** //
  30:/usr/include/c++/10/ostream **** // ISO C++ 14882: 27.6.2  Output streams
  31:/usr/include/c++/10/ostream **** //
  32:/usr/include/c++/10/ostream **** 
  33:/usr/include/c++/10/ostream **** #ifndef _GLIBCXX_OSTREAM
  34:/usr/include/c++/10/ostream **** #define _GLIBCXX_OSTREAM 1
  35:/usr/include/c++/10/ostream **** 
  36:/usr/include/c++/10/ostream **** #pragma GCC system_header
AARCH64 GAS  obj/Chapter11_4.s 			page 23


  37:/usr/include/c++/10/ostream **** 
  38:/usr/include/c++/10/ostream **** #include <ios>
  39:/usr/include/c++/10/ostream **** #include <bits/ostream_insert.h>
  40:/usr/include/c++/10/ostream **** 
  41:/usr/include/c++/10/ostream **** namespace std _GLIBCXX_VISIBILITY(default)
  42:/usr/include/c++/10/ostream **** {
  43:/usr/include/c++/10/ostream **** _GLIBCXX_BEGIN_NAMESPACE_VERSION
  44:/usr/include/c++/10/ostream **** 
  45:/usr/include/c++/10/ostream ****   /**
  46:/usr/include/c++/10/ostream ****    *  @brief  Template class basic_ostream.
  47:/usr/include/c++/10/ostream ****    *  @ingroup io
  48:/usr/include/c++/10/ostream ****    *
  49:/usr/include/c++/10/ostream ****    *  @tparam _CharT  Type of character stream.
  50:/usr/include/c++/10/ostream ****    *  @tparam _Traits  Traits for character type, defaults to
  51:/usr/include/c++/10/ostream ****    *                   char_traits<_CharT>.
  52:/usr/include/c++/10/ostream ****    *
  53:/usr/include/c++/10/ostream ****    *  This is the base class for all output streams.  It provides text
  54:/usr/include/c++/10/ostream ****    *  formatting of all builtin types, and communicates with any class
  55:/usr/include/c++/10/ostream ****    *  derived from basic_streambuf to do the actual output.
  56:/usr/include/c++/10/ostream ****   */
  57:/usr/include/c++/10/ostream ****   template<typename _CharT, typename _Traits>
  58:/usr/include/c++/10/ostream ****     class basic_ostream : virtual public basic_ios<_CharT, _Traits>
  59:/usr/include/c++/10/ostream ****     {
  60:/usr/include/c++/10/ostream ****     public:
  61:/usr/include/c++/10/ostream ****       // Types (inherited from basic_ios):
  62:/usr/include/c++/10/ostream ****       typedef _CharT			 		char_type;
  63:/usr/include/c++/10/ostream ****       typedef typename _Traits::int_type 		int_type;
  64:/usr/include/c++/10/ostream ****       typedef typename _Traits::pos_type 		pos_type;
  65:/usr/include/c++/10/ostream ****       typedef typename _Traits::off_type 		off_type;
  66:/usr/include/c++/10/ostream ****       typedef _Traits			 		traits_type;
  67:/usr/include/c++/10/ostream **** 
  68:/usr/include/c++/10/ostream ****       // Non-standard Types:
  69:/usr/include/c++/10/ostream ****       typedef basic_streambuf<_CharT, _Traits> 		__streambuf_type;
  70:/usr/include/c++/10/ostream ****       typedef basic_ios<_CharT, _Traits>		__ios_type;
  71:/usr/include/c++/10/ostream ****       typedef basic_ostream<_CharT, _Traits>		__ostream_type;
  72:/usr/include/c++/10/ostream ****       typedef num_put<_CharT, ostreambuf_iterator<_CharT, _Traits> >
  73:/usr/include/c++/10/ostream ****       							__num_put_type;
  74:/usr/include/c++/10/ostream ****       typedef ctype<_CharT>	      			__ctype_type;
  75:/usr/include/c++/10/ostream **** 
  76:/usr/include/c++/10/ostream ****       /**
  77:/usr/include/c++/10/ostream ****        *  @brief  Base constructor.
  78:/usr/include/c++/10/ostream ****        *
  79:/usr/include/c++/10/ostream ****        *  This ctor is almost never called by the user directly, rather from
  80:/usr/include/c++/10/ostream ****        *  derived classes' initialization lists, which pass a pointer to
  81:/usr/include/c++/10/ostream ****        *  their own stream buffer.
  82:/usr/include/c++/10/ostream ****       */
  83:/usr/include/c++/10/ostream ****       explicit
  84:/usr/include/c++/10/ostream ****       basic_ostream(__streambuf_type* __sb)
  85:/usr/include/c++/10/ostream ****       { this->init(__sb); }
  86:/usr/include/c++/10/ostream **** 
  87:/usr/include/c++/10/ostream ****       /**
  88:/usr/include/c++/10/ostream ****        *  @brief  Base destructor.
  89:/usr/include/c++/10/ostream ****        *
  90:/usr/include/c++/10/ostream ****        *  This does very little apart from providing a virtual base dtor.
  91:/usr/include/c++/10/ostream ****       */
  92:/usr/include/c++/10/ostream ****       virtual
  93:/usr/include/c++/10/ostream ****       ~basic_ostream() { }
AARCH64 GAS  obj/Chapter11_4.s 			page 24


  94:/usr/include/c++/10/ostream **** 
  95:/usr/include/c++/10/ostream ****       /// Safe prefix/suffix operations.
  96:/usr/include/c++/10/ostream ****       class sentry;
  97:/usr/include/c++/10/ostream ****       friend class sentry;
  98:/usr/include/c++/10/ostream **** 
  99:/usr/include/c++/10/ostream ****       //@{
 100:/usr/include/c++/10/ostream ****       /**
 101:/usr/include/c++/10/ostream ****        *  @brief  Interface for manipulators.
 102:/usr/include/c++/10/ostream ****        *
 103:/usr/include/c++/10/ostream ****        *  Manipulators such as @c std::endl and @c std::hex use these
 104:/usr/include/c++/10/ostream ****        *  functions in constructs like "std::cout << std::endl".  For more
 105:/usr/include/c++/10/ostream ****        *  information, see the iomanip header.
 106:/usr/include/c++/10/ostream ****       */
 107:/usr/include/c++/10/ostream ****       __ostream_type&
 108:/usr/include/c++/10/ostream ****       operator<<(__ostream_type& (*__pf)(__ostream_type&))
 109:/usr/include/c++/10/ostream ****       {
 110:/usr/include/c++/10/ostream **** 	// _GLIBCXX_RESOLVE_LIB_DEFECTS
 111:/usr/include/c++/10/ostream **** 	// DR 60. What is a formatted input function?
 112:/usr/include/c++/10/ostream **** 	// The inserters for manipulators are *not* formatted output functions.
 113:/usr/include/c++/10/ostream **** 	return __pf(*this);
 114:/usr/include/c++/10/ostream ****       }
 115:/usr/include/c++/10/ostream **** 
 116:/usr/include/c++/10/ostream ****       __ostream_type&
 117:/usr/include/c++/10/ostream ****       operator<<(__ios_type& (*__pf)(__ios_type&))
 118:/usr/include/c++/10/ostream ****       {
 119:/usr/include/c++/10/ostream **** 	// _GLIBCXX_RESOLVE_LIB_DEFECTS
 120:/usr/include/c++/10/ostream **** 	// DR 60. What is a formatted input function?
 121:/usr/include/c++/10/ostream **** 	// The inserters for manipulators are *not* formatted output functions.
 122:/usr/include/c++/10/ostream **** 	__pf(*this);
 123:/usr/include/c++/10/ostream **** 	return *this;
 124:/usr/include/c++/10/ostream ****       }
 125:/usr/include/c++/10/ostream **** 
 126:/usr/include/c++/10/ostream ****       __ostream_type&
 127:/usr/include/c++/10/ostream ****       operator<<(ios_base& (*__pf) (ios_base&))
 128:/usr/include/c++/10/ostream ****       {
 129:/usr/include/c++/10/ostream **** 	// _GLIBCXX_RESOLVE_LIB_DEFECTS
 130:/usr/include/c++/10/ostream **** 	// DR 60. What is a formatted input function?
 131:/usr/include/c++/10/ostream **** 	// The inserters for manipulators are *not* formatted output functions.
 132:/usr/include/c++/10/ostream **** 	__pf(*this);
 133:/usr/include/c++/10/ostream **** 	return *this;
 134:/usr/include/c++/10/ostream ****       }
 135:/usr/include/c++/10/ostream ****       //@}
 136:/usr/include/c++/10/ostream **** 
 137:/usr/include/c++/10/ostream ****       //@{
 138:/usr/include/c++/10/ostream ****       /**
 139:/usr/include/c++/10/ostream ****        *  @name Inserters
 140:/usr/include/c++/10/ostream ****        *
 141:/usr/include/c++/10/ostream ****        *  All the @c operator<< functions (aka <em>formatted output
 142:/usr/include/c++/10/ostream ****        *  functions</em>) have some common behavior.  Each starts by
 143:/usr/include/c++/10/ostream ****        *  constructing a temporary object of type std::basic_ostream::sentry.
 144:/usr/include/c++/10/ostream ****        *  This can have several effects, concluding with the setting of a
 145:/usr/include/c++/10/ostream ****        *  status flag; see the sentry documentation for more.
 146:/usr/include/c++/10/ostream ****        *
 147:/usr/include/c++/10/ostream ****        *  If the sentry status is good, the function tries to generate
 148:/usr/include/c++/10/ostream ****        *  whatever data is appropriate for the type of the argument.
 149:/usr/include/c++/10/ostream ****        *
 150:/usr/include/c++/10/ostream ****        *  If an exception is thrown during insertion, ios_base::badbit
AARCH64 GAS  obj/Chapter11_4.s 			page 25


 151:/usr/include/c++/10/ostream ****        *  will be turned on in the stream's error state without causing an
 152:/usr/include/c++/10/ostream ****        *  ios_base::failure to be thrown.  The original exception will then
 153:/usr/include/c++/10/ostream ****        *  be rethrown.
 154:/usr/include/c++/10/ostream ****       */
 155:/usr/include/c++/10/ostream **** 
 156:/usr/include/c++/10/ostream ****       //@{
 157:/usr/include/c++/10/ostream ****       /**
 158:/usr/include/c++/10/ostream ****        *  @brief Integer arithmetic inserters
 159:/usr/include/c++/10/ostream ****        *  @param  __n A variable of builtin integral type.
 160:/usr/include/c++/10/ostream ****        *  @return  @c *this if successful
 161:/usr/include/c++/10/ostream ****        *
 162:/usr/include/c++/10/ostream ****        *  These functions use the stream's current locale (specifically, the
 163:/usr/include/c++/10/ostream ****        *  @c num_get facet) to perform numeric formatting.
 164:/usr/include/c++/10/ostream ****       */
 165:/usr/include/c++/10/ostream ****       __ostream_type&
 166:/usr/include/c++/10/ostream ****       operator<<(long __n)
 167:/usr/include/c++/10/ostream ****       { return _M_insert(__n); }
 168:/usr/include/c++/10/ostream **** 
 169:/usr/include/c++/10/ostream ****       __ostream_type&
 170:/usr/include/c++/10/ostream ****       operator<<(unsigned long __n)
 171:/usr/include/c++/10/ostream ****       { return _M_insert(__n); }
 172:/usr/include/c++/10/ostream **** 
 173:/usr/include/c++/10/ostream ****       __ostream_type&
 174:/usr/include/c++/10/ostream ****       operator<<(bool __n)
 175:/usr/include/c++/10/ostream ****       { return _M_insert(__n); }
 176:/usr/include/c++/10/ostream **** 
 177:/usr/include/c++/10/ostream ****       __ostream_type&
 178:/usr/include/c++/10/ostream ****       operator<<(short __n);
 179:/usr/include/c++/10/ostream **** 
 180:/usr/include/c++/10/ostream ****       __ostream_type&
 181:/usr/include/c++/10/ostream ****       operator<<(unsigned short __n)
 182:/usr/include/c++/10/ostream ****       {
 183:/usr/include/c++/10/ostream **** 	// _GLIBCXX_RESOLVE_LIB_DEFECTS
 184:/usr/include/c++/10/ostream **** 	// 117. basic_ostream uses nonexistent num_put member functions.
 185:/usr/include/c++/10/ostream **** 	return _M_insert(static_cast<unsigned long>(__n));
 186:/usr/include/c++/10/ostream ****       }
 187:/usr/include/c++/10/ostream **** 
 188:/usr/include/c++/10/ostream ****       __ostream_type&
 189:/usr/include/c++/10/ostream ****       operator<<(int __n);
 190:/usr/include/c++/10/ostream **** 
 191:/usr/include/c++/10/ostream ****       __ostream_type&
 192:/usr/include/c++/10/ostream ****       operator<<(unsigned int __n)
 193:/usr/include/c++/10/ostream ****       {
 194:/usr/include/c++/10/ostream **** 	// _GLIBCXX_RESOLVE_LIB_DEFECTS
 195:/usr/include/c++/10/ostream **** 	// 117. basic_ostream uses nonexistent num_put member functions.
 196:/usr/include/c++/10/ostream **** 	return _M_insert(static_cast<unsigned long>(__n));
 197:/usr/include/c++/10/ostream ****       }
 198:/usr/include/c++/10/ostream **** 
 199:/usr/include/c++/10/ostream **** #ifdef _GLIBCXX_USE_LONG_LONG
 200:/usr/include/c++/10/ostream ****       __ostream_type&
 201:/usr/include/c++/10/ostream ****       operator<<(long long __n)
 202:/usr/include/c++/10/ostream ****       { return _M_insert(__n); }
 203:/usr/include/c++/10/ostream **** 
 204:/usr/include/c++/10/ostream ****       __ostream_type&
 205:/usr/include/c++/10/ostream ****       operator<<(unsigned long long __n)
 206:/usr/include/c++/10/ostream ****       { return _M_insert(__n); }
 207:/usr/include/c++/10/ostream **** #endif
AARCH64 GAS  obj/Chapter11_4.s 			page 26


 208:/usr/include/c++/10/ostream ****       //@}
 209:/usr/include/c++/10/ostream **** 
 210:/usr/include/c++/10/ostream ****       //@{
 211:/usr/include/c++/10/ostream ****       /**
 212:/usr/include/c++/10/ostream ****        *  @brief  Floating point arithmetic inserters
 213:/usr/include/c++/10/ostream ****        *  @param  __f A variable of builtin floating point type.
 214:/usr/include/c++/10/ostream ****        *  @return  @c *this if successful
 215:/usr/include/c++/10/ostream ****        *
 216:/usr/include/c++/10/ostream ****        *  These functions use the stream's current locale (specifically, the
 217:/usr/include/c++/10/ostream ****        *  @c num_get facet) to perform numeric formatting.
 218:/usr/include/c++/10/ostream ****       */
 219:/usr/include/c++/10/ostream ****       __ostream_type&
 220:/usr/include/c++/10/ostream ****       operator<<(double __f)
 221:/usr/include/c++/10/ostream ****       { return _M_insert(__f); }
 222:/usr/include/c++/10/ostream **** 
 223:/usr/include/c++/10/ostream ****       __ostream_type&
 224:/usr/include/c++/10/ostream ****       operator<<(float __f)
 225:/usr/include/c++/10/ostream ****       {
 226:/usr/include/c++/10/ostream **** 	// _GLIBCXX_RESOLVE_LIB_DEFECTS
 227:/usr/include/c++/10/ostream **** 	// 117. basic_ostream uses nonexistent num_put member functions.
 228:/usr/include/c++/10/ostream **** 	return _M_insert(static_cast<double>(__f));
 229:/usr/include/c++/10/ostream ****       }
 230:/usr/include/c++/10/ostream **** 
 231:/usr/include/c++/10/ostream ****       __ostream_type&
 232:/usr/include/c++/10/ostream ****       operator<<(long double __f)
 233:/usr/include/c++/10/ostream ****       { return _M_insert(__f); }
 234:/usr/include/c++/10/ostream ****       //@}
 235:/usr/include/c++/10/ostream **** 
 236:/usr/include/c++/10/ostream ****       /**
 237:/usr/include/c++/10/ostream ****        *  @brief  Pointer arithmetic inserters
 238:/usr/include/c++/10/ostream ****        *  @param  __p A variable of pointer type.
 239:/usr/include/c++/10/ostream ****        *  @return  @c *this if successful
 240:/usr/include/c++/10/ostream ****        *
 241:/usr/include/c++/10/ostream ****        *  These functions use the stream's current locale (specifically, the
 242:/usr/include/c++/10/ostream ****        *  @c num_get facet) to perform numeric formatting.
 243:/usr/include/c++/10/ostream ****       */
 244:/usr/include/c++/10/ostream ****       __ostream_type&
 245:/usr/include/c++/10/ostream ****       operator<<(const void* __p)
 246:/usr/include/c++/10/ostream ****       { return _M_insert(__p); }
 247:/usr/include/c++/10/ostream **** 
 248:/usr/include/c++/10/ostream **** #if __cplusplus >= 201703L
 249:/usr/include/c++/10/ostream ****       __ostream_type&
 250:/usr/include/c++/10/ostream ****       operator<<(nullptr_t)
 251:/usr/include/c++/10/ostream ****       { return *this << "nullptr"; }
 252:/usr/include/c++/10/ostream **** #endif
 253:/usr/include/c++/10/ostream **** 
 254:/usr/include/c++/10/ostream ****       /**
 255:/usr/include/c++/10/ostream ****        *  @brief  Extracting from another streambuf.
 256:/usr/include/c++/10/ostream ****        *  @param  __sb  A pointer to a streambuf
 257:/usr/include/c++/10/ostream ****        *
 258:/usr/include/c++/10/ostream ****        *  This function behaves like one of the basic arithmetic extractors,
 259:/usr/include/c++/10/ostream ****        *  in that it also constructs a sentry object and has the same error
 260:/usr/include/c++/10/ostream ****        *  handling behavior.
 261:/usr/include/c++/10/ostream ****        *
 262:/usr/include/c++/10/ostream ****        *  If @p __sb is NULL, the stream will set failbit in its error state.
 263:/usr/include/c++/10/ostream ****        *
 264:/usr/include/c++/10/ostream ****        *  Characters are extracted from @p __sb and inserted into @c *this
AARCH64 GAS  obj/Chapter11_4.s 			page 27


 265:/usr/include/c++/10/ostream ****        *  until one of the following occurs:
 266:/usr/include/c++/10/ostream ****        *
 267:/usr/include/c++/10/ostream ****        *  - the input stream reaches end-of-file,
 268:/usr/include/c++/10/ostream ****        *  - insertion into the output sequence fails (in this case, the
 269:/usr/include/c++/10/ostream ****        *    character that would have been inserted is not extracted), or
 270:/usr/include/c++/10/ostream ****        *  - an exception occurs while getting a character from @p __sb, which
 271:/usr/include/c++/10/ostream ****        *    sets failbit in the error state
 272:/usr/include/c++/10/ostream ****        *
 273:/usr/include/c++/10/ostream ****        *  If the function inserts no characters, failbit is set.
 274:/usr/include/c++/10/ostream ****       */
 275:/usr/include/c++/10/ostream ****       __ostream_type&
 276:/usr/include/c++/10/ostream ****       operator<<(__streambuf_type* __sb);
 277:/usr/include/c++/10/ostream ****       //@}
 278:/usr/include/c++/10/ostream **** 
 279:/usr/include/c++/10/ostream ****       //@{
 280:/usr/include/c++/10/ostream ****       /**
 281:/usr/include/c++/10/ostream ****        *  @name Unformatted Output Functions
 282:/usr/include/c++/10/ostream ****        *
 283:/usr/include/c++/10/ostream ****        *  All the unformatted output functions have some common behavior.
 284:/usr/include/c++/10/ostream ****        *  Each starts by constructing a temporary object of type
 285:/usr/include/c++/10/ostream ****        *  std::basic_ostream::sentry.  This has several effects, concluding
 286:/usr/include/c++/10/ostream ****        *  with the setting of a status flag; see the sentry documentation
 287:/usr/include/c++/10/ostream ****        *  for more.
 288:/usr/include/c++/10/ostream ****        *
 289:/usr/include/c++/10/ostream ****        *  If the sentry status is good, the function tries to generate
 290:/usr/include/c++/10/ostream ****        *  whatever data is appropriate for the type of the argument.
 291:/usr/include/c++/10/ostream ****        *
 292:/usr/include/c++/10/ostream ****        *  If an exception is thrown during insertion, ios_base::badbit
 293:/usr/include/c++/10/ostream ****        *  will be turned on in the stream's error state.  If badbit is on in
 294:/usr/include/c++/10/ostream ****        *  the stream's exceptions mask, the exception will be rethrown
 295:/usr/include/c++/10/ostream ****        *  without completing its actions.
 296:/usr/include/c++/10/ostream ****       */
 297:/usr/include/c++/10/ostream **** 
 298:/usr/include/c++/10/ostream ****       /**
 299:/usr/include/c++/10/ostream ****        *  @brief  Simple insertion.
 300:/usr/include/c++/10/ostream ****        *  @param  __c  The character to insert.
 301:/usr/include/c++/10/ostream ****        *  @return  *this
 302:/usr/include/c++/10/ostream ****        *
 303:/usr/include/c++/10/ostream ****        *  Tries to insert @p __c.
 304:/usr/include/c++/10/ostream ****        *
 305:/usr/include/c++/10/ostream ****        *  @note  This function is not overloaded on signed char and
 306:/usr/include/c++/10/ostream ****        *         unsigned char.
 307:/usr/include/c++/10/ostream ****       */
 308:/usr/include/c++/10/ostream ****       __ostream_type&
 309:/usr/include/c++/10/ostream ****       put(char_type __c);
 310:/usr/include/c++/10/ostream **** 
 311:/usr/include/c++/10/ostream ****       /**
 312:/usr/include/c++/10/ostream ****        *  @brief  Core write functionality, without sentry.
 313:/usr/include/c++/10/ostream ****        *  @param  __s  The array to insert.
 314:/usr/include/c++/10/ostream ****        *  @param  __n  Maximum number of characters to insert.
 315:/usr/include/c++/10/ostream ****       */
 316:/usr/include/c++/10/ostream ****       void
 317:/usr/include/c++/10/ostream ****       _M_write(const char_type* __s, streamsize __n)
 318:/usr/include/c++/10/ostream ****       {
 319:/usr/include/c++/10/ostream **** 	const streamsize __put = this->rdbuf()->sputn(__s, __n);
 320:/usr/include/c++/10/ostream **** 	if (__put != __n)
 321:/usr/include/c++/10/ostream **** 	  this->setstate(ios_base::badbit);
AARCH64 GAS  obj/Chapter11_4.s 			page 28


 322:/usr/include/c++/10/ostream ****       }
 323:/usr/include/c++/10/ostream **** 
 324:/usr/include/c++/10/ostream ****       /**
 325:/usr/include/c++/10/ostream ****        *  @brief  Character string insertion.
 326:/usr/include/c++/10/ostream ****        *  @param  __s  The array to insert.
 327:/usr/include/c++/10/ostream ****        *  @param  __n  Maximum number of characters to insert.
 328:/usr/include/c++/10/ostream ****        *  @return  *this
 329:/usr/include/c++/10/ostream ****        *
 330:/usr/include/c++/10/ostream ****        *  Characters are copied from @p __s and inserted into the stream until
 331:/usr/include/c++/10/ostream ****        *  one of the following happens:
 332:/usr/include/c++/10/ostream ****        *
 333:/usr/include/c++/10/ostream ****        *  - @p __n characters are inserted
 334:/usr/include/c++/10/ostream ****        *  - inserting into the output sequence fails (in this case, badbit
 335:/usr/include/c++/10/ostream ****        *    will be set in the stream's error state)
 336:/usr/include/c++/10/ostream ****        *
 337:/usr/include/c++/10/ostream ****        *  @note  This function is not overloaded on signed char and
 338:/usr/include/c++/10/ostream ****        *         unsigned char.
 339:/usr/include/c++/10/ostream ****       */
 340:/usr/include/c++/10/ostream ****       __ostream_type&
 341:/usr/include/c++/10/ostream ****       write(const char_type* __s, streamsize __n);
 342:/usr/include/c++/10/ostream ****       //@}
 343:/usr/include/c++/10/ostream **** 
 344:/usr/include/c++/10/ostream ****       /**
 345:/usr/include/c++/10/ostream ****        *  @brief  Synchronizing the stream buffer.
 346:/usr/include/c++/10/ostream ****        *  @return  *this
 347:/usr/include/c++/10/ostream ****        *
 348:/usr/include/c++/10/ostream ****        *  If @c rdbuf() is a null pointer, changes nothing.
 349:/usr/include/c++/10/ostream ****        *
 350:/usr/include/c++/10/ostream ****        *  Otherwise, calls @c rdbuf()->pubsync(), and if that returns -1,
 351:/usr/include/c++/10/ostream ****        *  sets badbit.
 352:/usr/include/c++/10/ostream ****       */
 353:/usr/include/c++/10/ostream ****       __ostream_type&
 354:/usr/include/c++/10/ostream ****       flush();
 355:/usr/include/c++/10/ostream **** 
 356:/usr/include/c++/10/ostream ****       /**
 357:/usr/include/c++/10/ostream ****        *  @brief  Getting the current write position.
 358:/usr/include/c++/10/ostream ****        *  @return  A file position object.
 359:/usr/include/c++/10/ostream ****        *
 360:/usr/include/c++/10/ostream ****        *  If @c fail() is not false, returns @c pos_type(-1) to indicate
 361:/usr/include/c++/10/ostream ****        *  failure.  Otherwise returns @c rdbuf()->pubseekoff(0,cur,out).
 362:/usr/include/c++/10/ostream ****       */
 363:/usr/include/c++/10/ostream ****       pos_type
 364:/usr/include/c++/10/ostream ****       tellp();
 365:/usr/include/c++/10/ostream **** 
 366:/usr/include/c++/10/ostream ****       /**
 367:/usr/include/c++/10/ostream ****        *  @brief  Changing the current write position.
 368:/usr/include/c++/10/ostream ****        *  @param  __pos  A file position object.
 369:/usr/include/c++/10/ostream ****        *  @return  *this
 370:/usr/include/c++/10/ostream ****        *
 371:/usr/include/c++/10/ostream ****        *  If @c fail() is not true, calls @c rdbuf()->pubseekpos(pos).  If
 372:/usr/include/c++/10/ostream ****        *  that function fails, sets failbit.
 373:/usr/include/c++/10/ostream ****       */
 374:/usr/include/c++/10/ostream ****       __ostream_type&
 375:/usr/include/c++/10/ostream ****       seekp(pos_type);
 376:/usr/include/c++/10/ostream **** 
 377:/usr/include/c++/10/ostream ****       /**
 378:/usr/include/c++/10/ostream ****        *  @brief  Changing the current write position.
AARCH64 GAS  obj/Chapter11_4.s 			page 29


 379:/usr/include/c++/10/ostream ****        *  @param  __off  A file offset object.
 380:/usr/include/c++/10/ostream ****        *  @param  __dir  The direction in which to seek.
 381:/usr/include/c++/10/ostream ****        *  @return  *this
 382:/usr/include/c++/10/ostream ****        *
 383:/usr/include/c++/10/ostream ****        *  If @c fail() is not true, calls @c rdbuf()->pubseekoff(off,dir).
 384:/usr/include/c++/10/ostream ****        *  If that function fails, sets failbit.
 385:/usr/include/c++/10/ostream ****       */
 386:/usr/include/c++/10/ostream ****        __ostream_type&
 387:/usr/include/c++/10/ostream ****       seekp(off_type, ios_base::seekdir);
 388:/usr/include/c++/10/ostream **** 
 389:/usr/include/c++/10/ostream ****     protected:
 390:/usr/include/c++/10/ostream ****       basic_ostream()
 391:/usr/include/c++/10/ostream ****       { this->init(0); }
 392:/usr/include/c++/10/ostream **** 
 393:/usr/include/c++/10/ostream **** #if __cplusplus >= 201103L
 394:/usr/include/c++/10/ostream ****       // Non-standard constructor that does not call init()
 395:/usr/include/c++/10/ostream ****       basic_ostream(basic_iostream<_CharT, _Traits>&) { }
 396:/usr/include/c++/10/ostream **** 
 397:/usr/include/c++/10/ostream ****       basic_ostream(const basic_ostream&) = delete;
 398:/usr/include/c++/10/ostream **** 
 399:/usr/include/c++/10/ostream ****       basic_ostream(basic_ostream&& __rhs)
 400:/usr/include/c++/10/ostream ****       : __ios_type()
 401:/usr/include/c++/10/ostream ****       { __ios_type::move(__rhs); }
 402:/usr/include/c++/10/ostream **** 
 403:/usr/include/c++/10/ostream ****       // 27.7.3.3 Assign/swap
 404:/usr/include/c++/10/ostream **** 
 405:/usr/include/c++/10/ostream ****       basic_ostream& operator=(const basic_ostream&) = delete;
 406:/usr/include/c++/10/ostream **** 
 407:/usr/include/c++/10/ostream ****       basic_ostream&
 408:/usr/include/c++/10/ostream ****       operator=(basic_ostream&& __rhs)
 409:/usr/include/c++/10/ostream ****       {
 410:/usr/include/c++/10/ostream **** 	swap(__rhs);
 411:/usr/include/c++/10/ostream **** 	return *this;
 412:/usr/include/c++/10/ostream ****       }
 413:/usr/include/c++/10/ostream **** 
 414:/usr/include/c++/10/ostream ****       void
 415:/usr/include/c++/10/ostream ****       swap(basic_ostream& __rhs)
 416:/usr/include/c++/10/ostream ****       { __ios_type::swap(__rhs); }
 417:/usr/include/c++/10/ostream **** #endif
 418:/usr/include/c++/10/ostream **** 
 419:/usr/include/c++/10/ostream ****       template<typename _ValueT>
 420:/usr/include/c++/10/ostream **** 	__ostream_type&
 421:/usr/include/c++/10/ostream **** 	_M_insert(_ValueT __v);
 422:/usr/include/c++/10/ostream ****     };
 423:/usr/include/c++/10/ostream **** 
 424:/usr/include/c++/10/ostream ****   /**
 425:/usr/include/c++/10/ostream ****    *  @brief  Performs setup work for output streams.
 426:/usr/include/c++/10/ostream ****    *
 427:/usr/include/c++/10/ostream ****    *  Objects of this class are created before all of the standard
 428:/usr/include/c++/10/ostream ****    *  inserters are run.  It is responsible for <em>exception-safe prefix and
 429:/usr/include/c++/10/ostream ****    *  suffix operations</em>.
 430:/usr/include/c++/10/ostream ****   */
 431:/usr/include/c++/10/ostream ****   template <typename _CharT, typename _Traits>
 432:/usr/include/c++/10/ostream ****     class basic_ostream<_CharT, _Traits>::sentry
 433:/usr/include/c++/10/ostream ****     {
 434:/usr/include/c++/10/ostream ****       // Data Members.
 435:/usr/include/c++/10/ostream ****       bool 				_M_ok;
AARCH64 GAS  obj/Chapter11_4.s 			page 30


 436:/usr/include/c++/10/ostream ****       basic_ostream<_CharT, _Traits>& 	_M_os;
 437:/usr/include/c++/10/ostream **** 
 438:/usr/include/c++/10/ostream ****     public:
 439:/usr/include/c++/10/ostream ****       /**
 440:/usr/include/c++/10/ostream ****        *  @brief  The constructor performs preparatory work.
 441:/usr/include/c++/10/ostream ****        *  @param  __os  The output stream to guard.
 442:/usr/include/c++/10/ostream ****        *
 443:/usr/include/c++/10/ostream ****        *  If the stream state is good (@a __os.good() is true), then if the
 444:/usr/include/c++/10/ostream ****        *  stream is tied to another output stream, @c is.tie()->flush()
 445:/usr/include/c++/10/ostream ****        *  is called to synchronize the output sequences.
 446:/usr/include/c++/10/ostream ****        *
 447:/usr/include/c++/10/ostream ****        *  If the stream state is still good, then the sentry state becomes
 448:/usr/include/c++/10/ostream ****        *  true (@a okay).
 449:/usr/include/c++/10/ostream ****       */
 450:/usr/include/c++/10/ostream ****       explicit
 451:/usr/include/c++/10/ostream ****       sentry(basic_ostream<_CharT, _Traits>& __os);
 452:/usr/include/c++/10/ostream **** 
 453:/usr/include/c++/10/ostream **** #pragma GCC diagnostic push
 454:/usr/include/c++/10/ostream **** #pragma GCC diagnostic ignored "-Wdeprecated-declarations"
 455:/usr/include/c++/10/ostream ****       /**
 456:/usr/include/c++/10/ostream ****        *  @brief  Possibly flushes the stream.
 457:/usr/include/c++/10/ostream ****        *
 458:/usr/include/c++/10/ostream ****        *  If @c ios_base::unitbuf is set in @c os.flags(), and
 459:/usr/include/c++/10/ostream ****        *  @c std::uncaught_exception() is true, the sentry destructor calls
 460:/usr/include/c++/10/ostream ****        *  @c flush() on the output stream.
 461:/usr/include/c++/10/ostream ****       */
 462:/usr/include/c++/10/ostream ****       ~sentry()
 463:/usr/include/c++/10/ostream ****       {
 464:/usr/include/c++/10/ostream **** 	// XXX MT
 465:/usr/include/c++/10/ostream **** 	if (bool(_M_os.flags() & ios_base::unitbuf) && !uncaught_exception())
 466:/usr/include/c++/10/ostream **** 	  {
 467:/usr/include/c++/10/ostream **** 	    // Can't call flush directly or else will get into recursive lock.
 468:/usr/include/c++/10/ostream **** 	    if (_M_os.rdbuf() && _M_os.rdbuf()->pubsync() == -1)
 469:/usr/include/c++/10/ostream **** 	      _M_os.setstate(ios_base::badbit);
 470:/usr/include/c++/10/ostream **** 	  }
 471:/usr/include/c++/10/ostream ****       }
 472:/usr/include/c++/10/ostream **** #pragma GCC diagnostic pop
 473:/usr/include/c++/10/ostream **** 
 474:/usr/include/c++/10/ostream ****       /**
 475:/usr/include/c++/10/ostream ****        *  @brief  Quick status checking.
 476:/usr/include/c++/10/ostream ****        *  @return  The sentry state.
 477:/usr/include/c++/10/ostream ****        *
 478:/usr/include/c++/10/ostream ****        *  For ease of use, sentries may be converted to booleans.  The
 479:/usr/include/c++/10/ostream ****        *  return value is that of the sentry state (true == okay).
 480:/usr/include/c++/10/ostream ****       */
 481:/usr/include/c++/10/ostream **** #if __cplusplus >= 201103L
 482:/usr/include/c++/10/ostream ****       explicit
 483:/usr/include/c++/10/ostream **** #endif
 484:/usr/include/c++/10/ostream ****       operator bool() const
 485:/usr/include/c++/10/ostream ****       { return _M_ok; }
 486:/usr/include/c++/10/ostream ****     };
 487:/usr/include/c++/10/ostream **** 
 488:/usr/include/c++/10/ostream ****   //@{
 489:/usr/include/c++/10/ostream ****   /**
 490:/usr/include/c++/10/ostream ****    *  @brief  Character inserters
 491:/usr/include/c++/10/ostream ****    *  @param  __out  An output stream.
 492:/usr/include/c++/10/ostream ****    *  @param  __c  A character.
AARCH64 GAS  obj/Chapter11_4.s 			page 31


 493:/usr/include/c++/10/ostream ****    *  @return  out
 494:/usr/include/c++/10/ostream ****    *
 495:/usr/include/c++/10/ostream ****    *  Behaves like one of the formatted arithmetic inserters described in
 496:/usr/include/c++/10/ostream ****    *  std::basic_ostream.  After constructing a sentry object with good
 497:/usr/include/c++/10/ostream ****    *  status, this function inserts a single character and any required
 498:/usr/include/c++/10/ostream ****    *  padding (as determined by [22.2.2.2.2]).  @c __out.width(0) is then
 499:/usr/include/c++/10/ostream ****    *  called.
 500:/usr/include/c++/10/ostream ****    *
 501:/usr/include/c++/10/ostream ****    *  If @p __c is of type @c char and the character type of the stream is not
 502:/usr/include/c++/10/ostream ****    *  @c char, the character is widened before insertion.
 503:/usr/include/c++/10/ostream ****   */
 504:/usr/include/c++/10/ostream ****   template<typename _CharT, typename _Traits>
 505:/usr/include/c++/10/ostream ****     inline basic_ostream<_CharT, _Traits>&
 506:/usr/include/c++/10/ostream ****     operator<<(basic_ostream<_CharT, _Traits>& __out, _CharT __c)
 507:/usr/include/c++/10/ostream ****     { return __ostream_insert(__out, &__c, 1); }
 508:/usr/include/c++/10/ostream **** 
 509:/usr/include/c++/10/ostream ****   template<typename _CharT, typename _Traits>
 510:/usr/include/c++/10/ostream ****     inline basic_ostream<_CharT, _Traits>&
 511:/usr/include/c++/10/ostream ****     operator<<(basic_ostream<_CharT, _Traits>& __out, char __c)
 512:/usr/include/c++/10/ostream ****     { return (__out << __out.widen(__c)); }
 513:/usr/include/c++/10/ostream **** 
 514:/usr/include/c++/10/ostream ****   // Specialization
 515:/usr/include/c++/10/ostream ****   template<typename _Traits>
 516:/usr/include/c++/10/ostream ****     inline basic_ostream<char, _Traits>&
 517:/usr/include/c++/10/ostream ****     operator<<(basic_ostream<char, _Traits>& __out, char __c)
 518:/usr/include/c++/10/ostream ****     { return __ostream_insert(__out, &__c, 1); }
 519:/usr/include/c++/10/ostream **** 
 520:/usr/include/c++/10/ostream ****   // Signed and unsigned
 521:/usr/include/c++/10/ostream ****   template<typename _Traits>
 522:/usr/include/c++/10/ostream ****     inline basic_ostream<char, _Traits>&
 523:/usr/include/c++/10/ostream ****     operator<<(basic_ostream<char, _Traits>& __out, signed char __c)
 524:/usr/include/c++/10/ostream ****     { return (__out << static_cast<char>(__c)); }
 525:/usr/include/c++/10/ostream **** 
 526:/usr/include/c++/10/ostream ****   template<typename _Traits>
 527:/usr/include/c++/10/ostream ****     inline basic_ostream<char, _Traits>&
 528:/usr/include/c++/10/ostream ****     operator<<(basic_ostream<char, _Traits>& __out, unsigned char __c)
 529:/usr/include/c++/10/ostream ****     { return (__out << static_cast<char>(__c)); }
 530:/usr/include/c++/10/ostream **** 
 531:/usr/include/c++/10/ostream **** #if __cplusplus > 201703L
 532:/usr/include/c++/10/ostream ****   // The following deleted overloads prevent formatting character values as
 533:/usr/include/c++/10/ostream ****   // numeric values.
 534:/usr/include/c++/10/ostream **** 
 535:/usr/include/c++/10/ostream **** #ifdef _GLIBCXX_USE_WCHAR_T
 536:/usr/include/c++/10/ostream ****   template<typename _Traits>
 537:/usr/include/c++/10/ostream ****     basic_ostream<char, _Traits>&
 538:/usr/include/c++/10/ostream ****     operator<<(basic_ostream<char, _Traits>&, wchar_t) = delete;
 539:/usr/include/c++/10/ostream **** #endif // _GLIBCXX_USE_WCHAR_T
 540:/usr/include/c++/10/ostream **** 
 541:/usr/include/c++/10/ostream **** #ifdef _GLIBCXX_USE_CHAR8_T
 542:/usr/include/c++/10/ostream ****   template<typename _Traits>
 543:/usr/include/c++/10/ostream ****     basic_ostream<char, _Traits>&
 544:/usr/include/c++/10/ostream ****     operator<<(basic_ostream<char, _Traits>&, char8_t) = delete;
 545:/usr/include/c++/10/ostream **** #endif
 546:/usr/include/c++/10/ostream **** 
 547:/usr/include/c++/10/ostream ****   template<typename _Traits>
 548:/usr/include/c++/10/ostream ****     basic_ostream<char, _Traits>&
 549:/usr/include/c++/10/ostream ****     operator<<(basic_ostream<char, _Traits>&, char16_t) = delete;
AARCH64 GAS  obj/Chapter11_4.s 			page 32


 550:/usr/include/c++/10/ostream **** 
 551:/usr/include/c++/10/ostream ****   template<typename _Traits>
 552:/usr/include/c++/10/ostream ****     basic_ostream<char, _Traits>&
 553:/usr/include/c++/10/ostream ****     operator<<(basic_ostream<char, _Traits>&, char32_t) = delete;
 554:/usr/include/c++/10/ostream **** 
 555:/usr/include/c++/10/ostream **** #ifdef _GLIBCXX_USE_WCHAR_T
 556:/usr/include/c++/10/ostream **** #ifdef _GLIBCXX_USE_CHAR8_T
 557:/usr/include/c++/10/ostream ****   template<typename _Traits>
 558:/usr/include/c++/10/ostream ****     basic_ostream<wchar_t, _Traits>&
 559:/usr/include/c++/10/ostream ****     operator<<(basic_ostream<wchar_t, _Traits>&, char8_t) = delete;
 560:/usr/include/c++/10/ostream **** #endif // _GLIBCXX_USE_CHAR8_T
 561:/usr/include/c++/10/ostream **** 
 562:/usr/include/c++/10/ostream ****   template<typename _Traits>
 563:/usr/include/c++/10/ostream ****     basic_ostream<wchar_t, _Traits>&
 564:/usr/include/c++/10/ostream ****     operator<<(basic_ostream<wchar_t, _Traits>&, char16_t) = delete;
 565:/usr/include/c++/10/ostream **** 
 566:/usr/include/c++/10/ostream ****   template<typename _Traits>
 567:/usr/include/c++/10/ostream ****     basic_ostream<wchar_t, _Traits>&
 568:/usr/include/c++/10/ostream ****     operator<<(basic_ostream<wchar_t, _Traits>&, char32_t) = delete;
 569:/usr/include/c++/10/ostream **** #endif // _GLIBCXX_USE_WCHAR_T
 570:/usr/include/c++/10/ostream **** #endif // C++20
 571:/usr/include/c++/10/ostream ****   //@}
 572:/usr/include/c++/10/ostream **** 
 573:/usr/include/c++/10/ostream ****   //@{
 574:/usr/include/c++/10/ostream ****   /**
 575:/usr/include/c++/10/ostream ****    *  @brief  String inserters
 576:/usr/include/c++/10/ostream ****    *  @param  __out  An output stream.
 577:/usr/include/c++/10/ostream ****    *  @param  __s  A character string.
 578:/usr/include/c++/10/ostream ****    *  @return  out
 579:/usr/include/c++/10/ostream ****    *  @pre  @p __s must be a non-NULL pointer
 580:/usr/include/c++/10/ostream ****    *
 581:/usr/include/c++/10/ostream ****    *  Behaves like one of the formatted arithmetic inserters described in
 582:/usr/include/c++/10/ostream ****    *  std::basic_ostream.  After constructing a sentry object with good
 583:/usr/include/c++/10/ostream ****    *  status, this function inserts @c traits::length(__s) characters starting
 584:/usr/include/c++/10/ostream ****    *  at @p __s, widened if necessary, followed by any required padding (as
 585:/usr/include/c++/10/ostream ****    *  determined by [22.2.2.2.2]).  @c __out.width(0) is then called.
 586:/usr/include/c++/10/ostream ****   */
 587:/usr/include/c++/10/ostream ****   template<typename _CharT, typename _Traits>
 588:/usr/include/c++/10/ostream ****     inline basic_ostream<_CharT, _Traits>&
 589:/usr/include/c++/10/ostream ****     operator<<(basic_ostream<_CharT, _Traits>& __out, const _CharT* __s)
 590:/usr/include/c++/10/ostream ****     {
 591:/usr/include/c++/10/ostream ****       if (!__s)
 592:/usr/include/c++/10/ostream **** 	__out.setstate(ios_base::badbit);
 593:/usr/include/c++/10/ostream ****       else
 594:/usr/include/c++/10/ostream **** 	__ostream_insert(__out, __s,
 595:/usr/include/c++/10/ostream **** 			 static_cast<streamsize>(_Traits::length(__s)));
 596:/usr/include/c++/10/ostream ****       return __out;
 597:/usr/include/c++/10/ostream ****     }
 598:/usr/include/c++/10/ostream **** 
 599:/usr/include/c++/10/ostream ****   template<typename _CharT, typename _Traits>
 600:/usr/include/c++/10/ostream ****     basic_ostream<_CharT, _Traits> &
 601:/usr/include/c++/10/ostream ****     operator<<(basic_ostream<_CharT, _Traits>& __out, const char* __s);
 602:/usr/include/c++/10/ostream **** 
 603:/usr/include/c++/10/ostream ****   // Partial specializations
 604:/usr/include/c++/10/ostream ****   template<typename _Traits>
 605:/usr/include/c++/10/ostream ****     inline basic_ostream<char, _Traits>&
 606:/usr/include/c++/10/ostream ****     operator<<(basic_ostream<char, _Traits>& __out, const char* __s)
AARCH64 GAS  obj/Chapter11_4.s 			page 33


 607:/usr/include/c++/10/ostream ****     {
 608:/usr/include/c++/10/ostream ****       if (!__s)
 609:/usr/include/c++/10/ostream **** 	__out.setstate(ios_base::badbit);
 610:/usr/include/c++/10/ostream ****       else
 611:/usr/include/c++/10/ostream **** 	__ostream_insert(__out, __s,
  59              		.loc 3 611 18 view .LVU11
  60 0014 13000090 		adrp	x19, :got:_ZSt4cout
  61              	.LBE75:
  62              	.LBE74:
  63              		.loc 2 12 30 view .LVU12
  64 0018 00000094 		bl	ldrInstrTest1_
  65              	.LVL3:
  66              	.LBB78:
  67              	.LBB76:
  68              		.loc 3 611 18 view .LVU13
  69 001c 730240F9 		ldr	x19, [x19, #:got_lo12:_ZSt4cout]
  70 0020 020280D2 		mov	x2, 16
  71              	.LBE76:
  72              	.LBE78:
  73              		.loc 2 12 30 view .LVU14
  74 0024 F403002A 		mov	w20, w0
  75              	.LVL4:
  13:Chapter11_4.cpp ****  cout<<"ldrInstrTest1() "<<result1 <<endl;
  76              		.loc 2 13 2 is_stmt 1 view .LVU15
  77              	.LBB79:
  78              	.LBI74:
 606:/usr/include/c++/10/ostream ****     {
  79              		.loc 3 606 5 view .LVU16
 606:/usr/include/c++/10/ostream ****     {
  80              		.loc 3 606 5 is_stmt 0 view .LVU17
  81              	.LBE79:
  82              		.file 4 "/usr/include/c++/10/bits/char_traits.h"
   1:/usr/include/c++/10/bits/char_traits.h **** // Character Traits for use by standard string and iostream -*- C++ -*-
   2:/usr/include/c++/10/bits/char_traits.h **** 
   3:/usr/include/c++/10/bits/char_traits.h **** // Copyright (C) 1997-2020 Free Software Foundation, Inc.
   4:/usr/include/c++/10/bits/char_traits.h **** //
   5:/usr/include/c++/10/bits/char_traits.h **** // This file is part of the GNU ISO C++ Library.  This library is free
   6:/usr/include/c++/10/bits/char_traits.h **** // software; you can redistribute it and/or modify it under the
   7:/usr/include/c++/10/bits/char_traits.h **** // terms of the GNU General Public License as published by the
   8:/usr/include/c++/10/bits/char_traits.h **** // Free Software Foundation; either version 3, or (at your option)
   9:/usr/include/c++/10/bits/char_traits.h **** // any later version.
  10:/usr/include/c++/10/bits/char_traits.h **** 
  11:/usr/include/c++/10/bits/char_traits.h **** // This library is distributed in the hope that it will be useful,
  12:/usr/include/c++/10/bits/char_traits.h **** // but WITHOUT ANY WARRANTY; without even the implied warranty of
  13:/usr/include/c++/10/bits/char_traits.h **** // MERCHANTABILITY or FITNESS FOR A PARTICULAR PURPOSE.  See the
  14:/usr/include/c++/10/bits/char_traits.h **** // GNU General Public License for more details.
  15:/usr/include/c++/10/bits/char_traits.h **** 
  16:/usr/include/c++/10/bits/char_traits.h **** // Under Section 7 of GPL version 3, you are granted additional
  17:/usr/include/c++/10/bits/char_traits.h **** // permissions described in the GCC Runtime Library Exception, version
  18:/usr/include/c++/10/bits/char_traits.h **** // 3.1, as published by the Free Software Foundation.
  19:/usr/include/c++/10/bits/char_traits.h **** 
  20:/usr/include/c++/10/bits/char_traits.h **** // You should have received a copy of the GNU General Public License and
  21:/usr/include/c++/10/bits/char_traits.h **** // a copy of the GCC Runtime Library Exception along with this program;
  22:/usr/include/c++/10/bits/char_traits.h **** // see the files COPYING3 and COPYING.RUNTIME respectively.  If not, see
  23:/usr/include/c++/10/bits/char_traits.h **** // <http://www.gnu.org/licenses/>.
  24:/usr/include/c++/10/bits/char_traits.h **** 
  25:/usr/include/c++/10/bits/char_traits.h **** /** @file bits/char_traits.h
AARCH64 GAS  obj/Chapter11_4.s 			page 34


  26:/usr/include/c++/10/bits/char_traits.h ****  *  This is an internal header file, included by other library headers.
  27:/usr/include/c++/10/bits/char_traits.h ****  *  Do not attempt to use it directly. @headername{string}
  28:/usr/include/c++/10/bits/char_traits.h ****  */
  29:/usr/include/c++/10/bits/char_traits.h **** 
  30:/usr/include/c++/10/bits/char_traits.h **** //
  31:/usr/include/c++/10/bits/char_traits.h **** // ISO C++ 14882: 21  Strings library
  32:/usr/include/c++/10/bits/char_traits.h **** //
  33:/usr/include/c++/10/bits/char_traits.h **** 
  34:/usr/include/c++/10/bits/char_traits.h **** #ifndef _CHAR_TRAITS_H
  35:/usr/include/c++/10/bits/char_traits.h **** #define _CHAR_TRAITS_H 1
  36:/usr/include/c++/10/bits/char_traits.h **** 
  37:/usr/include/c++/10/bits/char_traits.h **** #pragma GCC system_header
  38:/usr/include/c++/10/bits/char_traits.h **** 
  39:/usr/include/c++/10/bits/char_traits.h **** #include <bits/stl_algobase.h>  // std::copy, std::fill_n
  40:/usr/include/c++/10/bits/char_traits.h **** #include <bits/postypes.h>      // For streampos
  41:/usr/include/c++/10/bits/char_traits.h **** #include <cwchar>               // For WEOF, wmemmove, wmemset, etc.
  42:/usr/include/c++/10/bits/char_traits.h **** #if __cplusplus > 201703L
  43:/usr/include/c++/10/bits/char_traits.h **** # include <compare>
  44:/usr/include/c++/10/bits/char_traits.h **** #endif
  45:/usr/include/c++/10/bits/char_traits.h **** 
  46:/usr/include/c++/10/bits/char_traits.h **** #ifndef _GLIBCXX_ALWAYS_INLINE
  47:/usr/include/c++/10/bits/char_traits.h **** # define _GLIBCXX_ALWAYS_INLINE inline __attribute__((__always_inline__))
  48:/usr/include/c++/10/bits/char_traits.h **** #endif
  49:/usr/include/c++/10/bits/char_traits.h **** 
  50:/usr/include/c++/10/bits/char_traits.h **** namespace __gnu_cxx _GLIBCXX_VISIBILITY(default)
  51:/usr/include/c++/10/bits/char_traits.h **** {
  52:/usr/include/c++/10/bits/char_traits.h **** _GLIBCXX_BEGIN_NAMESPACE_VERSION
  53:/usr/include/c++/10/bits/char_traits.h **** 
  54:/usr/include/c++/10/bits/char_traits.h ****   /**
  55:/usr/include/c++/10/bits/char_traits.h ****    *  @brief  Mapping from character type to associated types.
  56:/usr/include/c++/10/bits/char_traits.h ****    *
  57:/usr/include/c++/10/bits/char_traits.h ****    *  @note This is an implementation class for the generic version
  58:/usr/include/c++/10/bits/char_traits.h ****    *  of char_traits.  It defines int_type, off_type, pos_type, and
  59:/usr/include/c++/10/bits/char_traits.h ****    *  state_type.  By default these are unsigned long, streamoff,
  60:/usr/include/c++/10/bits/char_traits.h ****    *  streampos, and mbstate_t.  Users who need a different set of
  61:/usr/include/c++/10/bits/char_traits.h ****    *  types, but who don't need to change the definitions of any function
  62:/usr/include/c++/10/bits/char_traits.h ****    *  defined in char_traits, can specialize __gnu_cxx::_Char_types
  63:/usr/include/c++/10/bits/char_traits.h ****    *  while leaving __gnu_cxx::char_traits alone. */
  64:/usr/include/c++/10/bits/char_traits.h ****   template<typename _CharT>
  65:/usr/include/c++/10/bits/char_traits.h ****     struct _Char_types
  66:/usr/include/c++/10/bits/char_traits.h ****     {
  67:/usr/include/c++/10/bits/char_traits.h ****       typedef unsigned long   int_type;
  68:/usr/include/c++/10/bits/char_traits.h ****       typedef std::streampos  pos_type;
  69:/usr/include/c++/10/bits/char_traits.h ****       typedef std::streamoff  off_type;
  70:/usr/include/c++/10/bits/char_traits.h ****       typedef std::mbstate_t  state_type;
  71:/usr/include/c++/10/bits/char_traits.h ****     };
  72:/usr/include/c++/10/bits/char_traits.h **** 
  73:/usr/include/c++/10/bits/char_traits.h **** 
  74:/usr/include/c++/10/bits/char_traits.h ****   /**
  75:/usr/include/c++/10/bits/char_traits.h ****    *  @brief  Base class used to implement std::char_traits.
  76:/usr/include/c++/10/bits/char_traits.h ****    *
  77:/usr/include/c++/10/bits/char_traits.h ****    *  @note For any given actual character type, this definition is
  78:/usr/include/c++/10/bits/char_traits.h ****    *  probably wrong.  (Most of the member functions are likely to be
  79:/usr/include/c++/10/bits/char_traits.h ****    *  right, but the int_type and state_type typedefs, and the eof()
  80:/usr/include/c++/10/bits/char_traits.h ****    *  member function, are likely to be wrong.)  The reason this class
  81:/usr/include/c++/10/bits/char_traits.h ****    *  exists is so users can specialize it.  Classes in namespace std
  82:/usr/include/c++/10/bits/char_traits.h ****    *  may not be specialized for fundamental types, but classes in
AARCH64 GAS  obj/Chapter11_4.s 			page 35


  83:/usr/include/c++/10/bits/char_traits.h ****    *  namespace __gnu_cxx may be.
  84:/usr/include/c++/10/bits/char_traits.h ****    *
  85:/usr/include/c++/10/bits/char_traits.h ****    *  See https://gcc.gnu.org/onlinedocs/libstdc++/manual/strings.html#strings.string.character_typ
  86:/usr/include/c++/10/bits/char_traits.h ****    *  for advice on how to make use of this class for @a unusual character
  87:/usr/include/c++/10/bits/char_traits.h ****    *  types. Also, check out include/ext/pod_char_traits.h.  
  88:/usr/include/c++/10/bits/char_traits.h ****    */
  89:/usr/include/c++/10/bits/char_traits.h ****   template<typename _CharT>
  90:/usr/include/c++/10/bits/char_traits.h ****     struct char_traits
  91:/usr/include/c++/10/bits/char_traits.h ****     {
  92:/usr/include/c++/10/bits/char_traits.h ****       typedef _CharT                                    char_type;
  93:/usr/include/c++/10/bits/char_traits.h ****       typedef typename _Char_types<_CharT>::int_type    int_type;
  94:/usr/include/c++/10/bits/char_traits.h ****       typedef typename _Char_types<_CharT>::pos_type    pos_type;
  95:/usr/include/c++/10/bits/char_traits.h ****       typedef typename _Char_types<_CharT>::off_type    off_type;
  96:/usr/include/c++/10/bits/char_traits.h ****       typedef typename _Char_types<_CharT>::state_type  state_type;
  97:/usr/include/c++/10/bits/char_traits.h **** #if __cpp_lib_three_way_comparison
  98:/usr/include/c++/10/bits/char_traits.h ****       using comparison_category = std::strong_ordering;
  99:/usr/include/c++/10/bits/char_traits.h **** #endif
 100:/usr/include/c++/10/bits/char_traits.h **** 
 101:/usr/include/c++/10/bits/char_traits.h ****       static _GLIBCXX14_CONSTEXPR void
 102:/usr/include/c++/10/bits/char_traits.h ****       assign(char_type& __c1, const char_type& __c2)
 103:/usr/include/c++/10/bits/char_traits.h ****       { __c1 = __c2; }
 104:/usr/include/c++/10/bits/char_traits.h **** 
 105:/usr/include/c++/10/bits/char_traits.h ****       static _GLIBCXX_CONSTEXPR bool
 106:/usr/include/c++/10/bits/char_traits.h ****       eq(const char_type& __c1, const char_type& __c2)
 107:/usr/include/c++/10/bits/char_traits.h ****       { return __c1 == __c2; }
 108:/usr/include/c++/10/bits/char_traits.h **** 
 109:/usr/include/c++/10/bits/char_traits.h ****       static _GLIBCXX_CONSTEXPR bool
 110:/usr/include/c++/10/bits/char_traits.h ****       lt(const char_type& __c1, const char_type& __c2)
 111:/usr/include/c++/10/bits/char_traits.h ****       { return __c1 < __c2; }
 112:/usr/include/c++/10/bits/char_traits.h **** 
 113:/usr/include/c++/10/bits/char_traits.h ****       static _GLIBCXX14_CONSTEXPR int
 114:/usr/include/c++/10/bits/char_traits.h ****       compare(const char_type* __s1, const char_type* __s2, std::size_t __n);
 115:/usr/include/c++/10/bits/char_traits.h **** 
 116:/usr/include/c++/10/bits/char_traits.h ****       static _GLIBCXX14_CONSTEXPR std::size_t
 117:/usr/include/c++/10/bits/char_traits.h ****       length(const char_type* __s);
 118:/usr/include/c++/10/bits/char_traits.h **** 
 119:/usr/include/c++/10/bits/char_traits.h ****       static _GLIBCXX14_CONSTEXPR const char_type*
 120:/usr/include/c++/10/bits/char_traits.h ****       find(const char_type* __s, std::size_t __n, const char_type& __a);
 121:/usr/include/c++/10/bits/char_traits.h **** 
 122:/usr/include/c++/10/bits/char_traits.h ****       static _GLIBCXX20_CONSTEXPR char_type*
 123:/usr/include/c++/10/bits/char_traits.h ****       move(char_type* __s1, const char_type* __s2, std::size_t __n);
 124:/usr/include/c++/10/bits/char_traits.h **** 
 125:/usr/include/c++/10/bits/char_traits.h ****       static _GLIBCXX20_CONSTEXPR char_type*
 126:/usr/include/c++/10/bits/char_traits.h ****       copy(char_type* __s1, const char_type* __s2, std::size_t __n);
 127:/usr/include/c++/10/bits/char_traits.h **** 
 128:/usr/include/c++/10/bits/char_traits.h ****       static _GLIBCXX20_CONSTEXPR char_type*
 129:/usr/include/c++/10/bits/char_traits.h ****       assign(char_type* __s, std::size_t __n, char_type __a);
 130:/usr/include/c++/10/bits/char_traits.h **** 
 131:/usr/include/c++/10/bits/char_traits.h ****       static _GLIBCXX_CONSTEXPR char_type
 132:/usr/include/c++/10/bits/char_traits.h ****       to_char_type(const int_type& __c)
 133:/usr/include/c++/10/bits/char_traits.h ****       { return static_cast<char_type>(__c); }
 134:/usr/include/c++/10/bits/char_traits.h **** 
 135:/usr/include/c++/10/bits/char_traits.h ****       static _GLIBCXX_CONSTEXPR int_type
 136:/usr/include/c++/10/bits/char_traits.h ****       to_int_type(const char_type& __c)
 137:/usr/include/c++/10/bits/char_traits.h ****       { return static_cast<int_type>(__c); }
 138:/usr/include/c++/10/bits/char_traits.h **** 
 139:/usr/include/c++/10/bits/char_traits.h ****       static _GLIBCXX_CONSTEXPR bool
AARCH64 GAS  obj/Chapter11_4.s 			page 36


 140:/usr/include/c++/10/bits/char_traits.h ****       eq_int_type(const int_type& __c1, const int_type& __c2)
 141:/usr/include/c++/10/bits/char_traits.h ****       { return __c1 == __c2; }
 142:/usr/include/c++/10/bits/char_traits.h **** 
 143:/usr/include/c++/10/bits/char_traits.h ****       static _GLIBCXX_CONSTEXPR int_type
 144:/usr/include/c++/10/bits/char_traits.h ****       eof()
 145:/usr/include/c++/10/bits/char_traits.h ****       { return static_cast<int_type>(_GLIBCXX_STDIO_EOF); }
 146:/usr/include/c++/10/bits/char_traits.h **** 
 147:/usr/include/c++/10/bits/char_traits.h ****       static _GLIBCXX_CONSTEXPR int_type
 148:/usr/include/c++/10/bits/char_traits.h ****       not_eof(const int_type& __c)
 149:/usr/include/c++/10/bits/char_traits.h ****       { return !eq_int_type(__c, eof()) ? __c : to_int_type(char_type()); }
 150:/usr/include/c++/10/bits/char_traits.h ****     };
 151:/usr/include/c++/10/bits/char_traits.h **** 
 152:/usr/include/c++/10/bits/char_traits.h ****   template<typename _CharT>
 153:/usr/include/c++/10/bits/char_traits.h ****     _GLIBCXX14_CONSTEXPR int
 154:/usr/include/c++/10/bits/char_traits.h ****     char_traits<_CharT>::
 155:/usr/include/c++/10/bits/char_traits.h ****     compare(const char_type* __s1, const char_type* __s2, std::size_t __n)
 156:/usr/include/c++/10/bits/char_traits.h ****     {
 157:/usr/include/c++/10/bits/char_traits.h ****       for (std::size_t __i = 0; __i < __n; ++__i)
 158:/usr/include/c++/10/bits/char_traits.h **** 	if (lt(__s1[__i], __s2[__i]))
 159:/usr/include/c++/10/bits/char_traits.h **** 	  return -1;
 160:/usr/include/c++/10/bits/char_traits.h **** 	else if (lt(__s2[__i], __s1[__i]))
 161:/usr/include/c++/10/bits/char_traits.h **** 	  return 1;
 162:/usr/include/c++/10/bits/char_traits.h ****       return 0;
 163:/usr/include/c++/10/bits/char_traits.h ****     }
 164:/usr/include/c++/10/bits/char_traits.h **** 
 165:/usr/include/c++/10/bits/char_traits.h ****   template<typename _CharT>
 166:/usr/include/c++/10/bits/char_traits.h ****     _GLIBCXX14_CONSTEXPR std::size_t
 167:/usr/include/c++/10/bits/char_traits.h ****     char_traits<_CharT>::
 168:/usr/include/c++/10/bits/char_traits.h ****     length(const char_type* __p)
 169:/usr/include/c++/10/bits/char_traits.h ****     {
 170:/usr/include/c++/10/bits/char_traits.h ****       std::size_t __i = 0;
 171:/usr/include/c++/10/bits/char_traits.h ****       while (!eq(__p[__i], char_type()))
 172:/usr/include/c++/10/bits/char_traits.h ****         ++__i;
 173:/usr/include/c++/10/bits/char_traits.h ****       return __i;
 174:/usr/include/c++/10/bits/char_traits.h ****     }
 175:/usr/include/c++/10/bits/char_traits.h **** 
 176:/usr/include/c++/10/bits/char_traits.h ****   template<typename _CharT>
 177:/usr/include/c++/10/bits/char_traits.h ****     _GLIBCXX14_CONSTEXPR const typename char_traits<_CharT>::char_type*
 178:/usr/include/c++/10/bits/char_traits.h ****     char_traits<_CharT>::
 179:/usr/include/c++/10/bits/char_traits.h ****     find(const char_type* __s, std::size_t __n, const char_type& __a)
 180:/usr/include/c++/10/bits/char_traits.h ****     {
 181:/usr/include/c++/10/bits/char_traits.h ****       for (std::size_t __i = 0; __i < __n; ++__i)
 182:/usr/include/c++/10/bits/char_traits.h ****         if (eq(__s[__i], __a))
 183:/usr/include/c++/10/bits/char_traits.h ****           return __s + __i;
 184:/usr/include/c++/10/bits/char_traits.h ****       return 0;
 185:/usr/include/c++/10/bits/char_traits.h ****     }
 186:/usr/include/c++/10/bits/char_traits.h **** 
 187:/usr/include/c++/10/bits/char_traits.h ****   template<typename _CharT>
 188:/usr/include/c++/10/bits/char_traits.h ****     _GLIBCXX20_CONSTEXPR
 189:/usr/include/c++/10/bits/char_traits.h ****     typename char_traits<_CharT>::char_type*
 190:/usr/include/c++/10/bits/char_traits.h ****     char_traits<_CharT>::
 191:/usr/include/c++/10/bits/char_traits.h ****     move(char_type* __s1, const char_type* __s2, std::size_t __n)
 192:/usr/include/c++/10/bits/char_traits.h ****     {
 193:/usr/include/c++/10/bits/char_traits.h ****       if (__n == 0)
 194:/usr/include/c++/10/bits/char_traits.h **** 	return __s1;
 195:/usr/include/c++/10/bits/char_traits.h **** #ifdef __cpp_lib_is_constant_evaluated
 196:/usr/include/c++/10/bits/char_traits.h ****       if (std::is_constant_evaluated())
AARCH64 GAS  obj/Chapter11_4.s 			page 37


 197:/usr/include/c++/10/bits/char_traits.h **** 	{
 198:/usr/include/c++/10/bits/char_traits.h **** 	  if (__s1 > __s2 && __s1 < __s2 + __n)
 199:/usr/include/c++/10/bits/char_traits.h **** 	    std::copy_backward(__s2, __s2 + __n, __s1);
 200:/usr/include/c++/10/bits/char_traits.h **** 	  else
 201:/usr/include/c++/10/bits/char_traits.h **** 	    std::copy(__s2, __s2 + __n, __s1);
 202:/usr/include/c++/10/bits/char_traits.h **** 	  return __s1;
 203:/usr/include/c++/10/bits/char_traits.h **** 	}
 204:/usr/include/c++/10/bits/char_traits.h **** #endif
 205:/usr/include/c++/10/bits/char_traits.h ****       return static_cast<_CharT*>(__builtin_memmove(__s1, __s2,
 206:/usr/include/c++/10/bits/char_traits.h **** 						    __n * sizeof(char_type)));
 207:/usr/include/c++/10/bits/char_traits.h ****     }
 208:/usr/include/c++/10/bits/char_traits.h **** 
 209:/usr/include/c++/10/bits/char_traits.h ****   template<typename _CharT>
 210:/usr/include/c++/10/bits/char_traits.h ****     _GLIBCXX20_CONSTEXPR
 211:/usr/include/c++/10/bits/char_traits.h ****     typename char_traits<_CharT>::char_type*
 212:/usr/include/c++/10/bits/char_traits.h ****     char_traits<_CharT>::
 213:/usr/include/c++/10/bits/char_traits.h ****     copy(char_type* __s1, const char_type* __s2, std::size_t __n)
 214:/usr/include/c++/10/bits/char_traits.h ****     {
 215:/usr/include/c++/10/bits/char_traits.h ****       // NB: Inline std::copy so no recursive dependencies.
 216:/usr/include/c++/10/bits/char_traits.h ****       std::copy(__s2, __s2 + __n, __s1);
 217:/usr/include/c++/10/bits/char_traits.h ****       return __s1;
 218:/usr/include/c++/10/bits/char_traits.h ****     }
 219:/usr/include/c++/10/bits/char_traits.h **** 
 220:/usr/include/c++/10/bits/char_traits.h ****   template<typename _CharT>
 221:/usr/include/c++/10/bits/char_traits.h ****     _GLIBCXX20_CONSTEXPR
 222:/usr/include/c++/10/bits/char_traits.h ****     typename char_traits<_CharT>::char_type*
 223:/usr/include/c++/10/bits/char_traits.h ****     char_traits<_CharT>::
 224:/usr/include/c++/10/bits/char_traits.h ****     assign(char_type* __s, std::size_t __n, char_type __a)
 225:/usr/include/c++/10/bits/char_traits.h ****     {
 226:/usr/include/c++/10/bits/char_traits.h ****       // NB: Inline std::fill_n so no recursive dependencies.
 227:/usr/include/c++/10/bits/char_traits.h ****       std::fill_n(__s, __n, __a);
 228:/usr/include/c++/10/bits/char_traits.h ****       return __s;
 229:/usr/include/c++/10/bits/char_traits.h ****     }
 230:/usr/include/c++/10/bits/char_traits.h **** 
 231:/usr/include/c++/10/bits/char_traits.h **** _GLIBCXX_END_NAMESPACE_VERSION
 232:/usr/include/c++/10/bits/char_traits.h **** } // namespace
 233:/usr/include/c++/10/bits/char_traits.h **** 
 234:/usr/include/c++/10/bits/char_traits.h **** namespace std _GLIBCXX_VISIBILITY(default)
 235:/usr/include/c++/10/bits/char_traits.h **** {
 236:/usr/include/c++/10/bits/char_traits.h **** _GLIBCXX_BEGIN_NAMESPACE_VERSION
 237:/usr/include/c++/10/bits/char_traits.h **** 
 238:/usr/include/c++/10/bits/char_traits.h **** #if __cplusplus >= 201703L
 239:/usr/include/c++/10/bits/char_traits.h **** 
 240:/usr/include/c++/10/bits/char_traits.h **** #if __cplusplus == 201703L
 241:/usr/include/c++/10/bits/char_traits.h **** // Unofficial macro indicating P0426R1 support
 242:/usr/include/c++/10/bits/char_traits.h **** # define __cpp_lib_constexpr_char_traits 201611L
 243:/usr/include/c++/10/bits/char_traits.h **** #else
 244:/usr/include/c++/10/bits/char_traits.h **** // Also support P1032R1 in C++20
 245:/usr/include/c++/10/bits/char_traits.h **** # define __cpp_lib_constexpr_char_traits 201811L
 246:/usr/include/c++/10/bits/char_traits.h **** #endif
 247:/usr/include/c++/10/bits/char_traits.h **** 
 248:/usr/include/c++/10/bits/char_traits.h ****   /**
 249:/usr/include/c++/10/bits/char_traits.h ****    *  @brief Determine whether the characters of a NULL-terminated
 250:/usr/include/c++/10/bits/char_traits.h ****    *  string are known at compile time.
 251:/usr/include/c++/10/bits/char_traits.h ****    *  @param  __s  The string.
 252:/usr/include/c++/10/bits/char_traits.h ****    *
 253:/usr/include/c++/10/bits/char_traits.h ****    *  Assumes that _CharT is a built-in character type.
AARCH64 GAS  obj/Chapter11_4.s 			page 38


 254:/usr/include/c++/10/bits/char_traits.h ****    */
 255:/usr/include/c++/10/bits/char_traits.h ****   template<typename _CharT>
 256:/usr/include/c++/10/bits/char_traits.h ****     static _GLIBCXX_ALWAYS_INLINE constexpr bool
 257:/usr/include/c++/10/bits/char_traits.h ****     __constant_string_p(const _CharT* __s)
 258:/usr/include/c++/10/bits/char_traits.h ****     {
 259:/usr/include/c++/10/bits/char_traits.h **** #ifdef _GLIBCXX_HAVE_BUILTIN_IS_CONSTANT_EVALUATED
 260:/usr/include/c++/10/bits/char_traits.h ****       (void) __s;
 261:/usr/include/c++/10/bits/char_traits.h ****       // In constexpr contexts all strings should be constant.
 262:/usr/include/c++/10/bits/char_traits.h ****       return __builtin_is_constant_evaluated();
 263:/usr/include/c++/10/bits/char_traits.h **** #else
 264:/usr/include/c++/10/bits/char_traits.h ****       while (__builtin_constant_p(*__s) && *__s)
 265:/usr/include/c++/10/bits/char_traits.h **** 	__s++;
 266:/usr/include/c++/10/bits/char_traits.h ****       return __builtin_constant_p(*__s);
 267:/usr/include/c++/10/bits/char_traits.h **** #endif
 268:/usr/include/c++/10/bits/char_traits.h ****     }
 269:/usr/include/c++/10/bits/char_traits.h **** 
 270:/usr/include/c++/10/bits/char_traits.h ****   /**
 271:/usr/include/c++/10/bits/char_traits.h ****    *  @brief Determine whether the characters of a character array are
 272:/usr/include/c++/10/bits/char_traits.h ****    *  known at compile time.
 273:/usr/include/c++/10/bits/char_traits.h ****    *  @param  __a  The character array.
 274:/usr/include/c++/10/bits/char_traits.h ****    *  @param  __n  Number of characters.
 275:/usr/include/c++/10/bits/char_traits.h ****    *
 276:/usr/include/c++/10/bits/char_traits.h ****    *  Assumes that _CharT is a built-in character type.
 277:/usr/include/c++/10/bits/char_traits.h ****    */
 278:/usr/include/c++/10/bits/char_traits.h ****   template<typename _CharT>
 279:/usr/include/c++/10/bits/char_traits.h ****     static _GLIBCXX_ALWAYS_INLINE constexpr bool
 280:/usr/include/c++/10/bits/char_traits.h ****     __constant_char_array_p(const _CharT* __a, size_t __n)
 281:/usr/include/c++/10/bits/char_traits.h ****     {
 282:/usr/include/c++/10/bits/char_traits.h **** #ifdef _GLIBCXX_HAVE_BUILTIN_IS_CONSTANT_EVALUATED
 283:/usr/include/c++/10/bits/char_traits.h ****       (void) __a;
 284:/usr/include/c++/10/bits/char_traits.h ****       (void) __n;
 285:/usr/include/c++/10/bits/char_traits.h ****       // In constexpr contexts all character arrays should be constant.
 286:/usr/include/c++/10/bits/char_traits.h ****       return __builtin_is_constant_evaluated();
 287:/usr/include/c++/10/bits/char_traits.h **** #else
 288:/usr/include/c++/10/bits/char_traits.h ****       size_t __i = 0;
 289:/usr/include/c++/10/bits/char_traits.h ****       while (__i < __n && __builtin_constant_p(__a[__i]))
 290:/usr/include/c++/10/bits/char_traits.h **** 	__i++;
 291:/usr/include/c++/10/bits/char_traits.h ****       return __i == __n;
 292:/usr/include/c++/10/bits/char_traits.h **** #endif
 293:/usr/include/c++/10/bits/char_traits.h ****     }
 294:/usr/include/c++/10/bits/char_traits.h **** #endif
 295:/usr/include/c++/10/bits/char_traits.h **** 
 296:/usr/include/c++/10/bits/char_traits.h ****   // 21.1
 297:/usr/include/c++/10/bits/char_traits.h ****   /**
 298:/usr/include/c++/10/bits/char_traits.h ****    *  @brief  Basis for explicit traits specializations.
 299:/usr/include/c++/10/bits/char_traits.h ****    *
 300:/usr/include/c++/10/bits/char_traits.h ****    *  @note  For any given actual character type, this definition is
 301:/usr/include/c++/10/bits/char_traits.h ****    *  probably wrong.  Since this is just a thin wrapper around
 302:/usr/include/c++/10/bits/char_traits.h ****    *  __gnu_cxx::char_traits, it is possible to achieve a more
 303:/usr/include/c++/10/bits/char_traits.h ****    *  appropriate definition by specializing __gnu_cxx::char_traits.
 304:/usr/include/c++/10/bits/char_traits.h ****    *
 305:/usr/include/c++/10/bits/char_traits.h ****    *  See https://gcc.gnu.org/onlinedocs/libstdc++/manual/strings.html#strings.string.character_typ
 306:/usr/include/c++/10/bits/char_traits.h ****    *  for advice on how to make use of this class for @a unusual character
 307:/usr/include/c++/10/bits/char_traits.h ****    *  types. Also, check out include/ext/pod_char_traits.h.
 308:/usr/include/c++/10/bits/char_traits.h ****   */
 309:/usr/include/c++/10/bits/char_traits.h ****   template<class _CharT>
 310:/usr/include/c++/10/bits/char_traits.h ****     struct char_traits : public __gnu_cxx::char_traits<_CharT>
AARCH64 GAS  obj/Chapter11_4.s 			page 39


 311:/usr/include/c++/10/bits/char_traits.h ****     { };
 312:/usr/include/c++/10/bits/char_traits.h **** 
 313:/usr/include/c++/10/bits/char_traits.h **** 
 314:/usr/include/c++/10/bits/char_traits.h ****   /// 21.1.3.1  char_traits specializations
 315:/usr/include/c++/10/bits/char_traits.h ****   template<>
 316:/usr/include/c++/10/bits/char_traits.h ****     struct char_traits<char>
 317:/usr/include/c++/10/bits/char_traits.h ****     {
 318:/usr/include/c++/10/bits/char_traits.h ****       typedef char              char_type;
 319:/usr/include/c++/10/bits/char_traits.h ****       typedef int               int_type;
 320:/usr/include/c++/10/bits/char_traits.h ****       typedef streampos         pos_type;
 321:/usr/include/c++/10/bits/char_traits.h ****       typedef streamoff         off_type;
 322:/usr/include/c++/10/bits/char_traits.h ****       typedef mbstate_t         state_type;
 323:/usr/include/c++/10/bits/char_traits.h **** #if __cpp_lib_three_way_comparison
 324:/usr/include/c++/10/bits/char_traits.h ****       using comparison_category = strong_ordering;
 325:/usr/include/c++/10/bits/char_traits.h **** #endif
 326:/usr/include/c++/10/bits/char_traits.h **** 
 327:/usr/include/c++/10/bits/char_traits.h ****       static _GLIBCXX17_CONSTEXPR void
 328:/usr/include/c++/10/bits/char_traits.h ****       assign(char_type& __c1, const char_type& __c2) _GLIBCXX_NOEXCEPT
 329:/usr/include/c++/10/bits/char_traits.h ****       { __c1 = __c2; }
 330:/usr/include/c++/10/bits/char_traits.h **** 
 331:/usr/include/c++/10/bits/char_traits.h ****       static _GLIBCXX_CONSTEXPR bool
 332:/usr/include/c++/10/bits/char_traits.h ****       eq(const char_type& __c1, const char_type& __c2) _GLIBCXX_NOEXCEPT
 333:/usr/include/c++/10/bits/char_traits.h ****       { return __c1 == __c2; }
 334:/usr/include/c++/10/bits/char_traits.h **** 
 335:/usr/include/c++/10/bits/char_traits.h ****       static _GLIBCXX_CONSTEXPR bool
 336:/usr/include/c++/10/bits/char_traits.h ****       lt(const char_type& __c1, const char_type& __c2) _GLIBCXX_NOEXCEPT
 337:/usr/include/c++/10/bits/char_traits.h ****       {
 338:/usr/include/c++/10/bits/char_traits.h **** 	// LWG 467.
 339:/usr/include/c++/10/bits/char_traits.h **** 	return (static_cast<unsigned char>(__c1)
 340:/usr/include/c++/10/bits/char_traits.h **** 		< static_cast<unsigned char>(__c2));
 341:/usr/include/c++/10/bits/char_traits.h ****       }
 342:/usr/include/c++/10/bits/char_traits.h **** 
 343:/usr/include/c++/10/bits/char_traits.h ****       static _GLIBCXX17_CONSTEXPR int
 344:/usr/include/c++/10/bits/char_traits.h ****       compare(const char_type* __s1, const char_type* __s2, size_t __n)
 345:/usr/include/c++/10/bits/char_traits.h ****       {
 346:/usr/include/c++/10/bits/char_traits.h **** 	if (__n == 0)
 347:/usr/include/c++/10/bits/char_traits.h **** 	  return 0;
 348:/usr/include/c++/10/bits/char_traits.h **** #if __cplusplus >= 201703L
 349:/usr/include/c++/10/bits/char_traits.h **** 	if (__builtin_constant_p(__n)
 350:/usr/include/c++/10/bits/char_traits.h **** 	    && __constant_char_array_p(__s1, __n)
 351:/usr/include/c++/10/bits/char_traits.h **** 	    && __constant_char_array_p(__s2, __n))
 352:/usr/include/c++/10/bits/char_traits.h **** 	  return __gnu_cxx::char_traits<char_type>::compare(__s1, __s2, __n);
 353:/usr/include/c++/10/bits/char_traits.h **** #endif
 354:/usr/include/c++/10/bits/char_traits.h **** 	return __builtin_memcmp(__s1, __s2, __n);
 355:/usr/include/c++/10/bits/char_traits.h ****       }
 356:/usr/include/c++/10/bits/char_traits.h **** 
 357:/usr/include/c++/10/bits/char_traits.h ****       static _GLIBCXX17_CONSTEXPR size_t
 358:/usr/include/c++/10/bits/char_traits.h ****       length(const char_type* __s)
 359:/usr/include/c++/10/bits/char_traits.h ****       {
 360:/usr/include/c++/10/bits/char_traits.h **** #if __cplusplus >= 201703L
 361:/usr/include/c++/10/bits/char_traits.h **** 	if (__constant_string_p(__s))
 362:/usr/include/c++/10/bits/char_traits.h **** 	  return __gnu_cxx::char_traits<char_type>::length(__s);
 363:/usr/include/c++/10/bits/char_traits.h **** #endif
 364:/usr/include/c++/10/bits/char_traits.h **** 	return __builtin_strlen(__s);
  83              		.loc 4 364 2 is_stmt 1 view .LVU18
  84              	.LBB80:
  85              	.LBB77:
AARCH64 GAS  obj/Chapter11_4.s 			page 40


  86              		.loc 3 611 18 is_stmt 0 view .LVU19
  87 0028 01000090 		adrp	x1, .LC0
  88 002c E00313AA 		mov	x0, x19
  89              	.LVL5:
  90              		.loc 3 611 18 view .LVU20
  91 0030 21000091 		add	x1, x1, :lo12:.LC0
  92 0034 00000094 		bl	_ZSt16__ostream_insertIcSt11char_traitsIcEERSt13basic_ostreamIT_T0_ES6_PKS3_l
  93              	.LVL6:
  94              		.loc 3 611 18 view .LVU21
  95              	.LBE77:
  96              	.LBE80:
  97              		.loc 2 13 28 view .LVU22
  98 0038 E103142A 		mov	w1, w20
  99 003c E00313AA 		mov	x0, x19
 100 0040 00000094 		bl	_ZNSolsEi
 101              	.LVL7:
 102 0044 F30300AA 		mov	x19, x0
 103              	.LVL8:
 104              	.LBB81:
 105              	.LBI81:
 108:/usr/include/c++/10/ostream ****       {
 106              		.loc 3 108 7 is_stmt 1 view .LVU23
 107              	.LBB82:
 108              	.LBI82:
 612:/usr/include/c++/10/ostream **** 			 static_cast<streamsize>(_Traits::length(__s)));
 613:/usr/include/c++/10/ostream ****       return __out;
 614:/usr/include/c++/10/ostream ****     }
 615:/usr/include/c++/10/ostream **** 
 616:/usr/include/c++/10/ostream ****   // Signed and unsigned
 617:/usr/include/c++/10/ostream ****   template<typename _Traits>
 618:/usr/include/c++/10/ostream ****     inline basic_ostream<char, _Traits>&
 619:/usr/include/c++/10/ostream ****     operator<<(basic_ostream<char, _Traits>& __out, const signed char* __s)
 620:/usr/include/c++/10/ostream ****     { return (__out << reinterpret_cast<const char*>(__s)); }
 621:/usr/include/c++/10/ostream **** 
 622:/usr/include/c++/10/ostream ****   template<typename _Traits>
 623:/usr/include/c++/10/ostream ****     inline basic_ostream<char, _Traits> &
 624:/usr/include/c++/10/ostream ****     operator<<(basic_ostream<char, _Traits>& __out, const unsigned char* __s)
 625:/usr/include/c++/10/ostream ****     { return (__out << reinterpret_cast<const char*>(__s)); }
 626:/usr/include/c++/10/ostream **** 
 627:/usr/include/c++/10/ostream **** #if __cplusplus > 201703L
 628:/usr/include/c++/10/ostream ****    // The following deleted overloads prevent formatting strings as
 629:/usr/include/c++/10/ostream ****    // pointer values.
 630:/usr/include/c++/10/ostream **** 
 631:/usr/include/c++/10/ostream **** #ifdef _GLIBCXX_USE_WCHAR_T
 632:/usr/include/c++/10/ostream ****   template<typename _Traits>
 633:/usr/include/c++/10/ostream ****     basic_ostream<char, _Traits>&
 634:/usr/include/c++/10/ostream ****     operator<<(basic_ostream<char, _Traits>&, const wchar_t*) = delete;
 635:/usr/include/c++/10/ostream **** #endif // _GLIBCXX_USE_WCHAR_T
 636:/usr/include/c++/10/ostream **** 
 637:/usr/include/c++/10/ostream **** #ifdef _GLIBCXX_USE_CHAR8_T
 638:/usr/include/c++/10/ostream ****   template<typename _Traits>
 639:/usr/include/c++/10/ostream ****     basic_ostream<char, _Traits>&
 640:/usr/include/c++/10/ostream ****     operator<<(basic_ostream<char, _Traits>&, const char8_t*) = delete;
 641:/usr/include/c++/10/ostream **** #endif // _GLIBCXX_USE_CHAR8_T
 642:/usr/include/c++/10/ostream **** 
 643:/usr/include/c++/10/ostream ****   template<typename _Traits>
 644:/usr/include/c++/10/ostream ****     basic_ostream<char, _Traits>&
AARCH64 GAS  obj/Chapter11_4.s 			page 41


 645:/usr/include/c++/10/ostream ****     operator<<(basic_ostream<char, _Traits>&, const char16_t*) = delete;
 646:/usr/include/c++/10/ostream **** 
 647:/usr/include/c++/10/ostream ****   template<typename _Traits>
 648:/usr/include/c++/10/ostream ****     basic_ostream<char, _Traits>&
 649:/usr/include/c++/10/ostream ****     operator<<(basic_ostream<char, _Traits>&, const char32_t*) = delete;
 650:/usr/include/c++/10/ostream **** 
 651:/usr/include/c++/10/ostream **** #ifdef _GLIBCXX_USE_WCHAR_T
 652:/usr/include/c++/10/ostream **** #ifdef _GLIBCXX_USE_CHAR8_T
 653:/usr/include/c++/10/ostream ****   template<typename _Traits>
 654:/usr/include/c++/10/ostream ****     basic_ostream<wchar_t, _Traits>&
 655:/usr/include/c++/10/ostream ****     operator<<(basic_ostream<wchar_t, _Traits>&, const char8_t*) = delete;
 656:/usr/include/c++/10/ostream **** #endif
 657:/usr/include/c++/10/ostream **** 
 658:/usr/include/c++/10/ostream ****   template<typename _Traits>
 659:/usr/include/c++/10/ostream ****     basic_ostream<wchar_t, _Traits>&
 660:/usr/include/c++/10/ostream ****     operator<<(basic_ostream<wchar_t, _Traits>&, const char16_t*) = delete;
 661:/usr/include/c++/10/ostream **** 
 662:/usr/include/c++/10/ostream ****   template<typename _Traits>
 663:/usr/include/c++/10/ostream ****     basic_ostream<wchar_t, _Traits>&
 664:/usr/include/c++/10/ostream ****     operator<<(basic_ostream<wchar_t, _Traits>&, const char32_t*) = delete;
 665:/usr/include/c++/10/ostream **** #endif // _GLIBCXX_USE_WCHAR_T
 666:/usr/include/c++/10/ostream **** #endif // C++20
 667:/usr/include/c++/10/ostream ****   //@}
 668:/usr/include/c++/10/ostream **** 
 669:/usr/include/c++/10/ostream ****   // Standard basic_ostream manipulators
 670:/usr/include/c++/10/ostream **** 
 671:/usr/include/c++/10/ostream ****   /**
 672:/usr/include/c++/10/ostream ****    *  @brief  Write a newline and flush the stream.
 673:/usr/include/c++/10/ostream ****    *
 674:/usr/include/c++/10/ostream ****    *  This manipulator is often mistakenly used when a simple newline is
 675:/usr/include/c++/10/ostream ****    *  desired, leading to poor buffering performance.  See
 676:/usr/include/c++/10/ostream ****    *  https://gcc.gnu.org/onlinedocs/libstdc++/manual/streambufs.html#io.streambuf.buffering
 677:/usr/include/c++/10/ostream ****    *  for more on this subject.
 678:/usr/include/c++/10/ostream ****   */
 679:/usr/include/c++/10/ostream ****   template<typename _CharT, typename _Traits>
 680:/usr/include/c++/10/ostream ****     inline basic_ostream<_CharT, _Traits>&
 681:/usr/include/c++/10/ostream ****     endl(basic_ostream<_CharT, _Traits>& __os)
 109              		.loc 3 681 5 view .LVU24
 110              	.LBB83:
 682:/usr/include/c++/10/ostream ****     { return flush(__os.put(__os.widen('\n'))); }
 111              		.loc 3 682 19 is_stmt 0 view .LVU25
 112 0048 000040F9 		ldr	x0, [x0]
 113              	.LVL9:
 114              		.loc 3 682 19 view .LVU26
 115 004c 00805EF8 		ldr	x0, [x0, -24]
 116 0050 6002008B 		add	x0, x19, x0
 117 0054 147840F9 		ldr	x20, [x0, 240]
 118              	.LVL10:
 119              	.LBB84:
 120              	.LBI84:
 121              		.file 5 "/usr/include/c++/10/bits/basic_ios.h"
   1:/usr/include/c++/10/bits/basic_ios.h **** // Iostreams base classes -*- C++ -*-
   2:/usr/include/c++/10/bits/basic_ios.h **** 
   3:/usr/include/c++/10/bits/basic_ios.h **** // Copyright (C) 1997-2020 Free Software Foundation, Inc.
   4:/usr/include/c++/10/bits/basic_ios.h **** //
   5:/usr/include/c++/10/bits/basic_ios.h **** // This file is part of the GNU ISO C++ Library.  This library is free
   6:/usr/include/c++/10/bits/basic_ios.h **** // software; you can redistribute it and/or modify it under the
AARCH64 GAS  obj/Chapter11_4.s 			page 42


   7:/usr/include/c++/10/bits/basic_ios.h **** // terms of the GNU General Public License as published by the
   8:/usr/include/c++/10/bits/basic_ios.h **** // Free Software Foundation; either version 3, or (at your option)
   9:/usr/include/c++/10/bits/basic_ios.h **** // any later version.
  10:/usr/include/c++/10/bits/basic_ios.h **** 
  11:/usr/include/c++/10/bits/basic_ios.h **** // This library is distributed in the hope that it will be useful,
  12:/usr/include/c++/10/bits/basic_ios.h **** // but WITHOUT ANY WARRANTY; without even the implied warranty of
  13:/usr/include/c++/10/bits/basic_ios.h **** // MERCHANTABILITY or FITNESS FOR A PARTICULAR PURPOSE.  See the
  14:/usr/include/c++/10/bits/basic_ios.h **** // GNU General Public License for more details.
  15:/usr/include/c++/10/bits/basic_ios.h **** 
  16:/usr/include/c++/10/bits/basic_ios.h **** // Under Section 7 of GPL version 3, you are granted additional
  17:/usr/include/c++/10/bits/basic_ios.h **** // permissions described in the GCC Runtime Library Exception, version
  18:/usr/include/c++/10/bits/basic_ios.h **** // 3.1, as published by the Free Software Foundation.
  19:/usr/include/c++/10/bits/basic_ios.h **** 
  20:/usr/include/c++/10/bits/basic_ios.h **** // You should have received a copy of the GNU General Public License and
  21:/usr/include/c++/10/bits/basic_ios.h **** // a copy of the GCC Runtime Library Exception along with this program;
  22:/usr/include/c++/10/bits/basic_ios.h **** // see the files COPYING3 and COPYING.RUNTIME respectively.  If not, see
  23:/usr/include/c++/10/bits/basic_ios.h **** // <http://www.gnu.org/licenses/>.
  24:/usr/include/c++/10/bits/basic_ios.h **** 
  25:/usr/include/c++/10/bits/basic_ios.h **** /** @file bits/basic_ios.h
  26:/usr/include/c++/10/bits/basic_ios.h ****  *  This is an internal header file, included by other library headers.
  27:/usr/include/c++/10/bits/basic_ios.h ****  *  Do not attempt to use it directly. @headername{ios}
  28:/usr/include/c++/10/bits/basic_ios.h ****  */
  29:/usr/include/c++/10/bits/basic_ios.h **** 
  30:/usr/include/c++/10/bits/basic_ios.h **** #ifndef _BASIC_IOS_H
  31:/usr/include/c++/10/bits/basic_ios.h **** #define _BASIC_IOS_H 1
  32:/usr/include/c++/10/bits/basic_ios.h **** 
  33:/usr/include/c++/10/bits/basic_ios.h **** #pragma GCC system_header
  34:/usr/include/c++/10/bits/basic_ios.h **** 
  35:/usr/include/c++/10/bits/basic_ios.h **** #include <bits/localefwd.h>
  36:/usr/include/c++/10/bits/basic_ios.h **** #include <bits/locale_classes.h>
  37:/usr/include/c++/10/bits/basic_ios.h **** #include <bits/locale_facets.h>
  38:/usr/include/c++/10/bits/basic_ios.h **** #include <bits/streambuf_iterator.h>
  39:/usr/include/c++/10/bits/basic_ios.h **** #include <bits/move.h>
  40:/usr/include/c++/10/bits/basic_ios.h **** 
  41:/usr/include/c++/10/bits/basic_ios.h **** namespace std _GLIBCXX_VISIBILITY(default)
  42:/usr/include/c++/10/bits/basic_ios.h **** {
  43:/usr/include/c++/10/bits/basic_ios.h **** _GLIBCXX_BEGIN_NAMESPACE_VERSION
  44:/usr/include/c++/10/bits/basic_ios.h **** 
  45:/usr/include/c++/10/bits/basic_ios.h ****   template<typename _Facet>
  46:/usr/include/c++/10/bits/basic_ios.h ****     inline const _Facet&
  47:/usr/include/c++/10/bits/basic_ios.h ****     __check_facet(const _Facet* __f)
  48:/usr/include/c++/10/bits/basic_ios.h ****     {
  49:/usr/include/c++/10/bits/basic_ios.h ****       if (!__f)
  50:/usr/include/c++/10/bits/basic_ios.h **** 	__throw_bad_cast();
  51:/usr/include/c++/10/bits/basic_ios.h ****       return *__f;
  52:/usr/include/c++/10/bits/basic_ios.h ****     }
  53:/usr/include/c++/10/bits/basic_ios.h **** 
  54:/usr/include/c++/10/bits/basic_ios.h ****   /**
  55:/usr/include/c++/10/bits/basic_ios.h ****    *  @brief Template class basic_ios, virtual base class for all
  56:/usr/include/c++/10/bits/basic_ios.h ****    *  stream classes. 
  57:/usr/include/c++/10/bits/basic_ios.h ****    *  @ingroup io
  58:/usr/include/c++/10/bits/basic_ios.h ****    *
  59:/usr/include/c++/10/bits/basic_ios.h ****    *  @tparam _CharT  Type of character stream.
  60:/usr/include/c++/10/bits/basic_ios.h ****    *  @tparam _Traits  Traits for character type, defaults to
  61:/usr/include/c++/10/bits/basic_ios.h ****    *                   char_traits<_CharT>.
  62:/usr/include/c++/10/bits/basic_ios.h ****    *
  63:/usr/include/c++/10/bits/basic_ios.h ****    *  Most of the member functions called dispatched on stream objects
AARCH64 GAS  obj/Chapter11_4.s 			page 43


  64:/usr/include/c++/10/bits/basic_ios.h ****    *  (e.g., @c std::cout.foo(bar);) are consolidated in this class.
  65:/usr/include/c++/10/bits/basic_ios.h ****   */
  66:/usr/include/c++/10/bits/basic_ios.h ****   template<typename _CharT, typename _Traits>
  67:/usr/include/c++/10/bits/basic_ios.h ****     class basic_ios : public ios_base
  68:/usr/include/c++/10/bits/basic_ios.h ****     {
  69:/usr/include/c++/10/bits/basic_ios.h ****     public:
  70:/usr/include/c++/10/bits/basic_ios.h ****       //@{
  71:/usr/include/c++/10/bits/basic_ios.h ****       /**
  72:/usr/include/c++/10/bits/basic_ios.h ****        *  These are standard types.  They permit a standardized way of
  73:/usr/include/c++/10/bits/basic_ios.h ****        *  referring to names of (or names dependent on) the template
  74:/usr/include/c++/10/bits/basic_ios.h ****        *  parameters, which are specific to the implementation.
  75:/usr/include/c++/10/bits/basic_ios.h ****       */
  76:/usr/include/c++/10/bits/basic_ios.h ****       typedef _CharT                                 char_type;
  77:/usr/include/c++/10/bits/basic_ios.h ****       typedef typename _Traits::int_type             int_type;
  78:/usr/include/c++/10/bits/basic_ios.h ****       typedef typename _Traits::pos_type             pos_type;
  79:/usr/include/c++/10/bits/basic_ios.h ****       typedef typename _Traits::off_type             off_type;
  80:/usr/include/c++/10/bits/basic_ios.h ****       typedef _Traits                                traits_type;
  81:/usr/include/c++/10/bits/basic_ios.h ****       //@}
  82:/usr/include/c++/10/bits/basic_ios.h **** 
  83:/usr/include/c++/10/bits/basic_ios.h ****       //@{
  84:/usr/include/c++/10/bits/basic_ios.h ****       /**
  85:/usr/include/c++/10/bits/basic_ios.h ****        *  These are non-standard types.
  86:/usr/include/c++/10/bits/basic_ios.h ****       */
  87:/usr/include/c++/10/bits/basic_ios.h ****       typedef ctype<_CharT>                          __ctype_type;
  88:/usr/include/c++/10/bits/basic_ios.h ****       typedef num_put<_CharT, ostreambuf_iterator<_CharT, _Traits> >
  89:/usr/include/c++/10/bits/basic_ios.h **** 						     __num_put_type;
  90:/usr/include/c++/10/bits/basic_ios.h ****       typedef num_get<_CharT, istreambuf_iterator<_CharT, _Traits> >
  91:/usr/include/c++/10/bits/basic_ios.h **** 						     __num_get_type;
  92:/usr/include/c++/10/bits/basic_ios.h ****       //@}
  93:/usr/include/c++/10/bits/basic_ios.h **** 
  94:/usr/include/c++/10/bits/basic_ios.h ****       // Data members:
  95:/usr/include/c++/10/bits/basic_ios.h ****     protected:
  96:/usr/include/c++/10/bits/basic_ios.h ****       basic_ostream<_CharT, _Traits>*                _M_tie;
  97:/usr/include/c++/10/bits/basic_ios.h ****       mutable char_type                              _M_fill;
  98:/usr/include/c++/10/bits/basic_ios.h ****       mutable bool                                   _M_fill_init;
  99:/usr/include/c++/10/bits/basic_ios.h ****       basic_streambuf<_CharT, _Traits>*              _M_streambuf;
 100:/usr/include/c++/10/bits/basic_ios.h **** 
 101:/usr/include/c++/10/bits/basic_ios.h ****       // Cached use_facet<ctype>, which is based on the current locale info.
 102:/usr/include/c++/10/bits/basic_ios.h ****       const __ctype_type*                            _M_ctype;
 103:/usr/include/c++/10/bits/basic_ios.h ****       // For ostream.
 104:/usr/include/c++/10/bits/basic_ios.h ****       const __num_put_type*                          _M_num_put;
 105:/usr/include/c++/10/bits/basic_ios.h ****       // For istream.
 106:/usr/include/c++/10/bits/basic_ios.h ****       const __num_get_type*                          _M_num_get;
 107:/usr/include/c++/10/bits/basic_ios.h **** 
 108:/usr/include/c++/10/bits/basic_ios.h ****     public:
 109:/usr/include/c++/10/bits/basic_ios.h ****       //@{
 110:/usr/include/c++/10/bits/basic_ios.h ****       /**
 111:/usr/include/c++/10/bits/basic_ios.h ****        *  @brief  The quick-and-easy status check.
 112:/usr/include/c++/10/bits/basic_ios.h ****        *
 113:/usr/include/c++/10/bits/basic_ios.h ****        *  This allows you to write constructs such as
 114:/usr/include/c++/10/bits/basic_ios.h ****        *  <code>if (!a_stream) ...</code> and <code>while (a_stream) ...</code>
 115:/usr/include/c++/10/bits/basic_ios.h ****       */
 116:/usr/include/c++/10/bits/basic_ios.h **** #if __cplusplus >= 201103L
 117:/usr/include/c++/10/bits/basic_ios.h ****       explicit operator bool() const
 118:/usr/include/c++/10/bits/basic_ios.h ****       { return !this->fail(); }
 119:/usr/include/c++/10/bits/basic_ios.h **** #else
 120:/usr/include/c++/10/bits/basic_ios.h ****       operator void*() const
AARCH64 GAS  obj/Chapter11_4.s 			page 44


 121:/usr/include/c++/10/bits/basic_ios.h ****       { return this->fail() ? 0 : const_cast<basic_ios*>(this); }
 122:/usr/include/c++/10/bits/basic_ios.h **** #endif
 123:/usr/include/c++/10/bits/basic_ios.h **** 
 124:/usr/include/c++/10/bits/basic_ios.h ****       bool
 125:/usr/include/c++/10/bits/basic_ios.h ****       operator!() const
 126:/usr/include/c++/10/bits/basic_ios.h ****       { return this->fail(); }
 127:/usr/include/c++/10/bits/basic_ios.h ****       //@}
 128:/usr/include/c++/10/bits/basic_ios.h **** 
 129:/usr/include/c++/10/bits/basic_ios.h ****       /**
 130:/usr/include/c++/10/bits/basic_ios.h ****        *  @brief  Returns the error state of the stream buffer.
 131:/usr/include/c++/10/bits/basic_ios.h ****        *  @return  A bit pattern (well, isn't everything?)
 132:/usr/include/c++/10/bits/basic_ios.h ****        *
 133:/usr/include/c++/10/bits/basic_ios.h ****        *  See std::ios_base::iostate for the possible bit values.  Most
 134:/usr/include/c++/10/bits/basic_ios.h ****        *  users will call one of the interpreting wrappers, e.g., good().
 135:/usr/include/c++/10/bits/basic_ios.h ****       */
 136:/usr/include/c++/10/bits/basic_ios.h ****       iostate
 137:/usr/include/c++/10/bits/basic_ios.h ****       rdstate() const
 138:/usr/include/c++/10/bits/basic_ios.h ****       { return _M_streambuf_state; }
 139:/usr/include/c++/10/bits/basic_ios.h **** 
 140:/usr/include/c++/10/bits/basic_ios.h ****       /**
 141:/usr/include/c++/10/bits/basic_ios.h ****        *  @brief  [Re]sets the error state.
 142:/usr/include/c++/10/bits/basic_ios.h ****        *  @param  __state  The new state flag(s) to set.
 143:/usr/include/c++/10/bits/basic_ios.h ****        *
 144:/usr/include/c++/10/bits/basic_ios.h ****        *  See std::ios_base::iostate for the possible bit values.  Most
 145:/usr/include/c++/10/bits/basic_ios.h ****        *  users will not need to pass an argument.
 146:/usr/include/c++/10/bits/basic_ios.h ****       */
 147:/usr/include/c++/10/bits/basic_ios.h ****       void
 148:/usr/include/c++/10/bits/basic_ios.h ****       clear(iostate __state = goodbit);
 149:/usr/include/c++/10/bits/basic_ios.h **** 
 150:/usr/include/c++/10/bits/basic_ios.h ****       /**
 151:/usr/include/c++/10/bits/basic_ios.h ****        *  @brief  Sets additional flags in the error state.
 152:/usr/include/c++/10/bits/basic_ios.h ****        *  @param  __state  The additional state flag(s) to set.
 153:/usr/include/c++/10/bits/basic_ios.h ****        *
 154:/usr/include/c++/10/bits/basic_ios.h ****        *  See std::ios_base::iostate for the possible bit values.
 155:/usr/include/c++/10/bits/basic_ios.h ****       */
 156:/usr/include/c++/10/bits/basic_ios.h ****       void
 157:/usr/include/c++/10/bits/basic_ios.h ****       setstate(iostate __state)
 158:/usr/include/c++/10/bits/basic_ios.h ****       { this->clear(this->rdstate() | __state); }
 159:/usr/include/c++/10/bits/basic_ios.h **** 
 160:/usr/include/c++/10/bits/basic_ios.h ****       // Flip the internal state on for the proper state bits, then
 161:/usr/include/c++/10/bits/basic_ios.h ****       // rethrows the propagated exception if bit also set in
 162:/usr/include/c++/10/bits/basic_ios.h ****       // exceptions().
 163:/usr/include/c++/10/bits/basic_ios.h ****       void
 164:/usr/include/c++/10/bits/basic_ios.h ****       _M_setstate(iostate __state)
 165:/usr/include/c++/10/bits/basic_ios.h ****       {
 166:/usr/include/c++/10/bits/basic_ios.h **** 	// 27.6.1.2.1 Common requirements.
 167:/usr/include/c++/10/bits/basic_ios.h **** 	// Turn this on without causing an ios::failure to be thrown.
 168:/usr/include/c++/10/bits/basic_ios.h **** 	_M_streambuf_state |= __state;
 169:/usr/include/c++/10/bits/basic_ios.h **** 	if (this->exceptions() & __state)
 170:/usr/include/c++/10/bits/basic_ios.h **** 	  __throw_exception_again;
 171:/usr/include/c++/10/bits/basic_ios.h ****       }
 172:/usr/include/c++/10/bits/basic_ios.h **** 
 173:/usr/include/c++/10/bits/basic_ios.h ****       /**
 174:/usr/include/c++/10/bits/basic_ios.h ****        *  @brief  Fast error checking.
 175:/usr/include/c++/10/bits/basic_ios.h ****        *  @return  True if no error flags are set.
 176:/usr/include/c++/10/bits/basic_ios.h ****        *
 177:/usr/include/c++/10/bits/basic_ios.h ****        *  A wrapper around rdstate.
AARCH64 GAS  obj/Chapter11_4.s 			page 45


 178:/usr/include/c++/10/bits/basic_ios.h ****       */
 179:/usr/include/c++/10/bits/basic_ios.h ****       bool
 180:/usr/include/c++/10/bits/basic_ios.h ****       good() const
 181:/usr/include/c++/10/bits/basic_ios.h ****       { return this->rdstate() == 0; }
 182:/usr/include/c++/10/bits/basic_ios.h **** 
 183:/usr/include/c++/10/bits/basic_ios.h ****       /**
 184:/usr/include/c++/10/bits/basic_ios.h ****        *  @brief  Fast error checking.
 185:/usr/include/c++/10/bits/basic_ios.h ****        *  @return  True if the eofbit is set.
 186:/usr/include/c++/10/bits/basic_ios.h ****        *
 187:/usr/include/c++/10/bits/basic_ios.h ****        *  Note that other iostate flags may also be set.
 188:/usr/include/c++/10/bits/basic_ios.h ****       */
 189:/usr/include/c++/10/bits/basic_ios.h ****       bool
 190:/usr/include/c++/10/bits/basic_ios.h ****       eof() const
 191:/usr/include/c++/10/bits/basic_ios.h ****       { return (this->rdstate() & eofbit) != 0; }
 192:/usr/include/c++/10/bits/basic_ios.h **** 
 193:/usr/include/c++/10/bits/basic_ios.h ****       /**
 194:/usr/include/c++/10/bits/basic_ios.h ****        *  @brief  Fast error checking.
 195:/usr/include/c++/10/bits/basic_ios.h ****        *  @return  True if either the badbit or the failbit is set.
 196:/usr/include/c++/10/bits/basic_ios.h ****        *
 197:/usr/include/c++/10/bits/basic_ios.h ****        *  Checking the badbit in fail() is historical practice.
 198:/usr/include/c++/10/bits/basic_ios.h ****        *  Note that other iostate flags may also be set.
 199:/usr/include/c++/10/bits/basic_ios.h ****       */
 200:/usr/include/c++/10/bits/basic_ios.h ****       bool
 201:/usr/include/c++/10/bits/basic_ios.h ****       fail() const
 202:/usr/include/c++/10/bits/basic_ios.h ****       { return (this->rdstate() & (badbit | failbit)) != 0; }
 203:/usr/include/c++/10/bits/basic_ios.h **** 
 204:/usr/include/c++/10/bits/basic_ios.h ****       /**
 205:/usr/include/c++/10/bits/basic_ios.h ****        *  @brief  Fast error checking.
 206:/usr/include/c++/10/bits/basic_ios.h ****        *  @return  True if the badbit is set.
 207:/usr/include/c++/10/bits/basic_ios.h ****        *
 208:/usr/include/c++/10/bits/basic_ios.h ****        *  Note that other iostate flags may also be set.
 209:/usr/include/c++/10/bits/basic_ios.h ****       */
 210:/usr/include/c++/10/bits/basic_ios.h ****       bool
 211:/usr/include/c++/10/bits/basic_ios.h ****       bad() const
 212:/usr/include/c++/10/bits/basic_ios.h ****       { return (this->rdstate() & badbit) != 0; }
 213:/usr/include/c++/10/bits/basic_ios.h **** 
 214:/usr/include/c++/10/bits/basic_ios.h ****       /**
 215:/usr/include/c++/10/bits/basic_ios.h ****        *  @brief  Throwing exceptions on errors.
 216:/usr/include/c++/10/bits/basic_ios.h ****        *  @return  The current exceptions mask.
 217:/usr/include/c++/10/bits/basic_ios.h ****        *
 218:/usr/include/c++/10/bits/basic_ios.h ****        *  This changes nothing in the stream.  See the one-argument version
 219:/usr/include/c++/10/bits/basic_ios.h ****        *  of exceptions(iostate) for the meaning of the return value.
 220:/usr/include/c++/10/bits/basic_ios.h ****       */
 221:/usr/include/c++/10/bits/basic_ios.h ****       iostate
 222:/usr/include/c++/10/bits/basic_ios.h ****       exceptions() const
 223:/usr/include/c++/10/bits/basic_ios.h ****       { return _M_exception; }
 224:/usr/include/c++/10/bits/basic_ios.h **** 
 225:/usr/include/c++/10/bits/basic_ios.h ****       /**
 226:/usr/include/c++/10/bits/basic_ios.h ****        *  @brief  Throwing exceptions on errors.
 227:/usr/include/c++/10/bits/basic_ios.h ****        *  @param  __except  The new exceptions mask.
 228:/usr/include/c++/10/bits/basic_ios.h ****        *
 229:/usr/include/c++/10/bits/basic_ios.h ****        *  By default, error flags are set silently.  You can set an
 230:/usr/include/c++/10/bits/basic_ios.h ****        *  exceptions mask for each stream; if a bit in the mask becomes set
 231:/usr/include/c++/10/bits/basic_ios.h ****        *  in the error flags, then an exception of type
 232:/usr/include/c++/10/bits/basic_ios.h ****        *  std::ios_base::failure is thrown.
 233:/usr/include/c++/10/bits/basic_ios.h ****        *
 234:/usr/include/c++/10/bits/basic_ios.h ****        *  If the error flag is already set when the exceptions mask is
AARCH64 GAS  obj/Chapter11_4.s 			page 46


 235:/usr/include/c++/10/bits/basic_ios.h ****        *  added, the exception is immediately thrown.  Try running the
 236:/usr/include/c++/10/bits/basic_ios.h ****        *  following under GCC 3.1 or later:
 237:/usr/include/c++/10/bits/basic_ios.h ****        *  @code
 238:/usr/include/c++/10/bits/basic_ios.h ****        *  #include <iostream>
 239:/usr/include/c++/10/bits/basic_ios.h ****        *  #include <fstream>
 240:/usr/include/c++/10/bits/basic_ios.h ****        *  #include <exception>
 241:/usr/include/c++/10/bits/basic_ios.h ****        *
 242:/usr/include/c++/10/bits/basic_ios.h ****        *  int main()
 243:/usr/include/c++/10/bits/basic_ios.h ****        *  {
 244:/usr/include/c++/10/bits/basic_ios.h ****        *      std::set_terminate (__gnu_cxx::__verbose_terminate_handler);
 245:/usr/include/c++/10/bits/basic_ios.h ****        *
 246:/usr/include/c++/10/bits/basic_ios.h ****        *      std::ifstream f ("/etc/motd");
 247:/usr/include/c++/10/bits/basic_ios.h ****        *
 248:/usr/include/c++/10/bits/basic_ios.h ****        *      std::cerr << "Setting badbit\n";
 249:/usr/include/c++/10/bits/basic_ios.h ****        *      f.setstate (std::ios_base::badbit);
 250:/usr/include/c++/10/bits/basic_ios.h ****        *
 251:/usr/include/c++/10/bits/basic_ios.h ****        *      std::cerr << "Setting exception mask\n";
 252:/usr/include/c++/10/bits/basic_ios.h ****        *      f.exceptions (std::ios_base::badbit);
 253:/usr/include/c++/10/bits/basic_ios.h ****        *  }
 254:/usr/include/c++/10/bits/basic_ios.h ****        *  @endcode
 255:/usr/include/c++/10/bits/basic_ios.h ****       */
 256:/usr/include/c++/10/bits/basic_ios.h ****       void
 257:/usr/include/c++/10/bits/basic_ios.h ****       exceptions(iostate __except)
 258:/usr/include/c++/10/bits/basic_ios.h ****       {
 259:/usr/include/c++/10/bits/basic_ios.h ****         _M_exception = __except;
 260:/usr/include/c++/10/bits/basic_ios.h ****         this->clear(_M_streambuf_state);
 261:/usr/include/c++/10/bits/basic_ios.h ****       }
 262:/usr/include/c++/10/bits/basic_ios.h **** 
 263:/usr/include/c++/10/bits/basic_ios.h ****       // Constructor/destructor:
 264:/usr/include/c++/10/bits/basic_ios.h ****       /**
 265:/usr/include/c++/10/bits/basic_ios.h ****        *  @brief  Constructor performs initialization.
 266:/usr/include/c++/10/bits/basic_ios.h ****        *
 267:/usr/include/c++/10/bits/basic_ios.h ****        *  The parameter is passed by derived streams.
 268:/usr/include/c++/10/bits/basic_ios.h ****       */
 269:/usr/include/c++/10/bits/basic_ios.h ****       explicit
 270:/usr/include/c++/10/bits/basic_ios.h ****       basic_ios(basic_streambuf<_CharT, _Traits>* __sb)
 271:/usr/include/c++/10/bits/basic_ios.h ****       : ios_base(), _M_tie(0), _M_fill(), _M_fill_init(false), _M_streambuf(0),
 272:/usr/include/c++/10/bits/basic_ios.h **** 	_M_ctype(0), _M_num_put(0), _M_num_get(0)
 273:/usr/include/c++/10/bits/basic_ios.h ****       { this->init(__sb); }
 274:/usr/include/c++/10/bits/basic_ios.h **** 
 275:/usr/include/c++/10/bits/basic_ios.h ****       /**
 276:/usr/include/c++/10/bits/basic_ios.h ****        *  @brief  Empty.
 277:/usr/include/c++/10/bits/basic_ios.h ****        *
 278:/usr/include/c++/10/bits/basic_ios.h ****        *  The destructor does nothing.  More specifically, it does not
 279:/usr/include/c++/10/bits/basic_ios.h ****        *  destroy the streambuf held by rdbuf().
 280:/usr/include/c++/10/bits/basic_ios.h ****       */
 281:/usr/include/c++/10/bits/basic_ios.h ****       virtual
 282:/usr/include/c++/10/bits/basic_ios.h ****       ~basic_ios() { }
 283:/usr/include/c++/10/bits/basic_ios.h **** 
 284:/usr/include/c++/10/bits/basic_ios.h ****       // Members:
 285:/usr/include/c++/10/bits/basic_ios.h ****       /**
 286:/usr/include/c++/10/bits/basic_ios.h ****        *  @brief  Fetches the current @e tied stream.
 287:/usr/include/c++/10/bits/basic_ios.h ****        *  @return  A pointer to the tied stream, or NULL if the stream is
 288:/usr/include/c++/10/bits/basic_ios.h ****        *           not tied.
 289:/usr/include/c++/10/bits/basic_ios.h ****        *
 290:/usr/include/c++/10/bits/basic_ios.h ****        *  A stream may be @e tied (or synchronized) to a second output
 291:/usr/include/c++/10/bits/basic_ios.h ****        *  stream.  When this stream performs any I/O, the tied stream is
AARCH64 GAS  obj/Chapter11_4.s 			page 47


 292:/usr/include/c++/10/bits/basic_ios.h ****        *  first flushed.  For example, @c std::cin is tied to @c std::cout.
 293:/usr/include/c++/10/bits/basic_ios.h ****       */
 294:/usr/include/c++/10/bits/basic_ios.h ****       basic_ostream<_CharT, _Traits>*
 295:/usr/include/c++/10/bits/basic_ios.h ****       tie() const
 296:/usr/include/c++/10/bits/basic_ios.h ****       { return _M_tie; }
 297:/usr/include/c++/10/bits/basic_ios.h **** 
 298:/usr/include/c++/10/bits/basic_ios.h ****       /**
 299:/usr/include/c++/10/bits/basic_ios.h ****        *  @brief  Ties this stream to an output stream.
 300:/usr/include/c++/10/bits/basic_ios.h ****        *  @param  __tiestr  The output stream.
 301:/usr/include/c++/10/bits/basic_ios.h ****        *  @return  The previously tied output stream, or NULL if the stream
 302:/usr/include/c++/10/bits/basic_ios.h ****        *           was not tied.
 303:/usr/include/c++/10/bits/basic_ios.h ****        *
 304:/usr/include/c++/10/bits/basic_ios.h ****        *  This sets up a new tie; see tie() for more.
 305:/usr/include/c++/10/bits/basic_ios.h ****       */
 306:/usr/include/c++/10/bits/basic_ios.h ****       basic_ostream<_CharT, _Traits>*
 307:/usr/include/c++/10/bits/basic_ios.h ****       tie(basic_ostream<_CharT, _Traits>* __tiestr)
 308:/usr/include/c++/10/bits/basic_ios.h ****       {
 309:/usr/include/c++/10/bits/basic_ios.h ****         basic_ostream<_CharT, _Traits>* __old = _M_tie;
 310:/usr/include/c++/10/bits/basic_ios.h ****         _M_tie = __tiestr;
 311:/usr/include/c++/10/bits/basic_ios.h ****         return __old;
 312:/usr/include/c++/10/bits/basic_ios.h ****       }
 313:/usr/include/c++/10/bits/basic_ios.h **** 
 314:/usr/include/c++/10/bits/basic_ios.h ****       /**
 315:/usr/include/c++/10/bits/basic_ios.h ****        *  @brief  Accessing the underlying buffer.
 316:/usr/include/c++/10/bits/basic_ios.h ****        *  @return  The current stream buffer.
 317:/usr/include/c++/10/bits/basic_ios.h ****        *
 318:/usr/include/c++/10/bits/basic_ios.h ****        *  This does not change the state of the stream.
 319:/usr/include/c++/10/bits/basic_ios.h ****       */
 320:/usr/include/c++/10/bits/basic_ios.h ****       basic_streambuf<_CharT, _Traits>*
 321:/usr/include/c++/10/bits/basic_ios.h ****       rdbuf() const
 322:/usr/include/c++/10/bits/basic_ios.h ****       { return _M_streambuf; }
 323:/usr/include/c++/10/bits/basic_ios.h **** 
 324:/usr/include/c++/10/bits/basic_ios.h ****       /**
 325:/usr/include/c++/10/bits/basic_ios.h ****        *  @brief  Changing the underlying buffer.
 326:/usr/include/c++/10/bits/basic_ios.h ****        *  @param  __sb  The new stream buffer.
 327:/usr/include/c++/10/bits/basic_ios.h ****        *  @return  The previous stream buffer.
 328:/usr/include/c++/10/bits/basic_ios.h ****        *
 329:/usr/include/c++/10/bits/basic_ios.h ****        *  Associates a new buffer with the current stream, and clears the
 330:/usr/include/c++/10/bits/basic_ios.h ****        *  error state.
 331:/usr/include/c++/10/bits/basic_ios.h ****        *
 332:/usr/include/c++/10/bits/basic_ios.h ****        *  Due to historical accidents which the LWG refuses to correct, the
 333:/usr/include/c++/10/bits/basic_ios.h ****        *  I/O library suffers from a design error:  this function is hidden
 334:/usr/include/c++/10/bits/basic_ios.h ****        *  in derived classes by overrides of the zero-argument @c rdbuf(),
 335:/usr/include/c++/10/bits/basic_ios.h ****        *  which is non-virtual for hysterical raisins.  As a result, you
 336:/usr/include/c++/10/bits/basic_ios.h ****        *  must use explicit qualifications to access this function via any
 337:/usr/include/c++/10/bits/basic_ios.h ****        *  derived class.  For example:
 338:/usr/include/c++/10/bits/basic_ios.h ****        *
 339:/usr/include/c++/10/bits/basic_ios.h ****        *  @code
 340:/usr/include/c++/10/bits/basic_ios.h ****        *  std::fstream     foo;         // or some other derived type
 341:/usr/include/c++/10/bits/basic_ios.h ****        *  std::streambuf*  p = .....;
 342:/usr/include/c++/10/bits/basic_ios.h ****        *
 343:/usr/include/c++/10/bits/basic_ios.h ****        *  foo.ios::rdbuf(p);            // ios == basic_ios<char>
 344:/usr/include/c++/10/bits/basic_ios.h ****        *  @endcode
 345:/usr/include/c++/10/bits/basic_ios.h ****       */
 346:/usr/include/c++/10/bits/basic_ios.h ****       basic_streambuf<_CharT, _Traits>*
 347:/usr/include/c++/10/bits/basic_ios.h ****       rdbuf(basic_streambuf<_CharT, _Traits>* __sb);
 348:/usr/include/c++/10/bits/basic_ios.h **** 
AARCH64 GAS  obj/Chapter11_4.s 			page 48


 349:/usr/include/c++/10/bits/basic_ios.h ****       /**
 350:/usr/include/c++/10/bits/basic_ios.h ****        *  @brief  Copies fields of __rhs into this.
 351:/usr/include/c++/10/bits/basic_ios.h ****        *  @param  __rhs  The source values for the copies.
 352:/usr/include/c++/10/bits/basic_ios.h ****        *  @return  Reference to this object.
 353:/usr/include/c++/10/bits/basic_ios.h ****        *
 354:/usr/include/c++/10/bits/basic_ios.h ****        *  All fields of __rhs are copied into this object except that rdbuf()
 355:/usr/include/c++/10/bits/basic_ios.h ****        *  and rdstate() remain unchanged.  All values in the pword and iword
 356:/usr/include/c++/10/bits/basic_ios.h ****        *  arrays are copied.  Before copying, each callback is invoked with
 357:/usr/include/c++/10/bits/basic_ios.h ****        *  erase_event.  After copying, each (new) callback is invoked with
 358:/usr/include/c++/10/bits/basic_ios.h ****        *  copyfmt_event.  The final step is to copy exceptions().
 359:/usr/include/c++/10/bits/basic_ios.h ****       */
 360:/usr/include/c++/10/bits/basic_ios.h ****       basic_ios&
 361:/usr/include/c++/10/bits/basic_ios.h ****       copyfmt(const basic_ios& __rhs);
 362:/usr/include/c++/10/bits/basic_ios.h **** 
 363:/usr/include/c++/10/bits/basic_ios.h ****       /**
 364:/usr/include/c++/10/bits/basic_ios.h ****        *  @brief  Retrieves the @a empty character.
 365:/usr/include/c++/10/bits/basic_ios.h ****        *  @return  The current fill character.
 366:/usr/include/c++/10/bits/basic_ios.h ****        *
 367:/usr/include/c++/10/bits/basic_ios.h ****        *  It defaults to a space (' ') in the current locale.
 368:/usr/include/c++/10/bits/basic_ios.h ****       */
 369:/usr/include/c++/10/bits/basic_ios.h ****       char_type
 370:/usr/include/c++/10/bits/basic_ios.h ****       fill() const
 371:/usr/include/c++/10/bits/basic_ios.h ****       {
 372:/usr/include/c++/10/bits/basic_ios.h **** 	if (!_M_fill_init)
 373:/usr/include/c++/10/bits/basic_ios.h **** 	  {
 374:/usr/include/c++/10/bits/basic_ios.h **** 	    _M_fill = this->widen(' ');
 375:/usr/include/c++/10/bits/basic_ios.h **** 	    _M_fill_init = true;
 376:/usr/include/c++/10/bits/basic_ios.h **** 	  }
 377:/usr/include/c++/10/bits/basic_ios.h **** 	return _M_fill;
 378:/usr/include/c++/10/bits/basic_ios.h ****       }
 379:/usr/include/c++/10/bits/basic_ios.h **** 
 380:/usr/include/c++/10/bits/basic_ios.h ****       /**
 381:/usr/include/c++/10/bits/basic_ios.h ****        *  @brief  Sets a new @a empty character.
 382:/usr/include/c++/10/bits/basic_ios.h ****        *  @param  __ch  The new character.
 383:/usr/include/c++/10/bits/basic_ios.h ****        *  @return  The previous fill character.
 384:/usr/include/c++/10/bits/basic_ios.h ****        *
 385:/usr/include/c++/10/bits/basic_ios.h ****        *  The fill character is used to fill out space when P+ characters
 386:/usr/include/c++/10/bits/basic_ios.h ****        *  have been requested (e.g., via setw), Q characters are actually
 387:/usr/include/c++/10/bits/basic_ios.h ****        *  used, and Q<P.  It defaults to a space (' ') in the current locale.
 388:/usr/include/c++/10/bits/basic_ios.h ****       */
 389:/usr/include/c++/10/bits/basic_ios.h ****       char_type
 390:/usr/include/c++/10/bits/basic_ios.h ****       fill(char_type __ch)
 391:/usr/include/c++/10/bits/basic_ios.h ****       {
 392:/usr/include/c++/10/bits/basic_ios.h **** 	char_type __old = this->fill();
 393:/usr/include/c++/10/bits/basic_ios.h **** 	_M_fill = __ch;
 394:/usr/include/c++/10/bits/basic_ios.h **** 	return __old;
 395:/usr/include/c++/10/bits/basic_ios.h ****       }
 396:/usr/include/c++/10/bits/basic_ios.h **** 
 397:/usr/include/c++/10/bits/basic_ios.h ****       // Locales:
 398:/usr/include/c++/10/bits/basic_ios.h ****       /**
 399:/usr/include/c++/10/bits/basic_ios.h ****        *  @brief  Moves to a new locale.
 400:/usr/include/c++/10/bits/basic_ios.h ****        *  @param  __loc  The new locale.
 401:/usr/include/c++/10/bits/basic_ios.h ****        *  @return  The previous locale.
 402:/usr/include/c++/10/bits/basic_ios.h ****        *
 403:/usr/include/c++/10/bits/basic_ios.h ****        *  Calls @c ios_base::imbue(loc), and if a stream buffer is associated
 404:/usr/include/c++/10/bits/basic_ios.h ****        *  with this stream, calls that buffer's @c pubimbue(loc).
 405:/usr/include/c++/10/bits/basic_ios.h ****        *
AARCH64 GAS  obj/Chapter11_4.s 			page 49


 406:/usr/include/c++/10/bits/basic_ios.h ****        *  Additional l10n notes are at
 407:/usr/include/c++/10/bits/basic_ios.h ****        *  http://gcc.gnu.org/onlinedocs/libstdc++/manual/localization.html
 408:/usr/include/c++/10/bits/basic_ios.h ****       */
 409:/usr/include/c++/10/bits/basic_ios.h ****       locale
 410:/usr/include/c++/10/bits/basic_ios.h ****       imbue(const locale& __loc);
 411:/usr/include/c++/10/bits/basic_ios.h **** 
 412:/usr/include/c++/10/bits/basic_ios.h ****       /**
 413:/usr/include/c++/10/bits/basic_ios.h ****        *  @brief  Squeezes characters.
 414:/usr/include/c++/10/bits/basic_ios.h ****        *  @param  __c  The character to narrow.
 415:/usr/include/c++/10/bits/basic_ios.h ****        *  @param  __dfault  The character to narrow.
 416:/usr/include/c++/10/bits/basic_ios.h ****        *  @return  The narrowed character.
 417:/usr/include/c++/10/bits/basic_ios.h ****        *
 418:/usr/include/c++/10/bits/basic_ios.h ****        *  Maps a character of @c char_type to a character of @c char,
 419:/usr/include/c++/10/bits/basic_ios.h ****        *  if possible.
 420:/usr/include/c++/10/bits/basic_ios.h ****        *
 421:/usr/include/c++/10/bits/basic_ios.h ****        *  Returns the result of
 422:/usr/include/c++/10/bits/basic_ios.h ****        *  @code
 423:/usr/include/c++/10/bits/basic_ios.h ****        *    std::use_facet<ctype<char_type> >(getloc()).narrow(c,dfault)
 424:/usr/include/c++/10/bits/basic_ios.h ****        *  @endcode
 425:/usr/include/c++/10/bits/basic_ios.h ****        *
 426:/usr/include/c++/10/bits/basic_ios.h ****        *  Additional l10n notes are at
 427:/usr/include/c++/10/bits/basic_ios.h ****        *  http://gcc.gnu.org/onlinedocs/libstdc++/manual/localization.html
 428:/usr/include/c++/10/bits/basic_ios.h ****       */
 429:/usr/include/c++/10/bits/basic_ios.h ****       char
 430:/usr/include/c++/10/bits/basic_ios.h ****       narrow(char_type __c, char __dfault) const
 431:/usr/include/c++/10/bits/basic_ios.h ****       { return __check_facet(_M_ctype).narrow(__c, __dfault); }
 432:/usr/include/c++/10/bits/basic_ios.h **** 
 433:/usr/include/c++/10/bits/basic_ios.h ****       /**
 434:/usr/include/c++/10/bits/basic_ios.h ****        *  @brief  Widens characters.
 435:/usr/include/c++/10/bits/basic_ios.h ****        *  @param  __c  The character to widen.
 436:/usr/include/c++/10/bits/basic_ios.h ****        *  @return  The widened character.
 437:/usr/include/c++/10/bits/basic_ios.h ****        *
 438:/usr/include/c++/10/bits/basic_ios.h ****        *  Maps a character of @c char to a character of @c char_type.
 439:/usr/include/c++/10/bits/basic_ios.h ****        *
 440:/usr/include/c++/10/bits/basic_ios.h ****        *  Returns the result of
 441:/usr/include/c++/10/bits/basic_ios.h ****        *  @code
 442:/usr/include/c++/10/bits/basic_ios.h ****        *    std::use_facet<ctype<char_type> >(getloc()).widen(c)
 443:/usr/include/c++/10/bits/basic_ios.h ****        *  @endcode
 444:/usr/include/c++/10/bits/basic_ios.h ****        *
 445:/usr/include/c++/10/bits/basic_ios.h ****        *  Additional l10n notes are at
 446:/usr/include/c++/10/bits/basic_ios.h ****        *  http://gcc.gnu.org/onlinedocs/libstdc++/manual/localization.html
 447:/usr/include/c++/10/bits/basic_ios.h ****       */
 448:/usr/include/c++/10/bits/basic_ios.h ****       char_type
 449:/usr/include/c++/10/bits/basic_ios.h ****       widen(char __c) const
 122              		.loc 5 449 7 is_stmt 1 view .LVU27
 123              	.LBB85:
 124              	.LBI85:
  47:/usr/include/c++/10/bits/basic_ios.h ****     {
 125              		.loc 5 47 5 view .LVU28
 126              	.LBB86:
  49:/usr/include/c++/10/bits/basic_ios.h **** 	__throw_bad_cast();
 127              		.loc 5 49 7 is_stmt 0 view .LVU29
 128 0058 D40200B4 		cbz	x20, .L9
 129              	.LVL11:
  49:/usr/include/c++/10/bits/basic_ios.h **** 	__throw_bad_cast();
 130              		.loc 5 49 7 view .LVU30
 131              	.LBE86:
AARCH64 GAS  obj/Chapter11_4.s 			page 50


 132              	.LBE85:
 133              	.LBB88:
 134              	.LBI88:
 872:/usr/include/c++/10/bits/locale_facets.h ****       {
 135              		.loc 1 872 7 is_stmt 1 view .LVU31
 136              	.LBB89:
 874:/usr/include/c++/10/bits/locale_facets.h **** 	  return _M_widen[static_cast<unsigned char>(__c)];
 137              		.loc 1 874 2 view .LVU32
 138 005c 80E24039 		ldrb	w0, [x20, 56]
 139              	.LVL12:
 874:/usr/include/c++/10/bits/locale_facets.h **** 	  return _M_widen[static_cast<unsigned char>(__c)];
 140              		.loc 1 874 2 is_stmt 0 view .LVU33
 141 0060 E0000034 		cbz	w0, .L5
 875:/usr/include/c++/10/bits/locale_facets.h **** 	this->_M_widen_init();
 142              		.loc 1 875 4 is_stmt 1 view .LVU34
 875:/usr/include/c++/10/bits/locale_facets.h **** 	this->_M_widen_init();
 143              		.loc 1 875 51 is_stmt 0 view .LVU35
 144 0064 810E4139 		ldrb	w1, [x20, 67]
 145              	.LVL13:
 146              	.L6:
 875:/usr/include/c++/10/bits/locale_facets.h **** 	this->_M_widen_init();
 147              		.loc 1 875 51 view .LVU36
 148              	.LBE89:
 149              	.LBE88:
 150              	.LBE84:
 151              		.loc 3 682 19 view .LVU37
 152 0068 E00313AA 		mov	x0, x19
 153 006c 00000094 		bl	_ZNSo3putEc
 154              	.LVL14:
 155              	.LBB95:
 156              	.LBI95:
 683:/usr/include/c++/10/ostream **** 
 684:/usr/include/c++/10/ostream ****   /**
 685:/usr/include/c++/10/ostream ****    *  @brief  Write a null character into the output sequence.
 686:/usr/include/c++/10/ostream ****    *
 687:/usr/include/c++/10/ostream ****    *  <em>Null character</em> is @c CharT() by definition.  For CharT
 688:/usr/include/c++/10/ostream ****    *  of @c char, this correctly writes the ASCII @c NUL character
 689:/usr/include/c++/10/ostream ****    *  string terminator.
 690:/usr/include/c++/10/ostream ****   */
 691:/usr/include/c++/10/ostream ****   template<typename _CharT, typename _Traits>
 692:/usr/include/c++/10/ostream ****     inline basic_ostream<_CharT, _Traits>&
 693:/usr/include/c++/10/ostream ****     ends(basic_ostream<_CharT, _Traits>& __os)
 694:/usr/include/c++/10/ostream ****     { return __os.put(_CharT()); }
 695:/usr/include/c++/10/ostream **** 
 696:/usr/include/c++/10/ostream ****   /**
 697:/usr/include/c++/10/ostream ****    *  @brief  Flushes the output stream.
 698:/usr/include/c++/10/ostream ****    *
 699:/usr/include/c++/10/ostream ****    *  This manipulator simply calls the stream's @c flush() member function.
 700:/usr/include/c++/10/ostream ****   */
 701:/usr/include/c++/10/ostream ****   template<typename _CharT, typename _Traits>
 702:/usr/include/c++/10/ostream ****     inline basic_ostream<_CharT, _Traits>&
 703:/usr/include/c++/10/ostream ****     flush(basic_ostream<_CharT, _Traits>& __os)
 157              		.loc 3 703 5 is_stmt 1 view .LVU38
 158              	.LBE95:
 159              	.LBE83:
 160              	.LBE82:
 161              	.LBE81:
AARCH64 GAS  obj/Chapter11_4.s 			page 51


  14:Chapter11_4.cpp **** }
 162              		.loc 2 14 1 is_stmt 0 view .LVU39
 163 0070 F35341A9 		ldp	x19, x20, [sp, 16]
 164              	.LVL15:
 165              		.loc 2 14 1 view .LVU40
 166 0074 FD7BC2A8 		ldp	x29, x30, [sp], 32
 167              		.cfi_remember_state
 168              		.cfi_restore 30
 169              		.cfi_restore 29
 170              		.cfi_restore 19
 171              		.cfi_restore 20
 172              		.cfi_def_cfa_offset 0
 173              	.LBB101:
 174              	.LBB100:
 175              	.LBB99:
 176              	.LBB97:
 177              	.LBB96:
 704:/usr/include/c++/10/ostream ****     { return __os.flush(); }
 178              		.loc 3 704 24 view .LVU41
 179 0078 00000014 		b	_ZNSo5flushEv
 180              	.LVL16:
 181              		.p2align 2,,3
 182              	.L5:
 183              		.cfi_restore_state
 184              		.loc 3 704 24 view .LVU42
 185              	.LBE96:
 186              	.LBE97:
 187              	.LBB98:
 188              	.LBB93:
 189              	.LBB92:
 190              	.LBB90:
 191              	.LBI90:
 872:/usr/include/c++/10/bits/locale_facets.h ****       {
 192              		.loc 1 872 7 is_stmt 1 view .LVU43
 193              	.LBB91:
 876:/usr/include/c++/10/bits/locale_facets.h **** 	return this->do_widen(__c);
 194              		.loc 1 876 2 view .LVU44
 876:/usr/include/c++/10/bits/locale_facets.h **** 	return this->do_widen(__c);
 195              		.loc 1 876 21 is_stmt 0 view .LVU45
 196 007c E00314AA 		mov	x0, x20
 197 0080 00000094 		bl	_ZNKSt5ctypeIcE13_M_widen_initEv
 198              	.LVL17:
 877:/usr/include/c++/10/bits/locale_facets.h ****       }
 199              		.loc 1 877 2 is_stmt 1 view .LVU46
 877:/usr/include/c++/10/bits/locale_facets.h ****       }
 200              		.loc 1 877 27 is_stmt 0 view .LVU47
 201 0084 820240F9 		ldr	x2, [x20]
 202 0088 00000090 		adrp	x0, _ZNKSt5ctypeIcE8do_widenEc
 203 008c 00000091 		add	x0, x0, :lo12:_ZNKSt5ctypeIcE8do_widenEc
 204 0090 41018052 		mov	w1, 10
 205 0094 421840F9 		ldr	x2, [x2, 48]
 206 0098 5F0000EB 		cmp	x2, x0
 207 009c 60FEFF54 		beq	.L6
 877:/usr/include/c++/10/bits/locale_facets.h ****       }
 208              		.loc 1 877 23 view .LVU48
 209 00a0 E00314AA 		mov	x0, x20
 210 00a4 40003FD6 		blr	x2
AARCH64 GAS  obj/Chapter11_4.s 			page 52


 211              	.LVL18:
 212 00a8 011C0012 		and	w1, w0, 255
 213 00ac EFFFFF17 		b	.L6
 214              	.LVL19:
 215              	.L9:
 877:/usr/include/c++/10/bits/locale_facets.h ****       }
 216              		.loc 1 877 23 view .LVU49
 217              	.LBE91:
 218              	.LBE90:
 219              	.LBE92:
 220              	.LBE93:
 221              	.LBB94:
 222              	.LBB87:
  50:/usr/include/c++/10/bits/basic_ios.h ****       return *__f;
 223              		.loc 5 50 18 view .LVU50
 224 00b0 00000094 		bl	_ZSt16__throw_bad_castv
 225              	.LVL20:
  50:/usr/include/c++/10/bits/basic_ios.h ****       return *__f;
 226              		.loc 5 50 18 view .LVU51
 227              	.LBE87:
 228              	.LBE94:
 229              	.LBE98:
 230              	.LBE99:
 231              	.LBE100:
 232              	.LBE101:
 233              		.cfi_endproc
 234              	.LFE1587:
 235              		.size	_Z13ldrInstrTest1v, .-_Z13ldrInstrTest1v
 236              		.section	.rodata.str1.8
 237 0011 00000000 		.align	3
 237      000000
 238              	.LC1:
 239 0018 6C647249 		.string	"ldrInstrTest2() "
 239      6E737472 
 239      54657374 
 239      32282920 
 239      00
 240              		.text
 241              		.align	2
 242              		.p2align 4,,11
 243              		.global	_Z13ldrInstrTest2v
 244              		.type	_Z13ldrInstrTest2v, %function
 245              	_Z13ldrInstrTest2v:
 246              	.LFB1588:
  15:Chapter11_4.cpp **** void ldrInstrTest2()
  16:Chapter11_4.cpp **** {
 247              		.loc 2 16 1 is_stmt 1 view -0
 248              		.cfi_startproc
  17:Chapter11_4.cpp ****  unsigned int i = 1;
 249              		.loc 2 17 2 view .LVU53
 250              	.LVL21:
  18:Chapter11_4.cpp ****  unsigned long j = 3;
 251              		.loc 2 18 2 view .LVU54
  19:Chapter11_4.cpp ****  long result2 = ldrInstrTest2_(i,j);
 252              		.loc 2 19 2 view .LVU55
  16:Chapter11_4.cpp ****  unsigned int i = 1;
 253              		.loc 2 16 1 is_stmt 0 view .LVU56
AARCH64 GAS  obj/Chapter11_4.s 			page 53


 254 00b4 FD7BBEA9 		stp	x29, x30, [sp, -32]!
 255              		.cfi_def_cfa_offset 32
 256              		.cfi_offset 29, -32
 257              		.cfi_offset 30, -24
 258              		.loc 2 19 31 view .LVU57
 259 00b8 610080D2 		mov	x1, 3
 260 00bc 20008052 		mov	w0, 1
  16:Chapter11_4.cpp ****  unsigned int i = 1;
 261              		.loc 2 16 1 view .LVU58
 262 00c0 FD030091 		mov	x29, sp
 263 00c4 F35301A9 		stp	x19, x20, [sp, 16]
 264              		.cfi_offset 19, -16
 265              		.cfi_offset 20, -8
 266              	.LBB122:
 267              	.LBB123:
 611:/usr/include/c++/10/ostream **** 			 static_cast<streamsize>(_Traits::length(__s)));
 268              		.loc 3 611 18 view .LVU59
 269 00c8 13000090 		adrp	x19, :got:_ZSt4cout
 270              	.LBE123:
 271              	.LBE122:
 272              		.loc 2 19 31 view .LVU60
 273 00cc 00000094 		bl	ldrInstrTest2_
 274              	.LVL22:
 275              	.LBB126:
 276              	.LBB124:
 611:/usr/include/c++/10/ostream **** 			 static_cast<streamsize>(_Traits::length(__s)));
 277              		.loc 3 611 18 view .LVU61
 278 00d0 730240F9 		ldr	x19, [x19, #:got_lo12:_ZSt4cout]
 279 00d4 020280D2 		mov	x2, 16
 280              	.LBE124:
 281              	.LBE126:
 282              		.loc 2 19 31 view .LVU62
 283 00d8 F40300AA 		mov	x20, x0
 284              	.LVL23:
  20:Chapter11_4.cpp ****  cout<<"ldrInstrTest2() "<<result2 <<endl;
 285              		.loc 2 20 2 is_stmt 1 view .LVU63
 286              	.LBB127:
 287              	.LBI122:
 606:/usr/include/c++/10/ostream ****     {
 288              		.loc 3 606 5 view .LVU64
 606:/usr/include/c++/10/ostream ****     {
 289              		.loc 3 606 5 is_stmt 0 view .LVU65
 290              	.LBE127:
 291              		.loc 4 364 2 is_stmt 1 view .LVU66
 292              	.LBB128:
 293              	.LBB125:
 611:/usr/include/c++/10/ostream **** 			 static_cast<streamsize>(_Traits::length(__s)));
 294              		.loc 3 611 18 is_stmt 0 view .LVU67
 295 00dc 01000090 		adrp	x1, .LC1
 296 00e0 E00313AA 		mov	x0, x19
 297              	.LVL24:
 611:/usr/include/c++/10/ostream **** 			 static_cast<streamsize>(_Traits::length(__s)));
 298              		.loc 3 611 18 view .LVU68
 299 00e4 21000091 		add	x1, x1, :lo12:.LC1
 300 00e8 00000094 		bl	_ZSt16__ostream_insertIcSt11char_traitsIcEERSt13basic_ostreamIT_T0_ES6_PKS3_l
 301              	.LVL25:
 611:/usr/include/c++/10/ostream **** 			 static_cast<streamsize>(_Traits::length(__s)));
AARCH64 GAS  obj/Chapter11_4.s 			page 54


 302              		.loc 3 611 18 view .LVU69
 303              	.LBE125:
 304              	.LBE128:
 305              	.LBB129:
 306              	.LBI129:
 166:/usr/include/c++/10/ostream ****       { return _M_insert(__n); }
 307              		.loc 3 166 7 is_stmt 1 view .LVU70
 308              	.LBB130:
 167:/usr/include/c++/10/ostream **** 
 309              		.loc 3 167 25 is_stmt 0 view .LVU71
 310 00ec E10314AA 		mov	x1, x20
 311 00f0 E00313AA 		mov	x0, x19
 312 00f4 00000094 		bl	_ZNSo9_M_insertIlEERSoT_
 313              	.LVL26:
 314 00f8 F30300AA 		mov	x19, x0
 315              	.LVL27:
 167:/usr/include/c++/10/ostream **** 
 316              		.loc 3 167 25 view .LVU72
 317              	.LBE130:
 318              	.LBE129:
 319              	.LBB131:
 320              	.LBI131:
 108:/usr/include/c++/10/ostream ****       {
 321              		.loc 3 108 7 is_stmt 1 view .LVU73
 322              	.LBB132:
 323              	.LBI132:
 681:/usr/include/c++/10/ostream ****     { return flush(__os.put(__os.widen('\n'))); }
 324              		.loc 3 681 5 view .LVU74
 325              	.LBB133:
 682:/usr/include/c++/10/ostream **** 
 326              		.loc 3 682 19 is_stmt 0 view .LVU75
 327 00fc 000040F9 		ldr	x0, [x0]
 328              	.LVL28:
 682:/usr/include/c++/10/ostream **** 
 329              		.loc 3 682 19 view .LVU76
 330 0100 00805EF8 		ldr	x0, [x0, -24]
 331 0104 6002008B 		add	x0, x19, x0
 332 0108 147840F9 		ldr	x20, [x0, 240]
 333              	.LVL29:
 334              	.LBB134:
 335              	.LBI134:
 336              		.loc 5 449 7 is_stmt 1 view .LVU77
 337              	.LBB135:
 338              	.LBI135:
  47:/usr/include/c++/10/bits/basic_ios.h ****     {
 339              		.loc 5 47 5 view .LVU78
 340              	.LBB136:
  49:/usr/include/c++/10/bits/basic_ios.h **** 	__throw_bad_cast();
 341              		.loc 5 49 7 is_stmt 0 view .LVU79
 342 010c D40200B4 		cbz	x20, .L16
 343              	.LVL30:
  49:/usr/include/c++/10/bits/basic_ios.h **** 	__throw_bad_cast();
 344              		.loc 5 49 7 view .LVU80
 345              	.LBE136:
 346              	.LBE135:
 347              	.LBB138:
 348              	.LBI138:
AARCH64 GAS  obj/Chapter11_4.s 			page 55


 872:/usr/include/c++/10/bits/locale_facets.h ****       {
 349              		.loc 1 872 7 is_stmt 1 view .LVU81
 350              	.LBB139:
 874:/usr/include/c++/10/bits/locale_facets.h **** 	  return _M_widen[static_cast<unsigned char>(__c)];
 351              		.loc 1 874 2 view .LVU82
 352 0110 80E24039 		ldrb	w0, [x20, 56]
 353              	.LVL31:
 874:/usr/include/c++/10/bits/locale_facets.h **** 	  return _M_widen[static_cast<unsigned char>(__c)];
 354              		.loc 1 874 2 is_stmt 0 view .LVU83
 355 0114 E0000034 		cbz	w0, .L12
 875:/usr/include/c++/10/bits/locale_facets.h **** 	this->_M_widen_init();
 356              		.loc 1 875 4 is_stmt 1 view .LVU84
 875:/usr/include/c++/10/bits/locale_facets.h **** 	this->_M_widen_init();
 357              		.loc 1 875 51 is_stmt 0 view .LVU85
 358 0118 810E4139 		ldrb	w1, [x20, 67]
 359              	.LVL32:
 360              	.L13:
 875:/usr/include/c++/10/bits/locale_facets.h **** 	this->_M_widen_init();
 361              		.loc 1 875 51 view .LVU86
 362              	.LBE139:
 363              	.LBE138:
 364              	.LBE134:
 682:/usr/include/c++/10/ostream **** 
 365              		.loc 3 682 19 view .LVU87
 366 011c E00313AA 		mov	x0, x19
 367 0120 00000094 		bl	_ZNSo3putEc
 368              	.LVL33:
 369              	.LBB145:
 370              	.LBI145:
 703:/usr/include/c++/10/ostream ****     { return __os.flush(); }
 371              		.loc 3 703 5 is_stmt 1 view .LVU88
 372              	.LBE145:
 373              	.LBE133:
 374              	.LBE132:
 375              	.LBE131:
  21:Chapter11_4.cpp **** }
 376              		.loc 2 21 1 is_stmt 0 view .LVU89
 377 0124 F35341A9 		ldp	x19, x20, [sp, 16]
 378              	.LVL34:
 379              		.loc 2 21 1 view .LVU90
 380 0128 FD7BC2A8 		ldp	x29, x30, [sp], 32
 381              		.cfi_remember_state
 382              		.cfi_restore 30
 383              		.cfi_restore 29
 384              		.cfi_restore 19
 385              		.cfi_restore 20
 386              		.cfi_def_cfa_offset 0
 387              	.LBB151:
 388              	.LBB150:
 389              	.LBB149:
 390              	.LBB147:
 391              	.LBB146:
 392              		.loc 3 704 24 view .LVU91
 393 012c 00000014 		b	_ZNSo5flushEv
 394              	.LVL35:
 395              		.p2align 2,,3
 396              	.L12:
AARCH64 GAS  obj/Chapter11_4.s 			page 56


 397              		.cfi_restore_state
 398              		.loc 3 704 24 view .LVU92
 399              	.LBE146:
 400              	.LBE147:
 401              	.LBB148:
 402              	.LBB143:
 403              	.LBB142:
 404              	.LBB140:
 405              	.LBI140:
 872:/usr/include/c++/10/bits/locale_facets.h ****       {
 406              		.loc 1 872 7 is_stmt 1 view .LVU93
 407              	.LBB141:
 876:/usr/include/c++/10/bits/locale_facets.h **** 	return this->do_widen(__c);
 408              		.loc 1 876 2 view .LVU94
 876:/usr/include/c++/10/bits/locale_facets.h **** 	return this->do_widen(__c);
 409              		.loc 1 876 21 is_stmt 0 view .LVU95
 410 0130 E00314AA 		mov	x0, x20
 411 0134 00000094 		bl	_ZNKSt5ctypeIcE13_M_widen_initEv
 412              	.LVL36:
 877:/usr/include/c++/10/bits/locale_facets.h ****       }
 413              		.loc 1 877 2 is_stmt 1 view .LVU96
 877:/usr/include/c++/10/bits/locale_facets.h ****       }
 414              		.loc 1 877 27 is_stmt 0 view .LVU97
 415 0138 820240F9 		ldr	x2, [x20]
 416 013c 00000090 		adrp	x0, _ZNKSt5ctypeIcE8do_widenEc
 417 0140 00000091 		add	x0, x0, :lo12:_ZNKSt5ctypeIcE8do_widenEc
 418 0144 41018052 		mov	w1, 10
 419 0148 421840F9 		ldr	x2, [x2, 48]
 420 014c 5F0000EB 		cmp	x2, x0
 421 0150 60FEFF54 		beq	.L13
 877:/usr/include/c++/10/bits/locale_facets.h ****       }
 422              		.loc 1 877 23 view .LVU98
 423 0154 E00314AA 		mov	x0, x20
 424 0158 40003FD6 		blr	x2
 425              	.LVL37:
 426 015c 011C0012 		and	w1, w0, 255
 427 0160 EFFFFF17 		b	.L13
 428              	.LVL38:
 429              	.L16:
 877:/usr/include/c++/10/bits/locale_facets.h ****       }
 430              		.loc 1 877 23 view .LVU99
 431              	.LBE141:
 432              	.LBE140:
 433              	.LBE142:
 434              	.LBE143:
 435              	.LBB144:
 436              	.LBB137:
  50:/usr/include/c++/10/bits/basic_ios.h ****       return *__f;
 437              		.loc 5 50 18 view .LVU100
 438 0164 00000094 		bl	_ZSt16__throw_bad_castv
 439              	.LVL39:
  50:/usr/include/c++/10/bits/basic_ios.h ****       return *__f;
 440              		.loc 5 50 18 view .LVU101
 441              	.LBE137:
 442              	.LBE144:
 443              	.LBE148:
 444              	.LBE149:
AARCH64 GAS  obj/Chapter11_4.s 			page 57


 445              	.LBE150:
 446              	.LBE151:
 447              		.cfi_endproc
 448              	.LFE1588:
 449              		.size	_Z13ldrInstrTest2v, .-_Z13ldrInstrTest2v
 450              		.section	.rodata.str1.8
 451 0029 00000000 		.align	3
 451      000000
 452              	.LC2:
 453 0030 6C647249 		.string	"ldrInstrTest3() "
 453      6E737472 
 453      54657374 
 453      33282920 
 453      00
 454              		.text
 455              		.align	2
 456 0168 1F2003D5 		.p2align 4,,11
 456      1F2003D5 
 457              		.global	_Z13ldrInstrTest3v
 458              		.type	_Z13ldrInstrTest3v, %function
 459              	_Z13ldrInstrTest3v:
 460              	.LFB1589:
  22:Chapter11_4.cpp **** void ldrInstrTest3()
  23:Chapter11_4.cpp **** {
 461              		.loc 2 23 1 is_stmt 1 view -0
 462              		.cfi_startproc
  24:Chapter11_4.cpp ****  unsigned int i = 0;
 463              		.loc 2 24 2 view .LVU103
 464              	.LVL40:
  25:Chapter11_4.cpp ****  unsigned long j = 4;
 465              		.loc 2 25 2 view .LVU104
  26:Chapter11_4.cpp ****  short result3 = ldrInstrTest3_(i,j);
 466              		.loc 2 26 2 view .LVU105
  23:Chapter11_4.cpp ****  unsigned int i = 0;
 467              		.loc 2 23 1 is_stmt 0 view .LVU106
 468 0170 FD7BBEA9 		stp	x29, x30, [sp, -32]!
 469              		.cfi_def_cfa_offset 32
 470              		.cfi_offset 29, -32
 471              		.cfi_offset 30, -24
 472              		.loc 2 26 32 view .LVU107
 473 0174 810080D2 		mov	x1, 4
 474 0178 00008052 		mov	w0, 0
  23:Chapter11_4.cpp ****  unsigned int i = 0;
 475              		.loc 2 23 1 view .LVU108
 476 017c FD030091 		mov	x29, sp
 477 0180 F35301A9 		stp	x19, x20, [sp, 16]
 478              		.cfi_offset 19, -16
 479              		.cfi_offset 20, -8
 480              	.LBB170:
 481              	.LBB171:
 611:/usr/include/c++/10/ostream **** 			 static_cast<streamsize>(_Traits::length(__s)));
 482              		.loc 3 611 18 view .LVU109
 483 0184 13000090 		adrp	x19, :got:_ZSt4cout
 484              	.LBE171:
 485              	.LBE170:
 486              		.loc 2 26 32 view .LVU110
 487 0188 00000094 		bl	ldrInstrTest3_
AARCH64 GAS  obj/Chapter11_4.s 			page 58


 488              	.LVL41:
 489              	.LBB174:
 490              	.LBB172:
 611:/usr/include/c++/10/ostream **** 			 static_cast<streamsize>(_Traits::length(__s)));
 491              		.loc 3 611 18 view .LVU111
 492 018c 730240F9 		ldr	x19, [x19, #:got_lo12:_ZSt4cout]
 493 0190 020280D2 		mov	x2, 16
 494              	.LBE172:
 495              	.LBE174:
 496              		.loc 2 26 32 view .LVU112
 497 0194 F403002A 		mov	w20, w0
 498              	.LVL42:
  27:Chapter11_4.cpp ****  cout<<"ldrInstrTest3() "<<result3 <<endl;
 499              		.loc 2 27 2 is_stmt 1 view .LVU113
 500              	.LBB175:
 501              	.LBI170:
 606:/usr/include/c++/10/ostream ****     {
 502              		.loc 3 606 5 view .LVU114
 606:/usr/include/c++/10/ostream ****     {
 503              		.loc 3 606 5 is_stmt 0 view .LVU115
 504              	.LBE175:
 505              		.loc 4 364 2 is_stmt 1 view .LVU116
 506              	.LBB176:
 507              	.LBB173:
 611:/usr/include/c++/10/ostream **** 			 static_cast<streamsize>(_Traits::length(__s)));
 508              		.loc 3 611 18 is_stmt 0 view .LVU117
 509 0198 01000090 		adrp	x1, .LC2
 510 019c E00313AA 		mov	x0, x19
 511              	.LVL43:
 611:/usr/include/c++/10/ostream **** 			 static_cast<streamsize>(_Traits::length(__s)));
 512              		.loc 3 611 18 view .LVU118
 513 01a0 21000091 		add	x1, x1, :lo12:.LC2
 514 01a4 00000094 		bl	_ZSt16__ostream_insertIcSt11char_traitsIcEERSt13basic_ostreamIT_T0_ES6_PKS3_l
 515              	.LVL44:
 611:/usr/include/c++/10/ostream **** 			 static_cast<streamsize>(_Traits::length(__s)));
 516              		.loc 3 611 18 view .LVU119
 517              	.LBE173:
 518              	.LBE176:
 519              		.loc 2 27 28 view .LVU120
 520 01a8 E103142A 		mov	w1, w20
 521 01ac E00313AA 		mov	x0, x19
 522 01b0 00000094 		bl	_ZNSolsEs
 523              	.LVL45:
 524 01b4 F30300AA 		mov	x19, x0
 525              	.LVL46:
 526              	.LBB177:
 527              	.LBI177:
 108:/usr/include/c++/10/ostream ****       {
 528              		.loc 3 108 7 is_stmt 1 view .LVU121
 529              	.LBB178:
 530              	.LBI178:
 681:/usr/include/c++/10/ostream ****     { return flush(__os.put(__os.widen('\n'))); }
 531              		.loc 3 681 5 view .LVU122
 532              	.LBB179:
 682:/usr/include/c++/10/ostream **** 
 533              		.loc 3 682 19 is_stmt 0 view .LVU123
 534 01b8 000040F9 		ldr	x0, [x0]
AARCH64 GAS  obj/Chapter11_4.s 			page 59


 535              	.LVL47:
 682:/usr/include/c++/10/ostream **** 
 536              		.loc 3 682 19 view .LVU124
 537 01bc 00805EF8 		ldr	x0, [x0, -24]
 538 01c0 6002008B 		add	x0, x19, x0
 539 01c4 147840F9 		ldr	x20, [x0, 240]
 540              	.LVL48:
 541              	.LBB180:
 542              	.LBI180:
 543              		.loc 5 449 7 is_stmt 1 view .LVU125
 544              	.LBB181:
 545              	.LBI181:
  47:/usr/include/c++/10/bits/basic_ios.h ****     {
 546              		.loc 5 47 5 view .LVU126
 547              	.LBB182:
  49:/usr/include/c++/10/bits/basic_ios.h **** 	__throw_bad_cast();
 548              		.loc 5 49 7 is_stmt 0 view .LVU127
 549 01c8 D40200B4 		cbz	x20, .L23
 550              	.LVL49:
  49:/usr/include/c++/10/bits/basic_ios.h **** 	__throw_bad_cast();
 551              		.loc 5 49 7 view .LVU128
 552              	.LBE182:
 553              	.LBE181:
 554              	.LBB184:
 555              	.LBI184:
 872:/usr/include/c++/10/bits/locale_facets.h ****       {
 556              		.loc 1 872 7 is_stmt 1 view .LVU129
 557              	.LBB185:
 874:/usr/include/c++/10/bits/locale_facets.h **** 	  return _M_widen[static_cast<unsigned char>(__c)];
 558              		.loc 1 874 2 view .LVU130
 559 01cc 80E24039 		ldrb	w0, [x20, 56]
 560              	.LVL50:
 874:/usr/include/c++/10/bits/locale_facets.h **** 	  return _M_widen[static_cast<unsigned char>(__c)];
 561              		.loc 1 874 2 is_stmt 0 view .LVU131
 562 01d0 E0000034 		cbz	w0, .L19
 875:/usr/include/c++/10/bits/locale_facets.h **** 	this->_M_widen_init();
 563              		.loc 1 875 4 is_stmt 1 view .LVU132
 875:/usr/include/c++/10/bits/locale_facets.h **** 	this->_M_widen_init();
 564              		.loc 1 875 51 is_stmt 0 view .LVU133
 565 01d4 810E4139 		ldrb	w1, [x20, 67]
 566              	.LVL51:
 567              	.L20:
 875:/usr/include/c++/10/bits/locale_facets.h **** 	this->_M_widen_init();
 568              		.loc 1 875 51 view .LVU134
 569              	.LBE185:
 570              	.LBE184:
 571              	.LBE180:
 682:/usr/include/c++/10/ostream **** 
 572              		.loc 3 682 19 view .LVU135
 573 01d8 E00313AA 		mov	x0, x19
 574 01dc 00000094 		bl	_ZNSo3putEc
 575              	.LVL52:
 576              	.LBB191:
 577              	.LBI191:
 703:/usr/include/c++/10/ostream ****     { return __os.flush(); }
 578              		.loc 3 703 5 is_stmt 1 view .LVU136
 579              	.LBE191:
AARCH64 GAS  obj/Chapter11_4.s 			page 60


 580              	.LBE179:
 581              	.LBE178:
 582              	.LBE177:
  28:Chapter11_4.cpp **** }
 583              		.loc 2 28 1 is_stmt 0 view .LVU137
 584 01e0 F35341A9 		ldp	x19, x20, [sp, 16]
 585              	.LVL53:
 586              		.loc 2 28 1 view .LVU138
 587 01e4 FD7BC2A8 		ldp	x29, x30, [sp], 32
 588              		.cfi_remember_state
 589              		.cfi_restore 30
 590              		.cfi_restore 29
 591              		.cfi_restore 19
 592              		.cfi_restore 20
 593              		.cfi_def_cfa_offset 0
 594              	.LBB197:
 595              	.LBB196:
 596              	.LBB195:
 597              	.LBB193:
 598              	.LBB192:
 599              		.loc 3 704 24 view .LVU139
 600 01e8 00000014 		b	_ZNSo5flushEv
 601              	.LVL54:
 602              		.p2align 2,,3
 603              	.L19:
 604              		.cfi_restore_state
 605              		.loc 3 704 24 view .LVU140
 606              	.LBE192:
 607              	.LBE193:
 608              	.LBB194:
 609              	.LBB189:
 610              	.LBB188:
 611              	.LBB186:
 612              	.LBI186:
 872:/usr/include/c++/10/bits/locale_facets.h ****       {
 613              		.loc 1 872 7 is_stmt 1 view .LVU141
 614              	.LBB187:
 876:/usr/include/c++/10/bits/locale_facets.h **** 	return this->do_widen(__c);
 615              		.loc 1 876 2 view .LVU142
 876:/usr/include/c++/10/bits/locale_facets.h **** 	return this->do_widen(__c);
 616              		.loc 1 876 21 is_stmt 0 view .LVU143
 617 01ec E00314AA 		mov	x0, x20
 618 01f0 00000094 		bl	_ZNKSt5ctypeIcE13_M_widen_initEv
 619              	.LVL55:
 877:/usr/include/c++/10/bits/locale_facets.h ****       }
 620              		.loc 1 877 2 is_stmt 1 view .LVU144
 877:/usr/include/c++/10/bits/locale_facets.h ****       }
 621              		.loc 1 877 27 is_stmt 0 view .LVU145
 622 01f4 820240F9 		ldr	x2, [x20]
 623 01f8 00000090 		adrp	x0, _ZNKSt5ctypeIcE8do_widenEc
 624 01fc 00000091 		add	x0, x0, :lo12:_ZNKSt5ctypeIcE8do_widenEc
 625 0200 41018052 		mov	w1, 10
 626 0204 421840F9 		ldr	x2, [x2, 48]
 627 0208 5F0000EB 		cmp	x2, x0
 628 020c 60FEFF54 		beq	.L20
 877:/usr/include/c++/10/bits/locale_facets.h ****       }
 629              		.loc 1 877 23 view .LVU146
AARCH64 GAS  obj/Chapter11_4.s 			page 61


 630 0210 E00314AA 		mov	x0, x20
 631 0214 40003FD6 		blr	x2
 632              	.LVL56:
 633 0218 011C0012 		and	w1, w0, 255
 634 021c EFFFFF17 		b	.L20
 635              	.LVL57:
 636              	.L23:
 877:/usr/include/c++/10/bits/locale_facets.h ****       }
 637              		.loc 1 877 23 view .LVU147
 638              	.LBE187:
 639              	.LBE186:
 640              	.LBE188:
 641              	.LBE189:
 642              	.LBB190:
 643              	.LBB183:
  50:/usr/include/c++/10/bits/basic_ios.h ****       return *__f;
 644              		.loc 5 50 18 view .LVU148
 645 0220 00000094 		bl	_ZSt16__throw_bad_castv
 646              	.LVL58:
  50:/usr/include/c++/10/bits/basic_ios.h ****       return *__f;
 647              		.loc 5 50 18 view .LVU149
 648              	.LBE183:
 649              	.LBE190:
 650              	.LBE194:
 651              	.LBE195:
 652              	.LBE196:
 653              	.LBE197:
 654              		.cfi_endproc
 655              	.LFE1589:
 656              		.size	_Z13ldrInstrTest3v, .-_Z13ldrInstrTest3v
 657              		.section	.text.startup,"ax",@progbits
 658              		.align	2
 659              		.p2align 4,,11
 660              		.global	main
 661              		.type	main, %function
 662              	main:
 663              	.LVL59:
 664              	.LFB1590:
  29:Chapter11_4.cpp **** 
  30:Chapter11_4.cpp **** int main(int argc,char** argv){
 665              		.loc 2 30 31 is_stmt 1 view -0
 666              		.cfi_startproc
  31:Chapter11_4.cpp ****  ldrInstrTest1();
 667              		.loc 2 31 2 view .LVU151
  30:Chapter11_4.cpp ****  ldrInstrTest1();
 668              		.loc 2 30 31 is_stmt 0 view .LVU152
 669 0000 FD7BBFA9 		stp	x29, x30, [sp, -16]!
 670              		.cfi_def_cfa_offset 16
 671              		.cfi_offset 29, -16
 672              		.cfi_offset 30, -8
 673 0004 FD030091 		mov	x29, sp
 674              		.loc 2 31 15 view .LVU153
 675 0008 00000094 		bl	_Z13ldrInstrTest1v
 676              	.LVL60:
  32:Chapter11_4.cpp ****  ldrInstrTest2();
 677              		.loc 2 32 2 is_stmt 1 view .LVU154
 678              		.loc 2 32 15 is_stmt 0 view .LVU155
AARCH64 GAS  obj/Chapter11_4.s 			page 62


 679 000c 00000094 		bl	_Z13ldrInstrTest2v
 680              	.LVL61:
  33:Chapter11_4.cpp ****  ldrInstrTest3();
 681              		.loc 2 33 2 is_stmt 1 view .LVU156
 682              		.loc 2 33 15 is_stmt 0 view .LVU157
 683 0010 00000094 		bl	_Z13ldrInstrTest3v
 684              	.LVL62:
  34:Chapter11_4.cpp ****  return 0;
 685              		.loc 2 34 2 is_stmt 1 view .LVU158
  35:Chapter11_4.cpp **** }
 686              		.loc 2 35 1 is_stmt 0 view .LVU159
 687 0014 00008052 		mov	w0, 0
 688 0018 FD7BC1A8 		ldp	x29, x30, [sp], 16
 689              		.cfi_restore 30
 690              		.cfi_restore 29
 691              		.cfi_def_cfa_offset 0
 692 001c C0035FD6 		ret
 693              		.cfi_endproc
 694              	.LFE1590:
 695              		.size	main, .-main
 696              		.align	2
 697              		.p2align 4,,11
 698              		.type	_GLOBAL__sub_I__Z13ldrInstrTest1v, %function
 699              	_GLOBAL__sub_I__Z13ldrInstrTest1v:
 700              	.LFB2092:
 701              		.loc 2 35 1 is_stmt 1 view -0
 702              		.cfi_startproc
 703              	.LVL63:
 704              	.LBB198:
 705              	.LBI198:
 706              		.loc 2 35 1 view .LVU161
 707              	.LBE198:
 708 0020 FD7BBEA9 		stp	x29, x30, [sp, -32]!
 709              		.cfi_def_cfa_offset 32
 710              		.cfi_offset 29, -32
 711              		.cfi_offset 30, -24
 712 0024 FD030091 		mov	x29, sp
 713 0028 F30B00F9 		str	x19, [sp, 16]
 714              		.cfi_offset 19, -16
 715              	.LBB202:
 716              	.LBB199:
 717              		.file 6 "/usr/include/c++/10/iostream"
   1:/usr/include/c++/10/iostream **** // Standard iostream objects -*- C++ -*-
   2:/usr/include/c++/10/iostream **** 
   3:/usr/include/c++/10/iostream **** // Copyright (C) 1997-2020 Free Software Foundation, Inc.
   4:/usr/include/c++/10/iostream **** //
   5:/usr/include/c++/10/iostream **** // This file is part of the GNU ISO C++ Library.  This library is free
   6:/usr/include/c++/10/iostream **** // software; you can redistribute it and/or modify it under the
   7:/usr/include/c++/10/iostream **** // terms of the GNU General Public License as published by the
   8:/usr/include/c++/10/iostream **** // Free Software Foundation; either version 3, or (at your option)
   9:/usr/include/c++/10/iostream **** // any later version.
  10:/usr/include/c++/10/iostream **** 
  11:/usr/include/c++/10/iostream **** // This library is distributed in the hope that it will be useful,
  12:/usr/include/c++/10/iostream **** // but WITHOUT ANY WARRANTY; without even the implied warranty of
  13:/usr/include/c++/10/iostream **** // MERCHANTABILITY or FITNESS FOR A PARTICULAR PURPOSE.  See the
  14:/usr/include/c++/10/iostream **** // GNU General Public License for more details.
  15:/usr/include/c++/10/iostream **** 
AARCH64 GAS  obj/Chapter11_4.s 			page 63


  16:/usr/include/c++/10/iostream **** // Under Section 7 of GPL version 3, you are granted additional
  17:/usr/include/c++/10/iostream **** // permissions described in the GCC Runtime Library Exception, version
  18:/usr/include/c++/10/iostream **** // 3.1, as published by the Free Software Foundation.
  19:/usr/include/c++/10/iostream **** 
  20:/usr/include/c++/10/iostream **** // You should have received a copy of the GNU General Public License and
  21:/usr/include/c++/10/iostream **** // a copy of the GCC Runtime Library Exception along with this program;
  22:/usr/include/c++/10/iostream **** // see the files COPYING3 and COPYING.RUNTIME respectively.  If not, see
  23:/usr/include/c++/10/iostream **** // <http://www.gnu.org/licenses/>.
  24:/usr/include/c++/10/iostream **** 
  25:/usr/include/c++/10/iostream **** /** @file include/iostream
  26:/usr/include/c++/10/iostream ****  *  This is a Standard C++ Library header.
  27:/usr/include/c++/10/iostream ****  */
  28:/usr/include/c++/10/iostream **** 
  29:/usr/include/c++/10/iostream **** //
  30:/usr/include/c++/10/iostream **** // ISO C++ 14882: 27.3  Standard iostream objects
  31:/usr/include/c++/10/iostream **** //
  32:/usr/include/c++/10/iostream **** 
  33:/usr/include/c++/10/iostream **** #ifndef _GLIBCXX_IOSTREAM
  34:/usr/include/c++/10/iostream **** #define _GLIBCXX_IOSTREAM 1
  35:/usr/include/c++/10/iostream **** 
  36:/usr/include/c++/10/iostream **** #pragma GCC system_header
  37:/usr/include/c++/10/iostream **** 
  38:/usr/include/c++/10/iostream **** #include <bits/c++config.h>
  39:/usr/include/c++/10/iostream **** #include <ostream>
  40:/usr/include/c++/10/iostream **** #include <istream>
  41:/usr/include/c++/10/iostream **** 
  42:/usr/include/c++/10/iostream **** namespace std _GLIBCXX_VISIBILITY(default)
  43:/usr/include/c++/10/iostream **** {
  44:/usr/include/c++/10/iostream **** _GLIBCXX_BEGIN_NAMESPACE_VERSION
  45:/usr/include/c++/10/iostream **** 
  46:/usr/include/c++/10/iostream ****   /**
  47:/usr/include/c++/10/iostream ****    *  @name Standard Stream Objects
  48:/usr/include/c++/10/iostream ****    *
  49:/usr/include/c++/10/iostream ****    *  The &lt;iostream&gt; header declares the eight <em>standard stream
  50:/usr/include/c++/10/iostream ****    *  objects</em>.  For other declarations, see
  51:/usr/include/c++/10/iostream ****    *  http://gcc.gnu.org/onlinedocs/libstdc++/manual/io.html
  52:/usr/include/c++/10/iostream ****    *  and the @link iosfwd I/O forward declarations @endlink
  53:/usr/include/c++/10/iostream ****    *
  54:/usr/include/c++/10/iostream ****    *  They are required by default to cooperate with the global C
  55:/usr/include/c++/10/iostream ****    *  library's @c FILE streams, and to be available during program
  56:/usr/include/c++/10/iostream ****    *  startup and termination. For more information, see the section of the
  57:/usr/include/c++/10/iostream ****    *  manual linked to above.
