	.arch armv8-a
	.file	"extInstr.cpp"
	.text
.Ltext0:
	.align	2
	.p2align 4,,11
	.type	_ZSt4endlIcSt11char_traitsIcEERSt13basic_ostreamIT_T0_ES6_.isra.0, %function
_ZSt4endlIcSt11char_traitsIcEERSt13basic_ostreamIT_T0_ES6_.isra.0:
.LVL0:
.LFB2823:
	.file 1 "/usr/include/c++/10/ostream"
	.loc 1 681 5 view -0
	.cfi_startproc
	.loc 1 681 5 is_stmt 0 view .LVU1
	stp	x29, x30, [sp, -32]!
	.cfi_def_cfa_offset 32
	.cfi_offset 29, -32
	.cfi_offset 30, -24
	mov	x29, sp
	stp	x19, x20, [sp, 16]
	.cfi_offset 19, -16
	.cfi_offset 20, -8
	.loc 1 681 5 view .LVU2
	mov	x19, x0
	.loc 1 682 19 view .LVU3
	ldr	x0, [x0]
.LVL1:
	.loc 1 682 19 view .LVU4
	ldr	x0, [x0, -24]
	add	x0, x19, x0
	ldr	x20, [x0, 240]
.LVL2:
.LBB605:
.LBI605:
	.file 2 "/usr/include/c++/10/bits/basic_ios.h"
	.loc 2 449 7 is_stmt 1 view .LVU5
.LBB606:
.LBI606:
	.loc 2 47 5 view .LVU6
.LBB607:
	.loc 2 49 7 is_stmt 0 view .LVU7
	cbz	x20, .L7
.LVL3:
	.loc 2 49 7 view .LVU8
.LBE607:
.LBE606:
.LBB609:
.LBI609:
	.file 3 "/usr/include/c++/10/bits/locale_facets.h"
	.loc 3 872 7 is_stmt 1 view .LVU9
.LBB610:
	.loc 3 874 2 view .LVU10
	ldrb	w0, [x20, 56]
.LVL4:
	.loc 3 874 2 is_stmt 0 view .LVU11
	cbz	w0, .L3
	.loc 3 875 4 is_stmt 1 view .LVU12
	.loc 3 875 51 is_stmt 0 view .LVU13
	ldrb	w1, [x20, 67]
.LVL5:
.L4:
	.loc 3 875 51 view .LVU14
.LBE610:
.LBE609:
.LBE605:
	.loc 1 682 19 view .LVU15
	mov	x0, x19
	bl	_ZNSo3putEc
.LVL6:
.LBB616:
.LBI616:
	.loc 1 703 5 is_stmt 1 view .LVU16
.LBE616:
	.loc 1 682 49 is_stmt 0 view .LVU17
	ldp	x19, x20, [sp, 16]
.LVL7:
	.loc 1 682 49 view .LVU18
	ldp	x29, x30, [sp], 32
	.cfi_remember_state
	.cfi_restore 30
	.cfi_restore 29
	.cfi_restore 19
	.cfi_restore 20
	.cfi_def_cfa_offset 0
.LBB618:
.LBB617:
	.loc 1 704 24 view .LVU19
	b	_ZNSo5flushEv
.LVL8:
.L3:
	.cfi_restore_state
	.loc 1 704 24 view .LVU20
.LBE617:
.LBE618:
.LBB619:
.LBB614:
.LBB613:
.LBB611:
.LBI611:
	.loc 3 872 7 is_stmt 1 view .LVU21
.LBB612:
	.loc 3 876 2 view .LVU22
	.loc 3 876 21 is_stmt 0 view .LVU23
	mov	x0, x20
	bl	_ZNKSt5ctypeIcE13_M_widen_initEv
.LVL9:
	.loc 3 877 2 is_stmt 1 view .LVU24
	.loc 3 877 27 is_stmt 0 view .LVU25
	ldr	x2, [x20]
	.loc 3 877 23 view .LVU26
	mov	w1, 10
	mov	x0, x20
	ldr	x2, [x2, 48]
	blr	x2
.LVL10:
	and	w1, w0, 255
.LVL11:
	.loc 3 877 23 view .LVU27
	b	.L4
.LVL12:
.L7:
	.loc 3 877 23 view .LVU28
.LBE612:
.LBE611:
.LBE613:
.LBE614:
.LBB615:
.LBB608:
	.loc 2 50 18 view .LVU29
	bl	_ZSt16__throw_bad_castv
.LVL13:
	.loc 2 50 18 view .LVU30
.LBE608:
.LBE615:
.LBE619:
	.cfi_endproc
.LFE2823:
	.size	_ZSt4endlIcSt11char_traitsIcEERSt13basic_ostreamIT_T0_ES6_.isra.0, .-_ZSt4endlIcSt11char_traitsIcEERSt13basic_ostreamIT_T0_ES6_.isra.0
	.section	.rodata.str1.8,"aMS",@progbits,1
	.align	3
.LC0:
	.string	"EXT instruction result:"
	.align	3
.LC1:
	.string	"x[0]: "
	.align	3
.LC2:
	.string	"   |"
	.align	3
.LC3:
	.string	"TBL instruction result:"
	.align	3
.LC4:
	.string	"y: "
	.section	.text.startup,"ax",@progbits
	.align	2
	.p2align 4,,11
	.global	main
	.type	main, %function
main:
.LFB2202:
	.file 4 "extInstr.cpp"
	.loc 4 9 11 is_stmt 1 view -0
	.cfi_startproc
	.cfi_personality 0x9b,DW.ref.__gxx_personality_v0
	.cfi_lsda 0x1b,.LLSDA2202
	.loc 4 11 2 view .LVU32
	.loc 4 12 2 view .LVU33
	.loc 4 13 2 view .LVU34
	.loc 4 14 2 view .LVU35
	.loc 4 15 2 view .LVU36
	.loc 4 16 2 view .LVU37
	.loc 4 17 2 view .LVU38
	.loc 4 18 2 view .LVU39
	.loc 4 9 11 is_stmt 0 view .LVU40
	sub	sp, sp, #512
	.cfi_def_cfa_offset 512
	.loc 4 11 13 view .LVU41
	adrp	x0, .LC5
	.loc 4 9 11 view .LVU42
	stp	x29, x30, [sp]
	.cfi_offset 29, -512
	.cfi_offset 30, -504
	mov	x29, sp
	.loc 4 11 13 view .LVU43
	ldr	q3, [x0, #:lo12:.LC5]
	.loc 4 27 13 view .LVU44
	adrp	x0, .LC6
	.loc 4 9 11 view .LVU45
	stp	x21, x22, [sp, 32]
	.cfi_offset 21, -480
	.cfi_offset 22, -472
	.loc 4 11 13 view .LVU46
	adrp	x21, .LANCHOR0
	add	x22, x21, :lo12:.LANCHOR0
	.loc 4 27 13 view .LVU47
	ldr	q2, [x0, #:lo12:.LC6]
	.loc 4 47 13 view .LVU48
	adrp	x0, .LC7
	.loc 4 9 11 view .LVU49
	stp	x19, x20, [sp, 16]
	.loc 4 56 11 view .LVU50
	add	x2, x22, 16
	mov	x1, x22
	.loc 4 47 13 view .LVU51
	ldr	q1, [x0, #:lo12:.LC7]
	.loc 4 29 15 view .LVU52
	adrp	x0, .LC8
	.loc 4 9 11 view .LVU53
	stp	x23, x24, [sp, 48]
	.cfi_offset 19, -496
	.cfi_offset 20, -488
	.cfi_offset 23, -464
	.cfi_offset 24, -456
.LBB748:
.LBB749:
	.loc 1 611 18 view .LVU54
	adrp	x23, :got:_ZSt4cout
.LBE749:
.LBE748:
.LBB751:
.LBB752:
.LBB753:
.LBB754:
	.file 5 "../../Include/Vec128.h"
	.loc 5 48 18 view .LVU55
	mov	w20, 0
.LBE754:
.LBE753:
.LBE752:
.LBE751:
	.loc 4 29 15 view .LVU56
	ldr	q0, [x0, #:lo12:.LC8]
	.loc 4 9 11 view .LVU57
	stp	x25, x26, [sp, 64]
	.loc 4 56 11 view .LVU58
	add	x0, x22, 80
	.loc 4 9 11 view .LVU59
	str	x27, [sp, 80]
	.cfi_offset 25, -448
	.cfi_offset 26, -440
	.cfi_offset 27, -432
.LBB809:
.LBB801:
.LBB793:
.LBB784:
.LBB755:
.LBB756:
.LBB757:
.LBB758:
	.file 6 "/usr/include/c++/10/bits/ios_base.h"
	.loc 6 754 16 view .LVU60
	mov	x24, 8
.LBE758:
.LBE757:
.LBE756:
.LBE755:
.LBE784:
.LBE793:
.LBE801:
.LBE809:
	.loc 4 11 13 view .LVU61
	str	q3, [x21, #:lo12:.LANCHOR0]
	.loc 4 20 2 is_stmt 1 view .LVU62
	.loc 4 21 2 view .LVU63
	.loc 4 22 2 view .LVU64
	.loc 4 23 2 view .LVU65
	.loc 4 24 2 view .LVU66
	.loc 4 25 2 view .LVU67
	.loc 4 26 2 view .LVU68
	.loc 4 27 2 view .LVU69
.LBB810:
.LBB802:
.LBB794:
	.loc 5 46 28 is_stmt 0 view .LVU70
	add	x19, sp, 136
.LBE794:
.LBE802:
.LBE810:
	.loc 4 29 15 view .LVU71
	stp	q2, q0, [x22, 16]
	.loc 4 38 2 is_stmt 1 view .LVU72
	.loc 4 38 19 view .LVU73
	.loc 4 39 5 view .LVU74
	.loc 4 39 22 view .LVU75
	.loc 4 40 5 view .LVU76
	.loc 4 40 22 view .LVU77
	.loc 4 41 5 view .LVU78
	.loc 4 41 22 view .LVU79
	.loc 4 42 5 view .LVU80
	.loc 4 42 22 view .LVU81
	.loc 4 43 5 view .LVU82
	.loc 4 43 22 view .LVU83
	.loc 4 44 2 view .LVU84
	.loc 4 44 19 view .LVU85
	.loc 4 45 2 view .LVU86
	.loc 4 45 19 view .LVU87
	.loc 4 47 13 is_stmt 0 view .LVU88
	stp	q0, q1, [x22, 48]
	.loc 4 56 2 is_stmt 1 view .LVU89
.LEHB0:
	.loc 4 56 11 is_stmt 0 view .LVU90
	bl	extInstr_
.LVL14:
	.loc 4 57 2 is_stmt 1 view .LVU91
.LBB811:
.LBI748:
	.loc 1 606 5 view .LVU92
	.loc 1 606 5 is_stmt 0 view .LVU93
.LBE811:
	.file 7 "/usr/include/c++/10/bits/char_traits.h"
	.loc 7 364 2 is_stmt 1 view .LVU94
.LBB812:
.LBB750:
	.loc 1 611 18 is_stmt 0 view .LVU95
	adrp	x1, .LC0
	ldr	x25, [x23, #:got_lo12:_ZSt4cout]
	add	x1, x1, :lo12:.LC0
	mov	x2, 23
	mov	x0, x25
	bl	_ZSt16__ostream_insertIcSt11char_traitsIcEERSt13basic_ostreamIT_T0_ES6_PKS3_l
.LVL15:
	.loc 1 611 18 view .LVU96
.LBE750:
.LBE812:
.LBB813:
.LBI813:
	.loc 1 108 7 is_stmt 1 view .LVU97
.LBB814:
	.loc 1 113 13 is_stmt 0 view .LVU98
	mov	x0, x25
	bl	_ZSt4endlIcSt11char_traitsIcEERSt13basic_ostreamIT_T0_ES6_.isra.0
.LVL16:
	.loc 1 113 13 view .LVU99
.LBE814:
.LBE813:
	.loc 4 58 2 is_stmt 1 view .LVU100
.LBB815:
.LBI815:
	.loc 1 606 5 view .LVU101
	.loc 1 606 5 is_stmt 0 view .LVU102
.LBE815:
	.loc 7 364 2 is_stmt 1 view .LVU103
.LBB819:
.LBB816:
	.loc 1 611 18 is_stmt 0 view .LVU104
	mov	x0, x25
	adrp	x1, .LC1
.LBE816:
.LBE819:
.LBB820:
.LBB803:
.LBB795:
.LBB785:
.LBB768:
.LBB769:
	adrp	x25, .LC2
.LBE769:
.LBE768:
.LBE785:
.LBE795:
.LBE803:
.LBE820:
.LBB821:
.LBB817:
	add	x1, x1, :lo12:.LC1
.LBE817:
.LBE821:
.LBB822:
.LBB804:
.LBB796:
.LBB786:
.LBB772:
.LBB770:
	add	x25, x25, :lo12:.LC2
.LBE770:
.LBE772:
.LBE786:
.LBE796:
.LBE804:
.LBE822:
.LBB823:
.LBB818:
	mov	x2, 6
	bl	_ZSt16__ostream_insertIcSt11char_traitsIcEERSt13basic_ostreamIT_T0_ES6_PKS3_l
.LVL17:
	.loc 1 611 18 view .LVU105
.LBE818:
.LBE823:
.LBB824:
.LBI751:
	.loc 5 134 17 is_stmt 1 view .LVU106
.LBE824:
	.loc 5 136 9 view .LVU107
.LBB825:
.LBB805:
.LBI752:
	.loc 5 44 39 view .LVU108
.LBB797:
	.loc 5 46 28 is_stmt 0 view .LVU109
	mov	x0, x19
	bl	_ZNSt7__cxx1119basic_ostringstreamIcSt11char_traitsIcESaIcEEC1Ev
.LVL18:
.LEHE0:
.LBB787:
	.loc 5 48 27 is_stmt 1 view .LVU110
	.p2align 3,,7
.L9:
	.loc 5 48 27 is_stmt 0 view .LVU111
.LBE787:
.LBE797:
.LBE805:
.LBE825:
	.file 8 "/usr/include/c++/10/iomanip"
	.loc 8 226 5 is_stmt 1 view .LVU112
.LBB826:
.LBB806:
.LBB798:
.LBB788:
.LBB773:
.LBI755:
	.loc 8 238 5 view .LVU113
.LBB765:
.LBB762:
.LBI757:
	.loc 6 751 5 view .LVU114
.LBB759:
	.loc 6 753 7 view .LVU115
	.loc 6 754 7 view .LVU116
.LBE759:
.LBE762:
	.loc 8 240 17 is_stmt 0 view .LVU117
	ldr	x2, [sp, 136]
.LBE765:
.LBE773:
	.loc 5 50 47 view .LVU118
	add	x1, x22, x20, sxtw 1
.LBB774:
.LBB775:
	.loc 1 171 25 view .LVU119
	mov	x0, x19
.LBE775:
.LBE774:
.LBB778:
.LBB766:
.LBB763:
.LBB760:
	.loc 6 754 16 view .LVU120
	ldr	x2, [x2, -24]
.LBE760:
.LBE763:
.LBE766:
.LBE778:
.LBB779:
.LBB776:
	.loc 1 171 25 view .LVU121
	ldrh	w1, [x1, 80]
.LBE776:
.LBE779:
.LBB780:
.LBB767:
.LBB764:
.LBB761:
	.loc 6 754 16 view .LVU122
	add	x2, x19, x2
	str	x24, [x2, 16]
.LVL19:
	.loc 6 755 7 is_stmt 1 view .LVU123
	.loc 6 755 7 is_stmt 0 view .LVU124
.LBE761:
.LBE764:
.LBE767:
.LBE780:
.LBB781:
.LBI774:
	.loc 1 170 7 is_stmt 1 view .LVU125
.LEHB1:
.LBB777:
	.loc 1 171 25 is_stmt 0 view .LVU126
	bl	_ZNSo9_M_insertImEERSoT_
.LVL20:
	.loc 1 171 25 view .LVU127
.LBE777:
.LBE781:
	.loc 5 52 19 view .LVU128
	add	w20, w20, 1
.LVL21:
	.loc 5 52 13 view .LVU129
	cmp	w20, 4
	beq	.L38
.LVL22:
	.loc 5 48 27 is_stmt 1 view .LVU130
	cmp	w20, 8
	bne	.L9
.LVL23:
	.loc 5 48 27 is_stmt 0 view .LVU131
.LBE788:
.LBB789:
.LBI789:
	.file 9 "/usr/include/c++/10/sstream"
	.loc 9 677 7 is_stmt 1 view .LVU132
.LBB790:
	.loc 9 678 33 is_stmt 0 view .LVU133
	add	x26, sp, 144
	add	x27, sp, 104
	mov	x0, x26
	mov	x8, x27
	bl	_ZNKSt7__cxx1115basic_stringbufIcSt11char_traitsIcESaIcEE3strEv
.LVL24:
.LEHE1:
	.loc 9 678 33 view .LVU134
.LBE790:
.LBE789:
	.loc 5 46 28 view .LVU135
	mov	x0, x19
	bl	_ZNSt7__cxx1119basic_ostringstreamIcSt11char_traitsIcESaIcEED1Ev
.LVL25:
	.loc 5 46 28 view .LVU136
.LBE798:
.LBE806:
.LBE826:
.LBB827:
.LBI827:
	.file 10 "/usr/include/c++/10/bits/basic_string.h"
	.loc 10 6468 5 is_stmt 1 view .LVU137
.LBB828:
.LBB829:
.LBI829:
	.loc 10 2311 7 view .LVU138
.LBB830:
.LBI830:
	.loc 10 186 7 view .LVU139
	.loc 10 186 7 is_stmt 0 view .LVU140
.LBE830:
.LBE829:
.LBB831:
.LBI831:
	.loc 10 901 7 is_stmt 1 view .LVU141
	.loc 10 901 7 is_stmt 0 view .LVU142
.LBE831:
	.loc 10 6473 30 view .LVU143
	ldp	x1, x2, [sp, 104]
	ldr	x0, [x23, #:got_lo12:_ZSt4cout]
.LEHB2:
	bl	_ZSt16__ostream_insertIcSt11char_traitsIcEERSt13basic_ostreamIT_T0_ES6_PKS3_l
.LVL26:
	.loc 10 6473 30 view .LVU144
.LBE828:
.LBE827:
.LBB832:
.LBI832:
	.loc 1 108 7 is_stmt 1 view .LVU145
.LBB833:
	.loc 1 113 13 is_stmt 0 view .LVU146
	bl	_ZSt4endlIcSt11char_traitsIcEERSt13basic_ostreamIT_T0_ES6_.isra.0
.LVL27:
.LEHE2:
	.loc 1 113 13 view .LVU147
.LBE833:
.LBE832:
.LBB834:
.LBI834:
	.loc 10 657 7 is_stmt 1 view .LVU148
.LBB835:
.LBB836:
.LBI836:
	.loc 10 229 7 view .LVU149
.LBB837:
.LBB838:
.LBI838:
	.loc 10 221 7 view .LVU150
.LBB839:
.LBI839:
	.loc 10 186 7 view .LVU151
.LBB840:
	.loc 10 187 28 is_stmt 0 view .LVU152
	ldr	x0, [sp, 104]
.LVL28:
	.loc 10 187 28 view .LVU153
.LBE840:
.LBE839:
.LBB841:
.LBI841:
	.loc 10 200 7 is_stmt 1 view .LVU154
	.loc 10 200 7 is_stmt 0 view .LVU155
.LBE841:
.LBE838:
	.loc 10 231 2 view .LVU156
	add	x25, sp, 120
	cmp	x0, x25
	beq	.L15
.LVL29:
.LBB842:
.LBI842:
	.loc 10 236 7 is_stmt 1 view .LVU157
.LBB843:
.LBB844:
.LBI844:
	.file 11 "/usr/include/c++/10/bits/alloc_traits.h"
	.loc 11 491 7 view .LVU158
.LBB845:
.LBI845:
	.file 12 "/usr/include/c++/10/ext/new_allocator.h"
	.loc 12 120 7 view .LVU159
.LBE845:
.LBE844:
	.loc 10 237 34 is_stmt 0 view .LVU160
	ldr	x1, [sp, 120]
.LBB848:
.LBB847:
.LBB846:
	.loc 12 133 19 view .LVU161
	add	x1, x1, 1
.LVL30:
	.loc 12 133 19 view .LVU162
	bl	_ZdlPvm
.LVL31:
.L15:
	.loc 12 133 19 view .LVU163
.LBE846:
.LBE847:
.LBE848:
.LBE843:
.LBE842:
.LBE837:
.LBE836:
.LBB849:
.LBI849:
	.loc 10 150 14 is_stmt 1 view .LVU164
.LBB850:
.LBI850:
	.file 13 "/usr/include/c++/10/bits/allocator.h"
	.loc 13 162 7 view .LVU165
.LBB851:
.LBI851:
	.loc 12 89 7 view .LVU166
	.loc 12 89 7 is_stmt 0 view .LVU167
.LBE851:
.LBE850:
.LBE849:
.LBE835:
.LBE834:
	.loc 4 60 2 is_stmt 1 view .LVU168
	.loc 4 60 11 is_stmt 0 view .LVU169
	add	x21, x21, :lo12:.LANCHOR0
.LBB852:
.LBB853:
.LBB854:
.LBB855:
	.loc 5 48 18 view .LVU170
	mov	w20, 0
.LBE855:
.LBE854:
.LBE853:
.LBE852:
	.loc 4 60 11 view .LVU171
	add	x3, x21, 32
	add	x2, x21, 64
	add	x1, x21, 48
	add	x0, x21, 96
.LEHB3:
	bl	tblInstr_
.LVL32:
	.loc 4 61 2 is_stmt 1 view .LVU172
.LBB910:
.LBI910:
	.loc 1 606 5 view .LVU173
	.loc 1 606 5 is_stmt 0 view .LVU174
.LBE910:
	.loc 7 364 2 is_stmt 1 view .LVU175
.LBB912:
.LBB902:
.LBB894:
.LBB885:
.LBB856:
.LBB857:
.LBB858:
.LBB859:
	.loc 6 754 16 is_stmt 0 view .LVU176
	mov	x22, 4
.LBE859:
.LBE858:
.LBE857:
.LBE856:
.LBE885:
.LBE894:
.LBE902:
.LBE912:
.LBB913:
.LBB911:
	.loc 1 611 18 view .LVU177
	ldr	x24, [x23, #:got_lo12:_ZSt4cout]
	adrp	x1, .LC3
	add	x1, x1, :lo12:.LC3
	mov	x2, 23
	mov	x0, x24
	bl	_ZSt16__ostream_insertIcSt11char_traitsIcEERSt13basic_ostreamIT_T0_ES6_PKS3_l
.LVL33:
	.loc 1 611 18 view .LVU178
.LBE911:
.LBE913:
.LBB914:
.LBI914:
	.loc 1 108 7 is_stmt 1 view .LVU179
.LBB915:
	.loc 1 113 13 is_stmt 0 view .LVU180
	mov	x0, x24
	bl	_ZSt4endlIcSt11char_traitsIcEERSt13basic_ostreamIT_T0_ES6_.isra.0
.LVL34:
	.loc 1 113 13 view .LVU181
.LBE915:
.LBE914:
	.loc 4 62 2 is_stmt 1 view .LVU182
.LBB916:
.LBI916:
	.loc 1 606 5 view .LVU183
	.loc 1 606 5 is_stmt 0 view .LVU184
.LBE916:
	.loc 7 364 2 is_stmt 1 view .LVU185
.LBB920:
.LBB917:
	.loc 1 611 18 is_stmt 0 view .LVU186
	mov	x0, x24
	adrp	x1, .LC4
.LBE917:
.LBE920:
.LBB921:
.LBB903:
.LBB895:
.LBB886:
.LBB869:
.LBB870:
	adrp	x24, .LC2
.LBE870:
.LBE869:
.LBE886:
.LBE895:
.LBE903:
.LBE921:
.LBB922:
.LBB918:
	add	x1, x1, :lo12:.LC4
.LBE918:
.LBE922:
.LBB923:
.LBB904:
.LBB896:
.LBB887:
.LBB873:
.LBB871:
	add	x24, x24, :lo12:.LC2
.LBE871:
.LBE873:
.LBE887:
.LBE896:
.LBE904:
.LBE923:
.LBB924:
.LBB919:
	mov	x2, 3
	bl	_ZSt16__ostream_insertIcSt11char_traitsIcEERSt13basic_ostreamIT_T0_ES6_PKS3_l
.LVL35:
	.loc 1 611 18 view .LVU187
.LBE919:
.LBE924:
.LBB925:
.LBI852:
	.loc 5 129 17 is_stmt 1 view .LVU188
.LBE925:
	.loc 5 131 9 view .LVU189
.LBB926:
.LBB905:
.LBI853:
	.loc 5 44 39 view .LVU190
.LBB897:
	.loc 5 46 28 is_stmt 0 view .LVU191
	mov	x0, x19
	bl	_ZNSt7__cxx1119basic_ostringstreamIcSt11char_traitsIcESaIcEEC1Ev
.LVL36:
.LEHE3:
.LBB888:
	.loc 5 48 27 is_stmt 1 view .LVU192
	.p2align 3,,7
.L16:
	.loc 5 48 27 is_stmt 0 view .LVU193
.LBE888:
.LBE897:
.LBE905:
.LBE926:
	.loc 8 226 5 is_stmt 1 view .LVU194
.LBB927:
.LBB906:
.LBB898:
.LBB889:
.LBB874:
.LBI856:
	.loc 8 238 5 view .LVU195
.LBB866:
.LBB863:
.LBI858:
	.loc 6 751 5 view .LVU196
.LBB860:
	.loc 6 753 7 view .LVU197
	.loc 6 754 7 view .LVU198
.LBE860:
.LBE863:
	.loc 8 240 17 is_stmt 0 view .LVU199
	ldr	x2, [sp, 136]
.LBE866:
.LBE874:
	.loc 5 50 47 view .LVU200
	add	x1, x21, x20, sxtw
.LBB875:
.LBB876:
	.loc 1 171 25 view .LVU201
	mov	x0, x19
.LBE876:
.LBE875:
.LBB879:
.LBB867:
.LBB864:
.LBB861:
	.loc 6 754 16 view .LVU202
	ldr	x2, [x2, -24]
.LBE861:
.LBE864:
.LBE867:
.LBE879:
.LBB880:
.LBB877:
	.loc 1 171 25 view .LVU203
	ldrb	w1, [x1, 96]
.LBE877:
.LBE880:
.LBB881:
.LBB868:
.LBB865:
.LBB862:
	.loc 6 754 16 view .LVU204
	add	x2, x19, x2
	str	x22, [x2, 16]
.LVL37:
	.loc 6 755 7 is_stmt 1 view .LVU205
	.loc 6 755 7 is_stmt 0 view .LVU206
.LBE862:
.LBE865:
.LBE868:
.LBE881:
.LBB882:
.LBI875:
	.loc 1 170 7 is_stmt 1 view .LVU207
.LEHB4:
.LBB878:
	.loc 1 171 25 is_stmt 0 view .LVU208
	bl	_ZNSo9_M_insertImEERSoT_
.LVL38:
	.loc 1 171 25 view .LVU209
.LBE878:
.LBE882:
	.loc 5 52 19 view .LVU210
	add	w20, w20, 1
.LVL39:
	.loc 5 52 13 view .LVU211
	cmp	w20, 8
	beq	.L39
.LVL40:
	.loc 5 48 27 is_stmt 1 view .LVU212
	cmp	w20, 16
	bne	.L16
.LVL41:
	.loc 5 48 27 is_stmt 0 view .LVU213
.LBE889:
.LBB890:
.LBI890:
	.loc 9 677 7 is_stmt 1 view .LVU214
.LBB891:
	.loc 9 678 33 is_stmt 0 view .LVU215
	mov	x8, x27
	mov	x0, x26
	bl	_ZNKSt7__cxx1115basic_stringbufIcSt11char_traitsIcESaIcEE3strEv
.LVL42:
.LEHE4:
	.loc 9 678 33 view .LVU216
.LBE891:
.LBE890:
	.loc 5 46 28 view .LVU217
	mov	x0, x19
	bl	_ZNSt7__cxx1119basic_ostringstreamIcSt11char_traitsIcESaIcEED1Ev
.LVL43:
	.loc 5 46 28 view .LVU218
.LBE898:
.LBE906:
.LBE927:
.LBB928:
.LBI928:
	.loc 10 6468 5 is_stmt 1 view .LVU219
.LBB929:
.LBB930:
.LBI930:
	.loc 10 2311 7 view .LVU220
.LBB931:
.LBI931:
	.loc 10 186 7 view .LVU221
	.loc 10 186 7 is_stmt 0 view .LVU222
.LBE931:
.LBE930:
.LBB932:
.LBI932:
	.loc 10 901 7 is_stmt 1 view .LVU223
	.loc 10 901 7 is_stmt 0 view .LVU224
.LBE932:
	.loc 10 6473 30 view .LVU225
	ldp	x1, x2, [sp, 104]
	ldr	x0, [x23, #:got_lo12:_ZSt4cout]
.LEHB5:
	bl	_ZSt16__ostream_insertIcSt11char_traitsIcEERSt13basic_ostreamIT_T0_ES6_PKS3_l
.LVL44:
	.loc 10 6473 30 view .LVU226
.LBE929:
.LBE928:
.LBB933:
.LBI933:
	.loc 1 108 7 is_stmt 1 view .LVU227
.LBB934:
	.loc 1 113 13 is_stmt 0 view .LVU228
	bl	_ZSt4endlIcSt11char_traitsIcEERSt13basic_ostreamIT_T0_ES6_.isra.0
.LVL45:
.LEHE5:
	.loc 1 113 13 view .LVU229
.LBE934:
.LBE933:
.LBB935:
.LBI935:
	.loc 10 657 7 is_stmt 1 view .LVU230
.LBB936:
.LBB937:
.LBI937:
	.loc 10 229 7 view .LVU231
.LBB938:
.LBB939:
.LBI939:
	.loc 10 221 7 view .LVU232
.LBB940:
.LBI940:
	.loc 10 186 7 view .LVU233
.LBB941:
	.loc 10 187 28 is_stmt 0 view .LVU234
	ldr	x0, [sp, 104]
.LVL46:
	.loc 10 187 28 view .LVU235
.LBE941:
.LBE940:
.LBB942:
.LBI942:
	.loc 10 200 7 is_stmt 1 view .LVU236
	.loc 10 200 7 is_stmt 0 view .LVU237
.LBE942:
.LBE939:
	.loc 10 231 2 view .LVU238
	cmp	x0, x25
	beq	.L31
.LVL47:
.LBB943:
.LBI943:
	.loc 10 236 7 is_stmt 1 view .LVU239
.LBB944:
.LBB945:
.LBI945:
	.loc 11 491 7 view .LVU240
.LBB946:
.LBI946:
	.loc 12 120 7 view .LVU241
.LBE946:
.LBE945:
	.loc 10 237 34 is_stmt 0 view .LVU242
	ldr	x1, [sp, 120]
.LBB949:
.LBB948:
.LBB947:
	.loc 12 133 19 view .LVU243
	add	x1, x1, 1
.LVL48:
	.loc 12 133 19 view .LVU244
	bl	_ZdlPvm
.LVL49:
	.loc 12 133 19 view .LVU245
.LBE947:
.LBE948:
.LBE949:
.LBE944:
.LBE943:
.LBE938:
.LBE937:
.LBB950:
.LBI950:
	.loc 10 150 14 is_stmt 1 view .LVU246
.LBB951:
.LBI951:
	.loc 13 162 7 view .LVU247
.LBB952:
.LBI952:
	.loc 12 89 7 view .LVU248
	.loc 12 89 7 is_stmt 0 view .LVU249
.LBE952:
.LBE951:
.LBE950:
.LBE936:
.LBE935:
	.loc 4 63 2 is_stmt 1 view .LVU250
.L31:
	.loc 4 64 1 is_stmt 0 view .LVU251
	mov	w0, 0
	ldp	x29, x30, [sp]
	ldp	x19, x20, [sp, 16]
	ldp	x21, x22, [sp, 32]
	ldp	x23, x24, [sp, 48]
	ldp	x25, x26, [sp, 64]
	ldr	x27, [sp, 80]
	add	sp, sp, 512
	.cfi_remember_state
	.cfi_restore 29
	.cfi_restore 30
	.cfi_restore 27
	.cfi_restore 25
	.cfi_restore 26
	.cfi_restore 23
	.cfi_restore 24
	.cfi_restore 21
	.cfi_restore 22
	.cfi_restore 19
	.cfi_restore 20
	.cfi_def_cfa_offset 0
	ret
.LVL50:
	.p2align 2,,3
.L39:
	.cfi_restore_state
.LBB953:
.LBB907:
.LBB899:
.LBB892:
.LBB883:
.LBI869:
	.loc 1 606 5 is_stmt 1 view .LVU252
	.loc 1 606 5 is_stmt 0 view .LVU253
.LBE883:
.LBE892:
.LBE899:
.LBE907:
.LBE953:
	.loc 7 364 2 is_stmt 1 view .LVU254
.LBB954:
.LBB908:
.LBB900:
.LBB893:
.LBB884:
.LBB872:
	.loc 1 611 18 is_stmt 0 view .LVU255
	mov	x1, x24
	mov	x0, x19
	mov	x2, 4
.LEHB6:
	bl	_ZSt16__ostream_insertIcSt11char_traitsIcEERSt13basic_ostreamIT_T0_ES6_PKS3_l
.LVL51:
.LEHE6:
	b	.L16
.LVL52:
	.p2align 2,,3
.L38:
	.loc 1 611 18 view .LVU256
.LBE872:
.LBE884:
.LBE893:
.LBE900:
.LBE908:
.LBE954:
.LBB955:
.LBB807:
.LBB799:
.LBB791:
.LBB782:
.LBI768:
	.loc 1 606 5 is_stmt 1 view .LVU257
	.loc 1 606 5 is_stmt 0 view .LVU258
.LBE782:
.LBE791:
.LBE799:
.LBE807:
.LBE955:
	.loc 7 364 2 is_stmt 1 view .LVU259
.LBB956:
.LBB808:
.LBB800:
.LBB792:
.LBB783:
.LBB771:
	.loc 1 611 18 is_stmt 0 view .LVU260
	mov	x1, x25
	mov	x0, x19
	mov	x2, 4
.LEHB7:
	bl	_ZSt16__ostream_insertIcSt11char_traitsIcEERSt13basic_ostreamIT_T0_ES6_PKS3_l
.LVL53:
.LEHE7:
	b	.L9
.LVL54:
.L29:
.L35:
	.loc 1 611 18 view .LVU261
.LBE771:
.LBE783:
.LBE792:
.LBE800:
.LBE808:
.LBE956:
.LBB957:
.LBB909:
.LBB901:
	.loc 5 46 28 view .LVU262
	mov	x1, x0
	mov	x0, x19
	mov	x19, x1
	bl	_ZNSt7__cxx1119basic_ostringstreamIcSt11char_traitsIcESaIcEED1Ev
.LVL55:
.L36:
	mov	x0, x19
.LEHB8:
	bl	_Unwind_Resume
.LVL56:
.LEHE8:
.L28:
.LBE901:
.LBE909:
.LBE957:
.LBB958:
.LBB959:
.LBB960:
.LBB961:
.LBB962:
.LBB963:
.LBB964:
	.loc 10 187 28 view .LVU263
	ldr	x2, [sp, 104]
	mov	x19, x0
.LVL57:
	.loc 10 187 28 view .LVU264
.LBE964:
.LBE963:
.LBE962:
.LBE961:
.LBE960:
.LBE959:
.LBI958:
	.loc 10 657 7 is_stmt 1 view .LVU265
.LBB984:
.LBB979:
.LBI960:
	.loc 10 229 7 view .LVU266
.LBB977:
.LBB967:
.LBI962:
	.loc 10 221 7 view .LVU267
.LBB965:
.LBI963:
	.loc 10 186 7 view .LVU268
	.loc 10 186 7 is_stmt 0 view .LVU269
.LBE965:
.LBB966:
.LBI966:
	.loc 10 200 7 is_stmt 1 view .LVU270
	.loc 10 200 7 is_stmt 0 view .LVU271
.LBE966:
.LBE967:
	.loc 10 231 2 view .LVU272
	cmp	x2, x25
	beq	.L36
.LVL58:
.L37:
.LBB968:
.LBI968:
	.loc 10 236 7 is_stmt 1 view .LVU273
.LBB969:
.LBB970:
.LBI970:
	.loc 11 491 7 view .LVU274
.LBB971:
.LBI971:
	.loc 12 120 7 view .LVU275
.LBE971:
.LBE970:
	.loc 10 237 34 is_stmt 0 view .LVU276
	ldr	x1, [sp, 120]
.LBB974:
.LBB973:
.LBB972:
	.loc 12 133 19 view .LVU277
	mov	x0, x2
	add	x1, x1, 1
.LVL59:
	.loc 12 133 19 view .LVU278
	bl	_ZdlPvm
.LVL60:
	.loc 12 133 19 view .LVU279
.LBE972:
.LBE973:
.LBE974:
.LBE969:
.LBE968:
.LBE977:
.LBE979:
.LBB980:
.LBI980:
	.loc 10 150 14 is_stmt 1 view .LVU280
.LBB981:
.LBI981:
	.loc 13 162 7 view .LVU281
.LBB982:
.LBI982:
	.loc 12 89 7 view .LVU282
	.loc 12 89 7 is_stmt 0 view .LVU283
.LBE982:
.LBE981:
.LBE980:
.LBB983:
.LBB978:
.LBB976:
.LBB975:
	.loc 10 237 79 view .LVU284
	b	.L36
.LVL61:
.L30:
	.loc 10 237 79 view .LVU285
	b	.L35
.LVL62:
.L27:
	.loc 10 237 79 view .LVU286
.LBE975:
.LBE976:
.LBE978:
.LBE983:
.LBE984:
.LBE958:
.LBB985:
.LBB986:
.LBB987:
.LBB988:
.LBB989:
.LBB990:
.LBB991:
	.loc 10 187 28 view .LVU287
	ldr	x2, [sp, 104]
.LBE991:
.LBE990:
.LBE989:
	.loc 10 231 2 view .LVU288
	add	x1, sp, 120
.LBB996:
.LBB993:
.LBB992:
	.loc 10 187 28 view .LVU289
	mov	x19, x0
.LVL63:
	.loc 10 187 28 view .LVU290
.LBE992:
.LBE993:
.LBE996:
.LBE988:
.LBE987:
.LBE986:
.LBI985:
	.loc 10 657 7 is_stmt 1 view .LVU291
.LBB1000:
.LBB999:
.LBI987:
	.loc 10 229 7 view .LVU292
.LBB998:
.LBB997:
.LBI989:
	.loc 10 221 7 view .LVU293
.LBB994:
.LBI990:
	.loc 10 186 7 view .LVU294
	.loc 10 186 7 is_stmt 0 view .LVU295
.LBE994:
.LBB995:
.LBI995:
	.loc 10 200 7 is_stmt 1 view .LVU296
	.loc 10 200 7 is_stmt 0 view .LVU297
.LBE995:
.LBE997:
	.loc 10 231 2 view .LVU298
	cmp	x2, x1
	bne	.L37
	b	.L36
.LBE998:
.LBE999:
.LBE1000:
.LBE985:
	.cfi_endproc
.LFE2202:
	.global	__gxx_personality_v0
	.section	.gcc_except_table,"a",@progbits
.LLSDA2202:
	.byte	0xff
	.byte	0xff
	.byte	0x1
	.uleb128 .LLSDACSE2202-.LLSDACSB2202
.LLSDACSB2202:
	.uleb128 .LEHB0-.LFB2202
	.uleb128 .LEHE0-.LEHB0
	.uleb128 0
	.uleb128 0
	.uleb128 .LEHB1-.LFB2202
	.uleb128 .LEHE1-.LEHB1
	.uleb128 .L29-.LFB2202
	.uleb128 0
	.uleb128 .LEHB2-.LFB2202
	.uleb128 .LEHE2-.LEHB2
	.uleb128 .L27-.LFB2202
	.uleb128 0
	.uleb128 .LEHB3-.LFB2202
	.uleb128 .LEHE3-.LEHB3
	.uleb128 0
	.uleb128 0
	.uleb128 .LEHB4-.LFB2202
	.uleb128 .LEHE4-.LEHB4
	.uleb128 .L30-.LFB2202
	.uleb128 0
	.uleb128 .LEHB5-.LFB2202
	.uleb128 .LEHE5-.LEHB5
	.uleb128 .L28-.LFB2202
	.uleb128 0
	.uleb128 .LEHB6-.LFB2202
	.uleb128 .LEHE6-.LEHB6
	.uleb128 .L30-.LFB2202
	.uleb128 0
	.uleb128 .LEHB7-.LFB2202
	.uleb128 .LEHE7-.LEHB7
	.uleb128 .L29-.LFB2202
	.uleb128 0
	.uleb128 .LEHB8-.LFB2202
	.uleb128 .LEHE8-.LEHB8
	.uleb128 0
	.uleb128 0
.LLSDACSE2202:
	.section	.text.startup
	.size	main, .-main
	.align	2
	.p2align 4,,11
	.type	_GLOBAL__sub_I_a, %function
_GLOBAL__sub_I_a:
.LFB2817:
	.loc 4 64 1 is_stmt 1 view -0
	.cfi_startproc
.LVL64:
.LBB1001:
.LBI1001:
	.loc 4 64 1 view .LVU300
.LBE1001:
	stp	x29, x30, [sp, -32]!
	.cfi_def_cfa_offset 32
	.cfi_offset 29, -32
	.cfi_offset 30, -24
	mov	x29, sp
	str	x19, [sp, 16]
	.cfi_offset 19, -16
.LBB1005:
.LBB1002:
	.file 14 "/usr/include/c++/10/iostream"
	.loc 14 74 25 is_stmt 0 view .LVU301
	adrp	x19, .LANCHOR0
	add	x19, x19, :lo12:.LANCHOR0
	add	x19, x19, 112
	mov	x0, x19
	bl	_ZNSt8ios_base4InitC1Ev
.LVL65:
	mov	x1, x19
	adrp	x0, :got:_ZNSt8ios_base4InitD1Ev
.LBE1002:
.LBE1005:
	.loc 4 64 1 view .LVU302
	ldr	x19, [sp, 16]
.LBB1006:
.LBB1003:
	.loc 14 74 25 view .LVU303
	adrp	x2, __dso_handle
.LBE1003:
.LBE1006:
	.loc 4 64 1 view .LVU304
	ldp	x29, x30, [sp], 32
	.cfi_restore 30
	.cfi_restore 29
	.cfi_restore 19
	.cfi_def_cfa_offset 0
.LBB1007:
.LBB1004:
	.loc 14 74 25 view .LVU305
	add	x2, x2, :lo12:__dso_handle
	ldr	x0, [x0, #:got_lo12:_ZNSt8ios_base4InitD1Ev]
	b	__cxa_atexit
.LVL66:
.LBE1004:
.LBE1007:
	.cfi_endproc
.LFE2817:
	.size	_GLOBAL__sub_I_a, .-_GLOBAL__sub_I_a
	.section	.init_array,"aw"
	.align	3
	.xword	_GLOBAL__sub_I_a
	.global	b2
	.global	a2
	.global	y
	.global	x
	.global	indx
	.global	b
	.global	a
	.section	.rodata.cst16,"aM",@progbits,16
	.align	4
.LC5:
	.hword	0
	.hword	1
	.hword	2
	.hword	3
	.hword	4
	.hword	5
	.hword	6
	.hword	7
	.align	4
.LC6:
	.hword	8
	.hword	9
	.hword	10
	.hword	11
	.hword	12
	.hword	13
	.hword	14
	.hword	15
	.align	4
.LC7:
	.byte	0
	.byte	3
	.byte	6
	.byte	9
	.byte	12
	.byte	15
	.byte	18
	.byte	21
	.byte	24
	.byte	27
	.byte	30
	.byte	33
	.byte	36
	.byte	39
	.byte	42
	.byte	45
	.align	4
.LC8:
	.byte	0
	.byte	2
	.byte	4
	.byte	6
	.byte	8
	.byte	10
	.byte	12
	.byte	14
	.byte	16
	.byte	18
	.byte	20
	.byte	22
	.byte	24
	.byte	26
	.byte	28
	.byte	30
	.bss
	.align	4
	.set	.LANCHOR0,. + 0
	.type	a, %object
	.size	a, 16
a:
	.zero	16
	.type	b, %object
	.size	b, 16
b:
	.zero	16
	.type	indx, %object
	.size	indx, 16
indx:
	.zero	16
	.type	a2, %object
	.size	a2, 16
a2:
	.zero	16
	.type	b2, %object
	.size	b2, 16
b2:
	.zero	16
	.type	x, %object
	.size	x, 16
x:
	.zero	16
	.type	y, %object
	.size	y, 16
y:
	.zero	16
	.type	_ZStL8__ioinit, %object
	.size	_ZStL8__ioinit, 1
_ZStL8__ioinit:
	.zero	1
	.text
.Letext0:
	.file 15 "/usr/include/c++/10/cwchar"
	.file 16 "/usr/include/c++/10/bits/exception_ptr.h"
	.file 17 "/usr/include/aarch64-linux-gnu/c++/10/bits/c++config.h"
	.file 18 "/usr/include/c++/10/bits/stl_pair.h"
	.file 19 "/usr/include/c++/10/type_traits"
	.file 20 "/usr/include/c++/10/debug/debug.h"
	.file 21 "/usr/include/c++/10/cstdint"
	.file 22 "/usr/include/c++/10/clocale"
	.file 23 "/usr/include/c++/10/cstdlib"
	.file 24 "/usr/include/c++/10/cstdio"
	.file 25 "/usr/include/c++/10/initializer_list"
	.file 26 "/usr/include/c++/10/bits/stringfwd.h"
	.file 27 "/usr/include/c++/10/system_error"
	.file 28 "/usr/include/c++/10/cwctype"
	.file 29 "/usr/include/c++/10/bits/ostream.tcc"
	.file 30 "/usr/include/c++/10/streambuf"
	.file 31 "/usr/include/c++/10/iosfwd"
	.file 32 "/usr/include/c++/10/ctime"
	.file 33 "/usr/include/c++/10/bits/stl_iterator_base_types.h"
	.file 34 "/usr/include/c++/10/bits/uses_allocator.h"
	.file 35 "/usr/include/c++/10/tuple"
	.file 36 "/usr/include/c++/10/bits/ptr_traits.h"
	.file 37 "/usr/include/c++/10/bits/move.h"
	.file 38 "/usr/include/c++/10/bits/postypes.h"
	.file 39 "/usr/include/c++/10/bits/ostream_insert.h"
	.file 40 "/usr/include/c++/10/bits/functexcept.h"
	.file 41 "/usr/include/c++/10/bits/predefined_ops.h"
	.file 42 "/usr/include/c++/10/ext/alloc_traits.h"
	.file 43 "/usr/include/c++/10/bits/stl_iterator.h"
	.file 44 "/usr/lib/gcc/aarch64-linux-gnu/10/include/stddef.h"
	.file 45 "/usr/lib/gcc/aarch64-linux-gnu/10/include/stdarg.h"
	.file 46 "/usr/include/aarch64-linux-gnu/bits/types/wint_t.h"
	.file 47 "/usr/include/aarch64-linux-gnu/bits/types/__mbstate_t.h"
	.file 48 "/usr/include/aarch64-linux-gnu/bits/types/mbstate_t.h"
	.file 49 "/usr/include/aarch64-linux-gnu/bits/types/__FILE.h"
	.file 50 "/usr/include/aarch64-linux-gnu/bits/types/struct_FILE.h"
	.file 51 "/usr/include/aarch64-linux-gnu/bits/types/FILE.h"
	.file 52 "/usr/include/wchar.h"
	.file 53 "/usr/include/aarch64-linux-gnu/bits/types/struct_tm.h"
	.file 54 "/usr/include/aarch64-linux-gnu/bits/types.h"
	.file 55 "/usr/include/aarch64-linux-gnu/bits/stdint-intn.h"
	.file 56 "/usr/include/aarch64-linux-gnu/bits/stdint-uintn.h"
	.file 57 "/usr/include/stdint.h"
	.file 58 "/usr/include/locale.h"
	.file 59 "/usr/include/aarch64-linux-gnu/bits/types/time_t.h"
	.file 60 "/usr/include/aarch64-linux-gnu/bits/types/clock_t.h"
	.file 61 "/usr/include/aarch64-linux-gnu/c++/10/bits/atomic_word.h"
	.file 62 "/usr/include/stdlib.h"
	.file 63 "/usr/include/aarch64-linux-gnu/bits/stdlib-float.h"
	.file 64 "/usr/include/aarch64-linux-gnu/bits/stdlib-bsearch.h"
	.file 65 "/usr/include/aarch64-linux-gnu/bits/types/__fpos_t.h"
	.file 66 "/usr/include/stdio.h"
	.file 67 "/usr/include/aarch64-linux-gnu/bits/stdio.h"
	.file 68 "/usr/include/aarch64-linux-gnu/bits/wctype-wchar.h"
	.file 69 "/usr/include/wctype.h"
	.file 70 "/usr/include/time.h"
	.file 71 "/usr/include/c++/10/new"
	.file 72 "<built-in>"
	.section	.data.rel.local.DW.ref.__gxx_personality_v0,"awG",@progbits,DW.ref.__gxx_personality_v0,comdat
	.align	3
	.type	DW.ref.__gxx_personality_v0, %object
	.size	DW.ref.__gxx_personality_v0, 8
DW.ref.__gxx_personality_v0:
	.xword	__gxx_personality_v0
	.hidden	__dso_handle
	.ident	"GCC: (Debian 10.2.1-6) 10.2.1 20210110"
	.section	.note.GNU-stack,"",@progbits
