AARCH64 GAS  obj/Ch11_04.s 			page 1


 GNU assembler version 2.35.2 (aarch64-linux-gnu)
	 using BFD version (GNU Binutils for Debian) 2.35.2.
 options passed	: -I -I -EL -march=armv8-a+simd -mabi=lp64 -aghl=obj/Ch11_04.lst 
 input file    	: obj/Ch11_04.s
 output file   	: obj/Ch11_04.o
 target        	: aarch64-unknown-linux-gnu
 time stamp    	: 2022-07-19T23:57:50.000-0400

AARCH64 GAS  obj/Ch11_04.s 			page 2


   1              		.arch armv8-a
   2              		.file	"Ch11_04.cpp"
   3              		.text
   4              	.Ltext0:
   5              		.section	.rodata.str1.8,"aMS",@progbits,1
   6              		.align	3
   7              	.LC0:
   8 0000 54657374 		.string	"TestLDR1_("
   8      4C445231 
   8      5F2800
   9 000b 00000000 		.align	3
   9      00
  10              	.LC1:
  11 0010 2C2000   		.string	", "
  12 0013 00000000 		.align	3
  12      00
  13              	.LC2:
  14 0018 29203D20 		.string	") = "
  14      00
  15              		.text
  16              		.align	2
  17              		.p2align 4,,11
  18              		.global	_Z8TestLDR1v
  19              		.type	_Z8TestLDR1v, %function
  20              	_Z8TestLDR1v:
  21              	.LFB1587:
  22              		.file 1 "Ch11_04.cpp"
   1:Ch11_04.cpp   **** //-------------------------------------------------
   2:Ch11_04.cpp   **** //               Ch11_04.cpp
   3:Ch11_04.cpp   **** //-------------------------------------------------
   4:Ch11_04.cpp   **** 
   5:Ch11_04.cpp   **** #include <iostream>
   6:Ch11_04.cpp   **** 
   7:Ch11_04.cpp   **** using namespace std;
   8:Ch11_04.cpp   **** 
   9:Ch11_04.cpp   **** extern "C" int TestLDR1_(unsigned int i, unsigned long j);
  10:Ch11_04.cpp   **** extern "C" long TestLDR2_(unsigned int i, unsigned long j);
  11:Ch11_04.cpp   **** extern "C" short TestLDR3_(unsigned int i, unsigned long j);
  12:Ch11_04.cpp   **** 
  13:Ch11_04.cpp   **** void TestLDR1(void)
  14:Ch11_04.cpp   **** {
  23              		.loc 1 14 1 view -0
  24              		.cfi_startproc
  15:Ch11_04.cpp   ****     const char nl = '\n';
  25              		.loc 1 15 5 view .LVU1
  26              	.LVL0:
  16:Ch11_04.cpp   ****     unsigned int i = 3;
  27              		.loc 1 16 5 view .LVU2
  17:Ch11_04.cpp   ****     unsigned long j = 6;
  28              		.loc 1 17 5 view .LVU3
  18:Ch11_04.cpp   **** 
  19:Ch11_04.cpp   ****     int test_ldr1 = TestLDR1_(i, j);
  29              		.loc 1 19 5 view .LVU4
  14:Ch11_04.cpp   ****     const char nl = '\n';
  30              		.loc 1 14 1 is_stmt 0 view .LVU5
  31 0000 FD7BBDA9 		stp	x29, x30, [sp, -48]!
  32              		.cfi_def_cfa_offset 48
AARCH64 GAS  obj/Ch11_04.s 			page 3


  33              		.cfi_offset 29, -48
  34              		.cfi_offset 30, -40
  35              		.loc 1 19 30 view .LVU6
  36 0004 C10080D2 		mov	x1, 6
  37 0008 60008052 		mov	w0, 3
  14:Ch11_04.cpp   ****     const char nl = '\n';
  38              		.loc 1 14 1 view .LVU7
  39 000c FD030091 		mov	x29, sp
  40 0010 F35301A9 		stp	x19, x20, [sp, 16]
  41              		.cfi_offset 19, -32
  42              		.cfi_offset 20, -24
  43              	.LBB80:
  44              	.LBB81:
  45              		.file 2 "/usr/include/c++/10/ostream"
   1:/usr/include/c++/10/ostream **** // Output streams -*- C++ -*-
   2:/usr/include/c++/10/ostream **** 
   3:/usr/include/c++/10/ostream **** // Copyright (C) 1997-2020 Free Software Foundation, Inc.
   4:/usr/include/c++/10/ostream **** //
   5:/usr/include/c++/10/ostream **** // This file is part of the GNU ISO C++ Library.  This library is free
   6:/usr/include/c++/10/ostream **** // software; you can redistribute it and/or modify it under the
   7:/usr/include/c++/10/ostream **** // terms of the GNU General Public License as published by the
   8:/usr/include/c++/10/ostream **** // Free Software Foundation; either version 3, or (at your option)
   9:/usr/include/c++/10/ostream **** // any later version.
  10:/usr/include/c++/10/ostream **** 
  11:/usr/include/c++/10/ostream **** // This library is distributed in the hope that it will be useful,
  12:/usr/include/c++/10/ostream **** // but WITHOUT ANY WARRANTY; without even the implied warranty of
  13:/usr/include/c++/10/ostream **** // MERCHANTABILITY or FITNESS FOR A PARTICULAR PURPOSE.  See the
  14:/usr/include/c++/10/ostream **** // GNU General Public License for more details.
  15:/usr/include/c++/10/ostream **** 
  16:/usr/include/c++/10/ostream **** // Under Section 7 of GPL version 3, you are granted additional
  17:/usr/include/c++/10/ostream **** // permissions described in the GCC Runtime Library Exception, version
  18:/usr/include/c++/10/ostream **** // 3.1, as published by the Free Software Foundation.
  19:/usr/include/c++/10/ostream **** 
  20:/usr/include/c++/10/ostream **** // You should have received a copy of the GNU General Public License and
  21:/usr/include/c++/10/ostream **** // a copy of the GCC Runtime Library Exception along with this program;
  22:/usr/include/c++/10/ostream **** // see the files COPYING3 and COPYING.RUNTIME respectively.  If not, see
  23:/usr/include/c++/10/ostream **** // <http://www.gnu.org/licenses/>.
  24:/usr/include/c++/10/ostream **** 
  25:/usr/include/c++/10/ostream **** /** @file include/ostream
  26:/usr/include/c++/10/ostream ****  *  This is a Standard C++ Library header.
  27:/usr/include/c++/10/ostream ****  */
  28:/usr/include/c++/10/ostream **** 
  29:/usr/include/c++/10/ostream **** //
  30:/usr/include/c++/10/ostream **** // ISO C++ 14882: 27.6.2  Output streams
  31:/usr/include/c++/10/ostream **** //
  32:/usr/include/c++/10/ostream **** 
  33:/usr/include/c++/10/ostream **** #ifndef _GLIBCXX_OSTREAM
  34:/usr/include/c++/10/ostream **** #define _GLIBCXX_OSTREAM 1
  35:/usr/include/c++/10/ostream **** 
  36:/usr/include/c++/10/ostream **** #pragma GCC system_header
  37:/usr/include/c++/10/ostream **** 
  38:/usr/include/c++/10/ostream **** #include <ios>
  39:/usr/include/c++/10/ostream **** #include <bits/ostream_insert.h>
  40:/usr/include/c++/10/ostream **** 
  41:/usr/include/c++/10/ostream **** namespace std _GLIBCXX_VISIBILITY(default)
  42:/usr/include/c++/10/ostream **** {
  43:/usr/include/c++/10/ostream **** _GLIBCXX_BEGIN_NAMESPACE_VERSION
AARCH64 GAS  obj/Ch11_04.s 			page 4


  44:/usr/include/c++/10/ostream **** 
  45:/usr/include/c++/10/ostream ****   /**
  46:/usr/include/c++/10/ostream ****    *  @brief  Template class basic_ostream.
  47:/usr/include/c++/10/ostream ****    *  @ingroup io
  48:/usr/include/c++/10/ostream ****    *
  49:/usr/include/c++/10/ostream ****    *  @tparam _CharT  Type of character stream.
  50:/usr/include/c++/10/ostream ****    *  @tparam _Traits  Traits for character type, defaults to
  51:/usr/include/c++/10/ostream ****    *                   char_traits<_CharT>.
  52:/usr/include/c++/10/ostream ****    *
  53:/usr/include/c++/10/ostream ****    *  This is the base class for all output streams.  It provides text
  54:/usr/include/c++/10/ostream ****    *  formatting of all builtin types, and communicates with any class
  55:/usr/include/c++/10/ostream ****    *  derived from basic_streambuf to do the actual output.
  56:/usr/include/c++/10/ostream ****   */
  57:/usr/include/c++/10/ostream ****   template<typename _CharT, typename _Traits>
  58:/usr/include/c++/10/ostream ****     class basic_ostream : virtual public basic_ios<_CharT, _Traits>
  59:/usr/include/c++/10/ostream ****     {
  60:/usr/include/c++/10/ostream ****     public:
  61:/usr/include/c++/10/ostream ****       // Types (inherited from basic_ios):
  62:/usr/include/c++/10/ostream ****       typedef _CharT			 		char_type;
  63:/usr/include/c++/10/ostream ****       typedef typename _Traits::int_type 		int_type;
  64:/usr/include/c++/10/ostream ****       typedef typename _Traits::pos_type 		pos_type;
  65:/usr/include/c++/10/ostream ****       typedef typename _Traits::off_type 		off_type;
  66:/usr/include/c++/10/ostream ****       typedef _Traits			 		traits_type;
  67:/usr/include/c++/10/ostream **** 
  68:/usr/include/c++/10/ostream ****       // Non-standard Types:
  69:/usr/include/c++/10/ostream ****       typedef basic_streambuf<_CharT, _Traits> 		__streambuf_type;
  70:/usr/include/c++/10/ostream ****       typedef basic_ios<_CharT, _Traits>		__ios_type;
  71:/usr/include/c++/10/ostream ****       typedef basic_ostream<_CharT, _Traits>		__ostream_type;
  72:/usr/include/c++/10/ostream ****       typedef num_put<_CharT, ostreambuf_iterator<_CharT, _Traits> >
  73:/usr/include/c++/10/ostream ****       							__num_put_type;
  74:/usr/include/c++/10/ostream ****       typedef ctype<_CharT>	      			__ctype_type;
  75:/usr/include/c++/10/ostream **** 
  76:/usr/include/c++/10/ostream ****       /**
  77:/usr/include/c++/10/ostream ****        *  @brief  Base constructor.
  78:/usr/include/c++/10/ostream ****        *
  79:/usr/include/c++/10/ostream ****        *  This ctor is almost never called by the user directly, rather from
  80:/usr/include/c++/10/ostream ****        *  derived classes' initialization lists, which pass a pointer to
  81:/usr/include/c++/10/ostream ****        *  their own stream buffer.
  82:/usr/include/c++/10/ostream ****       */
  83:/usr/include/c++/10/ostream ****       explicit
  84:/usr/include/c++/10/ostream ****       basic_ostream(__streambuf_type* __sb)
  85:/usr/include/c++/10/ostream ****       { this->init(__sb); }
  86:/usr/include/c++/10/ostream **** 
  87:/usr/include/c++/10/ostream ****       /**
  88:/usr/include/c++/10/ostream ****        *  @brief  Base destructor.
  89:/usr/include/c++/10/ostream ****        *
  90:/usr/include/c++/10/ostream ****        *  This does very little apart from providing a virtual base dtor.
  91:/usr/include/c++/10/ostream ****       */
  92:/usr/include/c++/10/ostream ****       virtual
  93:/usr/include/c++/10/ostream ****       ~basic_ostream() { }
  94:/usr/include/c++/10/ostream **** 
  95:/usr/include/c++/10/ostream ****       /// Safe prefix/suffix operations.
  96:/usr/include/c++/10/ostream ****       class sentry;
  97:/usr/include/c++/10/ostream ****       friend class sentry;
  98:/usr/include/c++/10/ostream **** 
  99:/usr/include/c++/10/ostream ****       //@{
 100:/usr/include/c++/10/ostream ****       /**
AARCH64 GAS  obj/Ch11_04.s 			page 5


 101:/usr/include/c++/10/ostream ****        *  @brief  Interface for manipulators.
 102:/usr/include/c++/10/ostream ****        *
 103:/usr/include/c++/10/ostream ****        *  Manipulators such as @c std::endl and @c std::hex use these
 104:/usr/include/c++/10/ostream ****        *  functions in constructs like "std::cout << std::endl".  For more
 105:/usr/include/c++/10/ostream ****        *  information, see the iomanip header.
 106:/usr/include/c++/10/ostream ****       */
 107:/usr/include/c++/10/ostream ****       __ostream_type&
 108:/usr/include/c++/10/ostream ****       operator<<(__ostream_type& (*__pf)(__ostream_type&))
 109:/usr/include/c++/10/ostream ****       {
 110:/usr/include/c++/10/ostream **** 	// _GLIBCXX_RESOLVE_LIB_DEFECTS
 111:/usr/include/c++/10/ostream **** 	// DR 60. What is a formatted input function?
 112:/usr/include/c++/10/ostream **** 	// The inserters for manipulators are *not* formatted output functions.
 113:/usr/include/c++/10/ostream **** 	return __pf(*this);
 114:/usr/include/c++/10/ostream ****       }
 115:/usr/include/c++/10/ostream **** 
 116:/usr/include/c++/10/ostream ****       __ostream_type&
 117:/usr/include/c++/10/ostream ****       operator<<(__ios_type& (*__pf)(__ios_type&))
 118:/usr/include/c++/10/ostream ****       {
 119:/usr/include/c++/10/ostream **** 	// _GLIBCXX_RESOLVE_LIB_DEFECTS
 120:/usr/include/c++/10/ostream **** 	// DR 60. What is a formatted input function?
 121:/usr/include/c++/10/ostream **** 	// The inserters for manipulators are *not* formatted output functions.
 122:/usr/include/c++/10/ostream **** 	__pf(*this);
 123:/usr/include/c++/10/ostream **** 	return *this;
 124:/usr/include/c++/10/ostream ****       }
 125:/usr/include/c++/10/ostream **** 
 126:/usr/include/c++/10/ostream ****       __ostream_type&
 127:/usr/include/c++/10/ostream ****       operator<<(ios_base& (*__pf) (ios_base&))
 128:/usr/include/c++/10/ostream ****       {
 129:/usr/include/c++/10/ostream **** 	// _GLIBCXX_RESOLVE_LIB_DEFECTS
 130:/usr/include/c++/10/ostream **** 	// DR 60. What is a formatted input function?
 131:/usr/include/c++/10/ostream **** 	// The inserters for manipulators are *not* formatted output functions.
 132:/usr/include/c++/10/ostream **** 	__pf(*this);
 133:/usr/include/c++/10/ostream **** 	return *this;
 134:/usr/include/c++/10/ostream ****       }
 135:/usr/include/c++/10/ostream ****       //@}
 136:/usr/include/c++/10/ostream **** 
 137:/usr/include/c++/10/ostream ****       //@{
 138:/usr/include/c++/10/ostream ****       /**
 139:/usr/include/c++/10/ostream ****        *  @name Inserters
 140:/usr/include/c++/10/ostream ****        *
 141:/usr/include/c++/10/ostream ****        *  All the @c operator<< functions (aka <em>formatted output
 142:/usr/include/c++/10/ostream ****        *  functions</em>) have some common behavior.  Each starts by
 143:/usr/include/c++/10/ostream ****        *  constructing a temporary object of type std::basic_ostream::sentry.
 144:/usr/include/c++/10/ostream ****        *  This can have several effects, concluding with the setting of a
 145:/usr/include/c++/10/ostream ****        *  status flag; see the sentry documentation for more.
 146:/usr/include/c++/10/ostream ****        *
 147:/usr/include/c++/10/ostream ****        *  If the sentry status is good, the function tries to generate
 148:/usr/include/c++/10/ostream ****        *  whatever data is appropriate for the type of the argument.
 149:/usr/include/c++/10/ostream ****        *
 150:/usr/include/c++/10/ostream ****        *  If an exception is thrown during insertion, ios_base::badbit
 151:/usr/include/c++/10/ostream ****        *  will be turned on in the stream's error state without causing an
 152:/usr/include/c++/10/ostream ****        *  ios_base::failure to be thrown.  The original exception will then
 153:/usr/include/c++/10/ostream ****        *  be rethrown.
 154:/usr/include/c++/10/ostream ****       */
 155:/usr/include/c++/10/ostream **** 
 156:/usr/include/c++/10/ostream ****       //@{
 157:/usr/include/c++/10/ostream ****       /**
AARCH64 GAS  obj/Ch11_04.s 			page 6


 158:/usr/include/c++/10/ostream ****        *  @brief Integer arithmetic inserters
 159:/usr/include/c++/10/ostream ****        *  @param  __n A variable of builtin integral type.
 160:/usr/include/c++/10/ostream ****        *  @return  @c *this if successful
 161:/usr/include/c++/10/ostream ****        *
 162:/usr/include/c++/10/ostream ****        *  These functions use the stream's current locale (specifically, the
 163:/usr/include/c++/10/ostream ****        *  @c num_get facet) to perform numeric formatting.
 164:/usr/include/c++/10/ostream ****       */
 165:/usr/include/c++/10/ostream ****       __ostream_type&
 166:/usr/include/c++/10/ostream ****       operator<<(long __n)
 167:/usr/include/c++/10/ostream ****       { return _M_insert(__n); }
 168:/usr/include/c++/10/ostream **** 
 169:/usr/include/c++/10/ostream ****       __ostream_type&
 170:/usr/include/c++/10/ostream ****       operator<<(unsigned long __n)
 171:/usr/include/c++/10/ostream ****       { return _M_insert(__n); }
 172:/usr/include/c++/10/ostream **** 
 173:/usr/include/c++/10/ostream ****       __ostream_type&
 174:/usr/include/c++/10/ostream ****       operator<<(bool __n)
 175:/usr/include/c++/10/ostream ****       { return _M_insert(__n); }
 176:/usr/include/c++/10/ostream **** 
 177:/usr/include/c++/10/ostream ****       __ostream_type&
 178:/usr/include/c++/10/ostream ****       operator<<(short __n);
 179:/usr/include/c++/10/ostream **** 
 180:/usr/include/c++/10/ostream ****       __ostream_type&
 181:/usr/include/c++/10/ostream ****       operator<<(unsigned short __n)
 182:/usr/include/c++/10/ostream ****       {
 183:/usr/include/c++/10/ostream **** 	// _GLIBCXX_RESOLVE_LIB_DEFECTS
 184:/usr/include/c++/10/ostream **** 	// 117. basic_ostream uses nonexistent num_put member functions.
 185:/usr/include/c++/10/ostream **** 	return _M_insert(static_cast<unsigned long>(__n));
 186:/usr/include/c++/10/ostream ****       }
 187:/usr/include/c++/10/ostream **** 
 188:/usr/include/c++/10/ostream ****       __ostream_type&
 189:/usr/include/c++/10/ostream ****       operator<<(int __n);
 190:/usr/include/c++/10/ostream **** 
 191:/usr/include/c++/10/ostream ****       __ostream_type&
 192:/usr/include/c++/10/ostream ****       operator<<(unsigned int __n)
 193:/usr/include/c++/10/ostream ****       {
 194:/usr/include/c++/10/ostream **** 	// _GLIBCXX_RESOLVE_LIB_DEFECTS
 195:/usr/include/c++/10/ostream **** 	// 117. basic_ostream uses nonexistent num_put member functions.
 196:/usr/include/c++/10/ostream **** 	return _M_insert(static_cast<unsigned long>(__n));
 197:/usr/include/c++/10/ostream ****       }
 198:/usr/include/c++/10/ostream **** 
 199:/usr/include/c++/10/ostream **** #ifdef _GLIBCXX_USE_LONG_LONG
 200:/usr/include/c++/10/ostream ****       __ostream_type&
 201:/usr/include/c++/10/ostream ****       operator<<(long long __n)
 202:/usr/include/c++/10/ostream ****       { return _M_insert(__n); }
 203:/usr/include/c++/10/ostream **** 
 204:/usr/include/c++/10/ostream ****       __ostream_type&
 205:/usr/include/c++/10/ostream ****       operator<<(unsigned long long __n)
 206:/usr/include/c++/10/ostream ****       { return _M_insert(__n); }
 207:/usr/include/c++/10/ostream **** #endif
 208:/usr/include/c++/10/ostream ****       //@}
 209:/usr/include/c++/10/ostream **** 
 210:/usr/include/c++/10/ostream ****       //@{
 211:/usr/include/c++/10/ostream ****       /**
 212:/usr/include/c++/10/ostream ****        *  @brief  Floating point arithmetic inserters
 213:/usr/include/c++/10/ostream ****        *  @param  __f A variable of builtin floating point type.
 214:/usr/include/c++/10/ostream ****        *  @return  @c *this if successful
AARCH64 GAS  obj/Ch11_04.s 			page 7


 215:/usr/include/c++/10/ostream ****        *
 216:/usr/include/c++/10/ostream ****        *  These functions use the stream's current locale (specifically, the
 217:/usr/include/c++/10/ostream ****        *  @c num_get facet) to perform numeric formatting.
 218:/usr/include/c++/10/ostream ****       */
 219:/usr/include/c++/10/ostream ****       __ostream_type&
 220:/usr/include/c++/10/ostream ****       operator<<(double __f)
 221:/usr/include/c++/10/ostream ****       { return _M_insert(__f); }
 222:/usr/include/c++/10/ostream **** 
 223:/usr/include/c++/10/ostream ****       __ostream_type&
 224:/usr/include/c++/10/ostream ****       operator<<(float __f)
 225:/usr/include/c++/10/ostream ****       {
 226:/usr/include/c++/10/ostream **** 	// _GLIBCXX_RESOLVE_LIB_DEFECTS
 227:/usr/include/c++/10/ostream **** 	// 117. basic_ostream uses nonexistent num_put member functions.
 228:/usr/include/c++/10/ostream **** 	return _M_insert(static_cast<double>(__f));
 229:/usr/include/c++/10/ostream ****       }
 230:/usr/include/c++/10/ostream **** 
 231:/usr/include/c++/10/ostream ****       __ostream_type&
 232:/usr/include/c++/10/ostream ****       operator<<(long double __f)
 233:/usr/include/c++/10/ostream ****       { return _M_insert(__f); }
 234:/usr/include/c++/10/ostream ****       //@}
 235:/usr/include/c++/10/ostream **** 
 236:/usr/include/c++/10/ostream ****       /**
 237:/usr/include/c++/10/ostream ****        *  @brief  Pointer arithmetic inserters
 238:/usr/include/c++/10/ostream ****        *  @param  __p A variable of pointer type.
 239:/usr/include/c++/10/ostream ****        *  @return  @c *this if successful
 240:/usr/include/c++/10/ostream ****        *
 241:/usr/include/c++/10/ostream ****        *  These functions use the stream's current locale (specifically, the
 242:/usr/include/c++/10/ostream ****        *  @c num_get facet) to perform numeric formatting.
 243:/usr/include/c++/10/ostream ****       */
 244:/usr/include/c++/10/ostream ****       __ostream_type&
 245:/usr/include/c++/10/ostream ****       operator<<(const void* __p)
 246:/usr/include/c++/10/ostream ****       { return _M_insert(__p); }
 247:/usr/include/c++/10/ostream **** 
 248:/usr/include/c++/10/ostream **** #if __cplusplus >= 201703L
 249:/usr/include/c++/10/ostream ****       __ostream_type&
 250:/usr/include/c++/10/ostream ****       operator<<(nullptr_t)
 251:/usr/include/c++/10/ostream ****       { return *this << "nullptr"; }
 252:/usr/include/c++/10/ostream **** #endif
 253:/usr/include/c++/10/ostream **** 
 254:/usr/include/c++/10/ostream ****       /**
 255:/usr/include/c++/10/ostream ****        *  @brief  Extracting from another streambuf.
 256:/usr/include/c++/10/ostream ****        *  @param  __sb  A pointer to a streambuf
 257:/usr/include/c++/10/ostream ****        *
 258:/usr/include/c++/10/ostream ****        *  This function behaves like one of the basic arithmetic extractors,
 259:/usr/include/c++/10/ostream ****        *  in that it also constructs a sentry object and has the same error
 260:/usr/include/c++/10/ostream ****        *  handling behavior.
 261:/usr/include/c++/10/ostream ****        *
 262:/usr/include/c++/10/ostream ****        *  If @p __sb is NULL, the stream will set failbit in its error state.
 263:/usr/include/c++/10/ostream ****        *
 264:/usr/include/c++/10/ostream ****        *  Characters are extracted from @p __sb and inserted into @c *this
 265:/usr/include/c++/10/ostream ****        *  until one of the following occurs:
 266:/usr/include/c++/10/ostream ****        *
 267:/usr/include/c++/10/ostream ****        *  - the input stream reaches end-of-file,
 268:/usr/include/c++/10/ostream ****        *  - insertion into the output sequence fails (in this case, the
 269:/usr/include/c++/10/ostream ****        *    character that would have been inserted is not extracted), or
 270:/usr/include/c++/10/ostream ****        *  - an exception occurs while getting a character from @p __sb, which
 271:/usr/include/c++/10/ostream ****        *    sets failbit in the error state
AARCH64 GAS  obj/Ch11_04.s 			page 8


 272:/usr/include/c++/10/ostream ****        *
 273:/usr/include/c++/10/ostream ****        *  If the function inserts no characters, failbit is set.
 274:/usr/include/c++/10/ostream ****       */
 275:/usr/include/c++/10/ostream ****       __ostream_type&
 276:/usr/include/c++/10/ostream ****       operator<<(__streambuf_type* __sb);
 277:/usr/include/c++/10/ostream ****       //@}
 278:/usr/include/c++/10/ostream **** 
 279:/usr/include/c++/10/ostream ****       //@{
 280:/usr/include/c++/10/ostream ****       /**
 281:/usr/include/c++/10/ostream ****        *  @name Unformatted Output Functions
 282:/usr/include/c++/10/ostream ****        *
 283:/usr/include/c++/10/ostream ****        *  All the unformatted output functions have some common behavior.
 284:/usr/include/c++/10/ostream ****        *  Each starts by constructing a temporary object of type
 285:/usr/include/c++/10/ostream ****        *  std::basic_ostream::sentry.  This has several effects, concluding
 286:/usr/include/c++/10/ostream ****        *  with the setting of a status flag; see the sentry documentation
 287:/usr/include/c++/10/ostream ****        *  for more.
 288:/usr/include/c++/10/ostream ****        *
 289:/usr/include/c++/10/ostream ****        *  If the sentry status is good, the function tries to generate
 290:/usr/include/c++/10/ostream ****        *  whatever data is appropriate for the type of the argument.
 291:/usr/include/c++/10/ostream ****        *
 292:/usr/include/c++/10/ostream ****        *  If an exception is thrown during insertion, ios_base::badbit
 293:/usr/include/c++/10/ostream ****        *  will be turned on in the stream's error state.  If badbit is on in
 294:/usr/include/c++/10/ostream ****        *  the stream's exceptions mask, the exception will be rethrown
 295:/usr/include/c++/10/ostream ****        *  without completing its actions.
 296:/usr/include/c++/10/ostream ****       */
 297:/usr/include/c++/10/ostream **** 
 298:/usr/include/c++/10/ostream ****       /**
 299:/usr/include/c++/10/ostream ****        *  @brief  Simple insertion.
 300:/usr/include/c++/10/ostream ****        *  @param  __c  The character to insert.
 301:/usr/include/c++/10/ostream ****        *  @return  *this
 302:/usr/include/c++/10/ostream ****        *
 303:/usr/include/c++/10/ostream ****        *  Tries to insert @p __c.
 304:/usr/include/c++/10/ostream ****        *
 305:/usr/include/c++/10/ostream ****        *  @note  This function is not overloaded on signed char and
 306:/usr/include/c++/10/ostream ****        *         unsigned char.
 307:/usr/include/c++/10/ostream ****       */
 308:/usr/include/c++/10/ostream ****       __ostream_type&
 309:/usr/include/c++/10/ostream ****       put(char_type __c);
 310:/usr/include/c++/10/ostream **** 
 311:/usr/include/c++/10/ostream ****       /**
 312:/usr/include/c++/10/ostream ****        *  @brief  Core write functionality, without sentry.
 313:/usr/include/c++/10/ostream ****        *  @param  __s  The array to insert.
 314:/usr/include/c++/10/ostream ****        *  @param  __n  Maximum number of characters to insert.
 315:/usr/include/c++/10/ostream ****       */
 316:/usr/include/c++/10/ostream ****       void
 317:/usr/include/c++/10/ostream ****       _M_write(const char_type* __s, streamsize __n)
 318:/usr/include/c++/10/ostream ****       {
 319:/usr/include/c++/10/ostream **** 	const streamsize __put = this->rdbuf()->sputn(__s, __n);
 320:/usr/include/c++/10/ostream **** 	if (__put != __n)
 321:/usr/include/c++/10/ostream **** 	  this->setstate(ios_base::badbit);
 322:/usr/include/c++/10/ostream ****       }
 323:/usr/include/c++/10/ostream **** 
 324:/usr/include/c++/10/ostream ****       /**
 325:/usr/include/c++/10/ostream ****        *  @brief  Character string insertion.
 326:/usr/include/c++/10/ostream ****        *  @param  __s  The array to insert.
 327:/usr/include/c++/10/ostream ****        *  @param  __n  Maximum number of characters to insert.
 328:/usr/include/c++/10/ostream ****        *  @return  *this
AARCH64 GAS  obj/Ch11_04.s 			page 9


 329:/usr/include/c++/10/ostream ****        *
 330:/usr/include/c++/10/ostream ****        *  Characters are copied from @p __s and inserted into the stream until
 331:/usr/include/c++/10/ostream ****        *  one of the following happens:
 332:/usr/include/c++/10/ostream ****        *
 333:/usr/include/c++/10/ostream ****        *  - @p __n characters are inserted
 334:/usr/include/c++/10/ostream ****        *  - inserting into the output sequence fails (in this case, badbit
 335:/usr/include/c++/10/ostream ****        *    will be set in the stream's error state)
 336:/usr/include/c++/10/ostream ****        *
 337:/usr/include/c++/10/ostream ****        *  @note  This function is not overloaded on signed char and
 338:/usr/include/c++/10/ostream ****        *         unsigned char.
 339:/usr/include/c++/10/ostream ****       */
 340:/usr/include/c++/10/ostream ****       __ostream_type&
 341:/usr/include/c++/10/ostream ****       write(const char_type* __s, streamsize __n);
 342:/usr/include/c++/10/ostream ****       //@}
 343:/usr/include/c++/10/ostream **** 
 344:/usr/include/c++/10/ostream ****       /**
 345:/usr/include/c++/10/ostream ****        *  @brief  Synchronizing the stream buffer.
 346:/usr/include/c++/10/ostream ****        *  @return  *this
 347:/usr/include/c++/10/ostream ****        *
 348:/usr/include/c++/10/ostream ****        *  If @c rdbuf() is a null pointer, changes nothing.
 349:/usr/include/c++/10/ostream ****        *
 350:/usr/include/c++/10/ostream ****        *  Otherwise, calls @c rdbuf()->pubsync(), and if that returns -1,
 351:/usr/include/c++/10/ostream ****        *  sets badbit.
 352:/usr/include/c++/10/ostream ****       */
 353:/usr/include/c++/10/ostream ****       __ostream_type&
 354:/usr/include/c++/10/ostream ****       flush();
 355:/usr/include/c++/10/ostream **** 
 356:/usr/include/c++/10/ostream ****       /**
 357:/usr/include/c++/10/ostream ****        *  @brief  Getting the current write position.
 358:/usr/include/c++/10/ostream ****        *  @return  A file position object.
 359:/usr/include/c++/10/ostream ****        *
 360:/usr/include/c++/10/ostream ****        *  If @c fail() is not false, returns @c pos_type(-1) to indicate
 361:/usr/include/c++/10/ostream ****        *  failure.  Otherwise returns @c rdbuf()->pubseekoff(0,cur,out).
 362:/usr/include/c++/10/ostream ****       */
 363:/usr/include/c++/10/ostream ****       pos_type
 364:/usr/include/c++/10/ostream ****       tellp();
 365:/usr/include/c++/10/ostream **** 
 366:/usr/include/c++/10/ostream ****       /**
 367:/usr/include/c++/10/ostream ****        *  @brief  Changing the current write position.
 368:/usr/include/c++/10/ostream ****        *  @param  __pos  A file position object.
 369:/usr/include/c++/10/ostream ****        *  @return  *this
 370:/usr/include/c++/10/ostream ****        *
 371:/usr/include/c++/10/ostream ****        *  If @c fail() is not true, calls @c rdbuf()->pubseekpos(pos).  If
 372:/usr/include/c++/10/ostream ****        *  that function fails, sets failbit.
 373:/usr/include/c++/10/ostream ****       */
 374:/usr/include/c++/10/ostream ****       __ostream_type&
 375:/usr/include/c++/10/ostream ****       seekp(pos_type);
 376:/usr/include/c++/10/ostream **** 
 377:/usr/include/c++/10/ostream ****       /**
 378:/usr/include/c++/10/ostream ****        *  @brief  Changing the current write position.
 379:/usr/include/c++/10/ostream ****        *  @param  __off  A file offset object.
 380:/usr/include/c++/10/ostream ****        *  @param  __dir  The direction in which to seek.
 381:/usr/include/c++/10/ostream ****        *  @return  *this
 382:/usr/include/c++/10/ostream ****        *
 383:/usr/include/c++/10/ostream ****        *  If @c fail() is not true, calls @c rdbuf()->pubseekoff(off,dir).
 384:/usr/include/c++/10/ostream ****        *  If that function fails, sets failbit.
 385:/usr/include/c++/10/ostream ****       */
AARCH64 GAS  obj/Ch11_04.s 			page 10


 386:/usr/include/c++/10/ostream ****        __ostream_type&
 387:/usr/include/c++/10/ostream ****       seekp(off_type, ios_base::seekdir);
 388:/usr/include/c++/10/ostream **** 
 389:/usr/include/c++/10/ostream ****     protected:
 390:/usr/include/c++/10/ostream ****       basic_ostream()
 391:/usr/include/c++/10/ostream ****       { this->init(0); }
 392:/usr/include/c++/10/ostream **** 
 393:/usr/include/c++/10/ostream **** #if __cplusplus >= 201103L
 394:/usr/include/c++/10/ostream ****       // Non-standard constructor that does not call init()
 395:/usr/include/c++/10/ostream ****       basic_ostream(basic_iostream<_CharT, _Traits>&) { }
 396:/usr/include/c++/10/ostream **** 
 397:/usr/include/c++/10/ostream ****       basic_ostream(const basic_ostream&) = delete;
 398:/usr/include/c++/10/ostream **** 
 399:/usr/include/c++/10/ostream ****       basic_ostream(basic_ostream&& __rhs)
 400:/usr/include/c++/10/ostream ****       : __ios_type()
 401:/usr/include/c++/10/ostream ****       { __ios_type::move(__rhs); }
 402:/usr/include/c++/10/ostream **** 
 403:/usr/include/c++/10/ostream ****       // 27.7.3.3 Assign/swap
 404:/usr/include/c++/10/ostream **** 
 405:/usr/include/c++/10/ostream ****       basic_ostream& operator=(const basic_ostream&) = delete;
 406:/usr/include/c++/10/ostream **** 
 407:/usr/include/c++/10/ostream ****       basic_ostream&
 408:/usr/include/c++/10/ostream ****       operator=(basic_ostream&& __rhs)
 409:/usr/include/c++/10/ostream ****       {
 410:/usr/include/c++/10/ostream **** 	swap(__rhs);
 411:/usr/include/c++/10/ostream **** 	return *this;
 412:/usr/include/c++/10/ostream ****       }
 413:/usr/include/c++/10/ostream **** 
 414:/usr/include/c++/10/ostream ****       void
 415:/usr/include/c++/10/ostream ****       swap(basic_ostream& __rhs)
 416:/usr/include/c++/10/ostream ****       { __ios_type::swap(__rhs); }
 417:/usr/include/c++/10/ostream **** #endif
 418:/usr/include/c++/10/ostream **** 
 419:/usr/include/c++/10/ostream ****       template<typename _ValueT>
 420:/usr/include/c++/10/ostream **** 	__ostream_type&
 421:/usr/include/c++/10/ostream **** 	_M_insert(_ValueT __v);
 422:/usr/include/c++/10/ostream ****     };
 423:/usr/include/c++/10/ostream **** 
 424:/usr/include/c++/10/ostream ****   /**
 425:/usr/include/c++/10/ostream ****    *  @brief  Performs setup work for output streams.
 426:/usr/include/c++/10/ostream ****    *
 427:/usr/include/c++/10/ostream ****    *  Objects of this class are created before all of the standard
 428:/usr/include/c++/10/ostream ****    *  inserters are run.  It is responsible for <em>exception-safe prefix and
 429:/usr/include/c++/10/ostream ****    *  suffix operations</em>.
 430:/usr/include/c++/10/ostream ****   */
 431:/usr/include/c++/10/ostream ****   template <typename _CharT, typename _Traits>
 432:/usr/include/c++/10/ostream ****     class basic_ostream<_CharT, _Traits>::sentry
 433:/usr/include/c++/10/ostream ****     {
 434:/usr/include/c++/10/ostream ****       // Data Members.
 435:/usr/include/c++/10/ostream ****       bool 				_M_ok;
 436:/usr/include/c++/10/ostream ****       basic_ostream<_CharT, _Traits>& 	_M_os;
 437:/usr/include/c++/10/ostream **** 
 438:/usr/include/c++/10/ostream ****     public:
 439:/usr/include/c++/10/ostream ****       /**
 440:/usr/include/c++/10/ostream ****        *  @brief  The constructor performs preparatory work.
 441:/usr/include/c++/10/ostream ****        *  @param  __os  The output stream to guard.
 442:/usr/include/c++/10/ostream ****        *
AARCH64 GAS  obj/Ch11_04.s 			page 11


 443:/usr/include/c++/10/ostream ****        *  If the stream state is good (@a __os.good() is true), then if the
 444:/usr/include/c++/10/ostream ****        *  stream is tied to another output stream, @c is.tie()->flush()
 445:/usr/include/c++/10/ostream ****        *  is called to synchronize the output sequences.
 446:/usr/include/c++/10/ostream ****        *
 447:/usr/include/c++/10/ostream ****        *  If the stream state is still good, then the sentry state becomes
 448:/usr/include/c++/10/ostream ****        *  true (@a okay).
 449:/usr/include/c++/10/ostream ****       */
 450:/usr/include/c++/10/ostream ****       explicit
 451:/usr/include/c++/10/ostream ****       sentry(basic_ostream<_CharT, _Traits>& __os);
 452:/usr/include/c++/10/ostream **** 
 453:/usr/include/c++/10/ostream **** #pragma GCC diagnostic push
 454:/usr/include/c++/10/ostream **** #pragma GCC diagnostic ignored "-Wdeprecated-declarations"
 455:/usr/include/c++/10/ostream ****       /**
 456:/usr/include/c++/10/ostream ****        *  @brief  Possibly flushes the stream.
 457:/usr/include/c++/10/ostream ****        *
 458:/usr/include/c++/10/ostream ****        *  If @c ios_base::unitbuf is set in @c os.flags(), and
 459:/usr/include/c++/10/ostream ****        *  @c std::uncaught_exception() is true, the sentry destructor calls
 460:/usr/include/c++/10/ostream ****        *  @c flush() on the output stream.
 461:/usr/include/c++/10/ostream ****       */
 462:/usr/include/c++/10/ostream ****       ~sentry()
 463:/usr/include/c++/10/ostream ****       {
 464:/usr/include/c++/10/ostream **** 	// XXX MT
 465:/usr/include/c++/10/ostream **** 	if (bool(_M_os.flags() & ios_base::unitbuf) && !uncaught_exception())
 466:/usr/include/c++/10/ostream **** 	  {
 467:/usr/include/c++/10/ostream **** 	    // Can't call flush directly or else will get into recursive lock.
 468:/usr/include/c++/10/ostream **** 	    if (_M_os.rdbuf() && _M_os.rdbuf()->pubsync() == -1)
 469:/usr/include/c++/10/ostream **** 	      _M_os.setstate(ios_base::badbit);
 470:/usr/include/c++/10/ostream **** 	  }
 471:/usr/include/c++/10/ostream ****       }
 472:/usr/include/c++/10/ostream **** #pragma GCC diagnostic pop
 473:/usr/include/c++/10/ostream **** 
 474:/usr/include/c++/10/ostream ****       /**
 475:/usr/include/c++/10/ostream ****        *  @brief  Quick status checking.
 476:/usr/include/c++/10/ostream ****        *  @return  The sentry state.
 477:/usr/include/c++/10/ostream ****        *
 478:/usr/include/c++/10/ostream ****        *  For ease of use, sentries may be converted to booleans.  The
 479:/usr/include/c++/10/ostream ****        *  return value is that of the sentry state (true == okay).
 480:/usr/include/c++/10/ostream ****       */
 481:/usr/include/c++/10/ostream **** #if __cplusplus >= 201103L
 482:/usr/include/c++/10/ostream ****       explicit
 483:/usr/include/c++/10/ostream **** #endif
 484:/usr/include/c++/10/ostream ****       operator bool() const
 485:/usr/include/c++/10/ostream ****       { return _M_ok; }
 486:/usr/include/c++/10/ostream ****     };
 487:/usr/include/c++/10/ostream **** 
 488:/usr/include/c++/10/ostream ****   //@{
 489:/usr/include/c++/10/ostream ****   /**
 490:/usr/include/c++/10/ostream ****    *  @brief  Character inserters
 491:/usr/include/c++/10/ostream ****    *  @param  __out  An output stream.
 492:/usr/include/c++/10/ostream ****    *  @param  __c  A character.
 493:/usr/include/c++/10/ostream ****    *  @return  out
 494:/usr/include/c++/10/ostream ****    *
 495:/usr/include/c++/10/ostream ****    *  Behaves like one of the formatted arithmetic inserters described in
 496:/usr/include/c++/10/ostream ****    *  std::basic_ostream.  After constructing a sentry object with good
 497:/usr/include/c++/10/ostream ****    *  status, this function inserts a single character and any required
 498:/usr/include/c++/10/ostream ****    *  padding (as determined by [22.2.2.2.2]).  @c __out.width(0) is then
 499:/usr/include/c++/10/ostream ****    *  called.
AARCH64 GAS  obj/Ch11_04.s 			page 12


 500:/usr/include/c++/10/ostream ****    *
 501:/usr/include/c++/10/ostream ****    *  If @p __c is of type @c char and the character type of the stream is not
 502:/usr/include/c++/10/ostream ****    *  @c char, the character is widened before insertion.
 503:/usr/include/c++/10/ostream ****   */
 504:/usr/include/c++/10/ostream ****   template<typename _CharT, typename _Traits>
 505:/usr/include/c++/10/ostream ****     inline basic_ostream<_CharT, _Traits>&
 506:/usr/include/c++/10/ostream ****     operator<<(basic_ostream<_CharT, _Traits>& __out, _CharT __c)
 507:/usr/include/c++/10/ostream ****     { return __ostream_insert(__out, &__c, 1); }
 508:/usr/include/c++/10/ostream **** 
 509:/usr/include/c++/10/ostream ****   template<typename _CharT, typename _Traits>
 510:/usr/include/c++/10/ostream ****     inline basic_ostream<_CharT, _Traits>&
 511:/usr/include/c++/10/ostream ****     operator<<(basic_ostream<_CharT, _Traits>& __out, char __c)
 512:/usr/include/c++/10/ostream ****     { return (__out << __out.widen(__c)); }
 513:/usr/include/c++/10/ostream **** 
 514:/usr/include/c++/10/ostream ****   // Specialization
 515:/usr/include/c++/10/ostream ****   template<typename _Traits>
 516:/usr/include/c++/10/ostream ****     inline basic_ostream<char, _Traits>&
 517:/usr/include/c++/10/ostream ****     operator<<(basic_ostream<char, _Traits>& __out, char __c)
 518:/usr/include/c++/10/ostream ****     { return __ostream_insert(__out, &__c, 1); }
 519:/usr/include/c++/10/ostream **** 
 520:/usr/include/c++/10/ostream ****   // Signed and unsigned
 521:/usr/include/c++/10/ostream ****   template<typename _Traits>
 522:/usr/include/c++/10/ostream ****     inline basic_ostream<char, _Traits>&
 523:/usr/include/c++/10/ostream ****     operator<<(basic_ostream<char, _Traits>& __out, signed char __c)
 524:/usr/include/c++/10/ostream ****     { return (__out << static_cast<char>(__c)); }
 525:/usr/include/c++/10/ostream **** 
 526:/usr/include/c++/10/ostream ****   template<typename _Traits>
 527:/usr/include/c++/10/ostream ****     inline basic_ostream<char, _Traits>&
 528:/usr/include/c++/10/ostream ****     operator<<(basic_ostream<char, _Traits>& __out, unsigned char __c)
 529:/usr/include/c++/10/ostream ****     { return (__out << static_cast<char>(__c)); }
 530:/usr/include/c++/10/ostream **** 
 531:/usr/include/c++/10/ostream **** #if __cplusplus > 201703L
 532:/usr/include/c++/10/ostream ****   // The following deleted overloads prevent formatting character values as
 533:/usr/include/c++/10/ostream ****   // numeric values.
 534:/usr/include/c++/10/ostream **** 
 535:/usr/include/c++/10/ostream **** #ifdef _GLIBCXX_USE_WCHAR_T
 536:/usr/include/c++/10/ostream ****   template<typename _Traits>
 537:/usr/include/c++/10/ostream ****     basic_ostream<char, _Traits>&
 538:/usr/include/c++/10/ostream ****     operator<<(basic_ostream<char, _Traits>&, wchar_t) = delete;
 539:/usr/include/c++/10/ostream **** #endif // _GLIBCXX_USE_WCHAR_T
 540:/usr/include/c++/10/ostream **** 
 541:/usr/include/c++/10/ostream **** #ifdef _GLIBCXX_USE_CHAR8_T
 542:/usr/include/c++/10/ostream ****   template<typename _Traits>
 543:/usr/include/c++/10/ostream ****     basic_ostream<char, _Traits>&
 544:/usr/include/c++/10/ostream ****     operator<<(basic_ostream<char, _Traits>&, char8_t) = delete;
 545:/usr/include/c++/10/ostream **** #endif
 546:/usr/include/c++/10/ostream **** 
 547:/usr/include/c++/10/ostream ****   template<typename _Traits>
 548:/usr/include/c++/10/ostream ****     basic_ostream<char, _Traits>&
 549:/usr/include/c++/10/ostream ****     operator<<(basic_ostream<char, _Traits>&, char16_t) = delete;
 550:/usr/include/c++/10/ostream **** 
 551:/usr/include/c++/10/ostream ****   template<typename _Traits>
 552:/usr/include/c++/10/ostream ****     basic_ostream<char, _Traits>&
 553:/usr/include/c++/10/ostream ****     operator<<(basic_ostream<char, _Traits>&, char32_t) = delete;
 554:/usr/include/c++/10/ostream **** 
 555:/usr/include/c++/10/ostream **** #ifdef _GLIBCXX_USE_WCHAR_T
 556:/usr/include/c++/10/ostream **** #ifdef _GLIBCXX_USE_CHAR8_T
AARCH64 GAS  obj/Ch11_04.s 			page 13


 557:/usr/include/c++/10/ostream ****   template<typename _Traits>
 558:/usr/include/c++/10/ostream ****     basic_ostream<wchar_t, _Traits>&
 559:/usr/include/c++/10/ostream ****     operator<<(basic_ostream<wchar_t, _Traits>&, char8_t) = delete;
 560:/usr/include/c++/10/ostream **** #endif // _GLIBCXX_USE_CHAR8_T
 561:/usr/include/c++/10/ostream **** 
 562:/usr/include/c++/10/ostream ****   template<typename _Traits>
 563:/usr/include/c++/10/ostream ****     basic_ostream<wchar_t, _Traits>&
 564:/usr/include/c++/10/ostream ****     operator<<(basic_ostream<wchar_t, _Traits>&, char16_t) = delete;
 565:/usr/include/c++/10/ostream **** 
 566:/usr/include/c++/10/ostream ****   template<typename _Traits>
 567:/usr/include/c++/10/ostream ****     basic_ostream<wchar_t, _Traits>&
 568:/usr/include/c++/10/ostream ****     operator<<(basic_ostream<wchar_t, _Traits>&, char32_t) = delete;
 569:/usr/include/c++/10/ostream **** #endif // _GLIBCXX_USE_WCHAR_T
 570:/usr/include/c++/10/ostream **** #endif // C++20
 571:/usr/include/c++/10/ostream ****   //@}
 572:/usr/include/c++/10/ostream **** 
 573:/usr/include/c++/10/ostream ****   //@{
 574:/usr/include/c++/10/ostream ****   /**
 575:/usr/include/c++/10/ostream ****    *  @brief  String inserters
 576:/usr/include/c++/10/ostream ****    *  @param  __out  An output stream.
 577:/usr/include/c++/10/ostream ****    *  @param  __s  A character string.
 578:/usr/include/c++/10/ostream ****    *  @return  out
 579:/usr/include/c++/10/ostream ****    *  @pre  @p __s must be a non-NULL pointer
 580:/usr/include/c++/10/ostream ****    *
 581:/usr/include/c++/10/ostream ****    *  Behaves like one of the formatted arithmetic inserters described in
 582:/usr/include/c++/10/ostream ****    *  std::basic_ostream.  After constructing a sentry object with good
 583:/usr/include/c++/10/ostream ****    *  status, this function inserts @c traits::length(__s) characters starting
 584:/usr/include/c++/10/ostream ****    *  at @p __s, widened if necessary, followed by any required padding (as
 585:/usr/include/c++/10/ostream ****    *  determined by [22.2.2.2.2]).  @c __out.width(0) is then called.
 586:/usr/include/c++/10/ostream ****   */
 587:/usr/include/c++/10/ostream ****   template<typename _CharT, typename _Traits>
 588:/usr/include/c++/10/ostream ****     inline basic_ostream<_CharT, _Traits>&
 589:/usr/include/c++/10/ostream ****     operator<<(basic_ostream<_CharT, _Traits>& __out, const _CharT* __s)
 590:/usr/include/c++/10/ostream ****     {
 591:/usr/include/c++/10/ostream ****       if (!__s)
 592:/usr/include/c++/10/ostream **** 	__out.setstate(ios_base::badbit);
 593:/usr/include/c++/10/ostream ****       else
 594:/usr/include/c++/10/ostream **** 	__ostream_insert(__out, __s,
 595:/usr/include/c++/10/ostream **** 			 static_cast<streamsize>(_Traits::length(__s)));
 596:/usr/include/c++/10/ostream ****       return __out;
 597:/usr/include/c++/10/ostream ****     }
 598:/usr/include/c++/10/ostream **** 
 599:/usr/include/c++/10/ostream ****   template<typename _CharT, typename _Traits>
 600:/usr/include/c++/10/ostream ****     basic_ostream<_CharT, _Traits> &
 601:/usr/include/c++/10/ostream ****     operator<<(basic_ostream<_CharT, _Traits>& __out, const char* __s);
 602:/usr/include/c++/10/ostream **** 
 603:/usr/include/c++/10/ostream ****   // Partial specializations
 604:/usr/include/c++/10/ostream ****   template<typename _Traits>
 605:/usr/include/c++/10/ostream ****     inline basic_ostream<char, _Traits>&
 606:/usr/include/c++/10/ostream ****     operator<<(basic_ostream<char, _Traits>& __out, const char* __s)
 607:/usr/include/c++/10/ostream ****     {
 608:/usr/include/c++/10/ostream ****       if (!__s)
 609:/usr/include/c++/10/ostream **** 	__out.setstate(ios_base::badbit);
 610:/usr/include/c++/10/ostream ****       else
 611:/usr/include/c++/10/ostream **** 	__ostream_insert(__out, __s,
  46              		.loc 2 611 18 view .LVU8
  47 0014 13000090 		adrp	x19, :got:_ZSt4cout
AARCH64 GAS  obj/Ch11_04.s 			page 14


  48              	.LBE81:
  49              	.LBE80:
  50              		.loc 1 19 30 view .LVU9
  51 0018 00000094 		bl	TestLDR1_
  52              	.LVL1:
  53              	.LBB84:
  54              	.LBB82:
  55              		.loc 2 611 18 view .LVU10
  56 001c 730240F9 		ldr	x19, [x19, #:got_lo12:_ZSt4cout]
  57 0020 420180D2 		mov	x2, 10
  58              	.LBE82:
  59              	.LBE84:
  60              		.loc 1 19 30 view .LVU11
  61 0024 F403002A 		mov	w20, w0
  62              	.LVL2:
  20:Ch11_04.cpp   **** 
  21:Ch11_04.cpp   ****     cout << "TestLDR1_(" << i << ", " << j << ") = " << test_ldr1 << nl;
  63              		.loc 1 21 5 is_stmt 1 view .LVU12
  64              	.LBB85:
  65              	.LBI80:
 606:/usr/include/c++/10/ostream ****     {
  66              		.loc 2 606 5 view .LVU13
 606:/usr/include/c++/10/ostream ****     {
  67              		.loc 2 606 5 is_stmt 0 view .LVU14
  68              	.LBE85:
  69              		.file 3 "/usr/include/c++/10/bits/char_traits.h"
   1:/usr/include/c++/10/bits/char_traits.h **** // Character Traits for use by standard string and iostream -*- C++ -*-
   2:/usr/include/c++/10/bits/char_traits.h **** 
   3:/usr/include/c++/10/bits/char_traits.h **** // Copyright (C) 1997-2020 Free Software Foundation, Inc.
   4:/usr/include/c++/10/bits/char_traits.h **** //
   5:/usr/include/c++/10/bits/char_traits.h **** // This file is part of the GNU ISO C++ Library.  This library is free
   6:/usr/include/c++/10/bits/char_traits.h **** // software; you can redistribute it and/or modify it under the
   7:/usr/include/c++/10/bits/char_traits.h **** // terms of the GNU General Public License as published by the
   8:/usr/include/c++/10/bits/char_traits.h **** // Free Software Foundation; either version 3, or (at your option)
   9:/usr/include/c++/10/bits/char_traits.h **** // any later version.
  10:/usr/include/c++/10/bits/char_traits.h **** 
  11:/usr/include/c++/10/bits/char_traits.h **** // This library is distributed in the hope that it will be useful,
  12:/usr/include/c++/10/bits/char_traits.h **** // but WITHOUT ANY WARRANTY; without even the implied warranty of
  13:/usr/include/c++/10/bits/char_traits.h **** // MERCHANTABILITY or FITNESS FOR A PARTICULAR PURPOSE.  See the
  14:/usr/include/c++/10/bits/char_traits.h **** // GNU General Public License for more details.
  15:/usr/include/c++/10/bits/char_traits.h **** 
  16:/usr/include/c++/10/bits/char_traits.h **** // Under Section 7 of GPL version 3, you are granted additional
  17:/usr/include/c++/10/bits/char_traits.h **** // permissions described in the GCC Runtime Library Exception, version
  18:/usr/include/c++/10/bits/char_traits.h **** // 3.1, as published by the Free Software Foundation.
  19:/usr/include/c++/10/bits/char_traits.h **** 
  20:/usr/include/c++/10/bits/char_traits.h **** // You should have received a copy of the GNU General Public License and
  21:/usr/include/c++/10/bits/char_traits.h **** // a copy of the GCC Runtime Library Exception along with this program;
  22:/usr/include/c++/10/bits/char_traits.h **** // see the files COPYING3 and COPYING.RUNTIME respectively.  If not, see
  23:/usr/include/c++/10/bits/char_traits.h **** // <http://www.gnu.org/licenses/>.
  24:/usr/include/c++/10/bits/char_traits.h **** 
  25:/usr/include/c++/10/bits/char_traits.h **** /** @file bits/char_traits.h
  26:/usr/include/c++/10/bits/char_traits.h ****  *  This is an internal header file, included by other library headers.
  27:/usr/include/c++/10/bits/char_traits.h ****  *  Do not attempt to use it directly. @headername{string}
  28:/usr/include/c++/10/bits/char_traits.h ****  */
  29:/usr/include/c++/10/bits/char_traits.h **** 
  30:/usr/include/c++/10/bits/char_traits.h **** //
  31:/usr/include/c++/10/bits/char_traits.h **** // ISO C++ 14882: 21  Strings library
AARCH64 GAS  obj/Ch11_04.s 			page 15


  32:/usr/include/c++/10/bits/char_traits.h **** //
  33:/usr/include/c++/10/bits/char_traits.h **** 
  34:/usr/include/c++/10/bits/char_traits.h **** #ifndef _CHAR_TRAITS_H
  35:/usr/include/c++/10/bits/char_traits.h **** #define _CHAR_TRAITS_H 1
  36:/usr/include/c++/10/bits/char_traits.h **** 
  37:/usr/include/c++/10/bits/char_traits.h **** #pragma GCC system_header
  38:/usr/include/c++/10/bits/char_traits.h **** 
  39:/usr/include/c++/10/bits/char_traits.h **** #include <bits/stl_algobase.h>  // std::copy, std::fill_n
  40:/usr/include/c++/10/bits/char_traits.h **** #include <bits/postypes.h>      // For streampos
  41:/usr/include/c++/10/bits/char_traits.h **** #include <cwchar>               // For WEOF, wmemmove, wmemset, etc.
  42:/usr/include/c++/10/bits/char_traits.h **** #if __cplusplus > 201703L
  43:/usr/include/c++/10/bits/char_traits.h **** # include <compare>
  44:/usr/include/c++/10/bits/char_traits.h **** #endif
  45:/usr/include/c++/10/bits/char_traits.h **** 
  46:/usr/include/c++/10/bits/char_traits.h **** #ifndef _GLIBCXX_ALWAYS_INLINE
  47:/usr/include/c++/10/bits/char_traits.h **** # define _GLIBCXX_ALWAYS_INLINE inline __attribute__((__always_inline__))
  48:/usr/include/c++/10/bits/char_traits.h **** #endif
  49:/usr/include/c++/10/bits/char_traits.h **** 
  50:/usr/include/c++/10/bits/char_traits.h **** namespace __gnu_cxx _GLIBCXX_VISIBILITY(default)
  51:/usr/include/c++/10/bits/char_traits.h **** {
  52:/usr/include/c++/10/bits/char_traits.h **** _GLIBCXX_BEGIN_NAMESPACE_VERSION
  53:/usr/include/c++/10/bits/char_traits.h **** 
  54:/usr/include/c++/10/bits/char_traits.h ****   /**
  55:/usr/include/c++/10/bits/char_traits.h ****    *  @brief  Mapping from character type to associated types.
  56:/usr/include/c++/10/bits/char_traits.h ****    *
  57:/usr/include/c++/10/bits/char_traits.h ****    *  @note This is an implementation class for the generic version
  58:/usr/include/c++/10/bits/char_traits.h ****    *  of char_traits.  It defines int_type, off_type, pos_type, and
  59:/usr/include/c++/10/bits/char_traits.h ****    *  state_type.  By default these are unsigned long, streamoff,
  60:/usr/include/c++/10/bits/char_traits.h ****    *  streampos, and mbstate_t.  Users who need a different set of
  61:/usr/include/c++/10/bits/char_traits.h ****    *  types, but who don't need to change the definitions of any function
  62:/usr/include/c++/10/bits/char_traits.h ****    *  defined in char_traits, can specialize __gnu_cxx::_Char_types
  63:/usr/include/c++/10/bits/char_traits.h ****    *  while leaving __gnu_cxx::char_traits alone. */
  64:/usr/include/c++/10/bits/char_traits.h ****   template<typename _CharT>
  65:/usr/include/c++/10/bits/char_traits.h ****     struct _Char_types
  66:/usr/include/c++/10/bits/char_traits.h ****     {
  67:/usr/include/c++/10/bits/char_traits.h ****       typedef unsigned long   int_type;
  68:/usr/include/c++/10/bits/char_traits.h ****       typedef std::streampos  pos_type;
  69:/usr/include/c++/10/bits/char_traits.h ****       typedef std::streamoff  off_type;
  70:/usr/include/c++/10/bits/char_traits.h ****       typedef std::mbstate_t  state_type;
  71:/usr/include/c++/10/bits/char_traits.h ****     };
  72:/usr/include/c++/10/bits/char_traits.h **** 
  73:/usr/include/c++/10/bits/char_traits.h **** 
  74:/usr/include/c++/10/bits/char_traits.h ****   /**
  75:/usr/include/c++/10/bits/char_traits.h ****    *  @brief  Base class used to implement std::char_traits.
  76:/usr/include/c++/10/bits/char_traits.h ****    *
  77:/usr/include/c++/10/bits/char_traits.h ****    *  @note For any given actual character type, this definition is
  78:/usr/include/c++/10/bits/char_traits.h ****    *  probably wrong.  (Most of the member functions are likely to be
  79:/usr/include/c++/10/bits/char_traits.h ****    *  right, but the int_type and state_type typedefs, and the eof()
  80:/usr/include/c++/10/bits/char_traits.h ****    *  member function, are likely to be wrong.)  The reason this class
  81:/usr/include/c++/10/bits/char_traits.h ****    *  exists is so users can specialize it.  Classes in namespace std
  82:/usr/include/c++/10/bits/char_traits.h ****    *  may not be specialized for fundamental types, but classes in
  83:/usr/include/c++/10/bits/char_traits.h ****    *  namespace __gnu_cxx may be.
  84:/usr/include/c++/10/bits/char_traits.h ****    *
  85:/usr/include/c++/10/bits/char_traits.h ****    *  See https://gcc.gnu.org/onlinedocs/libstdc++/manual/strings.html#strings.string.character_typ
  86:/usr/include/c++/10/bits/char_traits.h ****    *  for advice on how to make use of this class for @a unusual character
  87:/usr/include/c++/10/bits/char_traits.h ****    *  types. Also, check out include/ext/pod_char_traits.h.  
  88:/usr/include/c++/10/bits/char_traits.h ****    */
AARCH64 GAS  obj/Ch11_04.s 			page 16


  89:/usr/include/c++/10/bits/char_traits.h ****   template<typename _CharT>
  90:/usr/include/c++/10/bits/char_traits.h ****     struct char_traits
  91:/usr/include/c++/10/bits/char_traits.h ****     {
  92:/usr/include/c++/10/bits/char_traits.h ****       typedef _CharT                                    char_type;
  93:/usr/include/c++/10/bits/char_traits.h ****       typedef typename _Char_types<_CharT>::int_type    int_type;
  94:/usr/include/c++/10/bits/char_traits.h ****       typedef typename _Char_types<_CharT>::pos_type    pos_type;
  95:/usr/include/c++/10/bits/char_traits.h ****       typedef typename _Char_types<_CharT>::off_type    off_type;
  96:/usr/include/c++/10/bits/char_traits.h ****       typedef typename _Char_types<_CharT>::state_type  state_type;
  97:/usr/include/c++/10/bits/char_traits.h **** #if __cpp_lib_three_way_comparison
  98:/usr/include/c++/10/bits/char_traits.h ****       using comparison_category = std::strong_ordering;
  99:/usr/include/c++/10/bits/char_traits.h **** #endif
 100:/usr/include/c++/10/bits/char_traits.h **** 
 101:/usr/include/c++/10/bits/char_traits.h ****       static _GLIBCXX14_CONSTEXPR void
 102:/usr/include/c++/10/bits/char_traits.h ****       assign(char_type& __c1, const char_type& __c2)
 103:/usr/include/c++/10/bits/char_traits.h ****       { __c1 = __c2; }
 104:/usr/include/c++/10/bits/char_traits.h **** 
 105:/usr/include/c++/10/bits/char_traits.h ****       static _GLIBCXX_CONSTEXPR bool
 106:/usr/include/c++/10/bits/char_traits.h ****       eq(const char_type& __c1, const char_type& __c2)
 107:/usr/include/c++/10/bits/char_traits.h ****       { return __c1 == __c2; }
 108:/usr/include/c++/10/bits/char_traits.h **** 
 109:/usr/include/c++/10/bits/char_traits.h ****       static _GLIBCXX_CONSTEXPR bool
 110:/usr/include/c++/10/bits/char_traits.h ****       lt(const char_type& __c1, const char_type& __c2)
 111:/usr/include/c++/10/bits/char_traits.h ****       { return __c1 < __c2; }
 112:/usr/include/c++/10/bits/char_traits.h **** 
 113:/usr/include/c++/10/bits/char_traits.h ****       static _GLIBCXX14_CONSTEXPR int
 114:/usr/include/c++/10/bits/char_traits.h ****       compare(const char_type* __s1, const char_type* __s2, std::size_t __n);
 115:/usr/include/c++/10/bits/char_traits.h **** 
 116:/usr/include/c++/10/bits/char_traits.h ****       static _GLIBCXX14_CONSTEXPR std::size_t
 117:/usr/include/c++/10/bits/char_traits.h ****       length(const char_type* __s);
 118:/usr/include/c++/10/bits/char_traits.h **** 
 119:/usr/include/c++/10/bits/char_traits.h ****       static _GLIBCXX14_CONSTEXPR const char_type*
 120:/usr/include/c++/10/bits/char_traits.h ****       find(const char_type* __s, std::size_t __n, const char_type& __a);
 121:/usr/include/c++/10/bits/char_traits.h **** 
 122:/usr/include/c++/10/bits/char_traits.h ****       static _GLIBCXX20_CONSTEXPR char_type*
 123:/usr/include/c++/10/bits/char_traits.h ****       move(char_type* __s1, const char_type* __s2, std::size_t __n);
 124:/usr/include/c++/10/bits/char_traits.h **** 
 125:/usr/include/c++/10/bits/char_traits.h ****       static _GLIBCXX20_CONSTEXPR char_type*
 126:/usr/include/c++/10/bits/char_traits.h ****       copy(char_type* __s1, const char_type* __s2, std::size_t __n);
 127:/usr/include/c++/10/bits/char_traits.h **** 
 128:/usr/include/c++/10/bits/char_traits.h ****       static _GLIBCXX20_CONSTEXPR char_type*
 129:/usr/include/c++/10/bits/char_traits.h ****       assign(char_type* __s, std::size_t __n, char_type __a);
 130:/usr/include/c++/10/bits/char_traits.h **** 
 131:/usr/include/c++/10/bits/char_traits.h ****       static _GLIBCXX_CONSTEXPR char_type
 132:/usr/include/c++/10/bits/char_traits.h ****       to_char_type(const int_type& __c)
 133:/usr/include/c++/10/bits/char_traits.h ****       { return static_cast<char_type>(__c); }
 134:/usr/include/c++/10/bits/char_traits.h **** 
 135:/usr/include/c++/10/bits/char_traits.h ****       static _GLIBCXX_CONSTEXPR int_type
 136:/usr/include/c++/10/bits/char_traits.h ****       to_int_type(const char_type& __c)
 137:/usr/include/c++/10/bits/char_traits.h ****       { return static_cast<int_type>(__c); }
 138:/usr/include/c++/10/bits/char_traits.h **** 
 139:/usr/include/c++/10/bits/char_traits.h ****       static _GLIBCXX_CONSTEXPR bool
 140:/usr/include/c++/10/bits/char_traits.h ****       eq_int_type(const int_type& __c1, const int_type& __c2)
 141:/usr/include/c++/10/bits/char_traits.h ****       { return __c1 == __c2; }
 142:/usr/include/c++/10/bits/char_traits.h **** 
 143:/usr/include/c++/10/bits/char_traits.h ****       static _GLIBCXX_CONSTEXPR int_type
 144:/usr/include/c++/10/bits/char_traits.h ****       eof()
 145:/usr/include/c++/10/bits/char_traits.h ****       { return static_cast<int_type>(_GLIBCXX_STDIO_EOF); }
AARCH64 GAS  obj/Ch11_04.s 			page 17


 146:/usr/include/c++/10/bits/char_traits.h **** 
 147:/usr/include/c++/10/bits/char_traits.h ****       static _GLIBCXX_CONSTEXPR int_type
 148:/usr/include/c++/10/bits/char_traits.h ****       not_eof(const int_type& __c)
 149:/usr/include/c++/10/bits/char_traits.h ****       { return !eq_int_type(__c, eof()) ? __c : to_int_type(char_type()); }
 150:/usr/include/c++/10/bits/char_traits.h ****     };
 151:/usr/include/c++/10/bits/char_traits.h **** 
 152:/usr/include/c++/10/bits/char_traits.h ****   template<typename _CharT>
 153:/usr/include/c++/10/bits/char_traits.h ****     _GLIBCXX14_CONSTEXPR int
 154:/usr/include/c++/10/bits/char_traits.h ****     char_traits<_CharT>::
 155:/usr/include/c++/10/bits/char_traits.h ****     compare(const char_type* __s1, const char_type* __s2, std::size_t __n)
 156:/usr/include/c++/10/bits/char_traits.h ****     {
 157:/usr/include/c++/10/bits/char_traits.h ****       for (std::size_t __i = 0; __i < __n; ++__i)
 158:/usr/include/c++/10/bits/char_traits.h **** 	if (lt(__s1[__i], __s2[__i]))
 159:/usr/include/c++/10/bits/char_traits.h **** 	  return -1;
 160:/usr/include/c++/10/bits/char_traits.h **** 	else if (lt(__s2[__i], __s1[__i]))
 161:/usr/include/c++/10/bits/char_traits.h **** 	  return 1;
 162:/usr/include/c++/10/bits/char_traits.h ****       return 0;
 163:/usr/include/c++/10/bits/char_traits.h ****     }
 164:/usr/include/c++/10/bits/char_traits.h **** 
 165:/usr/include/c++/10/bits/char_traits.h ****   template<typename _CharT>
 166:/usr/include/c++/10/bits/char_traits.h ****     _GLIBCXX14_CONSTEXPR std::size_t
 167:/usr/include/c++/10/bits/char_traits.h ****     char_traits<_CharT>::
 168:/usr/include/c++/10/bits/char_traits.h ****     length(const char_type* __p)
 169:/usr/include/c++/10/bits/char_traits.h ****     {
 170:/usr/include/c++/10/bits/char_traits.h ****       std::size_t __i = 0;
 171:/usr/include/c++/10/bits/char_traits.h ****       while (!eq(__p[__i], char_type()))
 172:/usr/include/c++/10/bits/char_traits.h ****         ++__i;
 173:/usr/include/c++/10/bits/char_traits.h ****       return __i;
 174:/usr/include/c++/10/bits/char_traits.h ****     }
 175:/usr/include/c++/10/bits/char_traits.h **** 
 176:/usr/include/c++/10/bits/char_traits.h ****   template<typename _CharT>
 177:/usr/include/c++/10/bits/char_traits.h ****     _GLIBCXX14_CONSTEXPR const typename char_traits<_CharT>::char_type*
 178:/usr/include/c++/10/bits/char_traits.h ****     char_traits<_CharT>::
 179:/usr/include/c++/10/bits/char_traits.h ****     find(const char_type* __s, std::size_t __n, const char_type& __a)
 180:/usr/include/c++/10/bits/char_traits.h ****     {
 181:/usr/include/c++/10/bits/char_traits.h ****       for (std::size_t __i = 0; __i < __n; ++__i)
 182:/usr/include/c++/10/bits/char_traits.h ****         if (eq(__s[__i], __a))
 183:/usr/include/c++/10/bits/char_traits.h ****           return __s + __i;
 184:/usr/include/c++/10/bits/char_traits.h ****       return 0;
 185:/usr/include/c++/10/bits/char_traits.h ****     }
 186:/usr/include/c++/10/bits/char_traits.h **** 
 187:/usr/include/c++/10/bits/char_traits.h ****   template<typename _CharT>
 188:/usr/include/c++/10/bits/char_traits.h ****     _GLIBCXX20_CONSTEXPR
 189:/usr/include/c++/10/bits/char_traits.h ****     typename char_traits<_CharT>::char_type*
 190:/usr/include/c++/10/bits/char_traits.h ****     char_traits<_CharT>::
 191:/usr/include/c++/10/bits/char_traits.h ****     move(char_type* __s1, const char_type* __s2, std::size_t __n)
 192:/usr/include/c++/10/bits/char_traits.h ****     {
 193:/usr/include/c++/10/bits/char_traits.h ****       if (__n == 0)
 194:/usr/include/c++/10/bits/char_traits.h **** 	return __s1;
 195:/usr/include/c++/10/bits/char_traits.h **** #ifdef __cpp_lib_is_constant_evaluated
 196:/usr/include/c++/10/bits/char_traits.h ****       if (std::is_constant_evaluated())
 197:/usr/include/c++/10/bits/char_traits.h **** 	{
 198:/usr/include/c++/10/bits/char_traits.h **** 	  if (__s1 > __s2 && __s1 < __s2 + __n)
 199:/usr/include/c++/10/bits/char_traits.h **** 	    std::copy_backward(__s2, __s2 + __n, __s1);
 200:/usr/include/c++/10/bits/char_traits.h **** 	  else
 201:/usr/include/c++/10/bits/char_traits.h **** 	    std::copy(__s2, __s2 + __n, __s1);
 202:/usr/include/c++/10/bits/char_traits.h **** 	  return __s1;
AARCH64 GAS  obj/Ch11_04.s 			page 18


 203:/usr/include/c++/10/bits/char_traits.h **** 	}
 204:/usr/include/c++/10/bits/char_traits.h **** #endif
 205:/usr/include/c++/10/bits/char_traits.h ****       return static_cast<_CharT*>(__builtin_memmove(__s1, __s2,
 206:/usr/include/c++/10/bits/char_traits.h **** 						    __n * sizeof(char_type)));
 207:/usr/include/c++/10/bits/char_traits.h ****     }
 208:/usr/include/c++/10/bits/char_traits.h **** 
 209:/usr/include/c++/10/bits/char_traits.h ****   template<typename _CharT>
 210:/usr/include/c++/10/bits/char_traits.h ****     _GLIBCXX20_CONSTEXPR
 211:/usr/include/c++/10/bits/char_traits.h ****     typename char_traits<_CharT>::char_type*
 212:/usr/include/c++/10/bits/char_traits.h ****     char_traits<_CharT>::
 213:/usr/include/c++/10/bits/char_traits.h ****     copy(char_type* __s1, const char_type* __s2, std::size_t __n)
 214:/usr/include/c++/10/bits/char_traits.h ****     {
 215:/usr/include/c++/10/bits/char_traits.h ****       // NB: Inline std::copy so no recursive dependencies.
 216:/usr/include/c++/10/bits/char_traits.h ****       std::copy(__s2, __s2 + __n, __s1);
 217:/usr/include/c++/10/bits/char_traits.h ****       return __s1;
 218:/usr/include/c++/10/bits/char_traits.h ****     }
 219:/usr/include/c++/10/bits/char_traits.h **** 
 220:/usr/include/c++/10/bits/char_traits.h ****   template<typename _CharT>
 221:/usr/include/c++/10/bits/char_traits.h ****     _GLIBCXX20_CONSTEXPR
 222:/usr/include/c++/10/bits/char_traits.h ****     typename char_traits<_CharT>::char_type*
 223:/usr/include/c++/10/bits/char_traits.h ****     char_traits<_CharT>::
 224:/usr/include/c++/10/bits/char_traits.h ****     assign(char_type* __s, std::size_t __n, char_type __a)
 225:/usr/include/c++/10/bits/char_traits.h ****     {
 226:/usr/include/c++/10/bits/char_traits.h ****       // NB: Inline std::fill_n so no recursive dependencies.
 227:/usr/include/c++/10/bits/char_traits.h ****       std::fill_n(__s, __n, __a);
 228:/usr/include/c++/10/bits/char_traits.h ****       return __s;
 229:/usr/include/c++/10/bits/char_traits.h ****     }
 230:/usr/include/c++/10/bits/char_traits.h **** 
 231:/usr/include/c++/10/bits/char_traits.h **** _GLIBCXX_END_NAMESPACE_VERSION
 232:/usr/include/c++/10/bits/char_traits.h **** } // namespace
 233:/usr/include/c++/10/bits/char_traits.h **** 
 234:/usr/include/c++/10/bits/char_traits.h **** namespace std _GLIBCXX_VISIBILITY(default)
 235:/usr/include/c++/10/bits/char_traits.h **** {
 236:/usr/include/c++/10/bits/char_traits.h **** _GLIBCXX_BEGIN_NAMESPACE_VERSION
 237:/usr/include/c++/10/bits/char_traits.h **** 
 238:/usr/include/c++/10/bits/char_traits.h **** #if __cplusplus >= 201703L
 239:/usr/include/c++/10/bits/char_traits.h **** 
 240:/usr/include/c++/10/bits/char_traits.h **** #if __cplusplus == 201703L
 241:/usr/include/c++/10/bits/char_traits.h **** // Unofficial macro indicating P0426R1 support
 242:/usr/include/c++/10/bits/char_traits.h **** # define __cpp_lib_constexpr_char_traits 201611L
 243:/usr/include/c++/10/bits/char_traits.h **** #else
 244:/usr/include/c++/10/bits/char_traits.h **** // Also support P1032R1 in C++20
 245:/usr/include/c++/10/bits/char_traits.h **** # define __cpp_lib_constexpr_char_traits 201811L
 246:/usr/include/c++/10/bits/char_traits.h **** #endif
 247:/usr/include/c++/10/bits/char_traits.h **** 
 248:/usr/include/c++/10/bits/char_traits.h ****   /**
 249:/usr/include/c++/10/bits/char_traits.h ****    *  @brief Determine whether the characters of a NULL-terminated
 250:/usr/include/c++/10/bits/char_traits.h ****    *  string are known at compile time.
 251:/usr/include/c++/10/bits/char_traits.h ****    *  @param  __s  The string.
 252:/usr/include/c++/10/bits/char_traits.h ****    *
 253:/usr/include/c++/10/bits/char_traits.h ****    *  Assumes that _CharT is a built-in character type.
 254:/usr/include/c++/10/bits/char_traits.h ****    */
 255:/usr/include/c++/10/bits/char_traits.h ****   template<typename _CharT>
 256:/usr/include/c++/10/bits/char_traits.h ****     static _GLIBCXX_ALWAYS_INLINE constexpr bool
 257:/usr/include/c++/10/bits/char_traits.h ****     __constant_string_p(const _CharT* __s)
 258:/usr/include/c++/10/bits/char_traits.h ****     {
 259:/usr/include/c++/10/bits/char_traits.h **** #ifdef _GLIBCXX_HAVE_BUILTIN_IS_CONSTANT_EVALUATED
AARCH64 GAS  obj/Ch11_04.s 			page 19


 260:/usr/include/c++/10/bits/char_traits.h ****       (void) __s;
 261:/usr/include/c++/10/bits/char_traits.h ****       // In constexpr contexts all strings should be constant.
 262:/usr/include/c++/10/bits/char_traits.h ****       return __builtin_is_constant_evaluated();
 263:/usr/include/c++/10/bits/char_traits.h **** #else
 264:/usr/include/c++/10/bits/char_traits.h ****       while (__builtin_constant_p(*__s) && *__s)
 265:/usr/include/c++/10/bits/char_traits.h **** 	__s++;
 266:/usr/include/c++/10/bits/char_traits.h ****       return __builtin_constant_p(*__s);
 267:/usr/include/c++/10/bits/char_traits.h **** #endif
 268:/usr/include/c++/10/bits/char_traits.h ****     }
 269:/usr/include/c++/10/bits/char_traits.h **** 
 270:/usr/include/c++/10/bits/char_traits.h ****   /**
 271:/usr/include/c++/10/bits/char_traits.h ****    *  @brief Determine whether the characters of a character array are
 272:/usr/include/c++/10/bits/char_traits.h ****    *  known at compile time.
 273:/usr/include/c++/10/bits/char_traits.h ****    *  @param  __a  The character array.
 274:/usr/include/c++/10/bits/char_traits.h ****    *  @param  __n  Number of characters.
 275:/usr/include/c++/10/bits/char_traits.h ****    *
 276:/usr/include/c++/10/bits/char_traits.h ****    *  Assumes that _CharT is a built-in character type.
 277:/usr/include/c++/10/bits/char_traits.h ****    */
 278:/usr/include/c++/10/bits/char_traits.h ****   template<typename _CharT>
 279:/usr/include/c++/10/bits/char_traits.h ****     static _GLIBCXX_ALWAYS_INLINE constexpr bool
 280:/usr/include/c++/10/bits/char_traits.h ****     __constant_char_array_p(const _CharT* __a, size_t __n)
 281:/usr/include/c++/10/bits/char_traits.h ****     {
 282:/usr/include/c++/10/bits/char_traits.h **** #ifdef _GLIBCXX_HAVE_BUILTIN_IS_CONSTANT_EVALUATED
 283:/usr/include/c++/10/bits/char_traits.h ****       (void) __a;
 284:/usr/include/c++/10/bits/char_traits.h ****       (void) __n;
 285:/usr/include/c++/10/bits/char_traits.h ****       // In constexpr contexts all character arrays should be constant.
 286:/usr/include/c++/10/bits/char_traits.h ****       return __builtin_is_constant_evaluated();
 287:/usr/include/c++/10/bits/char_traits.h **** #else
 288:/usr/include/c++/10/bits/char_traits.h ****       size_t __i = 0;
 289:/usr/include/c++/10/bits/char_traits.h ****       while (__i < __n && __builtin_constant_p(__a[__i]))
 290:/usr/include/c++/10/bits/char_traits.h **** 	__i++;
 291:/usr/include/c++/10/bits/char_traits.h ****       return __i == __n;
 292:/usr/include/c++/10/bits/char_traits.h **** #endif
 293:/usr/include/c++/10/bits/char_traits.h ****     }
 294:/usr/include/c++/10/bits/char_traits.h **** #endif
 295:/usr/include/c++/10/bits/char_traits.h **** 
 296:/usr/include/c++/10/bits/char_traits.h ****   // 21.1
 297:/usr/include/c++/10/bits/char_traits.h ****   /**
 298:/usr/include/c++/10/bits/char_traits.h ****    *  @brief  Basis for explicit traits specializations.
 299:/usr/include/c++/10/bits/char_traits.h ****    *
 300:/usr/include/c++/10/bits/char_traits.h ****    *  @note  For any given actual character type, this definition is
 301:/usr/include/c++/10/bits/char_traits.h ****    *  probably wrong.  Since this is just a thin wrapper around
 302:/usr/include/c++/10/bits/char_traits.h ****    *  __gnu_cxx::char_traits, it is possible to achieve a more
 303:/usr/include/c++/10/bits/char_traits.h ****    *  appropriate definition by specializing __gnu_cxx::char_traits.
 304:/usr/include/c++/10/bits/char_traits.h ****    *
 305:/usr/include/c++/10/bits/char_traits.h ****    *  See https://gcc.gnu.org/onlinedocs/libstdc++/manual/strings.html#strings.string.character_typ
 306:/usr/include/c++/10/bits/char_traits.h ****    *  for advice on how to make use of this class for @a unusual character
 307:/usr/include/c++/10/bits/char_traits.h ****    *  types. Also, check out include/ext/pod_char_traits.h.
 308:/usr/include/c++/10/bits/char_traits.h ****   */
 309:/usr/include/c++/10/bits/char_traits.h ****   template<class _CharT>
 310:/usr/include/c++/10/bits/char_traits.h ****     struct char_traits : public __gnu_cxx::char_traits<_CharT>
 311:/usr/include/c++/10/bits/char_traits.h ****     { };
 312:/usr/include/c++/10/bits/char_traits.h **** 
 313:/usr/include/c++/10/bits/char_traits.h **** 
 314:/usr/include/c++/10/bits/char_traits.h ****   /// 21.1.3.1  char_traits specializations
 315:/usr/include/c++/10/bits/char_traits.h ****   template<>
 316:/usr/include/c++/10/bits/char_traits.h ****     struct char_traits<char>
AARCH64 GAS  obj/Ch11_04.s 			page 20


 317:/usr/include/c++/10/bits/char_traits.h ****     {
 318:/usr/include/c++/10/bits/char_traits.h ****       typedef char              char_type;
 319:/usr/include/c++/10/bits/char_traits.h ****       typedef int               int_type;
 320:/usr/include/c++/10/bits/char_traits.h ****       typedef streampos         pos_type;
 321:/usr/include/c++/10/bits/char_traits.h ****       typedef streamoff         off_type;
 322:/usr/include/c++/10/bits/char_traits.h ****       typedef mbstate_t         state_type;
 323:/usr/include/c++/10/bits/char_traits.h **** #if __cpp_lib_three_way_comparison
 324:/usr/include/c++/10/bits/char_traits.h ****       using comparison_category = strong_ordering;
 325:/usr/include/c++/10/bits/char_traits.h **** #endif
 326:/usr/include/c++/10/bits/char_traits.h **** 
 327:/usr/include/c++/10/bits/char_traits.h ****       static _GLIBCXX17_CONSTEXPR void
 328:/usr/include/c++/10/bits/char_traits.h ****       assign(char_type& __c1, const char_type& __c2) _GLIBCXX_NOEXCEPT
 329:/usr/include/c++/10/bits/char_traits.h ****       { __c1 = __c2; }
 330:/usr/include/c++/10/bits/char_traits.h **** 
 331:/usr/include/c++/10/bits/char_traits.h ****       static _GLIBCXX_CONSTEXPR bool
 332:/usr/include/c++/10/bits/char_traits.h ****       eq(const char_type& __c1, const char_type& __c2) _GLIBCXX_NOEXCEPT
 333:/usr/include/c++/10/bits/char_traits.h ****       { return __c1 == __c2; }
 334:/usr/include/c++/10/bits/char_traits.h **** 
 335:/usr/include/c++/10/bits/char_traits.h ****       static _GLIBCXX_CONSTEXPR bool
 336:/usr/include/c++/10/bits/char_traits.h ****       lt(const char_type& __c1, const char_type& __c2) _GLIBCXX_NOEXCEPT
 337:/usr/include/c++/10/bits/char_traits.h ****       {
 338:/usr/include/c++/10/bits/char_traits.h **** 	// LWG 467.
 339:/usr/include/c++/10/bits/char_traits.h **** 	return (static_cast<unsigned char>(__c1)
 340:/usr/include/c++/10/bits/char_traits.h **** 		< static_cast<unsigned char>(__c2));
 341:/usr/include/c++/10/bits/char_traits.h ****       }
 342:/usr/include/c++/10/bits/char_traits.h **** 
 343:/usr/include/c++/10/bits/char_traits.h ****       static _GLIBCXX17_CONSTEXPR int
 344:/usr/include/c++/10/bits/char_traits.h ****       compare(const char_type* __s1, const char_type* __s2, size_t __n)
 345:/usr/include/c++/10/bits/char_traits.h ****       {
 346:/usr/include/c++/10/bits/char_traits.h **** 	if (__n == 0)
 347:/usr/include/c++/10/bits/char_traits.h **** 	  return 0;
 348:/usr/include/c++/10/bits/char_traits.h **** #if __cplusplus >= 201703L
 349:/usr/include/c++/10/bits/char_traits.h **** 	if (__builtin_constant_p(__n)
 350:/usr/include/c++/10/bits/char_traits.h **** 	    && __constant_char_array_p(__s1, __n)
 351:/usr/include/c++/10/bits/char_traits.h **** 	    && __constant_char_array_p(__s2, __n))
 352:/usr/include/c++/10/bits/char_traits.h **** 	  return __gnu_cxx::char_traits<char_type>::compare(__s1, __s2, __n);
 353:/usr/include/c++/10/bits/char_traits.h **** #endif
 354:/usr/include/c++/10/bits/char_traits.h **** 	return __builtin_memcmp(__s1, __s2, __n);
 355:/usr/include/c++/10/bits/char_traits.h ****       }
 356:/usr/include/c++/10/bits/char_traits.h **** 
 357:/usr/include/c++/10/bits/char_traits.h ****       static _GLIBCXX17_CONSTEXPR size_t
 358:/usr/include/c++/10/bits/char_traits.h ****       length(const char_type* __s)
 359:/usr/include/c++/10/bits/char_traits.h ****       {
 360:/usr/include/c++/10/bits/char_traits.h **** #if __cplusplus >= 201703L
 361:/usr/include/c++/10/bits/char_traits.h **** 	if (__constant_string_p(__s))
 362:/usr/include/c++/10/bits/char_traits.h **** 	  return __gnu_cxx::char_traits<char_type>::length(__s);
 363:/usr/include/c++/10/bits/char_traits.h **** #endif
 364:/usr/include/c++/10/bits/char_traits.h **** 	return __builtin_strlen(__s);
  70              		.loc 3 364 2 is_stmt 1 view .LVU15
  71              	.LBB86:
  72              	.LBB83:
  73              		.loc 2 611 18 is_stmt 0 view .LVU16
  74 0028 01000090 		adrp	x1, .LC0
  75 002c E00313AA 		mov	x0, x19
  76              	.LVL3:
  77              		.loc 2 611 18 view .LVU17
  78 0030 21000091 		add	x1, x1, :lo12:.LC0
AARCH64 GAS  obj/Ch11_04.s 			page 21


  79 0034 00000094 		bl	_ZSt16__ostream_insertIcSt11char_traitsIcEERSt13basic_ostreamIT_T0_ES6_PKS3_l
  80              	.LVL4:
  81              		.loc 2 611 18 view .LVU18
  82              	.LBE83:
  83              	.LBE86:
  84              	.LBB87:
  85              	.LBI87:
 192:/usr/include/c++/10/ostream ****       {
  86              		.loc 2 192 7 is_stmt 1 view .LVU19
  87              	.LBB88:
 196:/usr/include/c++/10/ostream ****       }
  88              		.loc 2 196 18 is_stmt 0 view .LVU20
  89 0038 E00313AA 		mov	x0, x19
  90 003c 610080D2 		mov	x1, 3
  91 0040 00000094 		bl	_ZNSo9_M_insertImEERSoT_
  92              	.LVL5:
  93 0044 F30300AA 		mov	x19, x0
  94              	.LVL6:
 196:/usr/include/c++/10/ostream ****       }
  95              		.loc 2 196 18 view .LVU21
  96              	.LBE88:
  97              	.LBE87:
  98              	.LBB89:
  99              	.LBI89:
 606:/usr/include/c++/10/ostream ****     {
 100              		.loc 2 606 5 is_stmt 1 view .LVU22
 606:/usr/include/c++/10/ostream ****     {
 101              		.loc 2 606 5 is_stmt 0 view .LVU23
 102              	.LBE89:
 103              		.loc 3 364 2 is_stmt 1 view .LVU24
 104              	.LBB91:
 105              	.LBB90:
 106              		.loc 2 611 18 is_stmt 0 view .LVU25
 107 0048 420080D2 		mov	x2, 2
 108 004c 01000090 		adrp	x1, .LC1
 109 0050 21000091 		add	x1, x1, :lo12:.LC1
 110 0054 00000094 		bl	_ZSt16__ostream_insertIcSt11char_traitsIcEERSt13basic_ostreamIT_T0_ES6_PKS3_l
 111              	.LVL7:
 112              		.loc 2 611 18 view .LVU26
 113              	.LBE90:
 114              	.LBE91:
 115              	.LBB92:
 116              	.LBI92:
 170:/usr/include/c++/10/ostream ****       { return _M_insert(__n); }
 117              		.loc 2 170 7 is_stmt 1 view .LVU27
 118              	.LBB93:
 171:/usr/include/c++/10/ostream **** 
 119              		.loc 2 171 25 is_stmt 0 view .LVU28
 120 0058 E00313AA 		mov	x0, x19
 121 005c C10080D2 		mov	x1, 6
 122 0060 00000094 		bl	_ZNSo9_M_insertImEERSoT_
 123              	.LVL8:
 124 0064 F30300AA 		mov	x19, x0
 125              	.LVL9:
 171:/usr/include/c++/10/ostream **** 
 126              		.loc 2 171 25 view .LVU29
 127              	.LBE93:
AARCH64 GAS  obj/Ch11_04.s 			page 22


 128              	.LBE92:
 129              	.LBB94:
 130              	.LBI94:
 606:/usr/include/c++/10/ostream ****     {
 131              		.loc 2 606 5 is_stmt 1 view .LVU30
 606:/usr/include/c++/10/ostream ****     {
 132              		.loc 2 606 5 is_stmt 0 view .LVU31
 133              	.LBE94:
 134              		.loc 3 364 2 is_stmt 1 view .LVU32
 135              	.LBB96:
 136              	.LBB95:
 137              		.loc 2 611 18 is_stmt 0 view .LVU33
 138 0068 820080D2 		mov	x2, 4
 139 006c 01000090 		adrp	x1, .LC2
 140 0070 21000091 		add	x1, x1, :lo12:.LC2
 141 0074 00000094 		bl	_ZSt16__ostream_insertIcSt11char_traitsIcEERSt13basic_ostreamIT_T0_ES6_PKS3_l
 142              	.LVL10:
 143              		.loc 2 611 18 view .LVU34
 144              	.LBE95:
 145              	.LBE96:
 146              		.loc 1 21 70 view .LVU35
 147 0078 E103142A 		mov	w1, w20
 148 007c E00313AA 		mov	x0, x19
 149 0080 00000094 		bl	_ZNSolsEi
 150              	.LVL11:
 151              		.loc 1 21 70 view .LVU36
 152 0084 43018052 		mov	w3, 10
 153              	.LBB97:
 154              	.LBB98:
 518:/usr/include/c++/10/ostream **** 
 155              		.loc 2 518 30 view .LVU37
 156 0088 E1BF0091 		add	x1, sp, 47
 157 008c 220080D2 		mov	x2, 1
 158 0090 E3BF0039 		strb	w3, [sp, 47]
 159              	.LVL12:
 518:/usr/include/c++/10/ostream **** 
 160              		.loc 2 518 30 view .LVU38
 161              	.LBE98:
 162              	.LBI97:
 517:/usr/include/c++/10/ostream ****     { return __ostream_insert(__out, &__c, 1); }
 163              		.loc 2 517 5 is_stmt 1 view .LVU39
 164              	.LBB99:
 518:/usr/include/c++/10/ostream **** 
 165              		.loc 2 518 30 is_stmt 0 view .LVU40
 166 0094 00000094 		bl	_ZSt16__ostream_insertIcSt11char_traitsIcEERSt13basic_ostreamIT_T0_ES6_PKS3_l
 167              	.LVL13:
 518:/usr/include/c++/10/ostream **** 
 168              		.loc 2 518 30 view .LVU41
 169              	.LBE99:
 170              	.LBE97:
  22:Ch11_04.cpp   **** }
 171              		.loc 1 22 1 view .LVU42
 172 0098 F35341A9 		ldp	x19, x20, [sp, 16]
 173              	.LVL14:
 174              		.loc 1 22 1 view .LVU43
 175 009c FD7BC3A8 		ldp	x29, x30, [sp], 48
 176              		.cfi_restore 30
AARCH64 GAS  obj/Ch11_04.s 			page 23


 177              		.cfi_restore 29
 178              		.cfi_restore 19
 179              		.cfi_restore 20
 180              		.cfi_def_cfa_offset 0
 181 00a0 C0035FD6 		ret
 182              		.cfi_endproc
 183              	.LFE1587:
 184              		.size	_Z8TestLDR1v, .-_Z8TestLDR1v
 185              		.section	.rodata.str1.8
 186 001d 000000   		.align	3
 187              	.LC3:
 188 0020 54657374 		.string	"TestLDR2_("
 188      4C445232 
 188      5F2800
 189              		.text
 190              		.align	2
 191              		.p2align 4,,11
 192              		.global	_Z8TestLDR2v
 193              		.type	_Z8TestLDR2v, %function
 194              	_Z8TestLDR2v:
 195              	.LFB1588:
  23:Ch11_04.cpp   **** 
  24:Ch11_04.cpp   **** void TestLDR2(void)
  25:Ch11_04.cpp   **** {
 196              		.loc 1 25 1 is_stmt 1 view -0
 197              		.cfi_startproc
  26:Ch11_04.cpp   ****     const char nl = '\n';
 198              		.loc 1 26 5 view .LVU45
 199              	.LVL15:
  27:Ch11_04.cpp   ****     unsigned int i = 2;
 200              		.loc 1 27 5 view .LVU46
  28:Ch11_04.cpp   ****     unsigned long j = 7;
 201              		.loc 1 28 5 view .LVU47
  29:Ch11_04.cpp   **** 
  30:Ch11_04.cpp   ****     long test_ldr2 = TestLDR2_(i, j);
 202              		.loc 1 30 5 view .LVU48
  25:Ch11_04.cpp   ****     const char nl = '\n';
 203              		.loc 1 25 1 is_stmt 0 view .LVU49
 204 00a4 FD7BBDA9 		stp	x29, x30, [sp, -48]!
 205              		.cfi_def_cfa_offset 48
 206              		.cfi_offset 29, -48
 207              		.cfi_offset 30, -40
 208              		.loc 1 30 31 view .LVU50
 209 00a8 E10080D2 		mov	x1, 7
 210 00ac 40008052 		mov	w0, 2
  25:Ch11_04.cpp   ****     const char nl = '\n';
 211              		.loc 1 25 1 view .LVU51
 212 00b0 FD030091 		mov	x29, sp
 213 00b4 F35301A9 		stp	x19, x20, [sp, 16]
 214              		.cfi_offset 19, -32
 215              		.cfi_offset 20, -24
 216              	.LBB100:
 217              	.LBB101:
 218              		.loc 2 611 18 view .LVU52
 219 00b8 13000090 		adrp	x19, :got:_ZSt4cout
 220              	.LBE101:
 221              	.LBE100:
AARCH64 GAS  obj/Ch11_04.s 			page 24


 222              		.loc 1 30 31 view .LVU53
 223 00bc 00000094 		bl	TestLDR2_
 224              	.LVL16:
 225              	.LBB104:
 226              	.LBB102:
 227              		.loc 2 611 18 view .LVU54
 228 00c0 730240F9 		ldr	x19, [x19, #:got_lo12:_ZSt4cout]
 229 00c4 420180D2 		mov	x2, 10
 230              	.LBE102:
 231              	.LBE104:
 232              		.loc 1 30 31 view .LVU55
 233 00c8 F40300AA 		mov	x20, x0
 234              	.LVL17:
  31:Ch11_04.cpp   **** 
  32:Ch11_04.cpp   ****     cout << "TestLDR2_(" << i << ", " << j << ") = " << test_ldr2 << nl;
 235              		.loc 1 32 5 is_stmt 1 view .LVU56
 236              	.LBB105:
 237              	.LBI100:
 606:/usr/include/c++/10/ostream ****     {
 238              		.loc 2 606 5 view .LVU57
 606:/usr/include/c++/10/ostream ****     {
 239              		.loc 2 606 5 is_stmt 0 view .LVU58
 240              	.LBE105:
 241              		.loc 3 364 2 is_stmt 1 view .LVU59
 242              	.LBB106:
 243              	.LBB103:
 244              		.loc 2 611 18 is_stmt 0 view .LVU60
 245 00cc 01000090 		adrp	x1, .LC3
 246 00d0 E00313AA 		mov	x0, x19
 247              	.LVL18:
 248              		.loc 2 611 18 view .LVU61
 249 00d4 21000091 		add	x1, x1, :lo12:.LC3
 250 00d8 00000094 		bl	_ZSt16__ostream_insertIcSt11char_traitsIcEERSt13basic_ostreamIT_T0_ES6_PKS3_l
 251              	.LVL19:
 252              		.loc 2 611 18 view .LVU62
 253              	.LBE103:
 254              	.LBE106:
 255              	.LBB107:
 256              	.LBI107:
 192:/usr/include/c++/10/ostream ****       {
 257              		.loc 2 192 7 is_stmt 1 view .LVU63
 258              	.LBB108:
 196:/usr/include/c++/10/ostream ****       }
 259              		.loc 2 196 18 is_stmt 0 view .LVU64
 260 00dc E00313AA 		mov	x0, x19
 261 00e0 410080D2 		mov	x1, 2
 262 00e4 00000094 		bl	_ZNSo9_M_insertImEERSoT_
 263              	.LVL20:
 264 00e8 F30300AA 		mov	x19, x0
 265              	.LVL21:
 196:/usr/include/c++/10/ostream ****       }
 266              		.loc 2 196 18 view .LVU65
 267              	.LBE108:
 268              	.LBE107:
 269              	.LBB109:
 270              	.LBI109:
 606:/usr/include/c++/10/ostream ****     {
AARCH64 GAS  obj/Ch11_04.s 			page 25


 271              		.loc 2 606 5 is_stmt 1 view .LVU66
 606:/usr/include/c++/10/ostream ****     {
 272              		.loc 2 606 5 is_stmt 0 view .LVU67
 273              	.LBE109:
 274              		.loc 3 364 2 is_stmt 1 view .LVU68
 275              	.LBB111:
 276              	.LBB110:
 277              		.loc 2 611 18 is_stmt 0 view .LVU69
 278 00ec 420080D2 		mov	x2, 2
 279 00f0 01000090 		adrp	x1, .LC1
 280 00f4 21000091 		add	x1, x1, :lo12:.LC1
 281 00f8 00000094 		bl	_ZSt16__ostream_insertIcSt11char_traitsIcEERSt13basic_ostreamIT_T0_ES6_PKS3_l
 282              	.LVL22:
 283              		.loc 2 611 18 view .LVU70
 284              	.LBE110:
 285              	.LBE111:
 286              	.LBB112:
 287              	.LBI112:
 170:/usr/include/c++/10/ostream ****       { return _M_insert(__n); }
 288              		.loc 2 170 7 is_stmt 1 view .LVU71
 289              	.LBB113:
 171:/usr/include/c++/10/ostream **** 
 290              		.loc 2 171 25 is_stmt 0 view .LVU72
 291 00fc E00313AA 		mov	x0, x19
 292 0100 E10080D2 		mov	x1, 7
 293 0104 00000094 		bl	_ZNSo9_M_insertImEERSoT_
 294              	.LVL23:
 295 0108 F30300AA 		mov	x19, x0
 296              	.LVL24:
 171:/usr/include/c++/10/ostream **** 
 297              		.loc 2 171 25 view .LVU73
 298              	.LBE113:
 299              	.LBE112:
 300              	.LBB114:
 301              	.LBI114:
 606:/usr/include/c++/10/ostream ****     {
 302              		.loc 2 606 5 is_stmt 1 view .LVU74
 606:/usr/include/c++/10/ostream ****     {
 303              		.loc 2 606 5 is_stmt 0 view .LVU75
 304              	.LBE114:
 305              		.loc 3 364 2 is_stmt 1 view .LVU76
 306              	.LBB116:
 307              	.LBB115:
 308              		.loc 2 611 18 is_stmt 0 view .LVU77
 309 010c 820080D2 		mov	x2, 4
 310 0110 01000090 		adrp	x1, .LC2
 311 0114 21000091 		add	x1, x1, :lo12:.LC2
 312 0118 00000094 		bl	_ZSt16__ostream_insertIcSt11char_traitsIcEERSt13basic_ostreamIT_T0_ES6_PKS3_l
 313              	.LVL25:
 314              		.loc 2 611 18 view .LVU78
 315              	.LBE115:
 316              	.LBE116:
 317              	.LBB117:
 318              	.LBI117:
 166:/usr/include/c++/10/ostream ****       { return _M_insert(__n); }
 319              		.loc 2 166 7 is_stmt 1 view .LVU79
 320              	.LBB118:
AARCH64 GAS  obj/Ch11_04.s 			page 26


 167:/usr/include/c++/10/ostream **** 
 321              		.loc 2 167 25 is_stmt 0 view .LVU80
 322 011c E10314AA 		mov	x1, x20
 323 0120 E00313AA 		mov	x0, x19
 324 0124 00000094 		bl	_ZNSo9_M_insertIlEERSoT_
 325              	.LVL26:
 167:/usr/include/c++/10/ostream **** 
 326              		.loc 2 167 25 view .LVU81
 327 0128 43018052 		mov	w3, 10
 328              	.LBE118:
 329              	.LBE117:
 330              	.LBB119:
 331              	.LBB120:
 518:/usr/include/c++/10/ostream **** 
 332              		.loc 2 518 30 view .LVU82
 333 012c E1BF0091 		add	x1, sp, 47
 334 0130 220080D2 		mov	x2, 1
 335 0134 E3BF0039 		strb	w3, [sp, 47]
 336              	.LVL27:
 518:/usr/include/c++/10/ostream **** 
 337              		.loc 2 518 30 view .LVU83
 338              	.LBE120:
 339              	.LBI119:
 517:/usr/include/c++/10/ostream ****     { return __ostream_insert(__out, &__c, 1); }
 340              		.loc 2 517 5 is_stmt 1 view .LVU84
 341              	.LBB121:
 518:/usr/include/c++/10/ostream **** 
 342              		.loc 2 518 30 is_stmt 0 view .LVU85
 343 0138 00000094 		bl	_ZSt16__ostream_insertIcSt11char_traitsIcEERSt13basic_ostreamIT_T0_ES6_PKS3_l
 344              	.LVL28:
 518:/usr/include/c++/10/ostream **** 
 345              		.loc 2 518 30 view .LVU86
 346              	.LBE121:
 347              	.LBE119:
  33:Ch11_04.cpp   **** }
 348              		.loc 1 33 1 view .LVU87
 349 013c F35341A9 		ldp	x19, x20, [sp, 16]
 350              	.LVL29:
 351              		.loc 1 33 1 view .LVU88
 352 0140 FD7BC3A8 		ldp	x29, x30, [sp], 48
 353              		.cfi_restore 30
 354              		.cfi_restore 29
 355              		.cfi_restore 19
 356              		.cfi_restore 20
 357              		.cfi_def_cfa_offset 0
 358 0144 C0035FD6 		ret
 359              		.cfi_endproc
 360              	.LFE1588:
 361              		.size	_Z8TestLDR2v, .-_Z8TestLDR2v
 362              		.section	.rodata.str1.8
 363 002b 00000000 		.align	3
 363      00
 364              	.LC4:
 365 0030 54657374 		.string	"TestLDR3_("
 365      4C445233 
 365      5F2800
 366              		.text
AARCH64 GAS  obj/Ch11_04.s 			page 27


 367              		.align	2
 368 0148 1F2003D5 		.p2align 4,,11
 368      1F2003D5 
 369              		.global	_Z8TestLDR3v
 370              		.type	_Z8TestLDR3v, %function
 371              	_Z8TestLDR3v:
 372              	.LFB1589:
  34:Ch11_04.cpp   **** 
  35:Ch11_04.cpp   **** void TestLDR3(void)
  36:Ch11_04.cpp   **** {
 373              		.loc 1 36 1 is_stmt 1 view -0
 374              		.cfi_startproc
  37:Ch11_04.cpp   ****     const char nl = '\n';
 375              		.loc 1 37 5 view .LVU90
 376              	.LVL30:
  38:Ch11_04.cpp   ****     unsigned int i = 5;
 377              		.loc 1 38 5 view .LVU91
  39:Ch11_04.cpp   ****     unsigned long j = 1;
 378              		.loc 1 39 5 view .LVU92
  40:Ch11_04.cpp   **** 
  41:Ch11_04.cpp   ****     short test_ldr3 = TestLDR3_(i, j);
 379              		.loc 1 41 5 view .LVU93
  36:Ch11_04.cpp   ****     const char nl = '\n';
 380              		.loc 1 36 1 is_stmt 0 view .LVU94
 381 0150 FD7BBDA9 		stp	x29, x30, [sp, -48]!
 382              		.cfi_def_cfa_offset 48
 383              		.cfi_offset 29, -48
 384              		.cfi_offset 30, -40
 385              		.loc 1 41 32 view .LVU95
 386 0154 210080D2 		mov	x1, 1
 387 0158 A0008052 		mov	w0, 5
  36:Ch11_04.cpp   ****     const char nl = '\n';
 388              		.loc 1 36 1 view .LVU96
 389 015c FD030091 		mov	x29, sp
 390 0160 F35301A9 		stp	x19, x20, [sp, 16]
 391              		.cfi_offset 19, -32
 392              		.cfi_offset 20, -24
 393              	.LBB122:
 394              	.LBB123:
 395              		.loc 2 611 18 view .LVU97
 396 0164 13000090 		adrp	x19, :got:_ZSt4cout
 397              	.LBE123:
 398              	.LBE122:
 399              		.loc 1 41 32 view .LVU98
 400 0168 00000094 		bl	TestLDR3_
 401              	.LVL31:
 402              	.LBB126:
 403              	.LBB124:
 404              		.loc 2 611 18 view .LVU99
 405 016c 730240F9 		ldr	x19, [x19, #:got_lo12:_ZSt4cout]
 406 0170 420180D2 		mov	x2, 10
 407              	.LBE124:
 408              	.LBE126:
 409              		.loc 1 41 32 view .LVU100
 410 0174 F403002A 		mov	w20, w0
 411              	.LVL32:
  42:Ch11_04.cpp   **** 
AARCH64 GAS  obj/Ch11_04.s 			page 28


  43:Ch11_04.cpp   ****     cout << "TestLDR3_(" << i << ", " << j << ") = " << test_ldr3 << nl;
 412              		.loc 1 43 5 is_stmt 1 view .LVU101
 413              	.LBB127:
 414              	.LBI122:
 606:/usr/include/c++/10/ostream ****     {
 415              		.loc 2 606 5 view .LVU102
 606:/usr/include/c++/10/ostream ****     {
 416              		.loc 2 606 5 is_stmt 0 view .LVU103
 417              	.LBE127:
 418              		.loc 3 364 2 is_stmt 1 view .LVU104
 419              	.LBB128:
 420              	.LBB125:
 421              		.loc 2 611 18 is_stmt 0 view .LVU105
 422 0178 01000090 		adrp	x1, .LC4
 423 017c E00313AA 		mov	x0, x19
 424              	.LVL33:
 425              		.loc 2 611 18 view .LVU106
 426 0180 21000091 		add	x1, x1, :lo12:.LC4
 427 0184 00000094 		bl	_ZSt16__ostream_insertIcSt11char_traitsIcEERSt13basic_ostreamIT_T0_ES6_PKS3_l
 428              	.LVL34:
 429              		.loc 2 611 18 view .LVU107
 430              	.LBE125:
 431              	.LBE128:
 432              	.LBB129:
 433              	.LBI129:
 192:/usr/include/c++/10/ostream ****       {
 434              		.loc 2 192 7 is_stmt 1 view .LVU108
 435              	.LBB130:
 196:/usr/include/c++/10/ostream ****       }
 436              		.loc 2 196 18 is_stmt 0 view .LVU109
 437 0188 E00313AA 		mov	x0, x19
 438 018c A10080D2 		mov	x1, 5
 439 0190 00000094 		bl	_ZNSo9_M_insertImEERSoT_
 440              	.LVL35:
 441 0194 F30300AA 		mov	x19, x0
 442              	.LVL36:
 196:/usr/include/c++/10/ostream ****       }
 443              		.loc 2 196 18 view .LVU110
 444              	.LBE130:
 445              	.LBE129:
 446              	.LBB131:
 447              	.LBI131:
 606:/usr/include/c++/10/ostream ****     {
 448              		.loc 2 606 5 is_stmt 1 view .LVU111
 606:/usr/include/c++/10/ostream ****     {
 449              		.loc 2 606 5 is_stmt 0 view .LVU112
 450              	.LBE131:
 451              		.loc 3 364 2 is_stmt 1 view .LVU113
 452              	.LBB133:
 453              	.LBB132:
 454              		.loc 2 611 18 is_stmt 0 view .LVU114
 455 0198 420080D2 		mov	x2, 2
 456 019c 01000090 		adrp	x1, .LC1
 457 01a0 21000091 		add	x1, x1, :lo12:.LC1
 458 01a4 00000094 		bl	_ZSt16__ostream_insertIcSt11char_traitsIcEERSt13basic_ostreamIT_T0_ES6_PKS3_l
 459              	.LVL37:
 460              		.loc 2 611 18 view .LVU115
AARCH64 GAS  obj/Ch11_04.s 			page 29


 461              	.LBE132:
 462              	.LBE133:
 463              	.LBB134:
 464              	.LBI134:
 170:/usr/include/c++/10/ostream ****       { return _M_insert(__n); }
 465              		.loc 2 170 7 is_stmt 1 view .LVU116
 466              	.LBB135:
 171:/usr/include/c++/10/ostream **** 
 467              		.loc 2 171 25 is_stmt 0 view .LVU117
 468 01a8 E00313AA 		mov	x0, x19
 469 01ac 210080D2 		mov	x1, 1
 470 01b0 00000094 		bl	_ZNSo9_M_insertImEERSoT_
 471              	.LVL38:
 472 01b4 F30300AA 		mov	x19, x0
 473              	.LVL39:
 171:/usr/include/c++/10/ostream **** 
 474              		.loc 2 171 25 view .LVU118
 475              	.LBE135:
 476              	.LBE134:
 477              	.LBB136:
 478              	.LBI136:
 606:/usr/include/c++/10/ostream ****     {
 479              		.loc 2 606 5 is_stmt 1 view .LVU119
 606:/usr/include/c++/10/ostream ****     {
 480              		.loc 2 606 5 is_stmt 0 view .LVU120
 481              	.LBE136:
 482              		.loc 3 364 2 is_stmt 1 view .LVU121
 483              	.LBB138:
 484              	.LBB137:
 485              		.loc 2 611 18 is_stmt 0 view .LVU122
 486 01b8 820080D2 		mov	x2, 4
 487 01bc 01000090 		adrp	x1, .LC2
 488 01c0 21000091 		add	x1, x1, :lo12:.LC2
 489 01c4 00000094 		bl	_ZSt16__ostream_insertIcSt11char_traitsIcEERSt13basic_ostreamIT_T0_ES6_PKS3_l
 490              	.LVL40:
 491              		.loc 2 611 18 view .LVU123
 492              	.LBE137:
 493              	.LBE138:
 494              		.loc 1 43 70 view .LVU124
 495 01c8 E103142A 		mov	w1, w20
 496 01cc E00313AA 		mov	x0, x19
 497 01d0 00000094 		bl	_ZNSolsEs
 498              	.LVL41:
 499              		.loc 1 43 70 view .LVU125
 500 01d4 43018052 		mov	w3, 10
 501              	.LBB139:
 502              	.LBB140:
 518:/usr/include/c++/10/ostream **** 
 503              		.loc 2 518 30 view .LVU126
 504 01d8 E1BF0091 		add	x1, sp, 47
 505 01dc 220080D2 		mov	x2, 1
 506 01e0 E3BF0039 		strb	w3, [sp, 47]
 507              	.LVL42:
 518:/usr/include/c++/10/ostream **** 
 508              		.loc 2 518 30 view .LVU127
 509              	.LBE140:
 510              	.LBI139:
AARCH64 GAS  obj/Ch11_04.s 			page 30


 517:/usr/include/c++/10/ostream ****     { return __ostream_insert(__out, &__c, 1); }
 511              		.loc 2 517 5 is_stmt 1 view .LVU128
 512              	.LBB141:
 518:/usr/include/c++/10/ostream **** 
 513              		.loc 2 518 30 is_stmt 0 view .LVU129
 514 01e4 00000094 		bl	_ZSt16__ostream_insertIcSt11char_traitsIcEERSt13basic_ostreamIT_T0_ES6_PKS3_l
 515              	.LVL43:
 518:/usr/include/c++/10/ostream **** 
 516              		.loc 2 518 30 view .LVU130
 517              	.LBE141:
 518              	.LBE139:
  44:Ch11_04.cpp   **** }
 519              		.loc 1 44 1 view .LVU131
 520 01e8 F35341A9 		ldp	x19, x20, [sp, 16]
 521              	.LVL44:
 522              		.loc 1 44 1 view .LVU132
 523 01ec FD7BC3A8 		ldp	x29, x30, [sp], 48
 524              		.cfi_restore 30
 525              		.cfi_restore 29
 526              		.cfi_restore 19
 527              		.cfi_restore 20
 528              		.cfi_def_cfa_offset 0
 529 01f0 C0035FD6 		ret
 530              		.cfi_endproc
 531              	.LFE1589:
 532              		.size	_Z8TestLDR3v, .-_Z8TestLDR3v
 533              		.section	.text.startup,"ax",@progbits
 534              		.align	2
 535              		.p2align 4,,11
 536              		.global	main
 537              		.type	main, %function
 538              	main:
 539              	.LVL45:
 540              	.LFB1590:
  45:Ch11_04.cpp   **** 
  46:Ch11_04.cpp   **** int main(int argc, char** argv)
  47:Ch11_04.cpp   **** {
 541              		.loc 1 47 1 is_stmt 1 view -0
 542              		.cfi_startproc
  48:Ch11_04.cpp   ****     TestLDR1();
 543              		.loc 1 48 5 view .LVU134
  47:Ch11_04.cpp   ****     TestLDR1();
 544              		.loc 1 47 1 is_stmt 0 view .LVU135
 545 0000 FD7BBFA9 		stp	x29, x30, [sp, -16]!
 546              		.cfi_def_cfa_offset 16
 547              		.cfi_offset 29, -16
 548              		.cfi_offset 30, -8
 549 0004 FD030091 		mov	x29, sp
 550              		.loc 1 48 13 view .LVU136
 551 0008 00000094 		bl	_Z8TestLDR1v
 552              	.LVL46:
  49:Ch11_04.cpp   ****     TestLDR2();
 553              		.loc 1 49 5 is_stmt 1 view .LVU137
 554              		.loc 1 49 13 is_stmt 0 view .LVU138
 555 000c 00000094 		bl	_Z8TestLDR2v
 556              	.LVL47:
  50:Ch11_04.cpp   ****     TestLDR3();
AARCH64 GAS  obj/Ch11_04.s 			page 31


 557              		.loc 1 50 5 is_stmt 1 view .LVU139
 558              		.loc 1 50 13 is_stmt 0 view .LVU140
 559 0010 00000094 		bl	_Z8TestLDR3v
 560              	.LVL48:
  51:Ch11_04.cpp   **** }
 561              		.loc 1 51 1 view .LVU141
 562 0014 00008052 		mov	w0, 0
 563 0018 FD7BC1A8 		ldp	x29, x30, [sp], 16
 564              		.cfi_restore 30
 565              		.cfi_restore 29
 566              		.cfi_def_cfa_offset 0
 567 001c C0035FD6 		ret
 568              		.cfi_endproc
 569              	.LFE1590:
 570              		.size	main, .-main
 571              		.align	2
 572              		.p2align 4,,11
 573              		.type	_GLOBAL__sub_I__Z8TestLDR1v, %function
 574              	_GLOBAL__sub_I__Z8TestLDR1v:
 575              	.LFB2090:
 576              		.loc 1 51 1 is_stmt 1 view -0
 577              		.cfi_startproc
 578              	.LVL49:
 579              	.LBB142:
 580              	.LBI142:
 581              		.loc 1 51 1 view .LVU143
 582              	.LBE142:
 583 0020 FD7BBEA9 		stp	x29, x30, [sp, -32]!
 584              		.cfi_def_cfa_offset 32
 585              		.cfi_offset 29, -32
 586              		.cfi_offset 30, -24
 587 0024 FD030091 		mov	x29, sp
 588 0028 F30B00F9 		str	x19, [sp, 16]
 589              		.cfi_offset 19, -16
 590              	.LBB146:
 591              	.LBB143:
 592              		.file 4 "/usr/include/c++/10/iostream"
   1:/usr/include/c++/10/iostream **** // Standard iostream objects -*- C++ -*-
   2:/usr/include/c++/10/iostream **** 
   3:/usr/include/c++/10/iostream **** // Copyright (C) 1997-2020 Free Software Foundation, Inc.
   4:/usr/include/c++/10/iostream **** //
   5:/usr/include/c++/10/iostream **** // This file is part of the GNU ISO C++ Library.  This library is free
   6:/usr/include/c++/10/iostream **** // software; you can redistribute it and/or modify it under the
   7:/usr/include/c++/10/iostream **** // terms of the GNU General Public License as published by the
   8:/usr/include/c++/10/iostream **** // Free Software Foundation; either version 3, or (at your option)
   9:/usr/include/c++/10/iostream **** // any later version.
  10:/usr/include/c++/10/iostream **** 
  11:/usr/include/c++/10/iostream **** // This library is distributed in the hope that it will be useful,
  12:/usr/include/c++/10/iostream **** // but WITHOUT ANY WARRANTY; without even the implied warranty of
  13:/usr/include/c++/10/iostream **** // MERCHANTABILITY or FITNESS FOR A PARTICULAR PURPOSE.  See the
  14:/usr/include/c++/10/iostream **** // GNU General Public License for more details.
  15:/usr/include/c++/10/iostream **** 
  16:/usr/include/c++/10/iostream **** // Under Section 7 of GPL version 3, you are granted additional
  17:/usr/include/c++/10/iostream **** // permissions described in the GCC Runtime Library Exception, version
  18:/usr/include/c++/10/iostream **** // 3.1, as published by the Free Software Foundation.
  19:/usr/include/c++/10/iostream **** 
  20:/usr/include/c++/10/iostream **** // You should have received a copy of the GNU General Public License and
AARCH64 GAS  obj/Ch11_04.s 			page 32


  21:/usr/include/c++/10/iostream **** // a copy of the GCC Runtime Library Exception along with this program;
  22:/usr/include/c++/10/iostream **** // see the files COPYING3 and COPYING.RUNTIME respectively.  If not, see
  23:/usr/include/c++/10/iostream **** // <http://www.gnu.org/licenses/>.
  24:/usr/include/c++/10/iostream **** 
  25:/usr/include/c++/10/iostream **** /** @file include/iostream
  26:/usr/include/c++/10/iostream ****  *  This is a Standard C++ Library header.
  27:/usr/include/c++/10/iostream ****  */
  28:/usr/include/c++/10/iostream **** 
  29:/usr/include/c++/10/iostream **** //
  30:/usr/include/c++/10/iostream **** // ISO C++ 14882: 27.3  Standard iostream objects
  31:/usr/include/c++/10/iostream **** //
  32:/usr/include/c++/10/iostream **** 
  33:/usr/include/c++/10/iostream **** #ifndef _GLIBCXX_IOSTREAM
  34:/usr/include/c++/10/iostream **** #define _GLIBCXX_IOSTREAM 1
  35:/usr/include/c++/10/iostream **** 
  36:/usr/include/c++/10/iostream **** #pragma GCC system_header
  37:/usr/include/c++/10/iostream **** 
  38:/usr/include/c++/10/iostream **** #include <bits/c++config.h>
  39:/usr/include/c++/10/iostream **** #include <ostream>
  40:/usr/include/c++/10/iostream **** #include <istream>
  41:/usr/include/c++/10/iostream **** 
  42:/usr/include/c++/10/iostream **** namespace std _GLIBCXX_VISIBILITY(default)
  43:/usr/include/c++/10/iostream **** {
  44:/usr/include/c++/10/iostream **** _GLIBCXX_BEGIN_NAMESPACE_VERSION
  45:/usr/include/c++/10/iostream **** 
  46:/usr/include/c++/10/iostream ****   /**
  47:/usr/include/c++/10/iostream ****    *  @name Standard Stream Objects
  48:/usr/include/c++/10/iostream ****    *
  49:/usr/include/c++/10/iostream ****    *  The &lt;iostream&gt; header declares the eight <em>standard stream
  50:/usr/include/c++/10/iostream ****    *  objects</em>.  For other declarations, see
  51:/usr/include/c++/10/iostream ****    *  http://gcc.gnu.org/onlinedocs/libstdc++/manual/io.html
  52:/usr/include/c++/10/iostream ****    *  and the @link iosfwd I/O forward declarations @endlink
  53:/usr/include/c++/10/iostream ****    *
  54:/usr/include/c++/10/iostream ****    *  They are required by default to cooperate with the global C
  55:/usr/include/c++/10/iostream ****    *  library's @c FILE streams, and to be available during program
  56:/usr/include/c++/10/iostream ****    *  startup and termination. For more information, see the section of the
  57:/usr/include/c++/10/iostream ****    *  manual linked to above.
  58:/usr/include/c++/10/iostream ****   */
  59:/usr/include/c++/10/iostream ****   //@{
  60:/usr/include/c++/10/iostream ****   extern istream cin;		/// Linked to standard input
  61:/usr/include/c++/10/iostream ****   extern ostream cout;		/// Linked to standard output
  62:/usr/include/c++/10/iostream ****   extern ostream cerr;		/// Linked to standard error (unbuffered)
  63:/usr/include/c++/10/iostream ****   extern ostream clog;		/// Linked to standard error (buffered)
  64:/usr/include/c++/10/iostream **** 
  65:/usr/include/c++/10/iostream **** #ifdef _GLIBCXX_USE_WCHAR_T
  66:/usr/include/c++/10/iostream ****   extern wistream wcin;		/// Linked to standard input
  67:/usr/include/c++/10/iostream ****   extern wostream wcout;	/// Linked to standard output
  68:/usr/include/c++/10/iostream ****   extern wostream wcerr;	/// Linked to standard error (unbuffered)
  69:/usr/include/c++/10/iostream ****   extern wostream wclog;	/// Linked to standard error (buffered)
  70:/usr/include/c++/10/iostream **** #endif
  71:/usr/include/c++/10/iostream ****   //@}
  72:/usr/include/c++/10/iostream **** 
  73:/usr/include/c++/10/iostream ****   // For construction of filebuffers for cout, cin, cerr, clog et. al.
  74:/usr/include/c++/10/iostream ****   static ios_base::Init __ioinit;
 593              		.loc 4 74 25 is_stmt 0 view .LVU144
 594 002c 13000090 		adrp	x19, .LANCHOR0
 595 0030 73020091 		add	x19, x19, :lo12:.LANCHOR0
AARCH64 GAS  obj/Ch11_04.s 			page 33


 596 0034 E00313AA 		mov	x0, x19
 597 0038 00000094 		bl	_ZNSt8ios_base4InitC1Ev
 598              	.LVL50:
 599 003c E10313AA 		mov	x1, x19
 600 0040 00000090 		adrp	x0, :got:_ZNSt8ios_base4InitD1Ev
 601              	.LBE143:
 602              	.LBE146:
 603              		.loc 1 51 1 view .LVU145
 604 0044 F30B40F9 		ldr	x19, [sp, 16]
 605              	.LBB147:
 606              	.LBB144:
 607              		.loc 4 74 25 view .LVU146
 608 0048 02000090 		adrp	x2, __dso_handle
 609              	.LBE144:
 610              	.LBE147:
 611              		.loc 1 51 1 view .LVU147
 612 004c FD7BC2A8 		ldp	x29, x30, [sp], 32
 613              		.cfi_restore 30
 614              		.cfi_restore 29
 615              		.cfi_restore 19
 616              		.cfi_def_cfa_offset 0
 617              	.LBB148:
 618              	.LBB145:
 619              		.loc 4 74 25 view .LVU148
 620 0050 42000091 		add	x2, x2, :lo12:__dso_handle
 621 0054 000040F9 		ldr	x0, [x0, #:got_lo12:_ZNSt8ios_base4InitD1Ev]
 622 0058 00000014 		b	__cxa_atexit
 623              	.LVL51:
 624              	.LBE145:
 625              	.LBE148:
 626              		.cfi_endproc
 627              	.LFE2090:
 628              		.size	_GLOBAL__sub_I__Z8TestLDR1v, .-_GLOBAL__sub_I__Z8TestLDR1v
 629              		.section	.init_array,"aw"
 630              		.align	3
 631 0000 00000000 		.xword	_GLOBAL__sub_I__Z8TestLDR1v
 631      00000000 
 632              		.bss
 633              		.align	3
 634              		.set	.LANCHOR0,. + 0
 635              		.type	_ZStL8__ioinit, %object
 636              		.size	_ZStL8__ioinit, 1
 637              	_ZStL8__ioinit:
 638 0000 00       		.zero	1
 639              		.text
 640              	.Letext0:
 641              		.file 5 "/usr/include/c++/10/cwchar"
 642              		.file 6 "/usr/include/c++/10/bits/exception_ptr.h"
 643              		.file 7 "/usr/include/aarch64-linux-gnu/c++/10/bits/c++config.h"
 644              		.file 8 "/usr/include/c++/10/bits/stl_pair.h"
 645              		.file 9 "/usr/include/c++/10/type_traits"
 646              		.file 10 "/usr/include/c++/10/debug/debug.h"
 647              		.file 11 "/usr/include/c++/10/cstdint"
 648              		.file 12 "/usr/include/c++/10/clocale"
 649              		.file 13 "/usr/include/c++/10/cstdlib"
 650              		.file 14 "/usr/include/c++/10/cstdio"
 651              		.file 15 "/usr/include/c++/10/bits/basic_string.h"
AARCH64 GAS  obj/Ch11_04.s 			page 34


 652              		.file 16 "/usr/include/c++/10/system_error"
 653              		.file 17 "/usr/include/c++/10/bits/ios_base.h"
 654              		.file 18 "/usr/include/c++/10/cwctype"
 655              		.file 19 "/usr/include/c++/10/bits/ostream.tcc"
 656              		.file 20 "/usr/include/c++/10/iosfwd"
 657              		.file 21 "/usr/include/c++/10/bits/basic_ios.h"
 658              		.file 22 "/usr/include/c++/10/bits/ostream_insert.h"
 659              		.file 23 "/usr/include/c++/10/bits/predefined_ops.h"
 660              		.file 24 "/usr/lib/gcc/aarch64-linux-gnu/10/include/stddef.h"
 661              		.file 25 "/usr/lib/gcc/aarch64-linux-gnu/10/include/stdarg.h"
 662              		.file 26 "/usr/include/aarch64-linux-gnu/bits/types/wint_t.h"
 663              		.file 27 "/usr/include/aarch64-linux-gnu/bits/types/__mbstate_t.h"
 664              		.file 28 "/usr/include/aarch64-linux-gnu/bits/types/mbstate_t.h"
 665              		.file 29 "/usr/include/aarch64-linux-gnu/bits/types/__FILE.h"
 666              		.file 30 "/usr/include/aarch64-linux-gnu/bits/types/struct_FILE.h"
 667              		.file 31 "/usr/include/aarch64-linux-gnu/bits/types/FILE.h"
 668              		.file 32 "/usr/include/wchar.h"
 669              		.file 33 "/usr/include/aarch64-linux-gnu/bits/types/struct_tm.h"
 670              		.file 34 "/usr/include/aarch64-linux-gnu/bits/types.h"
 671              		.file 35 "/usr/include/aarch64-linux-gnu/bits/stdint-intn.h"
 672              		.file 36 "/usr/include/aarch64-linux-gnu/bits/stdint-uintn.h"
 673              		.file 37 "/usr/include/stdint.h"
 674              		.file 38 "/usr/include/locale.h"
 675              		.file 39 "/usr/include/aarch64-linux-gnu/c++/10/bits/atomic_word.h"
 676              		.file 40 "/usr/include/stdlib.h"
 677              		.file 41 "/usr/include/aarch64-linux-gnu/bits/stdlib-float.h"
 678              		.file 42 "/usr/include/aarch64-linux-gnu/bits/stdlib-bsearch.h"
 679              		.file 43 "/usr/include/aarch64-linux-gnu/bits/types/__fpos_t.h"
 680              		.file 44 "/usr/include/stdio.h"
 681              		.file 45 "/usr/include/aarch64-linux-gnu/bits/stdio.h"
 682              		.file 46 "/usr/include/aarch64-linux-gnu/bits/wctype-wchar.h"
 683              		.file 47 "/usr/include/wctype.h"
 684              		.file 48 "<built-in>"
 9704              		.section	.note.GNU-stack,"",@progbits
